	.cpu cortex-m4
	.eabi_attribute 27, 1
	.eabi_attribute 28, 1
	.eabi_attribute 20, 1
	.eabi_attribute 21, 1
	.eabi_attribute 23, 3
	.eabi_attribute 24, 1
	.eabi_attribute 25, 1
	.eabi_attribute 26, 1
	.eabi_attribute 30, 6
	.eabi_attribute 34, 1
	.eabi_attribute 18, 4
	.file	"bmg160.c"
	.text
.Ltext0:
	.section	.bss.p_bmg160,"aw",%nobits
	.align	2
	.type	p_bmg160, %object
	.size	p_bmg160, 4
p_bmg160:
	.space	4
	.section	.text.bmg160_init,"ax",%progbits
	.align	1
	.global	bmg160_init
	.syntax unified
	.thumb
	.thumb_func
	.fpu fpv4-sp-d16
	.type	bmg160_init, %function
bmg160_init:
.LFB0:
	.file 1 "C:\\nRF5_SDK_15.0.0_a53641a\\examples\\ble_peripheral\\slam_applicationLeithe\\drivers\\bmg160.c"
	.loc 1 82 1
	@ args = 0, pretend = 0, frame = 16
	@ frame_needed = 0, uses_anonymous_args = 0
	push	{r4, lr}
.LCFI0:
	sub	sp, sp, #16
.LCFI1:
	str	r0, [sp, #4]
	.loc 1 84 5
	movs	r3, #255
	strb	r3, [sp, #15]
	.loc 1 85 5
	movs	r3, #0
	strb	r3, [sp, #14]
	.loc 1 87 11
	ldr	r2, .L3
	ldr	r3, [sp, #4]
	str	r3, [r2]
	.loc 1 89 19
	ldr	r3, .L3
	ldr	r3, [r3]
	ldr	r4, [r3, #12]
	.loc 1 89 38
	ldr	r3, .L3
	ldr	r3, [r3]
	.loc 1 89 11
	ldrb	r0, [r3, #1]	@ zero_extendqisi2
	add	r2, sp, #14
	movs	r3, #1
	movs	r1, #0
	blx	r4
.LVL0:
	mov	r3, r0
	strb	r3, [sp, #15]
	.loc 1 91 10
	ldr	r3, .L3
	ldr	r3, [r3]
	.loc 1 91 20
	ldrb	r2, [sp, #14]	@ zero_extendqisi2
	strb	r2, [r3]
	.loc 1 92 9
	ldrsb	r3, [sp, #15]
	.loc 1 93 1
	mov	r0, r3
	add	sp, sp, #16
.LCFI2:
	@ sp needed
	pop	{r4, pc}
.L4:
	.align	2
.L3:
	.word	p_bmg160
.LFE0:
	.size	bmg160_init, .-bmg160_init
	.section	.text.bmg160_get_data_X,"ax",%progbits
	.align	1
	.global	bmg160_get_data_X
	.syntax unified
	.thumb
	.thumb_func
	.fpu fpv4-sp-d16
	.type	bmg160_get_data_X, %function
bmg160_get_data_X:
.LFB1:
	.loc 1 109 1
	@ args = 0, pretend = 0, frame = 16
	@ frame_needed = 0, uses_anonymous_args = 0
	push	{r4, lr}
.LCFI3:
	sub	sp, sp, #16
.LCFI4:
	str	r0, [sp, #4]
	.loc 1 111 5
	movs	r3, #0
	strb	r3, [sp, #15]
	.loc 1 116 5
	movs	r3, #0
	strh	r3, [sp, #12]	@ movhi
	.loc 1 119 15
	ldr	r3, .L9
	ldr	r3, [r3]
	.loc 1 119 5
	cmp	r3, #0
	bne	.L6
	.loc 1 120 10
	mvn	r3, #126
	b	.L8
.L6:
	.loc 1 123 20
	ldr	r3, .L9
	ldr	r3, [r3]
	ldr	r4, [r3, #12]
	.loc 1 123 39
	ldr	r3, .L9
	ldr	r3, [r3]
	.loc 1 123 12
	ldrb	r0, [r3, #1]	@ zero_extendqisi2
	add	r2, sp, #12
	movs	r3, #2
	movs	r1, #2
	blx	r4
.LVL1:
	mov	r3, r0
	strb	r3, [sp, #15]
	.loc 1 126 31
	ldrb	r3, [sp, #12]	@ zero_extendqisi2
	.loc 1 126 18
	strb	r3, [sp, #12]
	.loc 1 130 25
	ldrb	r3, [sp, #13]	@ zero_extendqisi2
	.loc 1 130 12
	sxtb	r3, r3
	.loc 1 130 33
	lsls	r3, r3, #8
	.loc 1 129 19
	sxth	r2, r3
	.loc 1 132 15
	ldrb	r3, [sp, #12]	@ zero_extendqisi2
	sxth	r3, r3
	.loc 1 129 19
	orrs	r3, r3, r2
	sxth	r2, r3
	.loc 1 129 17
	ldr	r3, [sp, #4]
	strh	r2, [r3]	@ movhi
	.loc 1 134 9
	ldrsb	r3, [sp, #15]
.L8:
	.loc 1 135 1 discriminator 1
	mov	r0, r3
	add	sp, sp, #16
.LCFI5:
	@ sp needed
	pop	{r4, pc}
.L10:
	.align	2
.L9:
	.word	p_bmg160
.LFE1:
	.size	bmg160_get_data_X, .-bmg160_get_data_X
	.section	.text.bmg160_get_data_Y,"ax",%progbits
	.align	1
	.global	bmg160_get_data_Y
	.syntax unified
	.thumb
	.thumb_func
	.fpu fpv4-sp-d16
	.type	bmg160_get_data_Y, %function
bmg160_get_data_Y:
.LFB2:
	.loc 1 151 1
	@ args = 0, pretend = 0, frame = 16
	@ frame_needed = 0, uses_anonymous_args = 0
	push	{r4, lr}
.LCFI6:
	sub	sp, sp, #16
.LCFI7:
	str	r0, [sp, #4]
	.loc 1 153 5
	movs	r3, #255
	strb	r3, [sp, #15]
	.loc 1 158 5
	movs	r3, #0
	strh	r3, [sp, #12]	@ movhi
	.loc 1 161 15
	ldr	r3, .L15
	ldr	r3, [r3]
	.loc 1 161 5
	cmp	r3, #0
	bne	.L12
	.loc 1 162 10
	mvn	r3, #126
	b	.L14
.L12:
	.loc 1 165 20
	ldr	r3, .L15
	ldr	r3, [r3]
	ldr	r4, [r3, #12]
	.loc 1 165 39
	ldr	r3, .L15
	ldr	r3, [r3]
	.loc 1 165 12
	ldrb	r0, [r3, #1]	@ zero_extendqisi2
	add	r2, sp, #12
	movs	r3, #2
	movs	r1, #4
	blx	r4
.LVL2:
	mov	r3, r0
	strb	r3, [sp, #15]
	.loc 1 170 14
	ldrb	r3, [sp, #12]	@ zero_extendqisi2
	.loc 1 169 18
	strb	r3, [sp, #12]
	.loc 1 173 25
	ldrb	r3, [sp, #13]	@ zero_extendqisi2
	.loc 1 173 12
	sxtb	r3, r3
	.loc 1 174 3
	lsls	r3, r3, #8
	.loc 1 172 19
	sxth	r2, r3
	.loc 1 175 13
	ldrb	r3, [sp, #12]	@ zero_extendqisi2
	sxth	r3, r3
	.loc 1 172 19
	orrs	r3, r3, r2
	sxth	r2, r3
	.loc 1 172 17
	ldr	r3, [sp, #4]
	strh	r2, [r3]	@ movhi
	.loc 1 177 9
	ldrsb	r3, [sp, #15]
.L14:
	.loc 1 178 1 discriminator 1
	mov	r0, r3
	add	sp, sp, #16
.LCFI8:
	@ sp needed
	pop	{r4, pc}
.L16:
	.align	2
.L15:
	.word	p_bmg160
.LFE2:
	.size	bmg160_get_data_Y, .-bmg160_get_data_Y
	.section	.text.bmg160_get_data_Z,"ax",%progbits
	.align	1
	.global	bmg160_get_data_Z
	.syntax unified
	.thumb
	.thumb_func
	.fpu fpv4-sp-d16
	.type	bmg160_get_data_Z, %function
bmg160_get_data_Z:
.LFB3:
	.loc 1 192 1
	@ args = 0, pretend = 0, frame = 16
	@ frame_needed = 0, uses_anonymous_args = 0
	push	{r4, lr}
.LCFI9:
	sub	sp, sp, #16
.LCFI10:
	str	r0, [sp, #4]
	.loc 1 194 5
	movs	r3, #255
	strb	r3, [sp, #15]
	.loc 1 199 5
	movs	r3, #0
	strh	r3, [sp, #12]	@ movhi
	.loc 1 202 15
	ldr	r3, .L21
	ldr	r3, [r3]
	.loc 1 202 5
	cmp	r3, #0
	bne	.L18
	.loc 1 203 10
	mvn	r3, #126
	b	.L20
.L18:
	.loc 1 205 20
	ldr	r3, .L21
	ldr	r3, [r3]
	ldr	r4, [r3, #12]
	.loc 1 205 39
	ldr	r3, .L21
	ldr	r3, [r3]
	.loc 1 205 12
	ldrb	r0, [r3, #1]	@ zero_extendqisi2
	add	r2, sp, #12
	movs	r3, #2
	movs	r1, #6
	blx	r4
.LVL3:
	mov	r3, r0
	strb	r3, [sp, #15]
	.loc 1 209 14
	ldrb	r3, [sp, #12]	@ zero_extendqisi2
	.loc 1 208 18
	strb	r3, [sp, #12]
	.loc 1 212 25
	ldrb	r3, [sp, #13]	@ zero_extendqisi2
	.loc 1 212 12
	sxtb	r3, r3
	.loc 1 213 3
	lsls	r3, r3, #8
	.loc 1 211 19
	sxth	r2, r3
	.loc 1 214 15
	ldrb	r3, [sp, #12]	@ zero_extendqisi2
	sxth	r3, r3
	.loc 1 211 19
	orrs	r3, r3, r2
	sxth	r2, r3
	.loc 1 211 17
	ldr	r3, [sp, #4]
	strh	r2, [r3]	@ movhi
	.loc 1 216 9
	ldrsb	r3, [sp, #15]
.L20:
	.loc 1 217 1 discriminator 1
	mov	r0, r3
	add	sp, sp, #16
.LCFI11:
	@ sp needed
	pop	{r4, pc}
.L22:
	.align	2
.L21:
	.word	p_bmg160
.LFE3:
	.size	bmg160_get_data_Z, .-bmg160_get_data_Z
	.section .rodata
	.align	2
.LC0:
	.ascii	"\000\000\000\000\000\000"
	.section	.text.bmg160_get_data_XYZ,"ax",%progbits
	.align	1
	.global	bmg160_get_data_XYZ
	.syntax unified
	.thumb
	.thumb_func
	.fpu fpv4-sp-d16
	.type	bmg160_get_data_XYZ, %function
bmg160_get_data_XYZ:
.LFB4:
	.loc 1 233 1
	@ args = 0, pretend = 0, frame = 16
	@ frame_needed = 0, uses_anonymous_args = 0
	push	{r4, lr}
.LCFI12:
	sub	sp, sp, #16
.LCFI13:
	str	r0, [sp, #4]
	.loc 1 235 5
	movs	r3, #255
	strb	r3, [sp, #15]
	.loc 1 244 5
	ldr	r2, .L27
	add	r3, sp, #8
	ldm	r2, {r0, r1}
	str	r0, [r3]
	adds	r3, r3, #4
	strh	r1, [r3]	@ movhi
	.loc 1 249 15
	ldr	r3, .L27+4
	ldr	r3, [r3]
	.loc 1 249 5
	cmp	r3, #0
	bne	.L24
	.loc 1 250 10
	mvn	r3, #126
	b	.L26
.L24:
	.loc 1 252 20
	ldr	r3, .L27+4
	ldr	r3, [r3]
	ldr	r4, [r3, #12]
	.loc 1 252 39
	ldr	r3, .L27+4
	ldr	r3, [r3]
	.loc 1 252 12
	ldrb	r0, [r3, #1]	@ zero_extendqisi2
	add	r2, sp, #8
	movs	r3, #6
	movs	r1, #2
	blx	r4
.LVL4:
	mov	r3, r0
	strb	r3, [sp, #15]
	.loc 1 257 14
	ldrb	r3, [sp, #8]	@ zero_extendqisi2
	.loc 1 256 18
	strb	r3, [sp, #8]
	.loc 1 260 25
	ldrb	r3, [sp, #9]	@ zero_extendqisi2
	.loc 1 260 12
	sxtb	r3, r3
	.loc 1 261 3
	lsls	r3, r3, #8
	.loc 1 259 17
	sxth	r2, r3
	.loc 1 262 13
	ldrb	r3, [sp, #8]	@ zero_extendqisi2
	sxth	r3, r3
	.loc 1 259 17
	orrs	r3, r3, r2
	sxth	r2, r3
	.loc 1 259 15
	ldr	r3, [sp, #4]
	strh	r2, [r3]	@ movhi
	.loc 1 265 14
	ldrb	r3, [sp, #10]	@ zero_extendqisi2
	.loc 1 264 18
	strb	r3, [sp, #10]
	.loc 1 268 25
	ldrb	r3, [sp, #11]	@ zero_extendqisi2
	.loc 1 268 12
	sxtb	r3, r3
	.loc 1 269 3
	lsls	r3, r3, #8
	.loc 1 267 17
	sxth	r2, r3
	.loc 1 270 13
	ldrb	r3, [sp, #10]	@ zero_extendqisi2
	sxth	r3, r3
	.loc 1 267 17
	orrs	r3, r3, r2
	sxth	r2, r3
	.loc 1 267 15
	ldr	r3, [sp, #4]
	strh	r2, [r3, #2]	@ movhi
	.loc 1 273 14
	ldrb	r3, [sp, #12]	@ zero_extendqisi2
	.loc 1 272 18
	strb	r3, [sp, #12]
	.loc 1 276 25
	ldrb	r3, [sp, #13]	@ zero_extendqisi2
	.loc 1 276 12
	sxtb	r3, r3
	.loc 1 277 3
	lsls	r3, r3, #8
	.loc 1 275 17
	sxth	r2, r3
	.loc 1 278 13
	ldrb	r3, [sp, #12]	@ zero_extendqisi2
	sxth	r3, r3
	.loc 1 275 17
	orrs	r3, r3, r2
	sxth	r2, r3
	.loc 1 275 15
	ldr	r3, [sp, #4]
	strh	r2, [r3, #4]	@ movhi
	.loc 1 280 9
	ldrsb	r3, [sp, #15]
.L26:
	.loc 1 281 1 discriminator 1
	mov	r0, r3
	add	sp, sp, #16
.LCFI14:
	@ sp needed
	pop	{r4, pc}
.L28:
	.align	2
.L27:
	.word	.LC0
	.word	p_bmg160
.LFE4:
	.size	bmg160_get_data_XYZ, .-bmg160_get_data_XYZ
	.section .rodata
	.align	2
.LC1:
	.ascii	"\000\000\000\000\000\000\000\000\000\000\000\000"
	.section	.text.bmg160_get_data_XYZI,"ax",%progbits
	.align	1
	.global	bmg160_get_data_XYZI
	.syntax unified
	.thumb
	.thumb_func
	.fpu fpv4-sp-d16
	.type	bmg160_get_data_XYZI, %function
bmg160_get_data_XYZI:
.LFB5:
	.loc 1 296 1
	@ args = 0, pretend = 0, frame = 24
	@ frame_needed = 0, uses_anonymous_args = 0
	push	{r4, lr}
.LCFI15:
	sub	sp, sp, #24
.LCFI16:
	str	r0, [sp, #4]
	.loc 1 298 5
	movs	r3, #255
	strb	r3, [sp, #23]
	.loc 1 313 5
	ldr	r2, .L33
	add	r3, sp, #8
	ldm	r2, {r0, r1, r2}
	stm	r3, {r0, r1, r2}
	.loc 1 321 15
	ldr	r3, .L33+4
	ldr	r3, [r3]
	.loc 1 321 5
	cmp	r3, #0
	bne	.L30
	.loc 1 322 10
	mvn	r3, #126
	b	.L32
.L30:
	.loc 1 324 20
	ldr	r3, .L33+4
	ldr	r3, [r3]
	ldr	r4, [r3, #12]
	.loc 1 324 39
	ldr	r3, .L33+4
	ldr	r3, [r3]
	.loc 1 324 12
	ldrb	r0, [r3, #1]	@ zero_extendqisi2
	add	r2, sp, #8
	movs	r3, #12
	movs	r1, #2
	blx	r4
.LVL5:
	mov	r3, r0
	strb	r3, [sp, #23]
	.loc 1 329 14
	ldrb	r3, [sp, #8]	@ zero_extendqisi2
	.loc 1 328 18
	strb	r3, [sp, #8]
	.loc 1 332 25
	ldrb	r3, [sp, #9]	@ zero_extendqisi2
	.loc 1 332 12
	sxtb	r3, r3
	.loc 1 333 3
	lsls	r3, r3, #8
	.loc 1 331 17
	sxth	r2, r3
	.loc 1 334 13
	ldrb	r3, [sp, #8]	@ zero_extendqisi2
	sxth	r3, r3
	.loc 1 331 17
	orrs	r3, r3, r2
	sxth	r2, r3
	.loc 1 331 15
	ldr	r3, [sp, #4]
	strh	r2, [r3]	@ movhi
	.loc 1 337 14
	ldrb	r3, [sp, #10]	@ zero_extendqisi2
	.loc 1 336 18
	strb	r3, [sp, #10]
	.loc 1 340 25
	ldrb	r3, [sp, #11]	@ zero_extendqisi2
	.loc 1 340 12
	sxtb	r3, r3
	.loc 1 341 3
	lsls	r3, r3, #8
	.loc 1 339 17
	sxth	r2, r3
	.loc 1 342 13
	ldrb	r3, [sp, #10]	@ zero_extendqisi2
	sxth	r3, r3
	.loc 1 339 17
	orrs	r3, r3, r2
	sxth	r2, r3
	.loc 1 339 15
	ldr	r3, [sp, #4]
	strh	r2, [r3, #2]	@ movhi
	.loc 1 345 14
	ldrb	r3, [sp, #12]	@ zero_extendqisi2
	.loc 1 344 18
	strb	r3, [sp, #12]
	.loc 1 348 25
	ldrb	r3, [sp, #13]	@ zero_extendqisi2
	.loc 1 348 12
	sxtb	r3, r3
	.loc 1 349 3
	lsls	r3, r3, #8
	.loc 1 347 17
	sxth	r2, r3
	.loc 1 350 13
	ldrb	r3, [sp, #12]	@ zero_extendqisi2
	sxth	r3, r3
	.loc 1 347 17
	orrs	r3, r3, r2
	sxth	r2, r3
	.loc 1 347 15
	ldr	r3, [sp, #4]
	strh	r2, [r3, #4]	@ movhi
	.loc 1 353 12
	ldrb	r2, [sp, #15]	@ zero_extendqisi2
	.loc 1 352 24
	ldr	r3, [sp, #4]
	strb	r2, [r3, #6]
	.loc 1 355 12
	ldrb	r2, [sp, #16]	@ zero_extendqisi2
	.loc 1 354 24
	ldr	r3, [sp, #4]
	strb	r2, [r3, #7]
	.loc 1 357 12
	ldrb	r2, [sp, #17]	@ zero_extendqisi2
	.loc 1 356 24
	ldr	r3, [sp, #4]
	strb	r2, [r3, #8]
	.loc 1 359 12
	ldrb	r2, [sp, #18]	@ zero_extendqisi2
	.loc 1 358 24
	ldr	r3, [sp, #4]
	strb	r2, [r3, #9]
	.loc 1 361 12
	ldrb	r2, [sp, #19]	@ zero_extendqisi2
	.loc 1 360 24
	ldr	r3, [sp, #4]
	strb	r2, [r3, #10]
	.loc 1 363 9
	ldrsb	r3, [sp, #23]
.L32:
	.loc 1 364 1 discriminator 1
	mov	r0, r3
	add	sp, sp, #24
.LCFI17:
	@ sp needed
	pop	{r4, pc}
.L34:
	.align	2
.L33:
	.word	.LC1
	.word	p_bmg160
.LFE5:
	.size	bmg160_get_data_XYZI, .-bmg160_get_data_XYZI
	.section	.text.bmg160_get_temp,"ax",%progbits
	.align	1
	.global	bmg160_get_temp
	.syntax unified
	.thumb
	.thumb_func
	.fpu fpv4-sp-d16
	.type	bmg160_get_temp, %function
bmg160_get_temp:
.LFB6:
	.loc 1 379 1
	@ args = 0, pretend = 0, frame = 16
	@ frame_needed = 0, uses_anonymous_args = 0
	push	{r4, lr}
.LCFI18:
	sub	sp, sp, #16
.LCFI19:
	str	r0, [sp, #4]
	.loc 1 381 5
	movs	r3, #255
	strb	r3, [sp, #15]
	.loc 1 382 5
	movs	r3, #0
	strb	r3, [sp, #14]
	.loc 1 384 15
	ldr	r3, .L39
	ldr	r3, [r3]
	.loc 1 384 5
	cmp	r3, #0
	bne	.L36
	.loc 1 385 10
	mvn	r3, #126
	b	.L38
.L36:
	.loc 1 388 20
	ldr	r3, .L39
	ldr	r3, [r3]
	ldr	r4, [r3, #12]
	.loc 1 388 39
	ldr	r3, .L39
	ldr	r3, [r3]
	.loc 1 388 12
	ldrb	r0, [r3, #1]	@ zero_extendqisi2
	add	r2, sp, #14
	movs	r3, #1
	movs	r1, #8
	blx	r4
.LVL6:
	mov	r3, r0
	strb	r3, [sp, #15]
	.loc 1 391 14
	ldrb	r3, [sp, #14]	@ zero_extendqisi2
	sxtb	r2, r3
	ldr	r3, [sp, #4]
	strb	r2, [r3]
	.loc 1 393 9
	ldrsb	r3, [sp, #15]
.L38:
	.loc 1 394 1 discriminator 1
	mov	r0, r3
	add	sp, sp, #16
.LCFI20:
	@ sp needed
	pop	{r4, pc}
.L40:
	.align	2
.L39:
	.word	p_bmg160
.LFE6:
	.size	bmg160_get_temp, .-bmg160_get_temp
	.section	.text.bmg160_read_register,"ax",%progbits
	.align	1
	.global	bmg160_read_register
	.syntax unified
	.thumb
	.thumb_func
	.fpu fpv4-sp-d16
	.type	bmg160_read_register, %function
bmg160_read_register:
.LFB7:
	.loc 1 414 1
	@ args = 0, pretend = 0, frame = 16
	@ frame_needed = 0, uses_anonymous_args = 0
	push	{r4, lr}
.LCFI21:
	sub	sp, sp, #16
.LCFI22:
	mov	r3, r0
	str	r1, [sp]
	strb	r3, [sp, #7]
	mov	r3, r2
	strb	r3, [sp, #6]
	.loc 1 416 5
	movs	r3, #255
	strb	r3, [sp, #15]
	.loc 1 418 15
	ldr	r3, .L44
	ldr	r3, [r3]
	.loc 1 418 5
	cmp	r3, #0
	bne	.L42
	.loc 1 419 10
	mvn	r3, #126
	b	.L43
.L42:
	.loc 1 421 20
	ldr	r3, .L44
	ldr	r3, [r3]
	ldr	r4, [r3, #12]
	.loc 1 421 39
	ldr	r3, .L44
	ldr	r3, [r3]
	.loc 1 421 12
	ldrb	r0, [r3, #1]	@ zero_extendqisi2
	ldrb	r3, [sp, #6]	@ zero_extendqisi2
	ldrb	r1, [sp, #7]	@ zero_extendqisi2
	ldr	r2, [sp]
	blx	r4
.LVL7:
	mov	r3, r0
	strb	r3, [sp, #15]
	.loc 1 424 9
	ldrsb	r3, [sp, #15]
.L43:
	.loc 1 425 1
	mov	r0, r3
	add	sp, sp, #16
.LCFI23:
	@ sp needed
	pop	{r4, pc}
.L45:
	.align	2
.L44:
	.word	p_bmg160
.LFE7:
	.size	bmg160_read_register, .-bmg160_read_register
	.section	.text.bmg160_burst_read,"ax",%progbits
	.align	1
	.global	bmg160_burst_read
	.syntax unified
	.thumb
	.thumb_func
	.fpu fpv4-sp-d16
	.type	bmg160_burst_read, %function
bmg160_burst_read:
.LFB8:
	.loc 1 445 1
	@ args = 0, pretend = 0, frame = 24
	@ frame_needed = 0, uses_anonymous_args = 0
	push	{r4, lr}
.LCFI24:
	sub	sp, sp, #24
.LCFI25:
	mov	r3, r0
	str	r1, [sp, #8]
	str	r2, [sp, #4]
	strb	r3, [sp, #15]
	.loc 1 447 5
	movs	r3, #255
	strb	r3, [sp, #23]
	.loc 1 449 15
	ldr	r3, .L49
	ldr	r3, [r3]
	.loc 1 449 5
	cmp	r3, #0
	bne	.L47
	.loc 1 450 10
	mvn	r3, #126
	b	.L48
.L47:
	.loc 1 452 20
	ldr	r3, .L49
	ldr	r3, [r3]
	ldr	r4, [r3, #4]
	.loc 1 452 41
	ldr	r3, .L49
	ldr	r3, [r3]
	.loc 1 452 12
	ldrb	r0, [r3, #1]	@ zero_extendqisi2
	ldr	r3, [sp, #4]
	ldrb	r1, [sp, #15]	@ zero_extendqisi2
	ldr	r2, [sp, #8]
	blx	r4
.LVL8:
	mov	r3, r0
	strb	r3, [sp, #23]
	.loc 1 455 9
	ldrsb	r3, [sp, #23]
.L48:
	.loc 1 456 1
	mov	r0, r3
	add	sp, sp, #24
.LCFI26:
	@ sp needed
	pop	{r4, pc}
.L50:
	.align	2
.L49:
	.word	p_bmg160
.LFE8:
	.size	bmg160_burst_read, .-bmg160_burst_read
	.section	.text.bmg160_write_register,"ax",%progbits
	.align	1
	.global	bmg160_write_register
	.syntax unified
	.thumb
	.thumb_func
	.fpu fpv4-sp-d16
	.type	bmg160_write_register, %function
bmg160_write_register:
.LFB9:
	.loc 1 476 1
	@ args = 0, pretend = 0, frame = 16
	@ frame_needed = 0, uses_anonymous_args = 0
	push	{r4, lr}
.LCFI27:
	sub	sp, sp, #16
.LCFI28:
	mov	r3, r0
	str	r1, [sp]
	strb	r3, [sp, #7]
	mov	r3, r2
	strb	r3, [sp, #6]
	.loc 1 478 5
	movs	r3, #255
	strb	r3, [sp, #15]
	.loc 1 480 15
	ldr	r3, .L54
	ldr	r3, [r3]
	.loc 1 480 5
	cmp	r3, #0
	bne	.L52
	.loc 1 481 10
	mvn	r3, #126
	b	.L53
.L52:
	.loc 1 483 20
	ldr	r3, .L54
	ldr	r3, [r3]
	ldr	r4, [r3, #8]
	.loc 1 483 40
	ldr	r3, .L54
	ldr	r3, [r3]
	.loc 1 483 12
	ldrb	r0, [r3, #1]	@ zero_extendqisi2
	ldrb	r3, [sp, #6]	@ zero_extendqisi2
	ldrb	r1, [sp, #7]	@ zero_extendqisi2
	ldr	r2, [sp]
	blx	r4
.LVL9:
	mov	r3, r0
	strb	r3, [sp, #15]
	.loc 1 486 9
	ldrsb	r3, [sp, #15]
.L53:
	.loc 1 487 1
	mov	r0, r3
	add	sp, sp, #16
.LCFI29:
	@ sp needed
	pop	{r4, pc}
.L55:
	.align	2
.L54:
	.word	p_bmg160
.LFE9:
	.size	bmg160_write_register, .-bmg160_write_register
	.section	.text.bmg160_get_intr_stat_reg_zero,"ax",%progbits
	.align	1
	.global	bmg160_get_intr_stat_reg_zero
	.syntax unified
	.thumb
	.thumb_func
	.fpu fpv4-sp-d16
	.type	bmg160_get_intr_stat_reg_zero, %function
bmg160_get_intr_stat_reg_zero:
.LFB10:
	.loc 1 507 1
	@ args = 0, pretend = 0, frame = 16
	@ frame_needed = 0, uses_anonymous_args = 0
	push	{r4, lr}
.LCFI30:
	sub	sp, sp, #16
.LCFI31:
	str	r0, [sp, #4]
	.loc 1 509 5
	movs	r3, #255
	strb	r3, [sp, #15]
	.loc 1 510 5
	movs	r3, #0
	strb	r3, [sp, #14]
	.loc 1 512 15
	ldr	r3, .L60
	ldr	r3, [r3]
	.loc 1 512 5
	cmp	r3, #0
	bne	.L57
	.loc 1 513 10
	mvn	r3, #126
	b	.L59
.L57:
	.loc 1 516 20
	ldr	r3, .L60
	ldr	r3, [r3]
	ldr	r4, [r3, #12]
	.loc 1 516 39
	ldr	r3, .L60
	ldr	r3, [r3]
	.loc 1 516 12
	ldrb	r0, [r3, #1]	@ zero_extendqisi2
	add	r2, sp, #14
	movs	r3, #1
	movs	r1, #9
	blx	r4
.LVL10:
	mov	r3, r0
	strb	r3, [sp, #15]
	.loc 1 521 25
	ldrb	r3, [sp, #14]	@ zero_extendqisi2
	asrs	r3, r3, #1
	uxtb	r3, r3
	and	r3, r3, #3
	uxtb	r2, r3
	.loc 1 520 20
	ldr	r3, [sp, #4]
	strb	r2, [r3]
	.loc 1 523 9
	ldrsb	r3, [sp, #15]
.L59:
	.loc 1 524 1 discriminator 1
	mov	r0, r3
	add	sp, sp, #16
.LCFI32:
	@ sp needed
	pop	{r4, pc}
.L61:
	.align	2
.L60:
	.word	p_bmg160
.LFE10:
	.size	bmg160_get_intr_stat_reg_zero, .-bmg160_get_intr_stat_reg_zero
	.section	.text.bmg160_get_intr_stat_reg_one,"ax",%progbits
	.align	1
	.global	bmg160_get_intr_stat_reg_one
	.syntax unified
	.thumb
	.thumb_func
	.fpu fpv4-sp-d16
	.type	bmg160_get_intr_stat_reg_one, %function
bmg160_get_intr_stat_reg_one:
.LFB11:
	.loc 1 547 1
	@ args = 0, pretend = 0, frame = 16
	@ frame_needed = 0, uses_anonymous_args = 0
	push	{r4, lr}
.LCFI33:
	sub	sp, sp, #16
.LCFI34:
	str	r0, [sp, #4]
	.loc 1 549 5
	movs	r3, #255
	strb	r3, [sp, #15]
	.loc 1 550 5
	movs	r3, #0
	strb	r3, [sp, #14]
	.loc 1 552 15
	ldr	r3, .L66
	ldr	r3, [r3]
	.loc 1 552 5
	cmp	r3, #0
	bne	.L63
	.loc 1 553 10
	mvn	r3, #126
	b	.L65
.L63:
	.loc 1 556 20
	ldr	r3, .L66
	ldr	r3, [r3]
	ldr	r4, [r3, #12]
	.loc 1 556 39
	ldr	r3, .L66
	ldr	r3, [r3]
	.loc 1 556 12
	ldrb	r0, [r3, #1]	@ zero_extendqisi2
	add	r2, sp, #14
	movs	r3, #1
	movs	r1, #10
	blx	r4
.LVL11:
	mov	r3, r0
	strb	r3, [sp, #15]
	.loc 1 560 25
	ldrb	r3, [sp, #14]	@ zero_extendqisi2
	lsrs	r3, r3, #4
	uxtb	r2, r3
	.loc 1 559 20
	ldr	r3, [sp, #4]
	strb	r2, [r3]
	.loc 1 562 9
	ldrsb	r3, [sp, #15]
.L65:
	.loc 1 563 1 discriminator 1
	mov	r0, r3
	add	sp, sp, #16
.LCFI35:
	@ sp needed
	pop	{r4, pc}
.L67:
	.align	2
.L66:
	.word	p_bmg160
.LFE11:
	.size	bmg160_get_intr_stat_reg_one, .-bmg160_get_intr_stat_reg_one
	.section	.text.bmg160_get_intr_stat_reg_two,"ax",%progbits
	.align	1
	.global	bmg160_get_intr_stat_reg_two
	.syntax unified
	.thumb
	.thumb_func
	.fpu fpv4-sp-d16
	.type	bmg160_get_intr_stat_reg_two, %function
bmg160_get_intr_stat_reg_two:
.LFB12:
	.loc 1 588 1
	@ args = 0, pretend = 0, frame = 16
	@ frame_needed = 0, uses_anonymous_args = 0
	push	{r4, lr}
.LCFI36:
	sub	sp, sp, #16
.LCFI37:
	str	r0, [sp, #4]
	.loc 1 590 5
	movs	r3, #255
	strb	r3, [sp, #15]
	.loc 1 591 5
	movs	r3, #0
	strb	r3, [sp, #14]
	.loc 1 593 15
	ldr	r3, .L72
	ldr	r3, [r3]
	.loc 1 593 5
	cmp	r3, #0
	bne	.L69
	.loc 1 594 10
	mvn	r3, #126
	b	.L71
.L69:
	.loc 1 597 20
	ldr	r3, .L72
	ldr	r3, [r3]
	ldr	r4, [r3, #12]
	.loc 1 597 39
	ldr	r3, .L72
	ldr	r3, [r3]
	.loc 1 597 12
	ldrb	r0, [r3, #1]	@ zero_extendqisi2
	add	r2, sp, #14
	movs	r3, #1
	movs	r1, #11
	blx	r4
.LVL12:
	mov	r3, r0
	strb	r3, [sp, #15]
	.loc 1 602 25
	ldrb	r3, [sp, #14]	@ zero_extendqisi2
	and	r3, r3, #15
	uxtb	r2, r3
	.loc 1 601 20
	ldr	r3, [sp, #4]
	strb	r2, [r3]
	.loc 1 604 9
	ldrsb	r3, [sp, #15]
.L71:
	.loc 1 605 1 discriminator 1
	mov	r0, r3
	add	sp, sp, #16
.LCFI38:
	@ sp needed
	pop	{r4, pc}
.L73:
	.align	2
.L72:
	.word	p_bmg160
.LFE12:
	.size	bmg160_get_intr_stat_reg_two, .-bmg160_get_intr_stat_reg_two
	.section	.text.bmg160_get_intr_stat_reg_three,"ax",%progbits
	.align	1
	.global	bmg160_get_intr_stat_reg_three
	.syntax unified
	.thumb
	.thumb_func
	.fpu fpv4-sp-d16
	.type	bmg160_get_intr_stat_reg_three, %function
bmg160_get_intr_stat_reg_three:
.LFB13:
	.loc 1 631 1
	@ args = 0, pretend = 0, frame = 16
	@ frame_needed = 0, uses_anonymous_args = 0
	push	{r4, lr}
.LCFI39:
	sub	sp, sp, #16
.LCFI40:
	str	r0, [sp, #4]
	.loc 1 633 5
	movs	r3, #255
	strb	r3, [sp, #15]
	.loc 1 634 5
	movs	r3, #0
	strb	r3, [sp, #14]
	.loc 1 636 15
	ldr	r3, .L78
	ldr	r3, [r3]
	.loc 1 636 5
	cmp	r3, #0
	bne	.L75
	.loc 1 637 10
	mvn	r3, #126
	b	.L77
.L75:
	.loc 1 640 20
	ldr	r3, .L78
	ldr	r3, [r3]
	ldr	r4, [r3, #12]
	.loc 1 640 39
	ldr	r3, .L78
	ldr	r3, [r3]
	.loc 1 640 12
	ldrb	r0, [r3, #1]	@ zero_extendqisi2
	add	r2, sp, #14
	movs	r3, #1
	movs	r1, #12
	blx	r4
.LVL13:
	mov	r3, r0
	strb	r3, [sp, #15]
	.loc 1 645 25
	ldrb	r3, [sp, #14]	@ zero_extendqisi2
	and	r3, r3, #15
	uxtb	r2, r3
	.loc 1 644 20
	ldr	r3, [sp, #4]
	strb	r2, [r3]
	.loc 1 647 9
	ldrsb	r3, [sp, #15]
.L77:
	.loc 1 648 1 discriminator 1
	mov	r0, r3
	add	sp, sp, #16
.LCFI41:
	@ sp needed
	pop	{r4, pc}
.L79:
	.align	2
.L78:
	.word	p_bmg160
.LFE13:
	.size	bmg160_get_intr_stat_reg_three, .-bmg160_get_intr_stat_reg_three
	.section	.text.bmg160_get_range_reg,"ax",%progbits
	.align	1
	.global	bmg160_get_range_reg
	.syntax unified
	.thumb
	.thumb_func
	.fpu fpv4-sp-d16
	.type	bmg160_get_range_reg, %function
bmg160_get_range_reg:
.LFB14:
	.loc 1 673 1
	@ args = 0, pretend = 0, frame = 16
	@ frame_needed = 0, uses_anonymous_args = 0
	push	{r4, lr}
.LCFI42:
	sub	sp, sp, #16
.LCFI43:
	str	r0, [sp, #4]
	.loc 1 675 5
	movs	r3, #255
	strb	r3, [sp, #15]
	.loc 1 676 5
	movs	r3, #0
	strb	r3, [sp, #14]
	.loc 1 678 15
	ldr	r3, .L84
	ldr	r3, [r3]
	.loc 1 678 5
	cmp	r3, #0
	bne	.L81
	.loc 1 679 10
	mvn	r3, #126
	b	.L83
.L81:
	.loc 1 682 20
	ldr	r3, .L84
	ldr	r3, [r3]
	ldr	r4, [r3, #12]
	.loc 1 682 39
	ldr	r3, .L84
	ldr	r3, [r3]
	.loc 1 682 12
	ldrb	r0, [r3, #1]	@ zero_extendqisi2
	add	r2, sp, #14
	movs	r3, #1
	movs	r1, #15
	blx	r4
.LVL14:
	mov	r3, r0
	strb	r3, [sp, #15]
	.loc 1 687 25
	ldrb	r3, [sp, #14]	@ zero_extendqisi2
	and	r3, r3, #7
	uxtb	r2, r3
	.loc 1 686 15
	ldr	r3, [sp, #4]
	strb	r2, [r3]
	.loc 1 689 9
	ldrsb	r3, [sp, #15]
.L83:
	.loc 1 690 1 discriminator 1
	mov	r0, r3
	add	sp, sp, #16
.LCFI44:
	@ sp needed
	pop	{r4, pc}
.L85:
	.align	2
.L84:
	.word	p_bmg160
.LFE14:
	.size	bmg160_get_range_reg, .-bmg160_get_range_reg
	.section	.text.bmg160_set_range_reg,"ax",%progbits
	.align	1
	.global	bmg160_set_range_reg
	.syntax unified
	.thumb
	.thumb_func
	.fpu fpv4-sp-d16
	.type	bmg160_set_range_reg, %function
bmg160_set_range_reg:
.LFB15:
	.loc 1 715 1
	@ args = 0, pretend = 0, frame = 16
	@ frame_needed = 0, uses_anonymous_args = 0
	push	{r4, lr}
.LCFI45:
	sub	sp, sp, #16
.LCFI46:
	mov	r3, r0
	strb	r3, [sp, #7]
	.loc 1 717 5
	movs	r3, #255
	strb	r3, [sp, #15]
	.loc 1 718 5
	movs	r3, #0
	strb	r3, [sp, #14]
	.loc 1 720 15
	ldr	r3, .L92
	ldr	r3, [r3]
	.loc 1 720 5
	cmp	r3, #0
	bne	.L87
	.loc 1 721 10
	mvn	r3, #126
	b	.L91
.L87:
	.loc 1 723 6
	ldrb	r3, [sp, #7]	@ zero_extendqisi2
	cmp	r3, #4
	bhi	.L89
	.loc 1 725 21
	ldr	r3, .L92
	ldr	r3, [r3]
	ldr	r4, [r3, #12]
	.loc 1 725 40
	ldr	r3, .L92
	ldr	r3, [r3]
	.loc 1 725 13
	ldrb	r0, [r3, #1]	@ zero_extendqisi2
	add	r2, sp, #14
	movs	r3, #1
	movs	r1, #15
	blx	r4
.LVL15:
	mov	r3, r0
	strb	r3, [sp, #15]
	.loc 1 729 27
	ldrb	r3, [sp, #14]	@ zero_extendqisi2
	sxtb	r3, r3
	bic	r3, r3, #7
	sxtb	r2, r3
	.loc 1 729 55
	ldrsb	r3, [sp, #7]
	and	r3, r3, #7
	sxtb	r3, r3
	.loc 1 729 36
	orrs	r3, r3, r2
	sxtb	r3, r3
	uxtb	r3, r3
	.loc 1 729 14
	strb	r3, [sp, #14]
	.loc 1 732 22
	ldr	r3, .L92
	ldr	r3, [r3]
	ldr	r4, [r3, #8]
	.loc 1 732 42
	ldr	r3, .L92
	ldr	r3, [r3]
	.loc 1 732 14
	ldrb	r0, [r3, #1]	@ zero_extendqisi2
	add	r2, sp, #14
	movs	r3, #1
	movs	r1, #15
	blx	r4
.LVL16:
	mov	r3, r0
	uxtb	r2, r3
	.loc 1 732 11
	ldrb	r3, [sp, #15]	@ zero_extendqisi2
	add	r3, r3, r2
	uxtb	r3, r3
	strb	r3, [sp, #15]
	b	.L90
.L89:
	.loc 1 737 11
	movs	r3, #254
	strb	r3, [sp, #15]
.L90:
	.loc 1 740 9
	ldrsb	r3, [sp, #15]
.L91:
	.loc 1 741 1 discriminator 1
	mov	r0, r3
	add	sp, sp, #16
.LCFI47:
	@ sp needed
	pop	{r4, pc}
.L93:
	.align	2
.L92:
	.word	p_bmg160
.LFE15:
	.size	bmg160_set_range_reg, .-bmg160_set_range_reg
	.section	.text.bmg160_get_bw,"ax",%progbits
	.align	1
	.global	bmg160_get_bw
	.syntax unified
	.thumb
	.thumb_func
	.fpu fpv4-sp-d16
	.type	bmg160_get_bw, %function
bmg160_get_bw:
.LFB16:
	.loc 1 770 1
	@ args = 0, pretend = 0, frame = 16
	@ frame_needed = 0, uses_anonymous_args = 0
	push	{r4, lr}
.LCFI48:
	sub	sp, sp, #16
.LCFI49:
	str	r0, [sp, #4]
	.loc 1 772 5
	movs	r3, #255
	strb	r3, [sp, #15]
	.loc 1 773 5
	movs	r3, #0
	strb	r3, [sp, #14]
	.loc 1 775 15
	ldr	r3, .L98
	ldr	r3, [r3]
	.loc 1 775 5
	cmp	r3, #0
	bne	.L95
	.loc 1 776 10
	mvn	r3, #126
	b	.L97
.L95:
	.loc 1 779 20
	ldr	r3, .L98
	ldr	r3, [r3]
	ldr	r4, [r3, #12]
	.loc 1 779 39
	ldr	r3, .L98
	ldr	r3, [r3]
	.loc 1 779 12
	ldrb	r0, [r3, #1]	@ zero_extendqisi2
	add	r2, sp, #14
	movs	r3, #1
	movs	r1, #16
	blx	r4
.LVL17:
	mov	r3, r0
	strb	r3, [sp, #15]
	.loc 1 782 36
	ldrb	r3, [sp, #14]	@ zero_extendqisi2
	and	r3, r3, #7
	uxtb	r2, r3
	.loc 1 782 12
	ldr	r3, [sp, #4]
	strb	r2, [r3]
	.loc 1 785 9
	ldrsb	r3, [sp, #15]
.L97:
	.loc 1 786 1 discriminator 1
	mov	r0, r3
	add	sp, sp, #16
.LCFI50:
	@ sp needed
	pop	{r4, pc}
.L99:
	.align	2
.L98:
	.word	p_bmg160
.LFE16:
	.size	bmg160_get_bw, .-bmg160_get_bw
	.section	.text.bmg160_set_bw,"ax",%progbits
	.align	1
	.global	bmg160_set_bw
	.syntax unified
	.thumb
	.thumb_func
	.fpu fpv4-sp-d16
	.type	bmg160_set_bw, %function
bmg160_set_bw:
.LFB17:
	.loc 1 815 1
	@ args = 0, pretend = 0, frame = 16
	@ frame_needed = 0, uses_anonymous_args = 0
	push	{r4, lr}
.LCFI51:
	sub	sp, sp, #16
.LCFI52:
	mov	r3, r0
	strb	r3, [sp, #7]
	.loc 1 817 5
	movs	r3, #255
	strb	r3, [sp, #15]
	.loc 1 818 5
	movs	r3, #0
	strb	r3, [sp, #14]
	.loc 1 819 5
	movs	r3, #0
	strb	r3, [sp, #13]
	.loc 1 820 5
	movs	r3, #0
	strb	r3, [sp, #12]
	.loc 1 822 15
	ldr	r3, .L107
	ldr	r3, [r3]
	.loc 1 822 5
	cmp	r3, #0
	bne	.L101
	.loc 1 823 10
	mvn	r3, #126
	b	.L106
.L101:
	.loc 1 825 6
	ldrb	r3, [sp, #7]	@ zero_extendqisi2
	cmp	r3, #7
	bhi	.L103
	.loc 1 826 13
	add	r3, sp, #13
	mov	r0, r3
	bl	bmg160_get_power_mode
	mov	r3, r0
	strb	r3, [sp, #15]
	.loc 1 827 19
	ldrb	r3, [sp, #13]	@ zero_extendqisi2
	.loc 1 827 7
	cmp	r3, #4
	bne	.L104
	.loc 1 829 14
	add	r3, sp, #12
	mov	r0, r3
	bl	bmg160_get_auto_sleep_durn
	mov	r3, r0
	strb	r3, [sp, #15]
	.loc 1 831 14
	ldrb	r3, [sp, #12]	@ zero_extendqisi2
	ldrb	r2, [sp, #7]	@ zero_extendqisi2
	mov	r1, r2
	mov	r0, r3
	bl	bmg160_set_auto_sleep_durn
	mov	r3, r0
	strb	r3, [sp, #15]
.L104:
	.loc 1 836 22
	ldr	r3, .L107
	ldr	r3, [r3]
	ldr	r4, [r3, #12]
	.loc 1 836 41
	ldr	r3, .L107
	ldr	r3, [r3]
	.loc 1 836 14
	ldrb	r0, [r3, #1]	@ zero_extendqisi2
	add	r2, sp, #14
	movs	r3, #1
	movs	r1, #16
	blx	r4
.LVL18:
	mov	r3, r0
	strb	r3, [sp, #15]
	.loc 1 840 28
	ldrb	r3, [sp, #14]	@ zero_extendqisi2
	sxtb	r3, r3
	bic	r3, r3, #7
	sxtb	r2, r3
	.loc 1 840 53
	ldrsb	r3, [sp, #7]
	and	r3, r3, #7
	sxtb	r3, r3
	.loc 1 840 37
	orrs	r3, r3, r2
	sxtb	r3, r3
	uxtb	r3, r3
	.loc 1 840 15
	strb	r3, [sp, #14]
	.loc 1 842 23
	ldr	r3, .L107
	ldr	r3, [r3]
	ldr	r4, [r3, #8]
	.loc 1 842 43
	ldr	r3, .L107
	ldr	r3, [r3]
	.loc 1 842 15
	ldrb	r0, [r3, #1]	@ zero_extendqisi2
	add	r2, sp, #14
	movs	r3, #1
	movs	r1, #16
	blx	r4
.LVL19:
	mov	r3, r0
	uxtb	r2, r3
	.loc 1 842 12
	ldrb	r3, [sp, #15]	@ zero_extendqisi2
	add	r3, r3, r2
	uxtb	r3, r3
	strb	r3, [sp, #15]
	b	.L105
.L103:
	.loc 1 847 11
	movs	r3, #254
	strb	r3, [sp, #15]
.L105:
	.loc 1 850 9
	ldrsb	r3, [sp, #15]
.L106:
	.loc 1 851 1 discriminator 1
	mov	r0, r3
	add	sp, sp, #16
.LCFI53:
	@ sp needed
	pop	{r4, pc}
.L108:
	.align	2
.L107:
	.word	p_bmg160
.LFE17:
	.size	bmg160_set_bw, .-bmg160_set_bw
	.section	.text.bmg160_get_pmu_ext_tri_select,"ax",%progbits
	.align	1
	.global	bmg160_get_pmu_ext_tri_select
	.syntax unified
	.thumb
	.thumb_func
	.fpu fpv4-sp-d16
	.type	bmg160_get_pmu_ext_tri_select, %function
bmg160_get_pmu_ext_tri_select:
.LFB18:
	.loc 1 876 1
	@ args = 0, pretend = 0, frame = 16
	@ frame_needed = 0, uses_anonymous_args = 0
	push	{r4, lr}
.LCFI54:
	sub	sp, sp, #16
.LCFI55:
	str	r0, [sp, #4]
	.loc 1 878 5
	movs	r3, #255
	strb	r3, [sp, #15]
	.loc 1 879 5
	movs	r3, #0
	strb	r3, [sp, #14]
	.loc 1 881 15
	ldr	r3, .L113
	ldr	r3, [r3]
	.loc 1 881 5
	cmp	r3, #0
	bne	.L110
	.loc 1 882 10
	mvn	r3, #126
	b	.L112
.L110:
	.loc 1 885 20
	ldr	r3, .L113
	ldr	r3, [r3]
	ldr	r4, [r3, #12]
	.loc 1 885 39
	ldr	r3, .L113
	ldr	r3, [r3]
	.loc 1 885 12
	ldrb	r0, [r3, #1]	@ zero_extendqisi2
	add	r2, sp, #14
	movs	r3, #1
	movs	r1, #18
	blx	r4
.LVL20:
	mov	r3, r0
	strb	r3, [sp, #15]
	.loc 1 888 52
	ldrb	r3, [sp, #14]	@ zero_extendqisi2
	asrs	r3, r3, #4
	uxtb	r3, r3
	and	r3, r3, #3
	uxtb	r2, r3
	.loc 1 888 28
	ldr	r3, [sp, #4]
	strb	r2, [r3]
	.loc 1 891 9
	ldrsb	r3, [sp, #15]
.L112:
	.loc 1 892 1 discriminator 1
	mov	r0, r3
	add	sp, sp, #16
.LCFI56:
	@ sp needed
	pop	{r4, pc}
.L114:
	.align	2
.L113:
	.word	p_bmg160
.LFE18:
	.size	bmg160_get_pmu_ext_tri_select, .-bmg160_get_pmu_ext_tri_select
	.section	.text.bmg160_set_pmu_ext_tri_select,"ax",%progbits
	.align	1
	.global	bmg160_set_pmu_ext_tri_select
	.syntax unified
	.thumb
	.thumb_func
	.fpu fpv4-sp-d16
	.type	bmg160_set_pmu_ext_tri_select, %function
bmg160_set_pmu_ext_tri_select:
.LFB19:
	.loc 1 917 1
	@ args = 0, pretend = 0, frame = 16
	@ frame_needed = 0, uses_anonymous_args = 0
	push	{r4, lr}
.LCFI57:
	sub	sp, sp, #16
.LCFI58:
	mov	r3, r0
	strb	r3, [sp, #7]
	.loc 1 919 5
	movs	r3, #255
	strb	r3, [sp, #15]
	.loc 1 920 5
	movs	r3, #0
	strb	r3, [sp, #14]
	.loc 1 922 15
	ldr	r3, .L119
	ldr	r3, [r3]
	.loc 1 922 5
	cmp	r3, #0
	bne	.L116
	.loc 1 923 10
	mvn	r3, #126
	b	.L118
.L116:
	.loc 1 926 20
	ldr	r3, .L119
	ldr	r3, [r3]
	ldr	r4, [r3, #12]
	.loc 1 926 39
	ldr	r3, .L119
	ldr	r3, [r3]
	.loc 1 926 12
	ldrb	r0, [r3, #1]	@ zero_extendqisi2
	add	r2, sp, #14
	movs	r3, #1
	movs	r1, #18
	blx	r4
.LVL21:
	mov	r3, r0
	strb	r3, [sp, #15]
	.loc 1 929 26
	ldrb	r3, [sp, #14]	@ zero_extendqisi2
	sxtb	r3, r3
	bic	r3, r3, #48
	sxtb	r2, r3
	.loc 1 929 61
	ldrb	r3, [sp, #7]	@ zero_extendqisi2
	lsls	r3, r3, #4
	.loc 1 929 67
	sxtb	r3, r3
	and	r3, r3, #48
	sxtb	r3, r3
	.loc 1 929 35
	orrs	r3, r3, r2
	sxtb	r3, r3
	uxtb	r3, r3
	.loc 1 929 13
	strb	r3, [sp, #14]
	.loc 1 931 21
	ldr	r3, .L119
	ldr	r3, [r3]
	ldr	r4, [r3, #8]
	.loc 1 931 41
	ldr	r3, .L119
	ldr	r3, [r3]
	.loc 1 931 13
	ldrb	r0, [r3, #1]	@ zero_extendqisi2
	add	r2, sp, #14
	movs	r3, #1
	movs	r1, #18
	blx	r4
.LVL22:
	mov	r3, r0
	uxtb	r2, r3
	.loc 1 931 10
	ldrb	r3, [sp, #15]	@ zero_extendqisi2
	add	r3, r3, r2
	uxtb	r3, r3
	strb	r3, [sp, #15]
	.loc 1 935 9
	ldrsb	r3, [sp, #15]
.L118:
	.loc 1 936 1 discriminator 1
	mov	r0, r3
	add	sp, sp, #16
.LCFI59:
	@ sp needed
	pop	{r4, pc}
.L120:
	.align	2
.L119:
	.word	p_bmg160
.LFE19:
	.size	bmg160_set_pmu_ext_tri_select, .-bmg160_set_pmu_ext_tri_select
	.section	.text.bmg160_get_high_bw,"ax",%progbits
	.align	1
	.global	bmg160_get_high_bw
	.syntax unified
	.thumb
	.thumb_func
	.fpu fpv4-sp-d16
	.type	bmg160_get_high_bw, %function
bmg160_get_high_bw:
.LFB20:
	.loc 1 958 1
	@ args = 0, pretend = 0, frame = 16
	@ frame_needed = 0, uses_anonymous_args = 0
	push	{r4, lr}
.LCFI60:
	sub	sp, sp, #16
.LCFI61:
	str	r0, [sp, #4]
	.loc 1 960 5
	movs	r3, #255
	strb	r3, [sp, #15]
	.loc 1 961 5
	movs	r3, #0
	strb	r3, [sp, #14]
	.loc 1 963 15
	ldr	r3, .L125
	ldr	r3, [r3]
	.loc 1 963 5
	cmp	r3, #0
	bne	.L122
	.loc 1 964 10
	mvn	r3, #126
	b	.L124
.L122:
	.loc 1 967 20
	ldr	r3, .L125
	ldr	r3, [r3]
	ldr	r4, [r3, #12]
	.loc 1 967 39
	ldr	r3, .L125
	ldr	r3, [r3]
	.loc 1 967 12
	ldrb	r0, [r3, #1]	@ zero_extendqisi2
	add	r2, sp, #14
	movs	r3, #1
	movs	r1, #19
	blx	r4
.LVL23:
	mov	r3, r0
	strb	r3, [sp, #15]
	.loc 1 970 41
	ldrb	r3, [sp, #14]	@ zero_extendqisi2
	lsrs	r3, r3, #7
	uxtb	r2, r3
	.loc 1 970 17
	ldr	r3, [sp, #4]
	strb	r2, [r3]
	.loc 1 973 9
	ldrsb	r3, [sp, #15]
.L124:
	.loc 1 974 1 discriminator 1
	mov	r0, r3
	add	sp, sp, #16
.LCFI62:
	@ sp needed
	pop	{r4, pc}
.L126:
	.align	2
.L125:
	.word	p_bmg160
.LFE20:
	.size	bmg160_get_high_bw, .-bmg160_get_high_bw
	.section	.text.bmg160_set_high_bw,"ax",%progbits
	.align	1
	.global	bmg160_set_high_bw
	.syntax unified
	.thumb
	.thumb_func
	.fpu fpv4-sp-d16
	.type	bmg160_set_high_bw, %function
bmg160_set_high_bw:
.LFB21:
	.loc 1 996 1
	@ args = 0, pretend = 0, frame = 16
	@ frame_needed = 0, uses_anonymous_args = 0
	push	{r4, lr}
.LCFI63:
	sub	sp, sp, #16
.LCFI64:
	mov	r3, r0
	strb	r3, [sp, #7]
	.loc 1 998 5
	movs	r3, #255
	strb	r3, [sp, #15]
	.loc 1 999 5
	movs	r3, #0
	strb	r3, [sp, #14]
	.loc 1 1001 15
	ldr	r3, .L133
	ldr	r3, [r3]
	.loc 1 1001 5
	cmp	r3, #0
	bne	.L128
	.loc 1 1002 10
	mvn	r3, #126
	b	.L132
.L128:
	.loc 1 1004 6
	ldrb	r3, [sp, #7]	@ zero_extendqisi2
	cmp	r3, #1
	bhi	.L130
	.loc 1 1006 21
	ldr	r3, .L133
	ldr	r3, [r3]
	ldr	r4, [r3, #12]
	.loc 1 1006 40
	ldr	r3, .L133
	ldr	r3, [r3]
	.loc 1 1006 13
	ldrb	r0, [r3, #1]	@ zero_extendqisi2
	add	r2, sp, #14
	movs	r3, #1
	movs	r1, #19
	blx	r4
.LVL24:
	mov	r3, r0
	strb	r3, [sp, #15]
	.loc 1 1010 27
	ldrb	r3, [sp, #14]	@ zero_extendqisi2
	sxtb	r3, r3
	and	r3, r3, #127
	sxtb	r2, r3
	.loc 1 1010 51
	ldrb	r3, [sp, #7]	@ zero_extendqisi2
	lsls	r3, r3, #7
	.loc 1 1010 36
	sxtb	r3, r3
	orrs	r3, r3, r2
	sxtb	r3, r3
	uxtb	r3, r3
	.loc 1 1010 14
	strb	r3, [sp, #14]
	.loc 1 1012 22
	ldr	r3, .L133
	ldr	r3, [r3]
	ldr	r4, [r3, #8]
	.loc 1 1012 42
	ldr	r3, .L133
	ldr	r3, [r3]
	.loc 1 1012 14
	ldrb	r0, [r3, #1]	@ zero_extendqisi2
	add	r2, sp, #14
	movs	r3, #1
	movs	r1, #19
	blx	r4
.LVL25:
	mov	r3, r0
	uxtb	r2, r3
	.loc 1 1012 11
	ldrb	r3, [sp, #15]	@ zero_extendqisi2
	add	r3, r3, r2
	uxtb	r3, r3
	strb	r3, [sp, #15]
	b	.L131
.L130:
	.loc 1 1017 11
	movs	r3, #254
	strb	r3, [sp, #15]
.L131:
	.loc 1 1020 9
	ldrsb	r3, [sp, #15]
.L132:
	.loc 1 1021 1 discriminator 1
	mov	r0, r3
	add	sp, sp, #16
.LCFI65:
	@ sp needed
	pop	{r4, pc}
.L134:
	.align	2
.L133:
	.word	p_bmg160
.LFE21:
	.size	bmg160_set_high_bw, .-bmg160_set_high_bw
	.section	.text.bmg160_get_shadow_dis,"ax",%progbits
	.align	1
	.global	bmg160_get_shadow_dis
	.syntax unified
	.thumb
	.thumb_func
	.fpu fpv4-sp-d16
	.type	bmg160_get_shadow_dis, %function
bmg160_get_shadow_dis:
.LFB22:
	.loc 1 1043 1
	@ args = 0, pretend = 0, frame = 16
	@ frame_needed = 0, uses_anonymous_args = 0
	push	{r4, lr}
.LCFI66:
	sub	sp, sp, #16
.LCFI67:
	str	r0, [sp, #4]
	.loc 1 1045 5
	movs	r3, #255
	strb	r3, [sp, #15]
	.loc 1 1046 5
	movs	r3, #0
	strb	r3, [sp, #14]
	.loc 1 1048 15
	ldr	r3, .L139
	ldr	r3, [r3]
	.loc 1 1048 5
	cmp	r3, #0
	bne	.L136
	.loc 1 1049 10
	mvn	r3, #126
	b	.L138
.L136:
	.loc 1 1052 20
	ldr	r3, .L139
	ldr	r3, [r3]
	ldr	r4, [r3, #12]
	.loc 1 1052 39
	ldr	r3, .L139
	ldr	r3, [r3]
	.loc 1 1052 12
	ldrb	r0, [r3, #1]	@ zero_extendqisi2
	add	r2, sp, #14
	movs	r3, #1
	movs	r1, #19
	blx	r4
.LVL26:
	mov	r3, r0
	strb	r3, [sp, #15]
	.loc 1 1055 44
	ldrb	r3, [sp, #14]	@ zero_extendqisi2
	asrs	r3, r3, #6
	uxtb	r3, r3
	and	r3, r3, #1
	uxtb	r2, r3
	.loc 1 1055 20
	ldr	r3, [sp, #4]
	strb	r2, [r3]
	.loc 1 1058 9
	ldrsb	r3, [sp, #15]
.L138:
	.loc 1 1059 1 discriminator 1
	mov	r0, r3
	add	sp, sp, #16
.LCFI68:
	@ sp needed
	pop	{r4, pc}
.L140:
	.align	2
.L139:
	.word	p_bmg160
.LFE22:
	.size	bmg160_get_shadow_dis, .-bmg160_get_shadow_dis
	.section	.text.bmg160_set_shadow_dis,"ax",%progbits
	.align	1
	.global	bmg160_set_shadow_dis
	.syntax unified
	.thumb
	.thumb_func
	.fpu fpv4-sp-d16
	.type	bmg160_set_shadow_dis, %function
bmg160_set_shadow_dis:
.LFB23:
	.loc 1 1081 1
	@ args = 0, pretend = 0, frame = 16
	@ frame_needed = 0, uses_anonymous_args = 0
	push	{r4, lr}
.LCFI69:
	sub	sp, sp, #16
.LCFI70:
	mov	r3, r0
	strb	r3, [sp, #7]
	.loc 1 1083 5
	movs	r3, #255
	strb	r3, [sp, #15]
	.loc 1 1084 5
	movs	r3, #0
	strb	r3, [sp, #14]
	.loc 1 1086 15
	ldr	r3, .L147
	ldr	r3, [r3]
	.loc 1 1086 5
	cmp	r3, #0
	bne	.L142
	.loc 1 1087 10
	mvn	r3, #126
	b	.L146
.L142:
	.loc 1 1089 6
	ldrb	r3, [sp, #7]	@ zero_extendqisi2
	cmp	r3, #1
	bhi	.L144
	.loc 1 1091 21
	ldr	r3, .L147
	ldr	r3, [r3]
	ldr	r4, [r3, #12]
	.loc 1 1091 40
	ldr	r3, .L147
	ldr	r3, [r3]
	.loc 1 1091 13
	ldrb	r0, [r3, #1]	@ zero_extendqisi2
	add	r2, sp, #14
	movs	r3, #1
	movs	r1, #19
	blx	r4
.LVL27:
	mov	r3, r0
	strb	r3, [sp, #15]
	.loc 1 1095 27
	ldrb	r3, [sp, #14]	@ zero_extendqisi2
	sxtb	r3, r3
	bic	r3, r3, #64
	sxtb	r2, r3
	.loc 1 1095 54
	ldrb	r3, [sp, #7]	@ zero_extendqisi2
	lsls	r3, r3, #6
	.loc 1 1095 60
	sxtb	r3, r3
	and	r3, r3, #64
	sxtb	r3, r3
	.loc 1 1095 36
	orrs	r3, r3, r2
	sxtb	r3, r3
	uxtb	r3, r3
	.loc 1 1095 14
	strb	r3, [sp, #14]
	.loc 1 1097 22
	ldr	r3, .L147
	ldr	r3, [r3]
	ldr	r4, [r3, #8]
	.loc 1 1097 42
	ldr	r3, .L147
	ldr	r3, [r3]
	.loc 1 1097 14
	ldrb	r0, [r3, #1]	@ zero_extendqisi2
	add	r2, sp, #14
	movs	r3, #1
	movs	r1, #19
	blx	r4
.LVL28:
	mov	r3, r0
	uxtb	r2, r3
	.loc 1 1097 11
	ldrb	r3, [sp, #15]	@ zero_extendqisi2
	add	r3, r3, r2
	uxtb	r3, r3
	strb	r3, [sp, #15]
	b	.L145
.L144:
	.loc 1 1102 11
	movs	r3, #254
	strb	r3, [sp, #15]
.L145:
	.loc 1 1105 9
	ldrsb	r3, [sp, #15]
.L146:
	.loc 1 1106 1 discriminator 1
	mov	r0, r3
	add	sp, sp, #16
.LCFI71:
	@ sp needed
	pop	{r4, pc}
.L148:
	.align	2
.L147:
	.word	p_bmg160
.LFE23:
	.size	bmg160_set_shadow_dis, .-bmg160_set_shadow_dis
	.section	.text.bmg160_set_soft_rst,"ax",%progbits
	.align	1
	.global	bmg160_set_soft_rst
	.syntax unified
	.thumb
	.thumb_func
	.fpu fpv4-sp-d16
	.type	bmg160_set_soft_rst, %function
bmg160_set_soft_rst:
.LFB24:
	.loc 1 1122 1
	@ args = 0, pretend = 0, frame = 8
	@ frame_needed = 0, uses_anonymous_args = 0
	push	{r4, lr}
.LCFI72:
	sub	sp, sp, #8
.LCFI73:
	.loc 1 1124 5
	movs	r3, #255
	strb	r3, [sp, #7]
	.loc 1 1125 5
	movs	r3, #0
	strb	r3, [sp, #6]
	.loc 1 1127 16
	movs	r3, #182
	strb	r3, [sp, #6]
	.loc 1 1129 15
	ldr	r3, .L153
	ldr	r3, [r3]
	.loc 1 1129 5
	cmp	r3, #0
	bne	.L150
	.loc 1 1130 10
	mvn	r3, #126
	b	.L152
.L150:
	.loc 1 1133 20
	ldr	r3, .L153
	ldr	r3, [r3]
	ldr	r4, [r3, #8]
	.loc 1 1133 40
	ldr	r3, .L153
	ldr	r3, [r3]
	.loc 1 1133 12
	ldrb	r0, [r3, #1]	@ zero_extendqisi2
	add	r2, sp, #6
	movs	r3, #1
	movs	r1, #20
	blx	r4
.LVL29:
	mov	r3, r0
	strb	r3, [sp, #7]
	.loc 1 1137 9
	ldrsb	r3, [sp, #7]
.L152:
	.loc 1 1138 1 discriminator 1
	mov	r0, r3
	add	sp, sp, #8
.LCFI74:
	@ sp needed
	pop	{r4, pc}
.L154:
	.align	2
.L153:
	.word	p_bmg160
.LFE24:
	.size	bmg160_set_soft_rst, .-bmg160_set_soft_rst
	.section	.text.bmg160_get_data_enable,"ax",%progbits
	.align	1
	.global	bmg160_get_data_enable
	.syntax unified
	.thumb
	.thumb_func
	.fpu fpv4-sp-d16
	.type	bmg160_get_data_enable, %function
bmg160_get_data_enable:
.LFB25:
	.loc 1 1160 1
	@ args = 0, pretend = 0, frame = 16
	@ frame_needed = 0, uses_anonymous_args = 0
	push	{r4, lr}
.LCFI75:
	sub	sp, sp, #16
.LCFI76:
	str	r0, [sp, #4]
	.loc 1 1162 5
	movs	r3, #255
	strb	r3, [sp, #15]
	.loc 1 1163 5
	movs	r3, #0
	strb	r3, [sp, #14]
	.loc 1 1165 15
	ldr	r3, .L159
	ldr	r3, [r3]
	.loc 1 1165 5
	cmp	r3, #0
	bne	.L156
	.loc 1 1166 10
	mvn	r3, #126
	b	.L158
.L156:
	.loc 1 1169 20
	ldr	r3, .L159
	ldr	r3, [r3]
	ldr	r4, [r3, #12]
	.loc 1 1169 39
	ldr	r3, .L159
	ldr	r3, [r3]
	.loc 1 1169 12
	ldrb	r0, [r3, #1]	@ zero_extendqisi2
	add	r2, sp, #14
	movs	r3, #1
	movs	r1, #21
	blx	r4
.LVL30:
	mov	r3, r0
	strb	r3, [sp, #15]
	.loc 1 1172 45
	ldrb	r3, [sp, #14]	@ zero_extendqisi2
	lsrs	r3, r3, #7
	uxtb	r2, r3
	.loc 1 1172 21
	ldr	r3, [sp, #4]
	strb	r2, [r3]
	.loc 1 1175 9
	ldrsb	r3, [sp, #15]
.L158:
	.loc 1 1176 1 discriminator 1
	mov	r0, r3
	add	sp, sp, #16
.LCFI77:
	@ sp needed
	pop	{r4, pc}
.L160:
	.align	2
.L159:
	.word	p_bmg160
.LFE25:
	.size	bmg160_get_data_enable, .-bmg160_get_data_enable
	.section	.text.bmg160_set_data_enable,"ax",%progbits
	.align	1
	.global	bmg160_set_data_enable
	.syntax unified
	.thumb
	.thumb_func
	.fpu fpv4-sp-d16
	.type	bmg160_set_data_enable, %function
bmg160_set_data_enable:
.LFB26:
	.loc 1 1198 1
	@ args = 0, pretend = 0, frame = 16
	@ frame_needed = 0, uses_anonymous_args = 0
	push	{r4, lr}
.LCFI78:
	sub	sp, sp, #16
.LCFI79:
	mov	r3, r0
	strb	r3, [sp, #7]
	.loc 1 1200 5
	movs	r3, #255
	strb	r3, [sp, #15]
	.loc 1 1201 5
	movs	r3, #0
	strb	r3, [sp, #14]
	.loc 1 1203 15
	ldr	r3, .L165
	ldr	r3, [r3]
	.loc 1 1203 5
	cmp	r3, #0
	bne	.L162
	.loc 1 1204 10
	mvn	r3, #126
	b	.L164
.L162:
	.loc 1 1207 20
	ldr	r3, .L165
	ldr	r3, [r3]
	ldr	r4, [r3, #12]
	.loc 1 1207 39
	ldr	r3, .L165
	ldr	r3, [r3]
	.loc 1 1207 12
	ldrb	r0, [r3, #1]	@ zero_extendqisi2
	add	r2, sp, #14
	movs	r3, #1
	movs	r1, #21
	blx	r4
.LVL31:
	mov	r3, r0
	strb	r3, [sp, #15]
	.loc 1 1211 26
	ldrb	r3, [sp, #14]	@ zero_extendqisi2
	sxtb	r3, r3
	and	r3, r3, #127
	sxtb	r2, r3
	.loc 1 1211 54
	ldrb	r3, [sp, #7]	@ zero_extendqisi2
	lsls	r3, r3, #7
	.loc 1 1211 35
	sxtb	r3, r3
	orrs	r3, r3, r2
	sxtb	r3, r3
	uxtb	r3, r3
	.loc 1 1211 13
	strb	r3, [sp, #14]
	.loc 1 1213 21
	ldr	r3, .L165
	ldr	r3, [r3]
	ldr	r4, [r3, #8]
	.loc 1 1213 41
	ldr	r3, .L165
	ldr	r3, [r3]
	.loc 1 1213 13
	ldrb	r0, [r3, #1]	@ zero_extendqisi2
	add	r2, sp, #14
	movs	r3, #1
	movs	r1, #21
	blx	r4
.LVL32:
	mov	r3, r0
	uxtb	r2, r3
	.loc 1 1213 10
	ldrb	r3, [sp, #15]	@ zero_extendqisi2
	add	r3, r3, r2
	uxtb	r3, r3
	strb	r3, [sp, #15]
	.loc 1 1218 9
	ldrsb	r3, [sp, #15]
.L164:
	.loc 1 1219 1 discriminator 1
	mov	r0, r3
	add	sp, sp, #16
.LCFI80:
	@ sp needed
	pop	{r4, pc}
.L166:
	.align	2
.L165:
	.word	p_bmg160
.LFE26:
	.size	bmg160_set_data_enable, .-bmg160_set_data_enable
	.section	.text.bmg160_get_fifo_enable,"ax",%progbits
	.align	1
	.global	bmg160_get_fifo_enable
	.syntax unified
	.thumb
	.thumb_func
	.fpu fpv4-sp-d16
	.type	bmg160_get_fifo_enable, %function
bmg160_get_fifo_enable:
.LFB27:
	.loc 1 1241 1
	@ args = 0, pretend = 0, frame = 16
	@ frame_needed = 0, uses_anonymous_args = 0
	push	{r4, lr}
.LCFI81:
	sub	sp, sp, #16
.LCFI82:
	str	r0, [sp, #4]
	.loc 1 1243 5
	movs	r3, #255
	strb	r3, [sp, #15]
	.loc 1 1244 5
	movs	r3, #0
	strb	r3, [sp, #14]
	.loc 1 1246 15
	ldr	r3, .L171
	ldr	r3, [r3]
	.loc 1 1246 5
	cmp	r3, #0
	bne	.L168
	.loc 1 1247 10
	mvn	r3, #126
	b	.L170
.L168:
	.loc 1 1250 20
	ldr	r3, .L171
	ldr	r3, [r3]
	ldr	r4, [r3, #12]
	.loc 1 1250 39
	ldr	r3, .L171
	ldr	r3, [r3]
	.loc 1 1250 12
	ldrb	r0, [r3, #1]	@ zero_extendqisi2
	add	r2, sp, #14
	movs	r3, #1
	movs	r1, #21
	blx	r4
.LVL33:
	mov	r3, r0
	strb	r3, [sp, #15]
	.loc 1 1253 45
	ldrb	r3, [sp, #14]	@ zero_extendqisi2
	asrs	r3, r3, #6
	uxtb	r3, r3
	and	r3, r3, #1
	uxtb	r2, r3
	.loc 1 1253 21
	ldr	r3, [sp, #4]
	strb	r2, [r3]
	.loc 1 1256 9
	ldrsb	r3, [sp, #15]
.L170:
	.loc 1 1257 1 discriminator 1
	mov	r0, r3
	add	sp, sp, #16
.LCFI83:
	@ sp needed
	pop	{r4, pc}
.L172:
	.align	2
.L171:
	.word	p_bmg160
.LFE27:
	.size	bmg160_get_fifo_enable, .-bmg160_get_fifo_enable
	.section	.text.bmg160_set_fifo_enable,"ax",%progbits
	.align	1
	.global	bmg160_set_fifo_enable
	.syntax unified
	.thumb
	.thumb_func
	.fpu fpv4-sp-d16
	.type	bmg160_set_fifo_enable, %function
bmg160_set_fifo_enable:
.LFB28:
	.loc 1 1279 1
	@ args = 0, pretend = 0, frame = 16
	@ frame_needed = 0, uses_anonymous_args = 0
	push	{r4, lr}
.LCFI84:
	sub	sp, sp, #16
.LCFI85:
	mov	r3, r0
	strb	r3, [sp, #7]
	.loc 1 1281 5
	movs	r3, #255
	strb	r3, [sp, #15]
	.loc 1 1282 5
	movs	r3, #0
	strb	r3, [sp, #14]
	.loc 1 1284 15
	ldr	r3, .L179
	ldr	r3, [r3]
	.loc 1 1284 5
	cmp	r3, #0
	bne	.L174
	.loc 1 1285 10
	mvn	r3, #126
	b	.L178
.L174:
	.loc 1 1287 6
	ldrb	r3, [sp, #7]	@ zero_extendqisi2
	cmp	r3, #1
	bhi	.L176
	.loc 1 1289 21
	ldr	r3, .L179
	ldr	r3, [r3]
	ldr	r4, [r3, #12]
	.loc 1 1289 40
	ldr	r3, .L179
	ldr	r3, [r3]
	.loc 1 1289 13
	ldrb	r0, [r3, #1]	@ zero_extendqisi2
	add	r2, sp, #14
	movs	r3, #1
	movs	r1, #21
	blx	r4
.LVL34:
	mov	r3, r0
	strb	r3, [sp, #15]
	.loc 1 1293 27
	ldrb	r3, [sp, #14]	@ zero_extendqisi2
	sxtb	r3, r3
	bic	r3, r3, #64
	sxtb	r2, r3
	.loc 1 1293 55
	ldrb	r3, [sp, #7]	@ zero_extendqisi2
	lsls	r3, r3, #6
	.loc 1 1293 61
	sxtb	r3, r3
	and	r3, r3, #64
	sxtb	r3, r3
	.loc 1 1293 36
	orrs	r3, r3, r2
	sxtb	r3, r3
	uxtb	r3, r3
	.loc 1 1293 14
	strb	r3, [sp, #14]
	.loc 1 1295 22
	ldr	r3, .L179
	ldr	r3, [r3]
	ldr	r4, [r3, #8]
	.loc 1 1295 42
	ldr	r3, .L179
	ldr	r3, [r3]
	.loc 1 1295 14
	ldrb	r0, [r3, #1]	@ zero_extendqisi2
	add	r2, sp, #14
	movs	r3, #1
	movs	r1, #21
	blx	r4
.LVL35:
	mov	r3, r0
	uxtb	r2, r3
	.loc 1 1295 11
	ldrb	r3, [sp, #15]	@ zero_extendqisi2
	add	r3, r3, r2
	uxtb	r3, r3
	strb	r3, [sp, #15]
	b	.L177
.L176:
	.loc 1 1300 11
	movs	r3, #254
	strb	r3, [sp, #15]
.L177:
	.loc 1 1303 9
	ldrsb	r3, [sp, #15]
.L178:
	.loc 1 1304 1 discriminator 1
	mov	r0, r3
	add	sp, sp, #16
.LCFI86:
	@ sp needed
	pop	{r4, pc}
.L180:
	.align	2
.L179:
	.word	p_bmg160
.LFE28:
	.size	bmg160_set_fifo_enable, .-bmg160_set_fifo_enable
	.section	.text.bmg160_get_auto_offset_enable,"ax",%progbits
	.align	1
	.global	bmg160_get_auto_offset_enable
	.syntax unified
	.thumb
	.thumb_func
	.fpu fpv4-sp-d16
	.type	bmg160_get_auto_offset_enable, %function
bmg160_get_auto_offset_enable:
.LFB29:
	.loc 1 1327 1
	@ args = 0, pretend = 0, frame = 16
	@ frame_needed = 0, uses_anonymous_args = 0
	push	{r4, lr}
.LCFI87:
	sub	sp, sp, #16
.LCFI88:
	str	r0, [sp, #4]
	.loc 1 1329 5
	movs	r3, #255
	strb	r3, [sp, #15]
	.loc 1 1330 5
	movs	r3, #0
	strb	r3, [sp, #14]
	.loc 1 1332 15
	ldr	r3, .L185
	ldr	r3, [r3]
	.loc 1 1332 5
	cmp	r3, #0
	bne	.L182
	.loc 1 1333 10
	mvn	r3, #126
	b	.L184
.L182:
	.loc 1 1336 20
	ldr	r3, .L185
	ldr	r3, [r3]
	ldr	r4, [r3, #12]
	.loc 1 1336 39
	ldr	r3, .L185
	ldr	r3, [r3]
	.loc 1 1336 12
	ldrb	r0, [r3, #1]	@ zero_extendqisi2
	add	r2, sp, #14
	movs	r3, #1
	movs	r1, #21
	blx	r4
.LVL36:
	mov	r3, r0
	strb	r3, [sp, #15]
	.loc 1 1339 47
	ldrb	r3, [sp, #14]	@ zero_extendqisi2
	asrs	r3, r3, #2
	uxtb	r3, r3
	and	r3, r3, #1
	uxtb	r2, r3
	.loc 1 1339 23
	ldr	r3, [sp, #4]
	strb	r2, [r3]
	.loc 1 1342 9
	ldrsb	r3, [sp, #15]
.L184:
	.loc 1 1343 1 discriminator 1
	mov	r0, r3
	add	sp, sp, #16
.LCFI89:
	@ sp needed
	pop	{r4, pc}
.L186:
	.align	2
.L185:
	.word	p_bmg160
.LFE29:
	.size	bmg160_get_auto_offset_enable, .-bmg160_get_auto_offset_enable
	.section	.text.bmg160_set_auto_offset_enable,"ax",%progbits
	.align	1
	.global	bmg160_set_auto_offset_enable
	.syntax unified
	.thumb
	.thumb_func
	.fpu fpv4-sp-d16
	.type	bmg160_set_auto_offset_enable, %function
bmg160_set_auto_offset_enable:
.LFB30:
	.loc 1 1365 1
	@ args = 0, pretend = 0, frame = 16
	@ frame_needed = 0, uses_anonymous_args = 0
	push	{r4, lr}
.LCFI90:
	sub	sp, sp, #16
.LCFI91:
	mov	r3, r0
	strb	r3, [sp, #7]
	.loc 1 1367 5
	movs	r3, #255
	strb	r3, [sp, #15]
	.loc 1 1368 5
	movs	r3, #0
	strb	r3, [sp, #14]
	.loc 1 1370 15
	ldr	r3, .L191
	ldr	r3, [r3]
	.loc 1 1370 5
	cmp	r3, #0
	bne	.L188
	.loc 1 1371 10
	mvn	r3, #126
	b	.L190
.L188:
	.loc 1 1374 20
	ldr	r3, .L191
	ldr	r3, [r3]
	ldr	r4, [r3, #12]
	.loc 1 1374 39
	ldr	r3, .L191
	ldr	r3, [r3]
	.loc 1 1374 12
	ldrb	r0, [r3, #1]	@ zero_extendqisi2
	add	r2, sp, #14
	movs	r3, #1
	movs	r1, #21
	blx	r4
.LVL37:
	mov	r3, r0
	strb	r3, [sp, #15]
	.loc 1 1377 26
	ldrb	r3, [sp, #14]	@ zero_extendqisi2
	sxtb	r3, r3
	bic	r3, r3, #4
	sxtb	r2, r3
	.loc 1 1377 56
	ldrb	r3, [sp, #7]	@ zero_extendqisi2
	lsls	r3, r3, #2
	.loc 1 1377 62
	sxtb	r3, r3
	and	r3, r3, #4
	sxtb	r3, r3
	.loc 1 1377 35
	orrs	r3, r3, r2
	sxtb	r3, r3
	uxtb	r3, r3
	.loc 1 1377 13
	strb	r3, [sp, #14]
	.loc 1 1379 21
	ldr	r3, .L191
	ldr	r3, [r3]
	ldr	r4, [r3, #8]
	.loc 1 1379 41
	ldr	r3, .L191
	ldr	r3, [r3]
	.loc 1 1379 13
	ldrb	r0, [r3, #1]	@ zero_extendqisi2
	add	r2, sp, #14
	movs	r3, #1
	movs	r1, #21
	blx	r4
.LVL38:
	mov	r3, r0
	uxtb	r2, r3
	.loc 1 1379 10
	ldrb	r3, [sp, #15]	@ zero_extendqisi2
	add	r3, r3, r2
	uxtb	r3, r3
	strb	r3, [sp, #15]
	.loc 1 1383 9
	ldrsb	r3, [sp, #15]
.L190:
	.loc 1 1384 1 discriminator 1
	mov	r0, r3
	add	sp, sp, #16
.LCFI92:
	@ sp needed
	pop	{r4, pc}
.L192:
	.align	2
.L191:
	.word	p_bmg160
.LFE30:
	.size	bmg160_set_auto_offset_enable, .-bmg160_set_auto_offset_enable
	.section	.text.bmg160_get_intr_output_type,"ax",%progbits
	.align	1
	.global	bmg160_get_intr_output_type
	.syntax unified
	.thumb
	.thumb_func
	.fpu fpv4-sp-d16
	.type	bmg160_get_intr_output_type, %function
bmg160_get_intr_output_type:
.LFB31:
	.loc 1 1413 1
	@ args = 0, pretend = 0, frame = 16
	@ frame_needed = 0, uses_anonymous_args = 0
	push	{r4, lr}
.LCFI93:
	sub	sp, sp, #16
.LCFI94:
	mov	r3, r0
	str	r1, [sp]
	strb	r3, [sp, #7]
	.loc 1 1415 5
	movs	r3, #255
	strb	r3, [sp, #15]
	.loc 1 1416 5
	movs	r3, #0
	strb	r3, [sp, #14]
	.loc 1 1418 15
	ldr	r3, .L202
	ldr	r3, [r3]
	.loc 1 1418 5
	cmp	r3, #0
	bne	.L194
	.loc 1 1419 10
	mvn	r3, #126
	b	.L200
.L194:
	.loc 1 1421 3
	ldrb	r3, [sp, #7]	@ zero_extendqisi2
	cmp	r3, #0
	beq	.L196
	cmp	r3, #1
	beq	.L197
	b	.L201
.L196:
	.loc 1 1424 21
	ldr	r3, .L202
	ldr	r3, [r3]
	ldr	r4, [r3, #12]
	.loc 1 1424 40
	ldr	r3, .L202
	ldr	r3, [r3]
	.loc 1 1424 13
	ldrb	r0, [r3, #1]	@ zero_extendqisi2
	add	r2, sp, #14
	movs	r3, #1
	movs	r1, #22
	blx	r4
.LVL39:
	mov	r3, r0
	strb	r3, [sp, #15]
	.loc 1 1428 51
	ldrb	r3, [sp, #14]	@ zero_extendqisi2
	asrs	r3, r3, #1
	uxtb	r3, r3
	and	r3, r3, #1
	uxtb	r2, r3
	.loc 1 1428 27
	ldr	r3, [sp]
	strb	r2, [r3]
	.loc 1 1430 4
	b	.L199
.L197:
	.loc 1 1432 21
	ldr	r3, .L202
	ldr	r3, [r3]
	ldr	r4, [r3, #12]
	.loc 1 1432 40
	ldr	r3, .L202
	ldr	r3, [r3]
	.loc 1 1432 13
	ldrb	r0, [r3, #1]	@ zero_extendqisi2
	add	r2, sp, #14
	movs	r3, #1
	movs	r1, #22
	blx	r4
.LVL40:
	mov	r3, r0
	strb	r3, [sp, #15]
	.loc 1 1436 51
	ldrb	r3, [sp, #14]	@ zero_extendqisi2
	asrs	r3, r3, #3
	uxtb	r3, r3
	and	r3, r3, #1
	uxtb	r2, r3
	.loc 1 1436 27
	ldr	r3, [sp]
	strb	r2, [r3]
	.loc 1 1438 4
	b	.L199
.L201:
	.loc 1 1440 11
	movs	r3, #254
	strb	r3, [sp, #15]
	.loc 1 1441 4
	nop
.L199:
	.loc 1 1444 9
	ldrsb	r3, [sp, #15]
.L200:
	.loc 1 1445 1 discriminator 1
	mov	r0, r3
	add	sp, sp, #16
.LCFI95:
	@ sp needed
	pop	{r4, pc}
.L203:
	.align	2
.L202:
	.word	p_bmg160
.LFE31:
	.size	bmg160_get_intr_output_type, .-bmg160_get_intr_output_type
	.section	.text.bmg160_set_intr_output_type,"ax",%progbits
	.align	1
	.global	bmg160_set_intr_output_type
	.syntax unified
	.thumb
	.thumb_func
	.fpu fpv4-sp-d16
	.type	bmg160_set_intr_output_type, %function
bmg160_set_intr_output_type:
.LFB32:
	.loc 1 1474 1
	@ args = 0, pretend = 0, frame = 16
	@ frame_needed = 0, uses_anonymous_args = 0
	push	{r4, lr}
.LCFI96:
	sub	sp, sp, #16
.LCFI97:
	mov	r3, r0
	mov	r2, r1
	strb	r3, [sp, #7]
	mov	r3, r2
	strb	r3, [sp, #6]
	.loc 1 1476 5
	movs	r3, #255
	strb	r3, [sp, #15]
	.loc 1 1477 5
	movs	r3, #0
	strb	r3, [sp, #14]
	.loc 1 1479 15
	ldr	r3, .L213
	ldr	r3, [r3]
	.loc 1 1479 5
	cmp	r3, #0
	bne	.L205
	.loc 1 1480 10
	mvn	r3, #126
	b	.L211
.L205:
	.loc 1 1482 3
	ldrb	r3, [sp, #7]	@ zero_extendqisi2
	cmp	r3, #0
	beq	.L207
	cmp	r3, #1
	beq	.L208
	b	.L212
.L207:
	.loc 1 1485 21
	ldr	r3, .L213
	ldr	r3, [r3]
	ldr	r4, [r3, #12]
	.loc 1 1485 40
	ldr	r3, .L213
	ldr	r3, [r3]
	.loc 1 1485 13
	ldrb	r0, [r3, #1]	@ zero_extendqisi2
	add	r2, sp, #14
	movs	r3, #1
	movs	r1, #22
	blx	r4
.LVL41:
	mov	r3, r0
	strb	r3, [sp, #15]
	.loc 1 1489 27
	ldrb	r3, [sp, #14]	@ zero_extendqisi2
	sxtb	r3, r3
	bic	r3, r3, #2
	sxtb	r2, r3
	.loc 1 1489 60
	ldrb	r3, [sp, #6]	@ zero_extendqisi2
	lsls	r3, r3, #1
	.loc 1 1489 66
	sxtb	r3, r3
	and	r3, r3, #2
	sxtb	r3, r3
	.loc 1 1489 36
	orrs	r3, r3, r2
	sxtb	r3, r3
	uxtb	r3, r3
	.loc 1 1489 14
	strb	r3, [sp, #14]
	.loc 1 1492 22
	ldr	r3, .L213
	ldr	r3, [r3]
	ldr	r4, [r3, #8]
	.loc 1 1492 42
	ldr	r3, .L213
	ldr	r3, [r3]
	.loc 1 1492 14
	ldrb	r0, [r3, #1]	@ zero_extendqisi2
	add	r2, sp, #14
	movs	r3, #1
	movs	r1, #22
	blx	r4
.LVL42:
	mov	r3, r0
	uxtb	r2, r3
	.loc 1 1492 11
	ldrb	r3, [sp, #15]	@ zero_extendqisi2
	add	r3, r3, r2
	uxtb	r3, r3
	strb	r3, [sp, #15]
	.loc 1 1496 4
	b	.L210
.L208:
	.loc 1 1498 21
	ldr	r3, .L213
	ldr	r3, [r3]
	ldr	r4, [r3, #12]
	.loc 1 1498 40
	ldr	r3, .L213
	ldr	r3, [r3]
	.loc 1 1498 13
	ldrb	r0, [r3, #1]	@ zero_extendqisi2
	add	r2, sp, #14
	movs	r3, #1
	movs	r1, #22
	blx	r4
.LVL43:
	mov	r3, r0
	strb	r3, [sp, #15]
	.loc 1 1502 27
	ldrb	r3, [sp, #14]	@ zero_extendqisi2
	sxtb	r3, r3
	bic	r3, r3, #8
	sxtb	r2, r3
	.loc 1 1502 60
	ldrb	r3, [sp, #6]	@ zero_extendqisi2
	lsls	r3, r3, #3
	.loc 1 1502 66
	sxtb	r3, r3
	and	r3, r3, #8
	sxtb	r3, r3
	.loc 1 1502 36
	orrs	r3, r3, r2
	sxtb	r3, r3
	uxtb	r3, r3
	.loc 1 1502 14
	strb	r3, [sp, #14]
	.loc 1 1505 22
	ldr	r3, .L213
	ldr	r3, [r3]
	ldr	r4, [r3, #8]
	.loc 1 1505 42
	ldr	r3, .L213
	ldr	r3, [r3]
	.loc 1 1505 14
	ldrb	r0, [r3, #1]	@ zero_extendqisi2
	add	r2, sp, #14
	movs	r3, #1
	movs	r1, #22
	blx	r4
.LVL44:
	mov	r3, r0
	uxtb	r2, r3
	.loc 1 1505 11
	ldrb	r3, [sp, #15]	@ zero_extendqisi2
	add	r3, r3, r2
	uxtb	r3, r3
	strb	r3, [sp, #15]
	.loc 1 1509 4
	b	.L210
.L212:
	.loc 1 1511 11
	movs	r3, #254
	strb	r3, [sp, #15]
	.loc 1 1512 4
	nop
.L210:
	.loc 1 1515 9
	ldrsb	r3, [sp, #15]
.L211:
	.loc 1 1516 1 discriminator 1
	mov	r0, r3
	add	sp, sp, #16
.LCFI98:
	@ sp needed
	pop	{r4, pc}
.L214:
	.align	2
.L213:
	.word	p_bmg160
.LFE32:
	.size	bmg160_set_intr_output_type, .-bmg160_set_intr_output_type
	.section	.text.bmg160_get_intr_level,"ax",%progbits
	.align	1
	.global	bmg160_get_intr_level
	.syntax unified
	.thumb
	.thumb_func
	.fpu fpv4-sp-d16
	.type	bmg160_get_intr_level, %function
bmg160_get_intr_level:
.LFB33:
	.loc 1 1545 1
	@ args = 0, pretend = 0, frame = 16
	@ frame_needed = 0, uses_anonymous_args = 0
	push	{r4, lr}
.LCFI99:
	sub	sp, sp, #16
.LCFI100:
	mov	r3, r0
	str	r1, [sp]
	strb	r3, [sp, #7]
	.loc 1 1547 5
	movs	r3, #255
	strb	r3, [sp, #15]
	.loc 1 1548 5
	movs	r3, #0
	strb	r3, [sp, #14]
	.loc 1 1550 15
	ldr	r3, .L224
	ldr	r3, [r3]
	.loc 1 1550 5
	cmp	r3, #0
	bne	.L216
	.loc 1 1551 10
	mvn	r3, #126
	b	.L222
.L216:
	.loc 1 1553 3
	ldrb	r3, [sp, #7]	@ zero_extendqisi2
	cmp	r3, #0
	beq	.L218
	cmp	r3, #1
	beq	.L219
	b	.L223
.L218:
	.loc 1 1556 21
	ldr	r3, .L224
	ldr	r3, [r3]
	ldr	r4, [r3, #12]
	.loc 1 1556 40
	ldr	r3, .L224
	ldr	r3, [r3]
	.loc 1 1556 13
	ldrb	r0, [r3, #1]	@ zero_extendqisi2
	add	r2, sp, #14
	movs	r3, #1
	movs	r1, #22
	blx	r4
.LVL45:
	mov	r3, r0
	strb	r3, [sp, #15]
	.loc 1 1560 45
	ldrb	r3, [sp, #14]	@ zero_extendqisi2
	and	r3, r3, #1
	uxtb	r2, r3
	.loc 1 1560 21
	ldr	r3, [sp]
	strb	r2, [r3]
	.loc 1 1562 4
	b	.L221
.L219:
	.loc 1 1564 21
	ldr	r3, .L224
	ldr	r3, [r3]
	ldr	r4, [r3, #12]
	.loc 1 1564 40
	ldr	r3, .L224
	ldr	r3, [r3]
	.loc 1 1564 13
	ldrb	r0, [r3, #1]	@ zero_extendqisi2
	add	r2, sp, #14
	movs	r3, #1
	movs	r1, #22
	blx	r4
.LVL46:
	mov	r3, r0
	strb	r3, [sp, #15]
	.loc 1 1568 45
	ldrb	r3, [sp, #14]	@ zero_extendqisi2
	asrs	r3, r3, #2
	uxtb	r3, r3
	and	r3, r3, #1
	uxtb	r2, r3
	.loc 1 1568 21
	ldr	r3, [sp]
	strb	r2, [r3]
	.loc 1 1570 4
	b	.L221
.L223:
	.loc 1 1572 11
	movs	r3, #254
	strb	r3, [sp, #15]
	.loc 1 1573 4
	nop
.L221:
	.loc 1 1576 9
	ldrsb	r3, [sp, #15]
.L222:
	.loc 1 1577 1 discriminator 1
	mov	r0, r3
	add	sp, sp, #16
.LCFI101:
	@ sp needed
	pop	{r4, pc}
.L225:
	.align	2
.L224:
	.word	p_bmg160
.LFE33:
	.size	bmg160_get_intr_level, .-bmg160_get_intr_level
	.section	.text.bmg160_set_intr_level,"ax",%progbits
	.align	1
	.global	bmg160_set_intr_level
	.syntax unified
	.thumb
	.thumb_func
	.fpu fpv4-sp-d16
	.type	bmg160_set_intr_level, %function
bmg160_set_intr_level:
.LFB34:
	.loc 1 1606 1
	@ args = 0, pretend = 0, frame = 16
	@ frame_needed = 0, uses_anonymous_args = 0
	push	{r4, lr}
.LCFI102:
	sub	sp, sp, #16
.LCFI103:
	mov	r3, r0
	mov	r2, r1
	strb	r3, [sp, #7]
	mov	r3, r2
	strb	r3, [sp, #6]
	.loc 1 1608 5
	movs	r3, #255
	strb	r3, [sp, #15]
	.loc 1 1609 5
	movs	r3, #0
	strb	r3, [sp, #14]
	.loc 1 1611 15
	ldr	r3, .L235
	ldr	r3, [r3]
	.loc 1 1611 5
	cmp	r3, #0
	bne	.L227
	.loc 1 1612 10
	mvn	r3, #126
	b	.L233
.L227:
	.loc 1 1614 3
	ldrb	r3, [sp, #7]	@ zero_extendqisi2
	cmp	r3, #0
	beq	.L229
	cmp	r3, #1
	beq	.L230
	b	.L234
.L229:
	.loc 1 1617 21
	ldr	r3, .L235
	ldr	r3, [r3]
	ldr	r4, [r3, #12]
	.loc 1 1617 40
	ldr	r3, .L235
	ldr	r3, [r3]
	.loc 1 1617 13
	ldrb	r0, [r3, #1]	@ zero_extendqisi2
	add	r2, sp, #14
	movs	r3, #1
	movs	r1, #22
	blx	r4
.LVL47:
	mov	r3, r0
	strb	r3, [sp, #15]
	.loc 1 1621 27
	ldrb	r3, [sp, #14]	@ zero_extendqisi2
	sxtb	r3, r3
	bic	r3, r3, #1
	sxtb	r2, r3
	.loc 1 1621 60
	ldrsb	r3, [sp, #6]
	and	r3, r3, #1
	sxtb	r3, r3
	.loc 1 1621 36
	orrs	r3, r3, r2
	sxtb	r3, r3
	uxtb	r3, r3
	.loc 1 1621 14
	strb	r3, [sp, #14]
	.loc 1 1623 22
	ldr	r3, .L235
	ldr	r3, [r3]
	ldr	r4, [r3, #8]
	.loc 1 1623 42
	ldr	r3, .L235
	ldr	r3, [r3]
	.loc 1 1623 14
	ldrb	r0, [r3, #1]	@ zero_extendqisi2
	add	r2, sp, #14
	movs	r3, #1
	movs	r1, #22
	blx	r4
.LVL48:
	mov	r3, r0
	uxtb	r2, r3
	.loc 1 1623 11
	ldrb	r3, [sp, #15]	@ zero_extendqisi2
	add	r3, r3, r2
	uxtb	r3, r3
	strb	r3, [sp, #15]
	.loc 1 1627 4
	b	.L232
.L230:
	.loc 1 1629 21
	ldr	r3, .L235
	ldr	r3, [r3]
	ldr	r4, [r3, #12]
	.loc 1 1629 40
	ldr	r3, .L235
	ldr	r3, [r3]
	.loc 1 1629 13
	ldrb	r0, [r3, #1]	@ zero_extendqisi2
	add	r2, sp, #14
	movs	r3, #1
	movs	r1, #22
	blx	r4
.LVL49:
	mov	r3, r0
	strb	r3, [sp, #15]
	.loc 1 1633 27
	ldrb	r3, [sp, #14]	@ zero_extendqisi2
	sxtb	r3, r3
	bic	r3, r3, #4
	sxtb	r2, r3
	.loc 1 1633 54
	ldrb	r3, [sp, #6]	@ zero_extendqisi2
	lsls	r3, r3, #2
	.loc 1 1633 60
	sxtb	r3, r3
	and	r3, r3, #4
	sxtb	r3, r3
	.loc 1 1633 36
	orrs	r3, r3, r2
	sxtb	r3, r3
	uxtb	r3, r3
	.loc 1 1633 14
	strb	r3, [sp, #14]
	.loc 1 1635 22
	ldr	r3, .L235
	ldr	r3, [r3]
	ldr	r4, [r3, #8]
	.loc 1 1635 42
	ldr	r3, .L235
	ldr	r3, [r3]
	.loc 1 1635 14
	ldrb	r0, [r3, #1]	@ zero_extendqisi2
	add	r2, sp, #14
	movs	r3, #1
	movs	r1, #22
	blx	r4
.LVL50:
	mov	r3, r0
	uxtb	r2, r3
	.loc 1 1635 11
	ldrb	r3, [sp, #15]	@ zero_extendqisi2
	add	r3, r3, r2
	uxtb	r3, r3
	strb	r3, [sp, #15]
	.loc 1 1639 4
	b	.L232
.L234:
	.loc 1 1641 11
	movs	r3, #254
	strb	r3, [sp, #15]
	.loc 1 1642 4
	nop
.L232:
	.loc 1 1645 9
	ldrsb	r3, [sp, #15]
.L233:
	.loc 1 1646 1 discriminator 1
	mov	r0, r3
	add	sp, sp, #16
.LCFI104:
	@ sp needed
	pop	{r4, pc}
.L236:
	.align	2
.L235:
	.word	p_bmg160
.LFE34:
	.size	bmg160_set_intr_level, .-bmg160_set_intr_level
	.section	.text.bmg160_get_intr1_highrate,"ax",%progbits
	.align	1
	.global	bmg160_get_intr1_highrate
	.syntax unified
	.thumb
	.thumb_func
	.fpu fpv4-sp-d16
	.type	bmg160_get_intr1_highrate, %function
bmg160_get_intr1_highrate:
.LFB35:
	.loc 1 1668 1
	@ args = 0, pretend = 0, frame = 16
	@ frame_needed = 0, uses_anonymous_args = 0
	push	{r4, lr}
.LCFI105:
	sub	sp, sp, #16
.LCFI106:
	str	r0, [sp, #4]
	.loc 1 1670 5
	movs	r3, #255
	strb	r3, [sp, #15]
	.loc 1 1671 5
	movs	r3, #0
	strb	r3, [sp, #14]
	.loc 1 1673 15
	ldr	r3, .L241
	ldr	r3, [r3]
	.loc 1 1673 5
	cmp	r3, #0
	bne	.L238
	.loc 1 1674 10
	mvn	r3, #126
	b	.L240
.L238:
	.loc 1 1677 20
	ldr	r3, .L241
	ldr	r3, [r3]
	ldr	r4, [r3, #12]
	.loc 1 1677 39
	ldr	r3, .L241
	ldr	r3, [r3]
	.loc 1 1677 12
	ldrb	r0, [r3, #1]	@ zero_extendqisi2
	add	r2, sp, #14
	movs	r3, #1
	movs	r1, #23
	blx	r4
.LVL51:
	mov	r3, r0
	strb	r3, [sp, #15]
	.loc 1 1680 39
	ldrb	r3, [sp, #14]	@ zero_extendqisi2
	asrs	r3, r3, #3
	uxtb	r3, r3
	and	r3, r3, #1
	uxtb	r2, r3
	.loc 1 1680 15
	ldr	r3, [sp, #4]
	strb	r2, [r3]
	.loc 1 1683 9
	ldrsb	r3, [sp, #15]
.L240:
	.loc 1 1684 1 discriminator 1
	mov	r0, r3
	add	sp, sp, #16
.LCFI107:
	@ sp needed
	pop	{r4, pc}
.L242:
	.align	2
.L241:
	.word	p_bmg160
.LFE35:
	.size	bmg160_get_intr1_highrate, .-bmg160_get_intr1_highrate
	.section	.text.bmg160_set_intr1_highrate,"ax",%progbits
	.align	1
	.global	bmg160_set_intr1_highrate
	.syntax unified
	.thumb
	.thumb_func
	.fpu fpv4-sp-d16
	.type	bmg160_set_intr1_highrate, %function
bmg160_set_intr1_highrate:
.LFB36:
	.loc 1 1707 1
	@ args = 0, pretend = 0, frame = 16
	@ frame_needed = 0, uses_anonymous_args = 0
	push	{r4, lr}
.LCFI108:
	sub	sp, sp, #16
.LCFI109:
	mov	r3, r0
	strb	r3, [sp, #7]
	.loc 1 1709 5
	movs	r3, #255
	strb	r3, [sp, #15]
	.loc 1 1710 5
	movs	r3, #0
	strb	r3, [sp, #14]
	.loc 1 1712 15
	ldr	r3, .L247
	ldr	r3, [r3]
	.loc 1 1712 5
	cmp	r3, #0
	bne	.L244
	.loc 1 1713 10
	mvn	r3, #126
	b	.L246
.L244:
	.loc 1 1716 20
	ldr	r3, .L247
	ldr	r3, [r3]
	ldr	r4, [r3, #12]
	.loc 1 1716 39
	ldr	r3, .L247
	ldr	r3, [r3]
	.loc 1 1716 12
	ldrb	r0, [r3, #1]	@ zero_extendqisi2
	add	r2, sp, #14
	movs	r3, #1
	movs	r1, #23
	blx	r4
.LVL52:
	mov	r3, r0
	strb	r3, [sp, #15]
	.loc 1 1719 26
	ldrb	r3, [sp, #14]	@ zero_extendqisi2
	sxtb	r3, r3
	bic	r3, r3, #8
	sxtb	r2, r3
	.loc 1 1719 48
	ldrb	r3, [sp, #7]	@ zero_extendqisi2
	lsls	r3, r3, #3
	.loc 1 1719 54
	sxtb	r3, r3
	and	r3, r3, #8
	sxtb	r3, r3
	.loc 1 1719 35
	orrs	r3, r3, r2
	sxtb	r3, r3
	uxtb	r3, r3
	.loc 1 1719 13
	strb	r3, [sp, #14]
	.loc 1 1721 21
	ldr	r3, .L247
	ldr	r3, [r3]
	ldr	r4, [r3, #8]
	.loc 1 1721 41
	ldr	r3, .L247
	ldr	r3, [r3]
	.loc 1 1721 13
	ldrb	r0, [r3, #1]	@ zero_extendqisi2
	add	r2, sp, #14
	movs	r3, #1
	movs	r1, #23
	blx	r4
.LVL53:
	mov	r3, r0
	uxtb	r2, r3
	.loc 1 1721 10
	ldrb	r3, [sp, #15]	@ zero_extendqisi2
	add	r3, r3, r2
	uxtb	r3, r3
	strb	r3, [sp, #15]
	.loc 1 1725 9
	ldrsb	r3, [sp, #15]
.L246:
	.loc 1 1726 1 discriminator 1
	mov	r0, r3
	add	sp, sp, #16
.LCFI110:
	@ sp needed
	pop	{r4, pc}
.L248:
	.align	2
.L247:
	.word	p_bmg160
.LFE36:
	.size	bmg160_set_intr1_highrate, .-bmg160_set_intr1_highrate
	.section	.text.bmg160_get_intr1_any_motion,"ax",%progbits
	.align	1
	.global	bmg160_get_intr1_any_motion
	.syntax unified
	.thumb
	.thumb_func
	.fpu fpv4-sp-d16
	.type	bmg160_get_intr1_any_motion, %function
bmg160_get_intr1_any_motion:
.LFB37:
	.loc 1 1749 1
	@ args = 0, pretend = 0, frame = 16
	@ frame_needed = 0, uses_anonymous_args = 0
	push	{r4, lr}
.LCFI111:
	sub	sp, sp, #16
.LCFI112:
	str	r0, [sp, #4]
	.loc 1 1751 5
	movs	r3, #255
	strb	r3, [sp, #15]
	.loc 1 1752 5
	movs	r3, #0
	strb	r3, [sp, #14]
	.loc 1 1754 15
	ldr	r3, .L253
	ldr	r3, [r3]
	.loc 1 1754 5
	cmp	r3, #0
	bne	.L250
	.loc 1 1755 10
	mvn	r3, #126
	b	.L252
.L250:
	.loc 1 1758 20
	ldr	r3, .L253
	ldr	r3, [r3]
	ldr	r4, [r3, #12]
	.loc 1 1758 39
	ldr	r3, .L253
	ldr	r3, [r3]
	.loc 1 1758 12
	ldrb	r0, [r3, #1]	@ zero_extendqisi2
	add	r2, sp, #14
	movs	r3, #1
	movs	r1, #23
	blx	r4
.LVL54:
	mov	r3, r0
	strb	r3, [sp, #15]
	.loc 1 1761 50
	ldrb	r3, [sp, #14]	@ zero_extendqisi2
	asrs	r3, r3, #1
	uxtb	r3, r3
	and	r3, r3, #1
	uxtb	r2, r3
	.loc 1 1761 26
	ldr	r3, [sp, #4]
	strb	r2, [r3]
	.loc 1 1764 9
	ldrsb	r3, [sp, #15]
.L252:
	.loc 1 1765 1 discriminator 1
	mov	r0, r3
	add	sp, sp, #16
.LCFI113:
	@ sp needed
	pop	{r4, pc}
.L254:
	.align	2
.L253:
	.word	p_bmg160
.LFE37:
	.size	bmg160_get_intr1_any_motion, .-bmg160_get_intr1_any_motion
	.section	.text.bmg160_set_intr1_any_motion,"ax",%progbits
	.align	1
	.global	bmg160_set_intr1_any_motion
	.syntax unified
	.thumb
	.thumb_func
	.fpu fpv4-sp-d16
	.type	bmg160_set_intr1_any_motion, %function
bmg160_set_intr1_any_motion:
.LFB38:
	.loc 1 1788 1
	@ args = 0, pretend = 0, frame = 16
	@ frame_needed = 0, uses_anonymous_args = 0
	push	{r4, lr}
.LCFI114:
	sub	sp, sp, #16
.LCFI115:
	mov	r3, r0
	strb	r3, [sp, #7]
	.loc 1 1790 5
	movs	r3, #255
	strb	r3, [sp, #15]
	.loc 1 1791 5
	movs	r3, #0
	strb	r3, [sp, #14]
	.loc 1 1793 15
	ldr	r3, .L259
	ldr	r3, [r3]
	.loc 1 1793 5
	cmp	r3, #0
	bne	.L256
	.loc 1 1794 10
	mvn	r3, #126
	b	.L258
.L256:
	.loc 1 1797 20
	ldr	r3, .L259
	ldr	r3, [r3]
	ldr	r4, [r3, #12]
	.loc 1 1797 39
	ldr	r3, .L259
	ldr	r3, [r3]
	.loc 1 1797 12
	ldrb	r0, [r3, #1]	@ zero_extendqisi2
	add	r2, sp, #14
	movs	r3, #1
	movs	r1, #23
	blx	r4
.LVL55:
	mov	r3, r0
	strb	r3, [sp, #15]
	.loc 1 1800 26
	ldrb	r3, [sp, #14]	@ zero_extendqisi2
	sxtb	r3, r3
	bic	r3, r3, #2
	sxtb	r2, r3
	.loc 1 1800 59
	ldrb	r3, [sp, #7]	@ zero_extendqisi2
	lsls	r3, r3, #1
	.loc 1 1800 65
	sxtb	r3, r3
	and	r3, r3, #2
	sxtb	r3, r3
	.loc 1 1800 35
	orrs	r3, r3, r2
	sxtb	r3, r3
	uxtb	r3, r3
	.loc 1 1800 13
	strb	r3, [sp, #14]
	.loc 1 1802 21
	ldr	r3, .L259
	ldr	r3, [r3]
	ldr	r4, [r3, #8]
	.loc 1 1802 41
	ldr	r3, .L259
	ldr	r3, [r3]
	.loc 1 1802 13
	ldrb	r0, [r3, #1]	@ zero_extendqisi2
	add	r2, sp, #14
	movs	r3, #1
	movs	r1, #23
	blx	r4
.LVL56:
	mov	r3, r0
	uxtb	r2, r3
	.loc 1 1802 10
	ldrb	r3, [sp, #15]	@ zero_extendqisi2
	add	r3, r3, r2
	uxtb	r3, r3
	strb	r3, [sp, #15]
	.loc 1 1806 9
	ldrsb	r3, [sp, #15]
.L258:
	.loc 1 1807 1 discriminator 1
	mov	r0, r3
	add	sp, sp, #16
.LCFI116:
	@ sp needed
	pop	{r4, pc}
.L260:
	.align	2
.L259:
	.word	p_bmg160
.LFE38:
	.size	bmg160_set_intr1_any_motion, .-bmg160_set_intr1_any_motion
	.section	.text.bmg160_get_intr_data,"ax",%progbits
	.align	1
	.global	bmg160_get_intr_data
	.syntax unified
	.thumb
	.thumb_func
	.fpu fpv4-sp-d16
	.type	bmg160_get_intr_data, %function
bmg160_get_intr_data:
.LFB39:
	.loc 1 1835 1
	@ args = 0, pretend = 0, frame = 16
	@ frame_needed = 0, uses_anonymous_args = 0
	push	{r4, lr}
.LCFI117:
	sub	sp, sp, #16
.LCFI118:
	mov	r3, r0
	str	r1, [sp]
	strb	r3, [sp, #7]
	.loc 1 1837 5
	movs	r3, #255
	strb	r3, [sp, #15]
	.loc 1 1838 5
	movs	r3, #0
	strb	r3, [sp, #14]
	.loc 1 1840 15
	ldr	r3, .L270
	ldr	r3, [r3]
	.loc 1 1840 5
	cmp	r3, #0
	bne	.L262
	.loc 1 1841 10
	mvn	r3, #126
	b	.L268
.L262:
	.loc 1 1843 3
	ldrb	r3, [sp, #7]	@ zero_extendqisi2
	cmp	r3, #0
	beq	.L264
	cmp	r3, #1
	beq	.L265
	b	.L269
.L264:
	.loc 1 1846 21
	ldr	r3, .L270
	ldr	r3, [r3]
	ldr	r4, [r3, #12]
	.loc 1 1846 40
	ldr	r3, .L270
	ldr	r3, [r3]
	.loc 1 1846 13
	ldrb	r0, [r3, #1]	@ zero_extendqisi2
	add	r2, sp, #14
	movs	r3, #1
	movs	r1, #24
	blx	r4
.LVL57:
	mov	r3, r0
	strb	r3, [sp, #15]
	.loc 1 1850 44
	ldrb	r3, [sp, #14]	@ zero_extendqisi2
	and	r3, r3, #1
	uxtb	r2, r3
	.loc 1 1850 20
	ldr	r3, [sp]
	strb	r2, [r3]
	.loc 1 1852 4
	b	.L267
.L265:
	.loc 1 1854 21
	ldr	r3, .L270
	ldr	r3, [r3]
	ldr	r4, [r3, #12]
	.loc 1 1854 40
	ldr	r3, .L270
	ldr	r3, [r3]
	.loc 1 1854 13
	ldrb	r0, [r3, #1]	@ zero_extendqisi2
	add	r2, sp, #14
	movs	r3, #1
	movs	r1, #24
	blx	r4
.LVL58:
	mov	r3, r0
	strb	r3, [sp, #15]
	.loc 1 1858 44
	ldrb	r3, [sp, #14]	@ zero_extendqisi2
	lsrs	r3, r3, #7
	uxtb	r2, r3
	.loc 1 1858 20
	ldr	r3, [sp]
	strb	r2, [r3]
	.loc 1 1860 4
	b	.L267
.L269:
	.loc 1 1862 11
	movs	r3, #254
	strb	r3, [sp, #15]
	.loc 1 1863 4
	nop
.L267:
	.loc 1 1866 9
	ldrsb	r3, [sp, #15]
.L268:
	.loc 1 1867 1 discriminator 1
	mov	r0, r3
	add	sp, sp, #16
.LCFI119:
	@ sp needed
	pop	{r4, pc}
.L271:
	.align	2
.L270:
	.word	p_bmg160
.LFE39:
	.size	bmg160_get_intr_data, .-bmg160_get_intr_data
	.section	.text.bmg160_set_intr_data,"ax",%progbits
	.align	1
	.global	bmg160_set_intr_data
	.syntax unified
	.thumb
	.thumb_func
	.fpu fpv4-sp-d16
	.type	bmg160_set_intr_data, %function
bmg160_set_intr_data:
.LFB40:
	.loc 1 1895 1
	@ args = 0, pretend = 0, frame = 16
	@ frame_needed = 0, uses_anonymous_args = 0
	push	{r4, lr}
.LCFI120:
	sub	sp, sp, #16
.LCFI121:
	mov	r3, r0
	mov	r2, r1
	strb	r3, [sp, #7]
	mov	r3, r2
	strb	r3, [sp, #6]
	.loc 1 1897 5
	movs	r3, #255
	strb	r3, [sp, #15]
	.loc 1 1898 5
	movs	r3, #0
	strb	r3, [sp, #14]
	.loc 1 1900 15
	ldr	r3, .L281
	ldr	r3, [r3]
	.loc 1 1900 5
	cmp	r3, #0
	bne	.L273
	.loc 1 1901 10
	mvn	r3, #126
	b	.L279
.L273:
	.loc 1 1903 4
	ldrb	r3, [sp, #7]	@ zero_extendqisi2
	cmp	r3, #0
	beq	.L275
	cmp	r3, #1
	beq	.L276
	b	.L280
.L275:
	.loc 1 1906 22
	ldr	r3, .L281
	ldr	r3, [r3]
	ldr	r4, [r3, #12]
	.loc 1 1906 41
	ldr	r3, .L281
	ldr	r3, [r3]
	.loc 1 1906 14
	ldrb	r0, [r3, #1]	@ zero_extendqisi2
	add	r2, sp, #14
	movs	r3, #1
	movs	r1, #24
	blx	r4
.LVL59:
	mov	r3, r0
	strb	r3, [sp, #15]
	.loc 1 1910 28
	ldrb	r3, [sp, #14]	@ zero_extendqisi2
	sxtb	r3, r3
	bic	r3, r3, #1
	sxtb	r2, r3
	.loc 1 1910 60
	ldrsb	r3, [sp, #6]
	and	r3, r3, #1
	sxtb	r3, r3
	.loc 1 1910 37
	orrs	r3, r3, r2
	sxtb	r3, r3
	uxtb	r3, r3
	.loc 1 1910 15
	strb	r3, [sp, #14]
	.loc 1 1912 23
	ldr	r3, .L281
	ldr	r3, [r3]
	ldr	r4, [r3, #8]
	.loc 1 1912 43
	ldr	r3, .L281
	ldr	r3, [r3]
	.loc 1 1912 15
	ldrb	r0, [r3, #1]	@ zero_extendqisi2
	add	r2, sp, #14
	movs	r3, #1
	movs	r1, #24
	blx	r4
.LVL60:
	mov	r3, r0
	uxtb	r2, r3
	.loc 1 1912 12
	ldrb	r3, [sp, #15]	@ zero_extendqisi2
	add	r3, r3, r2
	uxtb	r3, r3
	strb	r3, [sp, #15]
	.loc 1 1916 5
	b	.L278
.L276:
	.loc 1 1918 22
	ldr	r3, .L281
	ldr	r3, [r3]
	ldr	r4, [r3, #12]
	.loc 1 1918 41
	ldr	r3, .L281
	ldr	r3, [r3]
	.loc 1 1918 14
	ldrb	r0, [r3, #1]	@ zero_extendqisi2
	add	r2, sp, #14
	movs	r3, #1
	movs	r1, #24
	blx	r4
.LVL61:
	mov	r3, r0
	strb	r3, [sp, #15]
	.loc 1 1922 28
	ldrb	r3, [sp, #14]	@ zero_extendqisi2
	sxtb	r3, r3
	and	r3, r3, #127
	sxtb	r2, r3
	.loc 1 1922 54
	ldrb	r3, [sp, #6]	@ zero_extendqisi2
	lsls	r3, r3, #7
	.loc 1 1922 37
	sxtb	r3, r3
	orrs	r3, r3, r2
	sxtb	r3, r3
	uxtb	r3, r3
	.loc 1 1922 15
	strb	r3, [sp, #14]
	.loc 1 1924 23
	ldr	r3, .L281
	ldr	r3, [r3]
	ldr	r4, [r3, #8]
	.loc 1 1924 43
	ldr	r3, .L281
	ldr	r3, [r3]
	.loc 1 1924 15
	ldrb	r0, [r3, #1]	@ zero_extendqisi2
	add	r2, sp, #14
	movs	r3, #1
	movs	r1, #24
	blx	r4
.LVL62:
	mov	r3, r0
	uxtb	r2, r3
	.loc 1 1924 12
	ldrb	r3, [sp, #15]	@ zero_extendqisi2
	add	r3, r3, r2
	uxtb	r3, r3
	strb	r3, [sp, #15]
	.loc 1 1928 5
	b	.L278
.L280:
	.loc 1 1930 12
	movs	r3, #254
	strb	r3, [sp, #15]
	.loc 1 1931 5
	nop
.L278:
	.loc 1 1934 10
	ldrsb	r3, [sp, #15]
.L279:
	.loc 1 1935 2 discriminator 1
	mov	r0, r3
	add	sp, sp, #16
.LCFI122:
	@ sp needed
	pop	{r4, pc}
.L282:
	.align	2
.L281:
	.word	p_bmg160
.LFE40:
	.size	bmg160_set_intr_data, .-bmg160_set_intr_data
	.section	.text.bmg160_get_intr2_offset,"ax",%progbits
	.align	1
	.global	bmg160_get_intr2_offset
	.syntax unified
	.thumb
	.thumb_func
	.fpu fpv4-sp-d16
	.type	bmg160_get_intr2_offset, %function
bmg160_get_intr2_offset:
.LFB41:
	.loc 1 1963 1
	@ args = 0, pretend = 0, frame = 16
	@ frame_needed = 0, uses_anonymous_args = 0
	push	{r4, lr}
.LCFI123:
	sub	sp, sp, #16
.LCFI124:
	mov	r3, r0
	str	r1, [sp]
	strb	r3, [sp, #7]
	.loc 1 1965 5
	movs	r3, #255
	strb	r3, [sp, #15]
	.loc 1 1966 5
	movs	r3, #0
	strb	r3, [sp, #14]
	.loc 1 1968 15
	ldr	r3, .L290
	ldr	r3, [r3]
	.loc 1 1968 5
	cmp	r3, #0
	bne	.L284
	.loc 1 1969 10
	mvn	r3, #126
	b	.L289
.L284:
	.loc 1 1971 3
	ldrb	r3, [sp, #7]	@ zero_extendqisi2
	cmp	r3, #1
	beq	.L286
	cmp	r3, #2
	bne	.L287
	.loc 1 1974 21
	ldr	r3, .L290
	ldr	r3, [r3]
	ldr	r4, [r3, #12]
	.loc 1 1974 40
	ldr	r3, .L290
	ldr	r3, [r3]
	.loc 1 1974 13
	ldrb	r0, [r3, #1]	@ zero_extendqisi2
	add	r2, sp, #14
	movs	r3, #1
	movs	r1, #24
	blx	r4
.LVL63:
	mov	r3, r0
	strb	r3, [sp, #15]
	.loc 1 1978 47
	ldrb	r3, [sp, #14]	@ zero_extendqisi2
	asrs	r3, r3, #6
	uxtb	r3, r3
	and	r3, r3, #1
	uxtb	r2, r3
	.loc 1 1978 23
	ldr	r3, [sp]
	strb	r2, [r3]
	.loc 1 1980 4
	b	.L288
.L286:
	.loc 1 1982 21
	ldr	r3, .L290
	ldr	r3, [r3]
	ldr	r4, [r3, #12]
	.loc 1 1982 40
	ldr	r3, .L290
	ldr	r3, [r3]
	.loc 1 1982 13
	ldrb	r0, [r3, #1]	@ zero_extendqisi2
	add	r2, sp, #14
	movs	r3, #1
	movs	r1, #24
	blx	r4
.LVL64:
	mov	r3, r0
	strb	r3, [sp, #15]
	.loc 1 1986 47
	ldrb	r3, [sp, #14]	@ zero_extendqisi2
	asrs	r3, r3, #4
	uxtb	r3, r3
	and	r3, r3, #1
	uxtb	r2, r3
	.loc 1 1986 23
	ldr	r3, [sp]
	strb	r2, [r3]
	.loc 1 1988 4
	b	.L288
.L287:
	.loc 1 1990 11
	movs	r3, #254
	strb	r3, [sp, #15]
	.loc 1 1991 4
	nop
.L288:
	.loc 1 1994 9
	ldrsb	r3, [sp, #15]
.L289:
	.loc 1 1995 1 discriminator 1
	mov	r0, r3
	add	sp, sp, #16
.LCFI125:
	@ sp needed
	pop	{r4, pc}
.L291:
	.align	2
.L290:
	.word	p_bmg160
.LFE41:
	.size	bmg160_get_intr2_offset, .-bmg160_get_intr2_offset
	.section	.text.bmg160_set_intr2_offset,"ax",%progbits
	.align	1
	.global	bmg160_set_intr2_offset
	.syntax unified
	.thumb
	.thumb_func
	.fpu fpv4-sp-d16
	.type	bmg160_set_intr2_offset, %function
bmg160_set_intr2_offset:
.LFB42:
	.loc 1 2023 1
	@ args = 0, pretend = 0, frame = 16
	@ frame_needed = 0, uses_anonymous_args = 0
	push	{r4, lr}
.LCFI126:
	sub	sp, sp, #16
.LCFI127:
	mov	r3, r0
	mov	r2, r1
	strb	r3, [sp, #7]
	mov	r3, r2
	strb	r3, [sp, #6]
	.loc 1 2025 5
	movs	r3, #255
	strb	r3, [sp, #15]
	.loc 1 2026 5
	movs	r3, #0
	strb	r3, [sp, #14]
	.loc 1 2028 15
	ldr	r3, .L299
	ldr	r3, [r3]
	.loc 1 2028 5
	cmp	r3, #0
	bne	.L293
	.loc 1 2029 10
	mvn	r3, #126
	b	.L298
.L293:
	.loc 1 2031 3
	ldrb	r3, [sp, #7]	@ zero_extendqisi2
	cmp	r3, #1
	beq	.L295
	cmp	r3, #2
	bne	.L296
	.loc 1 2034 21
	ldr	r3, .L299
	ldr	r3, [r3]
	ldr	r4, [r3, #12]
	.loc 1 2034 40
	ldr	r3, .L299
	ldr	r3, [r3]
	.loc 1 2034 13
	ldrb	r0, [r3, #1]	@ zero_extendqisi2
	add	r2, sp, #14
	movs	r3, #1
	movs	r1, #24
	blx	r4
.LVL65:
	mov	r3, r0
	strb	r3, [sp, #15]
	.loc 1 2038 27
	ldrb	r3, [sp, #14]	@ zero_extendqisi2
	sxtb	r3, r3
	bic	r3, r3, #64
	sxtb	r2, r3
	.loc 1 2038 56
	ldrb	r3, [sp, #6]	@ zero_extendqisi2
	lsls	r3, r3, #6
	.loc 1 2038 62
	sxtb	r3, r3
	and	r3, r3, #64
	sxtb	r3, r3
	.loc 1 2038 36
	orrs	r3, r3, r2
	sxtb	r3, r3
	uxtb	r3, r3
	.loc 1 2038 14
	strb	r3, [sp, #14]
	.loc 1 2040 22
	ldr	r3, .L299
	ldr	r3, [r3]
	ldr	r4, [r3, #8]
	.loc 1 2040 42
	ldr	r3, .L299
	ldr	r3, [r3]
	.loc 1 2040 14
	ldrb	r0, [r3, #1]	@ zero_extendqisi2
	add	r2, sp, #14
	movs	r3, #1
	movs	r1, #24
	blx	r4
.LVL66:
	mov	r3, r0
	uxtb	r2, r3
	.loc 1 2040 11
	ldrb	r3, [sp, #15]	@ zero_extendqisi2
	add	r3, r3, r2
	uxtb	r3, r3
	strb	r3, [sp, #15]
	.loc 1 2044 4
	b	.L297
.L295:
	.loc 1 2046 21
	ldr	r3, .L299
	ldr	r3, [r3]
	ldr	r4, [r3, #12]
	.loc 1 2046 40
	ldr	r3, .L299
	ldr	r3, [r3]
	.loc 1 2046 13
	ldrb	r0, [r3, #1]	@ zero_extendqisi2
	add	r2, sp, #14
	movs	r3, #1
	movs	r1, #24
	blx	r4
.LVL67:
	mov	r3, r0
	strb	r3, [sp, #15]
	.loc 1 2050 27
	ldrb	r3, [sp, #14]	@ zero_extendqisi2
	sxtb	r3, r3
	bic	r3, r3, #16
	sxtb	r2, r3
	.loc 1 2050 56
	ldrb	r3, [sp, #6]	@ zero_extendqisi2
	lsls	r3, r3, #4
	.loc 1 2050 62
	sxtb	r3, r3
	and	r3, r3, #16
	sxtb	r3, r3
	.loc 1 2050 36
	orrs	r3, r3, r2
	sxtb	r3, r3
	uxtb	r3, r3
	.loc 1 2050 14
	strb	r3, [sp, #14]
	.loc 1 2052 22
	ldr	r3, .L299
	ldr	r3, [r3]
	ldr	r4, [r3, #8]
	.loc 1 2052 42
	ldr	r3, .L299
	ldr	r3, [r3]
	.loc 1 2052 14
	ldrb	r0, [r3, #1]	@ zero_extendqisi2
	add	r2, sp, #14
	movs	r3, #1
	movs	r1, #24
	blx	r4
.LVL68:
	mov	r3, r0
	uxtb	r2, r3
	.loc 1 2052 11
	ldrb	r3, [sp, #15]	@ zero_extendqisi2
	add	r3, r3, r2
	uxtb	r3, r3
	strb	r3, [sp, #15]
	.loc 1 2056 4
	b	.L297
.L296:
	.loc 1 2058 11
	movs	r3, #254
	strb	r3, [sp, #15]
	.loc 1 2059 4
	nop
.L297:
	.loc 1 2062 9
	ldrsb	r3, [sp, #15]
.L298:
	.loc 1 2063 1 discriminator 1
	mov	r0, r3
	add	sp, sp, #16
.LCFI128:
	@ sp needed
	pop	{r4, pc}
.L300:
	.align	2
.L299:
	.word	p_bmg160
.LFE42:
	.size	bmg160_set_intr2_offset, .-bmg160_set_intr2_offset
	.section	.text.bmg160_get_intr_offset,"ax",%progbits
	.align	1
	.global	bmg160_get_intr_offset
	.syntax unified
	.thumb
	.thumb_func
	.fpu fpv4-sp-d16
	.type	bmg160_get_intr_offset, %function
bmg160_get_intr_offset:
.LFB43:
	.loc 1 2091 1
	@ args = 0, pretend = 0, frame = 16
	@ frame_needed = 0, uses_anonymous_args = 0
	push	{r4, lr}
.LCFI129:
	sub	sp, sp, #16
.LCFI130:
	mov	r3, r0
	str	r1, [sp]
	strb	r3, [sp, #7]
	.loc 1 2093 5
	movs	r3, #255
	strb	r3, [sp, #15]
	.loc 1 2094 5
	movs	r3, #0
	strb	r3, [sp, #14]
	.loc 1 2096 15
	ldr	r3, .L308
	ldr	r3, [r3]
	.loc 1 2096 5
	cmp	r3, #0
	bne	.L302
	.loc 1 2097 10
	mvn	r3, #126
	b	.L307
.L302:
	.loc 1 2099 3
	ldrb	r3, [sp, #7]	@ zero_extendqisi2
	cmp	r3, #1
	beq	.L304
	cmp	r3, #2
	bne	.L305
	.loc 1 2102 21
	ldr	r3, .L308
	ldr	r3, [r3]
	ldr	r4, [r3, #12]
	.loc 1 2102 40
	ldr	r3, .L308
	ldr	r3, [r3]
	.loc 1 2102 13
	ldrb	r0, [r3, #1]	@ zero_extendqisi2
	add	r2, sp, #14
	movs	r3, #1
	movs	r1, #24
	blx	r4
.LVL69:
	mov	r3, r0
	strb	r3, [sp, #15]
	.loc 1 2106 47
	ldrb	r3, [sp, #14]	@ zero_extendqisi2
	asrs	r3, r3, #1
	uxtb	r3, r3
	and	r3, r3, #1
	uxtb	r2, r3
	.loc 1 2106 23
	ldr	r3, [sp]
	strb	r2, [r3]
	.loc 1 2108 4
	b	.L306
.L304:
	.loc 1 2110 21
	ldr	r3, .L308
	ldr	r3, [r3]
	ldr	r4, [r3, #12]
	.loc 1 2110 40
	ldr	r3, .L308
	ldr	r3, [r3]
	.loc 1 2110 13
	ldrb	r0, [r3, #1]	@ zero_extendqisi2
	add	r2, sp, #14
	movs	r3, #1
	movs	r1, #24
	blx	r4
.LVL70:
	mov	r3, r0
	strb	r3, [sp, #15]
	.loc 1 2114 47
	ldrb	r3, [sp, #14]	@ zero_extendqisi2
	asrs	r3, r3, #3
	uxtb	r3, r3
	and	r3, r3, #1
	uxtb	r2, r3
	.loc 1 2114 23
	ldr	r3, [sp]
	strb	r2, [r3]
	.loc 1 2116 4
	b	.L306
.L305:
	.loc 1 2118 11
	movs	r3, #254
	strb	r3, [sp, #15]
	.loc 1 2119 4
	nop
.L306:
	.loc 1 2122 9
	ldrsb	r3, [sp, #15]
.L307:
	.loc 1 2123 1 discriminator 1
	mov	r0, r3
	add	sp, sp, #16
.LCFI131:
	@ sp needed
	pop	{r4, pc}
.L309:
	.align	2
.L308:
	.word	p_bmg160
.LFE43:
	.size	bmg160_get_intr_offset, .-bmg160_get_intr_offset
	.section	.text.bmg160_set_intr1_offset,"ax",%progbits
	.align	1
	.global	bmg160_set_intr1_offset
	.syntax unified
	.thumb
	.thumb_func
	.fpu fpv4-sp-d16
	.type	bmg160_set_intr1_offset, %function
bmg160_set_intr1_offset:
.LFB44:
	.loc 1 2151 1
	@ args = 0, pretend = 0, frame = 16
	@ frame_needed = 0, uses_anonymous_args = 0
	push	{r4, lr}
.LCFI132:
	sub	sp, sp, #16
.LCFI133:
	mov	r3, r0
	mov	r2, r1
	strb	r3, [sp, #7]
	mov	r3, r2
	strb	r3, [sp, #6]
	.loc 1 2153 5
	movs	r3, #255
	strb	r3, [sp, #15]
	.loc 1 2154 5
	movs	r3, #0
	strb	r3, [sp, #14]
	.loc 1 2156 15
	ldr	r3, .L317
	ldr	r3, [r3]
	.loc 1 2156 5
	cmp	r3, #0
	bne	.L311
	.loc 1 2157 10
	mvn	r3, #126
	b	.L316
.L311:
	.loc 1 2159 3
	ldrb	r3, [sp, #7]	@ zero_extendqisi2
	cmp	r3, #1
	beq	.L313
	cmp	r3, #2
	bne	.L314
	.loc 1 2162 21
	ldr	r3, .L317
	ldr	r3, [r3]
	ldr	r4, [r3, #12]
	.loc 1 2162 40
	ldr	r3, .L317
	ldr	r3, [r3]
	.loc 1 2162 13
	ldrb	r0, [r3, #1]	@ zero_extendqisi2
	add	r2, sp, #14
	movs	r3, #1
	movs	r1, #24
	blx	r4
.LVL71:
	mov	r3, r0
	strb	r3, [sp, #15]
	.loc 1 2166 27
	ldrb	r3, [sp, #14]	@ zero_extendqisi2
	sxtb	r3, r3
	bic	r3, r3, #2
	sxtb	r2, r3
	.loc 1 2166 56
	ldrb	r3, [sp, #6]	@ zero_extendqisi2
	lsls	r3, r3, #1
	.loc 1 2166 62
	sxtb	r3, r3
	and	r3, r3, #2
	sxtb	r3, r3
	.loc 1 2166 36
	orrs	r3, r3, r2
	sxtb	r3, r3
	uxtb	r3, r3
	.loc 1 2166 14
	strb	r3, [sp, #14]
	.loc 1 2168 22
	ldr	r3, .L317
	ldr	r3, [r3]
	ldr	r4, [r3, #8]
	.loc 1 2168 42
	ldr	r3, .L317
	ldr	r3, [r3]
	.loc 1 2168 14
	ldrb	r0, [r3, #1]	@ zero_extendqisi2
	add	r2, sp, #14
	movs	r3, #1
	movs	r1, #24
	blx	r4
.LVL72:
	mov	r3, r0
	uxtb	r2, r3
	.loc 1 2168 11
	ldrb	r3, [sp, #15]	@ zero_extendqisi2
	add	r3, r3, r2
	uxtb	r3, r3
	strb	r3, [sp, #15]
	.loc 1 2172 4
	b	.L315
.L313:
	.loc 1 2174 21
	ldr	r3, .L317
	ldr	r3, [r3]
	ldr	r4, [r3, #12]
	.loc 1 2174 40
	ldr	r3, .L317
	ldr	r3, [r3]
	.loc 1 2174 13
	ldrb	r0, [r3, #1]	@ zero_extendqisi2
	add	r2, sp, #14
	movs	r3, #1
	movs	r1, #24
	blx	r4
.LVL73:
	mov	r3, r0
	strb	r3, [sp, #15]
	.loc 1 2178 27
	ldrb	r3, [sp, #14]	@ zero_extendqisi2
	sxtb	r3, r3
	bic	r3, r3, #8
	sxtb	r2, r3
	.loc 1 2178 56
	ldrb	r3, [sp, #6]	@ zero_extendqisi2
	lsls	r3, r3, #3
	.loc 1 2178 62
	sxtb	r3, r3
	and	r3, r3, #8
	sxtb	r3, r3
	.loc 1 2178 36
	orrs	r3, r3, r2
	sxtb	r3, r3
	uxtb	r3, r3
	.loc 1 2178 14
	strb	r3, [sp, #14]
	.loc 1 2180 22
	ldr	r3, .L317
	ldr	r3, [r3]
	ldr	r4, [r3, #8]
	.loc 1 2180 42
	ldr	r3, .L317
	ldr	r3, [r3]
	.loc 1 2180 14
	ldrb	r0, [r3, #1]	@ zero_extendqisi2
	add	r2, sp, #14
	movs	r3, #1
	movs	r1, #24
	blx	r4
.LVL74:
	mov	r3, r0
	uxtb	r2, r3
	.loc 1 2180 11
	ldrb	r3, [sp, #15]	@ zero_extendqisi2
	add	r3, r3, r2
	uxtb	r3, r3
	strb	r3, [sp, #15]
	.loc 1 2184 4
	b	.L315
.L314:
	.loc 1 2186 11
	movs	r3, #254
	strb	r3, [sp, #15]
	.loc 1 2187 4
	nop
.L315:
	.loc 1 2190 9
	ldrsb	r3, [sp, #15]
.L316:
	.loc 1 2191 1 discriminator 1
	mov	r0, r3
	add	sp, sp, #16
.LCFI134:
	@ sp needed
	pop	{r4, pc}
.L318:
	.align	2
.L317:
	.word	p_bmg160
.LFE44:
	.size	bmg160_set_intr1_offset, .-bmg160_set_intr1_offset
	.section	.text.bmg160_get_intr2_fifo,"ax",%progbits
	.align	1
	.global	bmg160_get_intr2_fifo
	.syntax unified
	.thumb
	.thumb_func
	.fpu fpv4-sp-d16
	.type	bmg160_get_intr2_fifo, %function
bmg160_get_intr2_fifo:
.LFB45:
	.loc 1 2213 1
	@ args = 0, pretend = 0, frame = 16
	@ frame_needed = 0, uses_anonymous_args = 0
	push	{r4, lr}
.LCFI135:
	sub	sp, sp, #16
.LCFI136:
	str	r0, [sp, #4]
	.loc 1 2215 5
	movs	r3, #255
	strb	r3, [sp, #15]
	.loc 1 2216 5
	movs	r3, #0
	strb	r3, [sp, #14]
	.loc 1 2218 15
	ldr	r3, .L323
	ldr	r3, [r3]
	.loc 1 2218 5
	cmp	r3, #0
	bne	.L320
	.loc 1 2219 10
	mvn	r3, #126
	b	.L322
.L320:
	.loc 1 2221 20
	ldr	r3, .L323
	ldr	r3, [r3]
	ldr	r4, [r3, #12]
	.loc 1 2221 39
	ldr	r3, .L323
	ldr	r3, [r3]
	.loc 1 2221 12
	ldrb	r0, [r3, #1]	@ zero_extendqisi2
	add	r2, sp, #14
	movs	r3, #1
	movs	r1, #24
	blx	r4
.LVL75:
	mov	r3, r0
	strb	r3, [sp, #15]
	.loc 1 2224 43
	ldrb	r3, [sp, #14]	@ zero_extendqisi2
	asrs	r3, r3, #5
	uxtb	r3, r3
	and	r3, r3, #1
	uxtb	r2, r3
	.loc 1 2224 19
	ldr	r3, [sp, #4]
	strb	r2, [r3]
	.loc 1 2227 9
	ldrsb	r3, [sp, #15]
.L322:
	.loc 1 2228 1 discriminator 1
	mov	r0, r3
	add	sp, sp, #16
.LCFI137:
	@ sp needed
	pop	{r4, pc}
.L324:
	.align	2
.L323:
	.word	p_bmg160
.LFE45:
	.size	bmg160_get_intr2_fifo, .-bmg160_get_intr2_fifo
	.section	.text.bmg160_get_intr1_fifo,"ax",%progbits
	.align	1
	.global	bmg160_get_intr1_fifo
	.syntax unified
	.thumb
	.thumb_func
	.fpu fpv4-sp-d16
	.type	bmg160_get_intr1_fifo, %function
bmg160_get_intr1_fifo:
.LFB46:
	.loc 1 2250 1
	@ args = 0, pretend = 0, frame = 16
	@ frame_needed = 0, uses_anonymous_args = 0
	push	{r4, lr}
.LCFI138:
	sub	sp, sp, #16
.LCFI139:
	str	r0, [sp, #4]
	.loc 1 2252 5
	movs	r3, #255
	strb	r3, [sp, #15]
	.loc 1 2253 5
	movs	r3, #0
	strb	r3, [sp, #14]
	.loc 1 2255 15
	ldr	r3, .L329
	ldr	r3, [r3]
	.loc 1 2255 5
	cmp	r3, #0
	bne	.L326
	.loc 1 2256 10
	mvn	r3, #126
	b	.L328
.L326:
	.loc 1 2259 20
	ldr	r3, .L329
	ldr	r3, [r3]
	ldr	r4, [r3, #12]
	.loc 1 2259 39
	ldr	r3, .L329
	ldr	r3, [r3]
	.loc 1 2259 12
	ldrb	r0, [r3, #1]	@ zero_extendqisi2
	add	r2, sp, #14
	movs	r3, #1
	movs	r1, #24
	blx	r4
.LVL76:
	mov	r3, r0
	strb	r3, [sp, #15]
	.loc 1 2262 43
	ldrb	r3, [sp, #14]	@ zero_extendqisi2
	asrs	r3, r3, #2
	uxtb	r3, r3
	and	r3, r3, #1
	uxtb	r2, r3
	.loc 1 2262 19
	ldr	r3, [sp, #4]
	strb	r2, [r3]
	.loc 1 2265 9
	ldrsb	r3, [sp, #15]
.L328:
	.loc 1 2266 1 discriminator 1
	mov	r0, r3
	add	sp, sp, #16
.LCFI140:
	@ sp needed
	pop	{r4, pc}
.L330:
	.align	2
.L329:
	.word	p_bmg160
.LFE46:
	.size	bmg160_get_intr1_fifo, .-bmg160_get_intr1_fifo
	.section	.text.bmg160_set_intr_fifo,"ax",%progbits
	.align	1
	.global	bmg160_set_intr_fifo
	.syntax unified
	.thumb
	.thumb_func
	.fpu fpv4-sp-d16
	.type	bmg160_set_intr_fifo, %function
bmg160_set_intr_fifo:
.LFB47:
	.loc 1 2295 1
	@ args = 0, pretend = 0, frame = 16
	@ frame_needed = 0, uses_anonymous_args = 0
	push	{r4, lr}
.LCFI141:
	sub	sp, sp, #16
.LCFI142:
	mov	r3, r0
	mov	r2, r1
	strb	r3, [sp, #7]
	mov	r3, r2
	strb	r3, [sp, #6]
	.loc 1 2297 5
	movs	r3, #255
	strb	r3, [sp, #15]
	.loc 1 2298 5
	movs	r3, #0
	strb	r3, [sp, #14]
	.loc 1 2300 15
	ldr	r3, .L340
	ldr	r3, [r3]
	.loc 1 2300 5
	cmp	r3, #0
	bne	.L332
	.loc 1 2301 10
	mvn	r3, #126
	b	.L338
.L332:
	.loc 1 2303 3
	ldrb	r3, [sp, #7]	@ zero_extendqisi2
	cmp	r3, #0
	beq	.L334
	cmp	r3, #1
	beq	.L335
	b	.L339
.L334:
	.loc 1 2306 21
	ldr	r3, .L340
	ldr	r3, [r3]
	ldr	r4, [r3, #12]
	.loc 1 2306 40
	ldr	r3, .L340
	ldr	r3, [r3]
	.loc 1 2306 13
	ldrb	r0, [r3, #1]	@ zero_extendqisi2
	add	r2, sp, #14
	movs	r3, #1
	movs	r1, #24
	blx	r4
.LVL77:
	mov	r3, r0
	strb	r3, [sp, #15]
	.loc 1 2310 27
	ldrb	r3, [sp, #14]	@ zero_extendqisi2
	sxtb	r3, r3
	bic	r3, r3, #4
	sxtb	r2, r3
	.loc 1 2310 53
	ldrb	r3, [sp, #6]	@ zero_extendqisi2
	lsls	r3, r3, #2
	.loc 1 2310 59
	sxtb	r3, r3
	and	r3, r3, #4
	sxtb	r3, r3
	.loc 1 2310 36
	orrs	r3, r3, r2
	sxtb	r3, r3
	uxtb	r3, r3
	.loc 1 2310 14
	strb	r3, [sp, #14]
	.loc 1 2312 22
	ldr	r3, .L340
	ldr	r3, [r3]
	ldr	r4, [r3, #8]
	.loc 1 2312 42
	ldr	r3, .L340
	ldr	r3, [r3]
	.loc 1 2312 14
	ldrb	r0, [r3, #1]	@ zero_extendqisi2
	add	r2, sp, #14
	movs	r3, #1
	movs	r1, #24
	blx	r4
.LVL78:
	mov	r3, r0
	uxtb	r2, r3
	.loc 1 2312 11
	ldrb	r3, [sp, #15]	@ zero_extendqisi2
	add	r3, r3, r2
	uxtb	r3, r3
	strb	r3, [sp, #15]
	.loc 1 2316 4
	b	.L337
.L335:
	.loc 1 2318 21
	ldr	r3, .L340
	ldr	r3, [r3]
	ldr	r4, [r3, #12]
	.loc 1 2318 40
	ldr	r3, .L340
	ldr	r3, [r3]
	.loc 1 2318 13
	ldrb	r0, [r3, #1]	@ zero_extendqisi2
	add	r2, sp, #14
	movs	r3, #1
	movs	r1, #24
	blx	r4
.LVL79:
	mov	r3, r0
	strb	r3, [sp, #15]
	.loc 1 2322 27
	ldrb	r3, [sp, #14]	@ zero_extendqisi2
	sxtb	r3, r3
	bic	r3, r3, #32
	sxtb	r2, r3
	.loc 1 2322 53
	ldrb	r3, [sp, #6]	@ zero_extendqisi2
	lsls	r3, r3, #5
	.loc 1 2322 59
	sxtb	r3, r3
	and	r3, r3, #32
	sxtb	r3, r3
	.loc 1 2322 36
	orrs	r3, r3, r2
	sxtb	r3, r3
	uxtb	r3, r3
	.loc 1 2322 14
	strb	r3, [sp, #14]
	.loc 1 2324 22
	ldr	r3, .L340
	ldr	r3, [r3]
	ldr	r4, [r3, #8]
	.loc 1 2324 42
	ldr	r3, .L340
	ldr	r3, [r3]
	.loc 1 2324 14
	ldrb	r0, [r3, #1]	@ zero_extendqisi2
	add	r2, sp, #14
	movs	r3, #1
	movs	r1, #24
	blx	r4
.LVL80:
	mov	r3, r0
	uxtb	r2, r3
	.loc 1 2324 11
	ldrb	r3, [sp, #15]	@ zero_extendqisi2
	add	r3, r3, r2
	uxtb	r3, r3
	strb	r3, [sp, #15]
	.loc 1 2328 4
	b	.L337
.L339:
	.loc 1 2330 11
	movs	r3, #254
	strb	r3, [sp, #15]
	.loc 1 2331 4
	nop
.L337:
	.loc 1 2334 9
	ldrsb	r3, [sp, #15]
.L338:
	.loc 1 2335 1 discriminator 1
	mov	r0, r3
	add	sp, sp, #16
.LCFI143:
	@ sp needed
	pop	{r4, pc}
.L341:
	.align	2
.L340:
	.word	p_bmg160
.LFE47:
	.size	bmg160_set_intr_fifo, .-bmg160_set_intr_fifo
	.section	.text.bmg160_get_intr2_highrate,"ax",%progbits
	.align	1
	.global	bmg160_get_intr2_highrate
	.syntax unified
	.thumb
	.thumb_func
	.fpu fpv4-sp-d16
	.type	bmg160_get_intr2_highrate, %function
bmg160_get_intr2_highrate:
.LFB48:
	.loc 1 2358 1
	@ args = 0, pretend = 0, frame = 16
	@ frame_needed = 0, uses_anonymous_args = 0
	push	{r4, lr}
.LCFI144:
	sub	sp, sp, #16
.LCFI145:
	str	r0, [sp, #4]
	.loc 1 2360 5
	movs	r3, #255
	strb	r3, [sp, #15]
	.loc 1 2361 5
	movs	r3, #0
	strb	r3, [sp, #14]
	.loc 1 2363 15
	ldr	r3, .L346
	ldr	r3, [r3]
	.loc 1 2363 5
	cmp	r3, #0
	bne	.L343
	.loc 1 2364 10
	mvn	r3, #126
	b	.L345
.L343:
	.loc 1 2367 20
	ldr	r3, .L346
	ldr	r3, [r3]
	ldr	r4, [r3, #12]
	.loc 1 2367 39
	ldr	r3, .L346
	ldr	r3, [r3]
	.loc 1 2367 12
	ldrb	r0, [r3, #1]	@ zero_extendqisi2
	add	r2, sp, #14
	movs	r3, #1
	movs	r1, #25
	blx	r4
.LVL81:
	mov	r3, r0
	strb	r3, [sp, #15]
	.loc 1 2370 48
	ldrb	r3, [sp, #14]	@ zero_extendqisi2
	asrs	r3, r3, #3
	uxtb	r3, r3
	and	r3, r3, #1
	uxtb	r2, r3
	.loc 1 2370 24
	ldr	r3, [sp, #4]
	strb	r2, [r3]
	.loc 1 2373 9
	ldrsb	r3, [sp, #15]
.L345:
	.loc 1 2374 1 discriminator 1
	mov	r0, r3
	add	sp, sp, #16
.LCFI146:
	@ sp needed
	pop	{r4, pc}
.L347:
	.align	2
.L346:
	.word	p_bmg160
.LFE48:
	.size	bmg160_get_intr2_highrate, .-bmg160_get_intr2_highrate
	.section	.text.bmg160_set_intr2_highrate,"ax",%progbits
	.align	1
	.global	bmg160_set_intr2_highrate
	.syntax unified
	.thumb
	.thumb_func
	.fpu fpv4-sp-d16
	.type	bmg160_set_intr2_highrate, %function
bmg160_set_intr2_highrate:
.LFB49:
	.loc 1 2397 1
	@ args = 0, pretend = 0, frame = 16
	@ frame_needed = 0, uses_anonymous_args = 0
	push	{r4, lr}
.LCFI147:
	sub	sp, sp, #16
.LCFI148:
	mov	r3, r0
	strb	r3, [sp, #7]
	.loc 1 2399 5
	movs	r3, #255
	strb	r3, [sp, #15]
	.loc 1 2400 5
	movs	r3, #0
	strb	r3, [sp, #14]
	.loc 1 2402 15
	ldr	r3, .L352
	ldr	r3, [r3]
	.loc 1 2402 5
	cmp	r3, #0
	bne	.L349
	.loc 1 2403 10
	mvn	r3, #126
	b	.L351
.L349:
	.loc 1 2406 20
	ldr	r3, .L352
	ldr	r3, [r3]
	ldr	r4, [r3, #12]
	.loc 1 2406 39
	ldr	r3, .L352
	ldr	r3, [r3]
	.loc 1 2406 12
	ldrb	r0, [r3, #1]	@ zero_extendqisi2
	add	r2, sp, #14
	movs	r3, #1
	movs	r1, #25
	blx	r4
.LVL82:
	mov	r3, r0
	strb	r3, [sp, #15]
	.loc 1 2410 26
	ldrb	r3, [sp, #14]	@ zero_extendqisi2
	sxtb	r3, r3
	bic	r3, r3, #8
	sxtb	r2, r3
	.loc 1 2410 57
	ldrb	r3, [sp, #7]	@ zero_extendqisi2
	lsls	r3, r3, #3
	.loc 1 2410 63
	sxtb	r3, r3
	and	r3, r3, #8
	sxtb	r3, r3
	.loc 1 2410 35
	orrs	r3, r3, r2
	sxtb	r3, r3
	uxtb	r3, r3
	.loc 1 2410 13
	strb	r3, [sp, #14]
	.loc 1 2412 21
	ldr	r3, .L352
	ldr	r3, [r3]
	ldr	r4, [r3, #8]
	.loc 1 2412 41
	ldr	r3, .L352
	ldr	r3, [r3]
	.loc 1 2412 13
	ldrb	r0, [r3, #1]	@ zero_extendqisi2
	add	r2, sp, #14
	movs	r3, #1
	movs	r1, #25
	blx	r4
.LVL83:
	mov	r3, r0
	uxtb	r2, r3
	.loc 1 2412 10
	ldrb	r3, [sp, #15]	@ zero_extendqisi2
	add	r3, r3, r2
	uxtb	r3, r3
	strb	r3, [sp, #15]
	.loc 1 2416 9
	ldrsb	r3, [sp, #15]
.L351:
	.loc 1 2417 1 discriminator 1
	mov	r0, r3
	add	sp, sp, #16
.LCFI149:
	@ sp needed
	pop	{r4, pc}
.L353:
	.align	2
.L352:
	.word	p_bmg160
.LFE49:
	.size	bmg160_set_intr2_highrate, .-bmg160_set_intr2_highrate
	.section	.text.bmg160_get_intr2_any_motion,"ax",%progbits
	.align	1
	.global	bmg160_get_intr2_any_motion
	.syntax unified
	.thumb
	.thumb_func
	.fpu fpv4-sp-d16
	.type	bmg160_get_intr2_any_motion, %function
bmg160_get_intr2_any_motion:
.LFB50:
	.loc 1 2440 1
	@ args = 0, pretend = 0, frame = 16
	@ frame_needed = 0, uses_anonymous_args = 0
	push	{r4, lr}
.LCFI150:
	sub	sp, sp, #16
.LCFI151:
	str	r0, [sp, #4]
	.loc 1 2442 5
	movs	r3, #255
	strb	r3, [sp, #15]
	.loc 1 2443 5
	movs	r3, #0
	strb	r3, [sp, #14]
	.loc 1 2445 15
	ldr	r3, .L358
	ldr	r3, [r3]
	.loc 1 2445 5
	cmp	r3, #0
	bne	.L355
	.loc 1 2446 10
	mvn	r3, #126
	b	.L357
.L355:
	.loc 1 2449 20
	ldr	r3, .L358
	ldr	r3, [r3]
	ldr	r4, [r3, #12]
	.loc 1 2449 39
	ldr	r3, .L358
	ldr	r3, [r3]
	.loc 1 2449 12
	ldrb	r0, [r3, #1]	@ zero_extendqisi2
	add	r2, sp, #14
	movs	r3, #1
	movs	r1, #25
	blx	r4
.LVL84:
	mov	r3, r0
	strb	r3, [sp, #15]
	.loc 1 2452 50
	ldrb	r3, [sp, #14]	@ zero_extendqisi2
	asrs	r3, r3, #1
	uxtb	r3, r3
	and	r3, r3, #1
	uxtb	r2, r3
	.loc 1 2452 26
	ldr	r3, [sp, #4]
	strb	r2, [r3]
	.loc 1 2455 9
	ldrsb	r3, [sp, #15]
.L357:
	.loc 1 2456 1 discriminator 1
	mov	r0, r3
	add	sp, sp, #16
.LCFI152:
	@ sp needed
	pop	{r4, pc}
.L359:
	.align	2
.L358:
	.word	p_bmg160
.LFE50:
	.size	bmg160_get_intr2_any_motion, .-bmg160_get_intr2_any_motion
	.section	.text.bmg160_set_intr2_any_motion,"ax",%progbits
	.align	1
	.global	bmg160_set_intr2_any_motion
	.syntax unified
	.thumb
	.thumb_func
	.fpu fpv4-sp-d16
	.type	bmg160_set_intr2_any_motion, %function
bmg160_set_intr2_any_motion:
.LFB51:
	.loc 1 2479 1
	@ args = 0, pretend = 0, frame = 16
	@ frame_needed = 0, uses_anonymous_args = 0
	push	{r4, lr}
.LCFI153:
	sub	sp, sp, #16
.LCFI154:
	mov	r3, r0
	strb	r3, [sp, #7]
	.loc 1 2481 5
	movs	r3, #255
	strb	r3, [sp, #15]
	.loc 1 2482 5
	movs	r3, #0
	strb	r3, [sp, #14]
	.loc 1 2484 15
	ldr	r3, .L364
	ldr	r3, [r3]
	.loc 1 2484 5
	cmp	r3, #0
	bne	.L361
	.loc 1 2485 10
	mvn	r3, #126
	b	.L363
.L361:
	.loc 1 2488 20
	ldr	r3, .L364
	ldr	r3, [r3]
	ldr	r4, [r3, #12]
	.loc 1 2488 39
	ldr	r3, .L364
	ldr	r3, [r3]
	.loc 1 2488 12
	ldrb	r0, [r3, #1]	@ zero_extendqisi2
	add	r2, sp, #14
	movs	r3, #1
	movs	r1, #25
	blx	r4
.LVL85:
	mov	r3, r0
	strb	r3, [sp, #15]
	.loc 1 2491 26
	ldrb	r3, [sp, #14]	@ zero_extendqisi2
	sxtb	r3, r3
	bic	r3, r3, #2
	sxtb	r2, r3
	.loc 1 2491 59
	ldrb	r3, [sp, #7]	@ zero_extendqisi2
	lsls	r3, r3, #1
	.loc 1 2491 65
	sxtb	r3, r3
	and	r3, r3, #2
	sxtb	r3, r3
	.loc 1 2491 35
	orrs	r3, r3, r2
	sxtb	r3, r3
	uxtb	r3, r3
	.loc 1 2491 13
	strb	r3, [sp, #14]
	.loc 1 2493 21
	ldr	r3, .L364
	ldr	r3, [r3]
	ldr	r4, [r3, #8]
	.loc 1 2493 41
	ldr	r3, .L364
	ldr	r3, [r3]
	.loc 1 2493 13
	ldrb	r0, [r3, #1]	@ zero_extendqisi2
	add	r2, sp, #14
	movs	r3, #1
	movs	r1, #25
	blx	r4
.LVL86:
	mov	r3, r0
	uxtb	r2, r3
	.loc 1 2493 10
	ldrb	r3, [sp, #15]	@ zero_extendqisi2
	add	r3, r3, r2
	uxtb	r3, r3
	strb	r3, [sp, #15]
	.loc 1 2497 9
	ldrsb	r3, [sp, #15]
.L363:
	.loc 1 2498 1 discriminator 1
	mov	r0, r3
	add	sp, sp, #16
.LCFI155:
	@ sp needed
	pop	{r4, pc}
.L365:
	.align	2
.L364:
	.word	p_bmg160
.LFE51:
	.size	bmg160_set_intr2_any_motion, .-bmg160_set_intr2_any_motion
	.section	.text.bmg160_get_offset_unfilt,"ax",%progbits
	.align	1
	.global	bmg160_get_offset_unfilt
	.syntax unified
	.thumb
	.thumb_func
	.fpu fpv4-sp-d16
	.type	bmg160_get_offset_unfilt, %function
bmg160_get_offset_unfilt:
.LFB52:
	.loc 1 2527 1
	@ args = 0, pretend = 0, frame = 16
	@ frame_needed = 0, uses_anonymous_args = 0
	push	{r4, lr}
.LCFI156:
	sub	sp, sp, #16
.LCFI157:
	mov	r3, r0
	str	r1, [sp]
	strb	r3, [sp, #7]
	.loc 1 2529 5
	movs	r3, #255
	strb	r3, [sp, #15]
	.loc 1 2530 5
	movs	r3, #0
	strb	r3, [sp, #14]
	.loc 1 2532 15
	ldr	r3, .L375
	ldr	r3, [r3]
	.loc 1 2532 5
	cmp	r3, #0
	bne	.L367
	.loc 1 2533 10
	mvn	r3, #126
	b	.L373
.L367:
	.loc 1 2535 3
	ldrb	r3, [sp, #7]	@ zero_extendqisi2
	cmp	r3, #0
	beq	.L369
	cmp	r3, #2
	beq	.L370
	b	.L374
.L369:
	.loc 1 2538 21
	ldr	r3, .L375
	ldr	r3, [r3]
	ldr	r4, [r3, #12]
	.loc 1 2538 40
	ldr	r3, .L375
	ldr	r3, [r3]
	.loc 1 2538 13
	ldrb	r0, [r3, #1]	@ zero_extendqisi2
	add	r2, sp, #14
	movs	r3, #1
	movs	r1, #26
	blx	r4
.LVL87:
	mov	r3, r0
	strb	r3, [sp, #15]
	.loc 1 2542 48
	ldrb	r3, [sp, #14]	@ zero_extendqisi2
	asrs	r3, r3, #5
	uxtb	r3, r3
	and	r3, r3, #1
	uxtb	r2, r3
	.loc 1 2542 24
	ldr	r3, [sp]
	strb	r2, [r3]
	.loc 1 2544 4
	b	.L372
.L370:
	.loc 1 2546 21
	ldr	r3, .L375
	ldr	r3, [r3]
	ldr	r4, [r3, #12]
	.loc 1 2546 40
	ldr	r3, .L375
	ldr	r3, [r3]
	.loc 1 2546 13
	ldrb	r0, [r3, #1]	@ zero_extendqisi2
	add	r2, sp, #14
	movs	r3, #1
	movs	r1, #27
	blx	r4
.LVL88:
	mov	r3, r0
	strb	r3, [sp, #15]
	.loc 1 2550 48
	ldrb	r3, [sp, #14]	@ zero_extendqisi2
	lsrs	r3, r3, #7
	uxtb	r2, r3
	.loc 1 2550 24
	ldr	r3, [sp]
	strb	r2, [r3]
	.loc 1 2552 4
	b	.L372
.L374:
	.loc 1 2554 11
	movs	r3, #254
	strb	r3, [sp, #15]
	.loc 1 2555 4
	nop
.L372:
	.loc 1 2558 9
	ldrsb	r3, [sp, #15]
.L373:
	.loc 1 2559 1 discriminator 1
	mov	r0, r3
	add	sp, sp, #16
.LCFI158:
	@ sp needed
	pop	{r4, pc}
.L376:
	.align	2
.L375:
	.word	p_bmg160
.LFE52:
	.size	bmg160_get_offset_unfilt, .-bmg160_get_offset_unfilt
	.section	.text.bmg160_set_offset_unfilt,"ax",%progbits
	.align	1
	.global	bmg160_set_offset_unfilt
	.syntax unified
	.thumb
	.thumb_func
	.fpu fpv4-sp-d16
	.type	bmg160_set_offset_unfilt, %function
bmg160_set_offset_unfilt:
.LFB53:
	.loc 1 2588 1
	@ args = 0, pretend = 0, frame = 16
	@ frame_needed = 0, uses_anonymous_args = 0
	push	{r4, lr}
.LCFI159:
	sub	sp, sp, #16
.LCFI160:
	mov	r3, r0
	mov	r2, r1
	strb	r3, [sp, #7]
	mov	r3, r2
	strb	r3, [sp, #6]
	.loc 1 2590 5
	movs	r3, #255
	strb	r3, [sp, #15]
	.loc 1 2591 5
	movs	r3, #0
	strb	r3, [sp, #14]
	.loc 1 2593 15
	ldr	r3, .L386
	ldr	r3, [r3]
	.loc 1 2593 5
	cmp	r3, #0
	bne	.L378
	.loc 1 2594 10
	mvn	r3, #126
	b	.L384
.L378:
	.loc 1 2596 3
	ldrb	r3, [sp, #7]	@ zero_extendqisi2
	cmp	r3, #0
	beq	.L380
	cmp	r3, #2
	beq	.L381
	b	.L385
.L380:
	.loc 1 2599 21
	ldr	r3, .L386
	ldr	r3, [r3]
	ldr	r4, [r3, #12]
	.loc 1 2599 40
	ldr	r3, .L386
	ldr	r3, [r3]
	.loc 1 2599 13
	ldrb	r0, [r3, #1]	@ zero_extendqisi2
	add	r2, sp, #14
	movs	r3, #1
	movs	r1, #26
	blx	r4
.LVL89:
	mov	r3, r0
	strb	r3, [sp, #15]
	.loc 1 2603 27
	ldrb	r3, [sp, #14]	@ zero_extendqisi2
	sxtb	r3, r3
	bic	r3, r3, #32
	sxtb	r2, r3
	.loc 1 2603 57
	ldrb	r3, [sp, #6]	@ zero_extendqisi2
	lsls	r3, r3, #5
	.loc 1 2603 63
	sxtb	r3, r3
	and	r3, r3, #32
	sxtb	r3, r3
	.loc 1 2603 36
	orrs	r3, r3, r2
	sxtb	r3, r3
	uxtb	r3, r3
	.loc 1 2603 14
	strb	r3, [sp, #14]
	.loc 1 2606 22
	ldr	r3, .L386
	ldr	r3, [r3]
	ldr	r4, [r3, #8]
	.loc 1 2606 42
	ldr	r3, .L386
	ldr	r3, [r3]
	.loc 1 2606 14
	ldrb	r0, [r3, #1]	@ zero_extendqisi2
	add	r2, sp, #14
	movs	r3, #1
	movs	r1, #26
	blx	r4
.LVL90:
	mov	r3, r0
	uxtb	r2, r3
	.loc 1 2606 11
	ldrb	r3, [sp, #15]	@ zero_extendqisi2
	add	r3, r3, r2
	uxtb	r3, r3
	strb	r3, [sp, #15]
	.loc 1 2610 4
	b	.L383
.L381:
	.loc 1 2612 21
	ldr	r3, .L386
	ldr	r3, [r3]
	ldr	r4, [r3, #12]
	.loc 1 2612 40
	ldr	r3, .L386
	ldr	r3, [r3]
	.loc 1 2612 13
	ldrb	r0, [r3, #1]	@ zero_extendqisi2
	add	r2, sp, #14
	movs	r3, #1
	movs	r1, #27
	blx	r4
.LVL91:
	mov	r3, r0
	strb	r3, [sp, #15]
	.loc 1 2616 27
	ldrb	r3, [sp, #14]	@ zero_extendqisi2
	sxtb	r3, r3
	and	r3, r3, #127
	sxtb	r2, r3
	.loc 1 2616 57
	ldrb	r3, [sp, #6]	@ zero_extendqisi2
	lsls	r3, r3, #7
	.loc 1 2616 36
	sxtb	r3, r3
	orrs	r3, r3, r2
	sxtb	r3, r3
	uxtb	r3, r3
	.loc 1 2616 14
	strb	r3, [sp, #14]
	.loc 1 2619 22
	ldr	r3, .L386
	ldr	r3, [r3]
	ldr	r4, [r3, #8]
	.loc 1 2619 42
	ldr	r3, .L386
	ldr	r3, [r3]
	.loc 1 2619 14
	ldrb	r0, [r3, #1]	@ zero_extendqisi2
	add	r2, sp, #14
	movs	r3, #1
	movs	r1, #27
	blx	r4
.LVL92:
	mov	r3, r0
	uxtb	r2, r3
	.loc 1 2619 11
	ldrb	r3, [sp, #15]	@ zero_extendqisi2
	add	r3, r3, r2
	uxtb	r3, r3
	strb	r3, [sp, #15]
	.loc 1 2623 4
	b	.L383
.L385:
	.loc 1 2625 11
	movs	r3, #254
	strb	r3, [sp, #15]
	.loc 1 2626 4
	nop
.L383:
	.loc 1 2629 9
	ldrsb	r3, [sp, #15]
.L384:
	.loc 1 2630 1 discriminator 1
	mov	r0, r3
	add	sp, sp, #16
.LCFI161:
	@ sp needed
	pop	{r4, pc}
.L387:
	.align	2
.L386:
	.word	p_bmg160
.LFE53:
	.size	bmg160_set_offset_unfilt, .-bmg160_set_offset_unfilt
	.section	.text.bmg160_get_unfilt_data,"ax",%progbits
	.align	1
	.global	bmg160_get_unfilt_data
	.syntax unified
	.thumb
	.thumb_func
	.fpu fpv4-sp-d16
	.type	bmg160_get_unfilt_data, %function
bmg160_get_unfilt_data:
.LFB54:
	.loc 1 2658 1
	@ args = 0, pretend = 0, frame = 16
	@ frame_needed = 0, uses_anonymous_args = 0
	push	{r4, lr}
.LCFI162:
	sub	sp, sp, #16
.LCFI163:
	mov	r3, r0
	str	r1, [sp]
	strb	r3, [sp, #7]
	.loc 1 2660 5
	movs	r3, #255
	strb	r3, [sp, #15]
	.loc 1 2661 5
	movs	r3, #0
	strb	r3, [sp, #14]
	.loc 1 2663 15
	ldr	r3, .L397
	ldr	r3, [r3]
	.loc 1 2663 5
	cmp	r3, #0
	bne	.L389
	.loc 1 2664 10
	mvn	r3, #126
	b	.L395
.L389:
	.loc 1 2666 3
	ldrb	r3, [sp, #7]	@ zero_extendqisi2
	cmp	r3, #1
	beq	.L391
	cmp	r3, #3
	beq	.L392
	b	.L396
.L391:
	.loc 1 2669 21
	ldr	r3, .L397
	ldr	r3, [r3]
	ldr	r4, [r3, #12]
	.loc 1 2669 40
	ldr	r3, .L397
	ldr	r3, [r3]
	.loc 1 2669 13
	ldrb	r0, [r3, #1]	@ zero_extendqisi2
	add	r2, sp, #14
	movs	r3, #1
	movs	r1, #26
	blx	r4
.LVL93:
	mov	r3, r0
	strb	r3, [sp, #15]
	.loc 1 2673 46
	ldrb	r3, [sp, #14]	@ zero_extendqisi2
	asrs	r3, r3, #3
	uxtb	r3, r3
	and	r3, r3, #1
	uxtb	r2, r3
	.loc 1 2673 22
	ldr	r3, [sp]
	strb	r2, [r3]
	.loc 1 2675 4
	b	.L394
.L392:
	.loc 1 2677 21
	ldr	r3, .L397
	ldr	r3, [r3]
	ldr	r4, [r3, #12]
	.loc 1 2677 40
	ldr	r3, .L397
	ldr	r3, [r3]
	.loc 1 2677 13
	ldrb	r0, [r3, #1]	@ zero_extendqisi2
	add	r2, sp, #14
	movs	r3, #1
	movs	r1, #26
	blx	r4
.LVL94:
	mov	r3, r0
	strb	r3, [sp, #15]
	.loc 1 2681 46
	ldrb	r3, [sp, #14]	@ zero_extendqisi2
	asrs	r3, r3, #1
	uxtb	r3, r3
	and	r3, r3, #1
	uxtb	r2, r3
	.loc 1 2681 22
	ldr	r3, [sp]
	strb	r2, [r3]
	.loc 1 2683 4
	b	.L394
.L396:
	.loc 1 2685 11
	movs	r3, #254
	strb	r3, [sp, #15]
	.loc 1 2686 4
	nop
.L394:
	.loc 1 2689 9
	ldrsb	r3, [sp, #15]
.L395:
	.loc 1 2690 1 discriminator 1
	mov	r0, r3
	add	sp, sp, #16
.LCFI164:
	@ sp needed
	pop	{r4, pc}
.L398:
	.align	2
.L397:
	.word	p_bmg160
.LFE54:
	.size	bmg160_get_unfilt_data, .-bmg160_get_unfilt_data
	.section	.text.bmg160_set_unfilt_data,"ax",%progbits
	.align	1
	.global	bmg160_set_unfilt_data
	.syntax unified
	.thumb
	.thumb_func
	.fpu fpv4-sp-d16
	.type	bmg160_set_unfilt_data, %function
bmg160_set_unfilt_data:
.LFB55:
	.loc 1 2718 1
	@ args = 0, pretend = 0, frame = 16
	@ frame_needed = 0, uses_anonymous_args = 0
	push	{r4, lr}
.LCFI165:
	sub	sp, sp, #16
.LCFI166:
	mov	r3, r0
	mov	r2, r1
	strb	r3, [sp, #7]
	mov	r3, r2
	strb	r3, [sp, #6]
	.loc 1 2720 5
	movs	r3, #255
	strb	r3, [sp, #15]
	.loc 1 2721 5
	movs	r3, #0
	strb	r3, [sp, #14]
	.loc 1 2723 15
	ldr	r3, .L408
	ldr	r3, [r3]
	.loc 1 2723 5
	cmp	r3, #0
	bne	.L400
	.loc 1 2724 10
	mvn	r3, #126
	b	.L406
.L400:
	.loc 1 2726 3
	ldrb	r3, [sp, #7]	@ zero_extendqisi2
	cmp	r3, #1
	beq	.L402
	cmp	r3, #3
	beq	.L403
	b	.L407
.L402:
	.loc 1 2729 21
	ldr	r3, .L408
	ldr	r3, [r3]
	ldr	r4, [r3, #12]
	.loc 1 2729 40
	ldr	r3, .L408
	ldr	r3, [r3]
	.loc 1 2729 13
	ldrb	r0, [r3, #1]	@ zero_extendqisi2
	add	r2, sp, #14
	movs	r3, #1
	movs	r1, #26
	blx	r4
.LVL95:
	mov	r3, r0
	strb	r3, [sp, #15]
	.loc 1 2733 27
	ldrb	r3, [sp, #14]	@ zero_extendqisi2
	sxtb	r3, r3
	bic	r3, r3, #8
	sxtb	r2, r3
	.loc 1 2733 55
	ldrb	r3, [sp, #6]	@ zero_extendqisi2
	lsls	r3, r3, #3
	.loc 1 2733 61
	sxtb	r3, r3
	and	r3, r3, #8
	sxtb	r3, r3
	.loc 1 2733 36
	orrs	r3, r3, r2
	sxtb	r3, r3
	uxtb	r3, r3
	.loc 1 2733 14
	strb	r3, [sp, #14]
	.loc 1 2736 22
	ldr	r3, .L408
	ldr	r3, [r3]
	ldr	r4, [r3, #8]
	.loc 1 2736 42
	ldr	r3, .L408
	ldr	r3, [r3]
	.loc 1 2736 14
	ldrb	r0, [r3, #1]	@ zero_extendqisi2
	add	r2, sp, #14
	movs	r3, #1
	movs	r1, #26
	blx	r4
.LVL96:
	mov	r3, r0
	uxtb	r2, r3
	.loc 1 2736 11
	ldrb	r3, [sp, #15]	@ zero_extendqisi2
	add	r3, r3, r2
	uxtb	r3, r3
	strb	r3, [sp, #15]
	.loc 1 2740 4
	b	.L405
.L403:
	.loc 1 2742 21
	ldr	r3, .L408
	ldr	r3, [r3]
	ldr	r4, [r3, #12]
	.loc 1 2742 40
	ldr	r3, .L408
	ldr	r3, [r3]
	.loc 1 2742 13
	ldrb	r0, [r3, #1]	@ zero_extendqisi2
	add	r2, sp, #14
	movs	r3, #1
	movs	r1, #26
	blx	r4
.LVL97:
	mov	r3, r0
	strb	r3, [sp, #15]
	.loc 1 2746 27
	ldrb	r3, [sp, #14]	@ zero_extendqisi2
	sxtb	r3, r3
	bic	r3, r3, #2
	sxtb	r2, r3
	.loc 1 2746 55
	ldrb	r3, [sp, #6]	@ zero_extendqisi2
	lsls	r3, r3, #1
	.loc 1 2746 61
	sxtb	r3, r3
	and	r3, r3, #2
	sxtb	r3, r3
	.loc 1 2746 36
	orrs	r3, r3, r2
	sxtb	r3, r3
	uxtb	r3, r3
	.loc 1 2746 14
	strb	r3, [sp, #14]
	.loc 1 2749 22
	ldr	r3, .L408
	ldr	r3, [r3]
	ldr	r4, [r3, #8]
	.loc 1 2749 42
	ldr	r3, .L408
	ldr	r3, [r3]
	.loc 1 2749 14
	ldrb	r0, [r3, #1]	@ zero_extendqisi2
	add	r2, sp, #14
	movs	r3, #1
	movs	r1, #26
	blx	r4
.LVL98:
	mov	r3, r0
	uxtb	r2, r3
	.loc 1 2749 11
	ldrb	r3, [sp, #15]	@ zero_extendqisi2
	add	r3, r3, r2
	uxtb	r3, r3
	strb	r3, [sp, #15]
	.loc 1 2753 4
	b	.L405
.L407:
	.loc 1 2755 11
	movs	r3, #254
	strb	r3, [sp, #15]
	.loc 1 2756 4
	nop
.L405:
	.loc 1 2759 9
	ldrsb	r3, [sp, #15]
.L406:
	.loc 1 2760 1 discriminator 1
	mov	r0, r3
	add	sp, sp, #16
.LCFI167:
	@ sp needed
	pop	{r4, pc}
.L409:
	.align	2
.L408:
	.word	p_bmg160
.LFE55:
	.size	bmg160_set_unfilt_data, .-bmg160_set_unfilt_data
	.section	.text.bmg160_get_any_motion_thres,"ax",%progbits
	.align	1
	.global	bmg160_get_any_motion_thres
	.syntax unified
	.thumb
	.thumb_func
	.fpu fpv4-sp-d16
	.type	bmg160_get_any_motion_thres, %function
bmg160_get_any_motion_thres:
.LFB56:
	.loc 1 2780 1
	@ args = 0, pretend = 0, frame = 16
	@ frame_needed = 0, uses_anonymous_args = 0
	push	{r4, lr}
.LCFI168:
	sub	sp, sp, #16
.LCFI169:
	str	r0, [sp, #4]
	.loc 1 2782 5
	movs	r3, #255
	strb	r3, [sp, #15]
	.loc 1 2783 5
	movs	r3, #0
	strb	r3, [sp, #14]
	.loc 1 2785 15
	ldr	r3, .L414
	ldr	r3, [r3]
	.loc 1 2785 5
	cmp	r3, #0
	bne	.L411
	.loc 1 2786 10
	mvn	r3, #126
	b	.L413
.L411:
	.loc 1 2789 20
	ldr	r3, .L414
	ldr	r3, [r3]
	ldr	r4, [r3, #12]
	.loc 1 2789 39
	ldr	r3, .L414
	ldr	r3, [r3]
	.loc 1 2789 12
	ldrb	r0, [r3, #1]	@ zero_extendqisi2
	add	r2, sp, #14
	movs	r3, #1
	movs	r1, #27
	blx	r4
.LVL99:
	mov	r3, r0
	strb	r3, [sp, #15]
	.loc 1 2792 50
	ldrb	r3, [sp, #14]	@ zero_extendqisi2
	and	r3, r3, #127
	uxtb	r2, r3
	.loc 1 2792 26
	ldr	r3, [sp, #4]
	strb	r2, [r3]
	.loc 1 2795 9
	ldrsb	r3, [sp, #15]
.L413:
	.loc 1 2796 1 discriminator 1
	mov	r0, r3
	add	sp, sp, #16
.LCFI170:
	@ sp needed
	pop	{r4, pc}
.L415:
	.align	2
.L414:
	.word	p_bmg160
.LFE56:
	.size	bmg160_get_any_motion_thres, .-bmg160_get_any_motion_thres
	.section	.text.bmg160_set_any_motion_thres,"ax",%progbits
	.align	1
	.global	bmg160_set_any_motion_thres
	.syntax unified
	.thumb
	.thumb_func
	.fpu fpv4-sp-d16
	.type	bmg160_set_any_motion_thres, %function
bmg160_set_any_motion_thres:
.LFB57:
	.loc 1 2816 1
	@ args = 0, pretend = 0, frame = 16
	@ frame_needed = 0, uses_anonymous_args = 0
	push	{r4, lr}
.LCFI171:
	sub	sp, sp, #16
.LCFI172:
	mov	r3, r0
	strb	r3, [sp, #7]
	.loc 1 2818 5
	movs	r3, #255
	strb	r3, [sp, #15]
	.loc 1 2819 5
	movs	r3, #0
	strb	r3, [sp, #14]
	.loc 1 2821 15
	ldr	r3, .L420
	ldr	r3, [r3]
	.loc 1 2821 5
	cmp	r3, #0
	bne	.L417
	.loc 1 2822 10
	mvn	r3, #126
	b	.L419
.L417:
	.loc 1 2825 20
	ldr	r3, .L420
	ldr	r3, [r3]
	ldr	r4, [r3, #12]
	.loc 1 2825 39
	ldr	r3, .L420
	ldr	r3, [r3]
	.loc 1 2825 12
	ldrb	r0, [r3, #1]	@ zero_extendqisi2
	add	r2, sp, #14
	movs	r3, #1
	movs	r1, #27
	blx	r4
.LVL100:
	mov	r3, r0
	strb	r3, [sp, #15]
	.loc 1 2828 26
	ldrb	r3, [sp, #14]	@ zero_extendqisi2
	sxtb	r3, r3
	bic	r3, r3, #127
	sxtb	r2, r3
	.loc 1 2828 65
	ldrsb	r3, [sp, #7]
	and	r3, r3, #127
	sxtb	r3, r3
	.loc 1 2828 35
	orrs	r3, r3, r2
	sxtb	r3, r3
	uxtb	r3, r3
	.loc 1 2828 13
	strb	r3, [sp, #14]
	.loc 1 2830 21
	ldr	r3, .L420
	ldr	r3, [r3]
	ldr	r4, [r3, #8]
	.loc 1 2830 41
	ldr	r3, .L420
	ldr	r3, [r3]
	.loc 1 2830 13
	ldrb	r0, [r3, #1]	@ zero_extendqisi2
	add	r2, sp, #14
	movs	r3, #1
	movs	r1, #27
	blx	r4
.LVL101:
	mov	r3, r0
	uxtb	r2, r3
	.loc 1 2830 10
	ldrb	r3, [sp, #15]	@ zero_extendqisi2
	add	r3, r3, r2
	uxtb	r3, r3
	strb	r3, [sp, #15]
	.loc 1 2834 9
	ldrsb	r3, [sp, #15]
.L419:
	.loc 1 2835 1 discriminator 1
	mov	r0, r3
	add	sp, sp, #16
.LCFI173:
	@ sp needed
	pop	{r4, pc}
.L421:
	.align	2
.L420:
	.word	p_bmg160
.LFE57:
	.size	bmg160_set_any_motion_thres, .-bmg160_set_any_motion_thres
	.section	.text.bmg160_get_awake_durn,"ax",%progbits
	.align	1
	.global	bmg160_get_awake_durn
	.syntax unified
	.thumb
	.thumb_func
	.fpu fpv4-sp-d16
	.type	bmg160_get_awake_durn, %function
bmg160_get_awake_durn:
.LFB58:
	.loc 1 2857 1
	@ args = 0, pretend = 0, frame = 16
	@ frame_needed = 0, uses_anonymous_args = 0
	push	{r4, lr}
.LCFI174:
	sub	sp, sp, #16
.LCFI175:
	str	r0, [sp, #4]
	.loc 1 2859 5
	movs	r3, #255
	strb	r3, [sp, #15]
	.loc 1 2860 5
	movs	r3, #0
	strb	r3, [sp, #14]
	.loc 1 2862 15
	ldr	r3, .L426
	ldr	r3, [r3]
	.loc 1 2862 5
	cmp	r3, #0
	bne	.L423
	.loc 1 2863 10
	mvn	r3, #126
	b	.L425
.L423:
	.loc 1 2866 20
	ldr	r3, .L426
	ldr	r3, [r3]
	ldr	r4, [r3, #12]
	.loc 1 2866 39
	ldr	r3, .L426
	ldr	r3, [r3]
	.loc 1 2866 12
	ldrb	r0, [r3, #1]	@ zero_extendqisi2
	add	r2, sp, #14
	movs	r3, #1
	movs	r1, #28
	blx	r4
.LVL102:
	mov	r3, r0
	strb	r3, [sp, #15]
	.loc 1 2869 44
	ldrb	r3, [sp, #14]	@ zero_extendqisi2
	lsrs	r3, r3, #6
	uxtb	r2, r3
	.loc 1 2869 20
	ldr	r3, [sp, #4]
	strb	r2, [r3]
	.loc 1 2872 9
	ldrsb	r3, [sp, #15]
.L425:
	.loc 1 2873 1 discriminator 1
	mov	r0, r3
	add	sp, sp, #16
.LCFI176:
	@ sp needed
	pop	{r4, pc}
.L427:
	.align	2
.L426:
	.word	p_bmg160
.LFE58:
	.size	bmg160_get_awake_durn, .-bmg160_get_awake_durn
	.section	.text.bmg160_set_awake_durn,"ax",%progbits
	.align	1
	.global	bmg160_set_awake_durn
	.syntax unified
	.thumb
	.thumb_func
	.fpu fpv4-sp-d16
	.type	bmg160_set_awake_durn, %function
bmg160_set_awake_durn:
.LFB59:
	.loc 1 2895 1
	@ args = 0, pretend = 0, frame = 16
	@ frame_needed = 0, uses_anonymous_args = 0
	push	{r4, lr}
.LCFI177:
	sub	sp, sp, #16
.LCFI178:
	mov	r3, r0
	strb	r3, [sp, #7]
	.loc 1 2897 5
	movs	r3, #255
	strb	r3, [sp, #15]
	.loc 1 2898 5
	movs	r3, #0
	strb	r3, [sp, #14]
	.loc 1 2900 15
	ldr	r3, .L432
	ldr	r3, [r3]
	.loc 1 2900 5
	cmp	r3, #0
	bne	.L429
	.loc 1 2901 10
	mvn	r3, #126
	b	.L431
.L429:
	.loc 1 2904 20
	ldr	r3, .L432
	ldr	r3, [r3]
	ldr	r4, [r3, #12]
	.loc 1 2904 39
	ldr	r3, .L432
	ldr	r3, [r3]
	.loc 1 2904 12
	ldrb	r0, [r3, #1]	@ zero_extendqisi2
	add	r2, sp, #14
	movs	r3, #1
	movs	r1, #28
	blx	r4
.LVL103:
	mov	r3, r0
	strb	r3, [sp, #15]
	.loc 1 2907 26
	ldrb	r3, [sp, #14]	@ zero_extendqisi2
	sxtb	r3, r3
	and	r3, r3, #63
	sxtb	r2, r3
	.loc 1 2907 53
	ldrb	r3, [sp, #7]	@ zero_extendqisi2
	lsls	r3, r3, #6
	.loc 1 2907 35
	sxtb	r3, r3
	orrs	r3, r3, r2
	sxtb	r3, r3
	uxtb	r3, r3
	.loc 1 2907 13
	strb	r3, [sp, #14]
	.loc 1 2909 21
	ldr	r3, .L432
	ldr	r3, [r3]
	ldr	r4, [r3, #8]
	.loc 1 2909 41
	ldr	r3, .L432
	ldr	r3, [r3]
	.loc 1 2909 13
	ldrb	r0, [r3, #1]	@ zero_extendqisi2
	add	r2, sp, #14
	movs	r3, #1
	movs	r1, #28
	blx	r4
.LVL104:
	mov	r3, r0
	uxtb	r2, r3
	.loc 1 2909 10
	ldrb	r3, [sp, #15]	@ zero_extendqisi2
	add	r3, r3, r2
	uxtb	r3, r3
	strb	r3, [sp, #15]
	.loc 1 2913 9
	ldrsb	r3, [sp, #15]
.L431:
	.loc 1 2914 1 discriminator 1
	mov	r0, r3
	add	sp, sp, #16
.LCFI179:
	@ sp needed
	pop	{r4, pc}
.L433:
	.align	2
.L432:
	.word	p_bmg160
.LFE59:
	.size	bmg160_set_awake_durn, .-bmg160_set_awake_durn
	.section	.text.bmg160_get_any_motion_durn_sample,"ax",%progbits
	.align	1
	.global	bmg160_get_any_motion_durn_sample
	.syntax unified
	.thumb
	.thumb_func
	.fpu fpv4-sp-d16
	.type	bmg160_get_any_motion_durn_sample, %function
bmg160_get_any_motion_durn_sample:
.LFB60:
	.loc 1 2937 1
	@ args = 0, pretend = 0, frame = 16
	@ frame_needed = 0, uses_anonymous_args = 0
	push	{r4, lr}
.LCFI180:
	sub	sp, sp, #16
.LCFI181:
	str	r0, [sp, #4]
	.loc 1 2939 5
	movs	r3, #255
	strb	r3, [sp, #15]
	.loc 1 2940 5
	movs	r3, #0
	strb	r3, [sp, #14]
	.loc 1 2942 15
	ldr	r3, .L438
	ldr	r3, [r3]
	.loc 1 2942 5
	cmp	r3, #0
	bne	.L435
	.loc 1 2943 10
	mvn	r3, #126
	b	.L437
.L435:
	.loc 1 2946 20
	ldr	r3, .L438
	ldr	r3, [r3]
	ldr	r4, [r3, #12]
	.loc 1 2946 39
	ldr	r3, .L438
	ldr	r3, [r3]
	.loc 1 2946 12
	ldrb	r0, [r3, #1]	@ zero_extendqisi2
	add	r2, sp, #14
	movs	r3, #1
	movs	r1, #28
	blx	r4
.LVL105:
	mov	r3, r0
	strb	r3, [sp, #15]
	.loc 1 2949 45
	ldrb	r3, [sp, #14]	@ zero_extendqisi2
	asrs	r3, r3, #4
	uxtb	r3, r3
	and	r3, r3, #3
	uxtb	r2, r3
	.loc 1 2949 21
	ldr	r3, [sp, #4]
	strb	r2, [r3]
	.loc 1 2952 9
	ldrsb	r3, [sp, #15]
.L437:
	.loc 1 2953 1 discriminator 1
	mov	r0, r3
	add	sp, sp, #16
.LCFI182:
	@ sp needed
	pop	{r4, pc}
.L439:
	.align	2
.L438:
	.word	p_bmg160
.LFE60:
	.size	bmg160_get_any_motion_durn_sample, .-bmg160_get_any_motion_durn_sample
	.section	.text.bmg160_set_any_motion_durn_sample,"ax",%progbits
	.align	1
	.global	bmg160_set_any_motion_durn_sample
	.syntax unified
	.thumb
	.thumb_func
	.fpu fpv4-sp-d16
	.type	bmg160_set_any_motion_durn_sample, %function
bmg160_set_any_motion_durn_sample:
.LFB61:
	.loc 1 2976 1
	@ args = 0, pretend = 0, frame = 16
	@ frame_needed = 0, uses_anonymous_args = 0
	push	{r4, lr}
.LCFI183:
	sub	sp, sp, #16
.LCFI184:
	mov	r3, r0
	strb	r3, [sp, #7]
	.loc 1 2978 5
	movs	r3, #255
	strb	r3, [sp, #15]
	.loc 1 2979 5
	movs	r3, #0
	strb	r3, [sp, #14]
	.loc 1 2981 15
	ldr	r3, .L444
	ldr	r3, [r3]
	.loc 1 2981 5
	cmp	r3, #0
	bne	.L441
	.loc 1 2982 10
	mvn	r3, #126
	b	.L443
.L441:
	.loc 1 2985 20
	ldr	r3, .L444
	ldr	r3, [r3]
	ldr	r4, [r3, #12]
	.loc 1 2985 39
	ldr	r3, .L444
	ldr	r3, [r3]
	.loc 1 2985 12
	ldrb	r0, [r3, #1]	@ zero_extendqisi2
	add	r2, sp, #14
	movs	r3, #1
	movs	r1, #28
	blx	r4
.LVL106:
	mov	r3, r0
	strb	r3, [sp, #15]
	.loc 1 2988 26
	ldrb	r3, [sp, #14]	@ zero_extendqisi2
	sxtb	r3, r3
	bic	r3, r3, #48
	sxtb	r2, r3
	.loc 1 2988 54
	ldrb	r3, [sp, #7]	@ zero_extendqisi2
	lsls	r3, r3, #4
	.loc 1 2988 60
	sxtb	r3, r3
	and	r3, r3, #48
	sxtb	r3, r3
	.loc 1 2988 35
	orrs	r3, r3, r2
	sxtb	r3, r3
	uxtb	r3, r3
	.loc 1 2988 13
	strb	r3, [sp, #14]
	.loc 1 2991 21
	ldr	r3, .L444
	ldr	r3, [r3]
	ldr	r4, [r3, #8]
	.loc 1 2991 41
	ldr	r3, .L444
	ldr	r3, [r3]
	.loc 1 2991 13
	ldrb	r0, [r3, #1]	@ zero_extendqisi2
	add	r2, sp, #14
	movs	r3, #1
	movs	r1, #28
	blx	r4
.LVL107:
	mov	r3, r0
	uxtb	r2, r3
	.loc 1 2991 10
	ldrb	r3, [sp, #15]	@ zero_extendqisi2
	add	r3, r3, r2
	uxtb	r3, r3
	strb	r3, [sp, #15]
	.loc 1 2996 9
	ldrsb	r3, [sp, #15]
.L443:
	.loc 1 2997 1 discriminator 1
	mov	r0, r3
	add	sp, sp, #16
.LCFI185:
	@ sp needed
	pop	{r4, pc}
.L445:
	.align	2
.L444:
	.word	p_bmg160
.LFE61:
	.size	bmg160_set_any_motion_durn_sample, .-bmg160_set_any_motion_durn_sample
	.section	.text.bmg160_get_any_motion_enable_axis,"ax",%progbits
	.align	1
	.global	bmg160_get_any_motion_enable_axis
	.syntax unified
	.thumb
	.thumb_func
	.fpu fpv4-sp-d16
	.type	bmg160_get_any_motion_enable_axis, %function
bmg160_get_any_motion_enable_axis:
.LFB62:
	.loc 1 3026 1
	@ args = 0, pretend = 0, frame = 16
	@ frame_needed = 0, uses_anonymous_args = 0
	push	{r4, lr}
.LCFI186:
	sub	sp, sp, #16
.LCFI187:
	mov	r3, r0
	str	r1, [sp]
	strb	r3, [sp, #7]
	.loc 1 3028 5
	movs	r3, #255
	strb	r3, [sp, #15]
	.loc 1 3029 5
	movs	r3, #0
	strb	r3, [sp, #14]
	.loc 1 3031 15
	ldr	r3, .L455
	ldr	r3, [r3]
	.loc 1 3031 5
	cmp	r3, #0
	bne	.L447
	.loc 1 3032 10
	mvn	r3, #126
	b	.L454
.L447:
	.loc 1 3034 3
	ldrb	r3, [sp, #7]	@ zero_extendqisi2
	cmp	r3, #2
	beq	.L449
	cmp	r3, #2
	bgt	.L450
	cmp	r3, #0
	beq	.L451
	cmp	r3, #1
	beq	.L452
	b	.L450
.L451:
	.loc 1 3037 21
	ldr	r3, .L455
	ldr	r3, [r3]
	ldr	r4, [r3, #12]
	.loc 1 3037 40
	ldr	r3, .L455
	ldr	r3, [r3]
	.loc 1 3037 13
	ldrb	r0, [r3, #1]	@ zero_extendqisi2
	add	r2, sp, #14
	movs	r3, #1
	movs	r1, #28
	blx	r4
.LVL108:
	mov	r3, r0
	strb	r3, [sp, #15]
	.loc 1 3041 51
	ldrb	r3, [sp, #14]	@ zero_extendqisi2
	and	r3, r3, #1
	uxtb	r2, r3
	.loc 1 3041 26
	ldr	r3, [sp]
	strb	r2, [r3]
	.loc 1 3043 4
	b	.L453
.L452:
	.loc 1 3045 21
	ldr	r3, .L455
	ldr	r3, [r3]
	ldr	r4, [r3, #12]
	.loc 1 3045 40
	ldr	r3, .L455
	ldr	r3, [r3]
	.loc 1 3045 13
	ldrb	r0, [r3, #1]	@ zero_extendqisi2
	add	r2, sp, #14
	movs	r3, #1
	movs	r1, #28
	blx	r4
.LVL109:
	mov	r3, r0
	strb	r3, [sp, #15]
	.loc 1 3049 51
	ldrb	r3, [sp, #14]	@ zero_extendqisi2
	asrs	r3, r3, #1
	uxtb	r3, r3
	and	r3, r3, #1
	uxtb	r2, r3
	.loc 1 3049 26
	ldr	r3, [sp]
	strb	r2, [r3]
	.loc 1 3051 4
	b	.L453
.L449:
	.loc 1 3053 21
	ldr	r3, .L455
	ldr	r3, [r3]
	ldr	r4, [r3, #12]
	.loc 1 3053 40
	ldr	r3, .L455
	ldr	r3, [r3]
	.loc 1 3053 13
	ldrb	r0, [r3, #1]	@ zero_extendqisi2
	add	r2, sp, #14
	movs	r3, #1
	movs	r1, #28
	blx	r4
.LVL110:
	mov	r3, r0
	strb	r3, [sp, #15]
	.loc 1 3057 51
	ldrb	r3, [sp, #14]	@ zero_extendqisi2
	asrs	r3, r3, #2
	uxtb	r3, r3
	and	r3, r3, #1
	uxtb	r2, r3
	.loc 1 3057 26
	ldr	r3, [sp]
	strb	r2, [r3]
	.loc 1 3059 4
	b	.L453
.L450:
	.loc 1 3061 11
	movs	r3, #254
	strb	r3, [sp, #15]
	.loc 1 3062 4
	nop
.L453:
	.loc 1 3065 9
	ldrsb	r3, [sp, #15]
.L454:
	.loc 1 3066 1 discriminator 1
	mov	r0, r3
	add	sp, sp, #16
.LCFI188:
	@ sp needed
	pop	{r4, pc}
.L456:
	.align	2
.L455:
	.word	p_bmg160
.LFE62:
	.size	bmg160_get_any_motion_enable_axis, .-bmg160_get_any_motion_enable_axis
	.section	.text.bmg160_set_any_motion_enable_axis,"ax",%progbits
	.align	1
	.global	bmg160_set_any_motion_enable_axis
	.syntax unified
	.thumb
	.thumb_func
	.fpu fpv4-sp-d16
	.type	bmg160_set_any_motion_enable_axis, %function
bmg160_set_any_motion_enable_axis:
.LFB63:
	.loc 1 3095 1
	@ args = 0, pretend = 0, frame = 16
	@ frame_needed = 0, uses_anonymous_args = 0
	push	{r4, lr}
.LCFI189:
	sub	sp, sp, #16
.LCFI190:
	mov	r3, r0
	mov	r2, r1
	strb	r3, [sp, #7]
	mov	r3, r2
	strb	r3, [sp, #6]
	.loc 1 3097 5
	movs	r3, #255
	strb	r3, [sp, #15]
	.loc 1 3098 5
	movs	r3, #0
	strb	r3, [sp, #14]
	.loc 1 3100 15
	ldr	r3, .L466
	ldr	r3, [r3]
	.loc 1 3100 5
	cmp	r3, #0
	bne	.L458
	.loc 1 3101 10
	mvn	r3, #126
	b	.L465
.L458:
	.loc 1 3103 3
	ldrb	r3, [sp, #7]	@ zero_extendqisi2
	cmp	r3, #2
	beq	.L460
	cmp	r3, #2
	bgt	.L461
	cmp	r3, #0
	beq	.L462
	cmp	r3, #1
	beq	.L463
	b	.L461
.L462:
	.loc 1 3106 21
	ldr	r3, .L466
	ldr	r3, [r3]
	ldr	r4, [r3, #12]
	.loc 1 3106 40
	ldr	r3, .L466
	ldr	r3, [r3]
	.loc 1 3106 13
	ldrb	r0, [r3, #1]	@ zero_extendqisi2
	add	r2, sp, #14
	movs	r3, #1
	movs	r1, #28
	blx	r4
.LVL111:
	mov	r3, r0
	strb	r3, [sp, #15]
	.loc 1 3110 27
	ldrb	r3, [sp, #14]	@ zero_extendqisi2
	sxtb	r3, r3
	bic	r3, r3, #1
	sxtb	r2, r3
	.loc 1 3110 65
	ldrsb	r3, [sp, #6]
	and	r3, r3, #1
	sxtb	r3, r3
	.loc 1 3110 36
	orrs	r3, r3, r2
	sxtb	r3, r3
	uxtb	r3, r3
	.loc 1 3110 14
	strb	r3, [sp, #14]
	.loc 1 3113 22
	ldr	r3, .L466
	ldr	r3, [r3]
	ldr	r4, [r3, #8]
	.loc 1 3113 42
	ldr	r3, .L466
	ldr	r3, [r3]
	.loc 1 3113 14
	ldrb	r0, [r3, #1]	@ zero_extendqisi2
	add	r2, sp, #14
	movs	r3, #1
	movs	r1, #28
	blx	r4
.LVL112:
	mov	r3, r0
	uxtb	r2, r3
	.loc 1 3113 11
	ldrb	r3, [sp, #15]	@ zero_extendqisi2
	add	r3, r3, r2
	uxtb	r3, r3
	strb	r3, [sp, #15]
	.loc 1 3117 4
	b	.L464
.L463:
	.loc 1 3119 21
	ldr	r3, .L466
	ldr	r3, [r3]
	ldr	r4, [r3, #12]
	.loc 1 3119 40
	ldr	r3, .L466
	ldr	r3, [r3]
	.loc 1 3119 13
	ldrb	r0, [r3, #1]	@ zero_extendqisi2
	add	r2, sp, #14
	movs	r3, #1
	movs	r1, #28
	blx	r4
.LVL113:
	mov	r3, r0
	strb	r3, [sp, #15]
	.loc 1 3123 27
	ldrb	r3, [sp, #14]	@ zero_extendqisi2
	sxtb	r3, r3
	bic	r3, r3, #2
	sxtb	r2, r3
	.loc 1 3123 59
	ldrb	r3, [sp, #6]	@ zero_extendqisi2
	lsls	r3, r3, #1
	.loc 1 3123 65
	sxtb	r3, r3
	and	r3, r3, #2
	sxtb	r3, r3
	.loc 1 3123 36
	orrs	r3, r3, r2
	sxtb	r3, r3
	uxtb	r3, r3
	.loc 1 3123 14
	strb	r3, [sp, #14]
	.loc 1 3126 22
	ldr	r3, .L466
	ldr	r3, [r3]
	ldr	r4, [r3, #8]
	.loc 1 3126 42
	ldr	r3, .L466
	ldr	r3, [r3]
	.loc 1 3126 14
	ldrb	r0, [r3, #1]	@ zero_extendqisi2
	add	r2, sp, #14
	movs	r3, #1
	movs	r1, #28
	blx	r4
.LVL114:
	mov	r3, r0
	uxtb	r2, r3
	.loc 1 3126 11
	ldrb	r3, [sp, #15]	@ zero_extendqisi2
	add	r3, r3, r2
	uxtb	r3, r3
	strb	r3, [sp, #15]
	.loc 1 3130 4
	b	.L464
.L460:
	.loc 1 3132 21
	ldr	r3, .L466
	ldr	r3, [r3]
	ldr	r4, [r3, #12]
	.loc 1 3132 40
	ldr	r3, .L466
	ldr	r3, [r3]
	.loc 1 3132 13
	ldrb	r0, [r3, #1]	@ zero_extendqisi2
	add	r2, sp, #14
	movs	r3, #1
	movs	r1, #28
	blx	r4
.LVL115:
	mov	r3, r0
	strb	r3, [sp, #15]
	.loc 1 3136 27
	ldrb	r3, [sp, #14]	@ zero_extendqisi2
	sxtb	r3, r3
	bic	r3, r3, #4
	sxtb	r2, r3
	.loc 1 3136 59
	ldrb	r3, [sp, #6]	@ zero_extendqisi2
	lsls	r3, r3, #2
	.loc 1 3136 65
	sxtb	r3, r3
	and	r3, r3, #4
	sxtb	r3, r3
	.loc 1 3136 36
	orrs	r3, r3, r2
	sxtb	r3, r3
	uxtb	r3, r3
	.loc 1 3136 14
	strb	r3, [sp, #14]
	.loc 1 3139 22
	ldr	r3, .L466
	ldr	r3, [r3]
	ldr	r4, [r3, #8]
	.loc 1 3139 42
	ldr	r3, .L466
	ldr	r3, [r3]
	.loc 1 3139 14
	ldrb	r0, [r3, #1]	@ zero_extendqisi2
	add	r2, sp, #14
	movs	r3, #1
	movs	r1, #28
	blx	r4
.LVL116:
	mov	r3, r0
	uxtb	r2, r3
	.loc 1 3139 11
	ldrb	r3, [sp, #15]	@ zero_extendqisi2
	add	r3, r3, r2
	uxtb	r3, r3
	strb	r3, [sp, #15]
	.loc 1 3143 4
	b	.L464
.L461:
	.loc 1 3145 11
	movs	r3, #254
	strb	r3, [sp, #15]
	.loc 1 3146 4
	nop
.L464:
	.loc 1 3149 9
	ldrsb	r3, [sp, #15]
.L465:
	.loc 1 3150 1 discriminator 1
	mov	r0, r3
	add	sp, sp, #16
.LCFI191:
	@ sp needed
	pop	{r4, pc}
.L467:
	.align	2
.L466:
	.word	p_bmg160
.LFE63:
	.size	bmg160_set_any_motion_enable_axis, .-bmg160_set_any_motion_enable_axis
	.section	.text.bmg160_get_fifo_wm_enable,"ax",%progbits
	.align	1
	.global	bmg160_get_fifo_wm_enable
	.syntax unified
	.thumb
	.thumb_func
	.fpu fpv4-sp-d16
	.type	bmg160_get_fifo_wm_enable, %function
bmg160_get_fifo_wm_enable:
.LFB64:
	.loc 1 3171 1
	@ args = 0, pretend = 0, frame = 16
	@ frame_needed = 0, uses_anonymous_args = 0
	push	{r4, lr}
.LCFI192:
	sub	sp, sp, #16
.LCFI193:
	str	r0, [sp, #4]
	.loc 1 3173 5
	movs	r3, #255
	strb	r3, [sp, #15]
	.loc 1 3174 5
	movs	r3, #0
	strb	r3, [sp, #14]
	.loc 1 3176 15
	ldr	r3, .L472
	ldr	r3, [r3]
	.loc 1 3176 5
	cmp	r3, #0
	bne	.L469
	.loc 1 3177 10
	mvn	r3, #126
	b	.L471
.L469:
	.loc 1 3180 20
	ldr	r3, .L472
	ldr	r3, [r3]
	ldr	r4, [r3, #12]
	.loc 1 3180 39
	ldr	r3, .L472
	ldr	r3, [r3]
	.loc 1 3180 12
	ldrb	r0, [r3, #1]	@ zero_extendqisi2
	add	r2, sp, #14
	movs	r3, #1
	movs	r1, #30
	blx	r4
.LVL117:
	mov	r3, r0
	strb	r3, [sp, #15]
	.loc 1 3183 48
	ldrb	r3, [sp, #14]	@ zero_extendqisi2
	lsrs	r3, r3, #7
	uxtb	r2, r3
	.loc 1 3183 24
	ldr	r3, [sp, #4]
	strb	r2, [r3]
	.loc 1 3186 9
	ldrsb	r3, [sp, #15]
.L471:
	.loc 1 3187 1 discriminator 1
	mov	r0, r3
	add	sp, sp, #16
.LCFI194:
	@ sp needed
	pop	{r4, pc}
.L473:
	.align	2
.L472:
	.word	p_bmg160
.LFE64:
	.size	bmg160_get_fifo_wm_enable, .-bmg160_get_fifo_wm_enable
	.section	.text.bmg160_set_fifo_wm_enable,"ax",%progbits
	.align	1
	.global	bmg160_set_fifo_wm_enable
	.syntax unified
	.thumb
	.thumb_func
	.fpu fpv4-sp-d16
	.type	bmg160_set_fifo_wm_enable, %function
bmg160_set_fifo_wm_enable:
.LFB65:
	.loc 1 3208 1
	@ args = 0, pretend = 0, frame = 16
	@ frame_needed = 0, uses_anonymous_args = 0
	push	{r4, lr}
.LCFI195:
	sub	sp, sp, #16
.LCFI196:
	mov	r3, r0
	strb	r3, [sp, #7]
	.loc 1 3210 5
	movs	r3, #255
	strb	r3, [sp, #15]
	.loc 1 3211 5
	movs	r3, #0
	strb	r3, [sp, #14]
	.loc 1 3213 15
	ldr	r3, .L480
	ldr	r3, [r3]
	.loc 1 3213 5
	cmp	r3, #0
	bne	.L475
	.loc 1 3214 10
	mvn	r3, #126
	b	.L479
.L475:
	.loc 1 3217 6
	ldrb	r3, [sp, #7]	@ zero_extendqisi2
	cmp	r3, #1
	bhi	.L477
	.loc 1 3218 21
	ldr	r3, .L480
	ldr	r3, [r3]
	ldr	r4, [r3, #12]
	.loc 1 3218 40
	ldr	r3, .L480
	ldr	r3, [r3]
	.loc 1 3218 13
	ldrb	r0, [r3, #1]	@ zero_extendqisi2
	add	r2, sp, #14
	movs	r3, #1
	movs	r1, #30
	blx	r4
.LVL118:
	mov	r3, r0
	strb	r3, [sp, #15]
	.loc 1 3222 27
	ldrb	r3, [sp, #14]	@ zero_extendqisi2
	sxtb	r3, r3
	and	r3, r3, #127
	sxtb	r2, r3
	.loc 1 3222 58
	ldrb	r3, [sp, #7]	@ zero_extendqisi2
	lsls	r3, r3, #7
	.loc 1 3222 36
	sxtb	r3, r3
	orrs	r3, r3, r2
	sxtb	r3, r3
	uxtb	r3, r3
	.loc 1 3222 14
	strb	r3, [sp, #14]
	.loc 1 3224 22
	ldr	r3, .L480
	ldr	r3, [r3]
	ldr	r4, [r3, #8]
	.loc 1 3224 42
	ldr	r3, .L480
	ldr	r3, [r3]
	.loc 1 3224 14
	ldrb	r0, [r3, #1]	@ zero_extendqisi2
	add	r2, sp, #14
	movs	r3, #1
	movs	r1, #30
	blx	r4
.LVL119:
	mov	r3, r0
	uxtb	r2, r3
	.loc 1 3224 11
	ldrb	r3, [sp, #15]	@ zero_extendqisi2
	add	r3, r3, r2
	uxtb	r3, r3
	strb	r3, [sp, #15]
	b	.L478
.L477:
	.loc 1 3229 11
	movs	r3, #254
	strb	r3, [sp, #15]
.L478:
	.loc 1 3232 9
	ldrsb	r3, [sp, #15]
.L479:
	.loc 1 3233 1 discriminator 1
	mov	r0, r3
	add	sp, sp, #16
.LCFI197:
	@ sp needed
	pop	{r4, pc}
.L481:
	.align	2
.L480:
	.word	p_bmg160
.LFE65:
	.size	bmg160_set_fifo_wm_enable, .-bmg160_set_fifo_wm_enable
	.section	.text.bmg160_set_rst_intr,"ax",%progbits
	.align	1
	.global	bmg160_set_rst_intr
	.syntax unified
	.thumb
	.thumb_func
	.fpu fpv4-sp-d16
	.type	bmg160_set_rst_intr, %function
bmg160_set_rst_intr:
.LFB66:
	.loc 1 3252 1
	@ args = 0, pretend = 0, frame = 16
	@ frame_needed = 0, uses_anonymous_args = 0
	push	{r4, lr}
.LCFI198:
	sub	sp, sp, #16
.LCFI199:
	mov	r3, r0
	strb	r3, [sp, #7]
	.loc 1 3254 5
	movs	r3, #255
	strb	r3, [sp, #15]
	.loc 1 3255 5
	movs	r3, #0
	strb	r3, [sp, #14]
	.loc 1 3257 15
	ldr	r3, .L486
	ldr	r3, [r3]
	.loc 1 3257 5
	cmp	r3, #0
	bne	.L483
	.loc 1 3258 10
	mvn	r3, #126
	b	.L485
.L483:
	.loc 1 3261 20
	ldr	r3, .L486
	ldr	r3, [r3]
	ldr	r4, [r3, #12]
	.loc 1 3261 39
	ldr	r3, .L486
	ldr	r3, [r3]
	.loc 1 3261 12
	ldrb	r0, [r3, #1]	@ zero_extendqisi2
	add	r2, sp, #14
	movs	r3, #1
	movs	r1, #33
	blx	r4
.LVL120:
	mov	r3, r0
	strb	r3, [sp, #15]
	.loc 1 3264 26
	ldrb	r3, [sp, #14]	@ zero_extendqisi2
	sxtb	r3, r3
	and	r3, r3, #127
	sxtb	r2, r3
	.loc 1 3264 50
	ldrb	r3, [sp, #7]	@ zero_extendqisi2
	lsls	r3, r3, #7
	.loc 1 3264 35
	sxtb	r3, r3
	orrs	r3, r3, r2
	sxtb	r3, r3
	uxtb	r3, r3
	.loc 1 3264 13
	strb	r3, [sp, #14]
	.loc 1 3266 21
	ldr	r3, .L486
	ldr	r3, [r3]
	ldr	r4, [r3, #8]
	.loc 1 3266 41
	ldr	r3, .L486
	ldr	r3, [r3]
	.loc 1 3266 13
	ldrb	r0, [r3, #1]	@ zero_extendqisi2
	add	r2, sp, #14
	movs	r3, #1
	movs	r1, #33
	blx	r4
.LVL121:
	mov	r3, r0
	uxtb	r2, r3
	.loc 1 3266 10
	ldrb	r3, [sp, #15]	@ zero_extendqisi2
	add	r3, r3, r2
	uxtb	r3, r3
	strb	r3, [sp, #15]
	.loc 1 3270 9
	ldrsb	r3, [sp, #15]
.L485:
	.loc 1 3271 1 discriminator 1
	mov	r0, r3
	add	sp, sp, #16
.LCFI200:
	@ sp needed
	pop	{r4, pc}
.L487:
	.align	2
.L486:
	.word	p_bmg160
.LFE66:
	.size	bmg160_set_rst_intr, .-bmg160_set_rst_intr
	.section	.text.bmg160_set_offset_rst,"ax",%progbits
	.align	1
	.global	bmg160_set_offset_rst
	.syntax unified
	.thumb
	.thumb_func
	.fpu fpv4-sp-d16
	.type	bmg160_set_offset_rst, %function
bmg160_set_offset_rst:
.LFB67:
	.loc 1 3291 1
	@ args = 0, pretend = 0, frame = 16
	@ frame_needed = 0, uses_anonymous_args = 0
	push	{r4, lr}
.LCFI201:
	sub	sp, sp, #16
.LCFI202:
	mov	r3, r0
	strb	r3, [sp, #7]
	.loc 1 3293 5
	movs	r3, #255
	strb	r3, [sp, #15]
	.loc 1 3294 5
	movs	r3, #0
	strb	r3, [sp, #14]
	.loc 1 3296 15
	ldr	r3, .L492
	ldr	r3, [r3]
	.loc 1 3296 5
	cmp	r3, #0
	bne	.L489
	.loc 1 3297 10
	mvn	r3, #126
	b	.L491
.L489:
	.loc 1 3300 20
	ldr	r3, .L492
	ldr	r3, [r3]
	ldr	r4, [r3, #12]
	.loc 1 3300 39
	ldr	r3, .L492
	ldr	r3, [r3]
	.loc 1 3300 12
	ldrb	r0, [r3, #1]	@ zero_extendqisi2
	add	r2, sp, #14
	movs	r3, #1
	movs	r1, #33
	blx	r4
.LVL122:
	mov	r3, r0
	strb	r3, [sp, #15]
	.loc 1 3303 26
	ldrb	r3, [sp, #14]	@ zero_extendqisi2
	sxtb	r3, r3
	bic	r3, r3, #64
	sxtb	r2, r3
	.loc 1 3303 53
	ldrb	r3, [sp, #7]	@ zero_extendqisi2
	lsls	r3, r3, #6
	.loc 1 3303 59
	sxtb	r3, r3
	and	r3, r3, #64
	sxtb	r3, r3
	.loc 1 3303 35
	orrs	r3, r3, r2
	sxtb	r3, r3
	uxtb	r3, r3
	.loc 1 3303 13
	strb	r3, [sp, #14]
	.loc 1 3305 21
	ldr	r3, .L492
	ldr	r3, [r3]
	ldr	r4, [r3, #8]
	.loc 1 3305 41
	ldr	r3, .L492
	ldr	r3, [r3]
	.loc 1 3305 13
	ldrb	r0, [r3, #1]	@ zero_extendqisi2
	add	r2, sp, #14
	movs	r3, #1
	movs	r1, #33
	blx	r4
.LVL123:
	mov	r3, r0
	uxtb	r2, r3
	.loc 1 3305 10
	ldrb	r3, [sp, #15]	@ zero_extendqisi2
	add	r3, r3, r2
	uxtb	r3, r3
	strb	r3, [sp, #15]
	.loc 1 3309 9
	ldrsb	r3, [sp, #15]
.L491:
	.loc 1 3310 1 discriminator 1
	mov	r0, r3
	add	sp, sp, #16
.LCFI203:
	@ sp needed
	pop	{r4, pc}
.L493:
	.align	2
.L492:
	.word	p_bmg160
.LFE67:
	.size	bmg160_set_offset_rst, .-bmg160_set_offset_rst
	.section	.text.bmg160_get_latch_stat,"ax",%progbits
	.align	1
	.global	bmg160_get_latch_stat
	.syntax unified
	.thumb
	.thumb_func
	.fpu fpv4-sp-d16
	.type	bmg160_get_latch_stat, %function
bmg160_get_latch_stat:
.LFB68:
	.loc 1 3333 1
	@ args = 0, pretend = 0, frame = 16
	@ frame_needed = 0, uses_anonymous_args = 0
	push	{r4, lr}
.LCFI204:
	sub	sp, sp, #16
.LCFI205:
	str	r0, [sp, #4]
	.loc 1 3335 5
	movs	r3, #255
	strb	r3, [sp, #15]
	.loc 1 3336 5
	movs	r3, #0
	strb	r3, [sp, #14]
	.loc 1 3338 15
	ldr	r3, .L498
	ldr	r3, [r3]
	.loc 1 3338 5
	cmp	r3, #0
	bne	.L495
	.loc 1 3339 10
	mvn	r3, #126
	b	.L497
.L495:
	.loc 1 3342 20
	ldr	r3, .L498
	ldr	r3, [r3]
	ldr	r4, [r3, #12]
	.loc 1 3342 39
	ldr	r3, .L498
	ldr	r3, [r3]
	.loc 1 3342 12
	ldrb	r0, [r3, #1]	@ zero_extendqisi2
	add	r2, sp, #14
	movs	r3, #1
	movs	r1, #33
	blx	r4
.LVL124:
	mov	r3, r0
	strb	r3, [sp, #15]
	.loc 1 3345 44
	ldrb	r3, [sp, #14]	@ zero_extendqisi2
	asrs	r3, r3, #4
	uxtb	r3, r3
	and	r3, r3, #1
	uxtb	r2, r3
	.loc 1 3345 20
	ldr	r3, [sp, #4]
	strb	r2, [r3]
	.loc 1 3348 9
	ldrsb	r3, [sp, #15]
.L497:
	.loc 1 3349 1 discriminator 1
	mov	r0, r3
	add	sp, sp, #16
.LCFI206:
	@ sp needed
	pop	{r4, pc}
.L499:
	.align	2
.L498:
	.word	p_bmg160
.LFE68:
	.size	bmg160_get_latch_stat, .-bmg160_get_latch_stat
	.section	.text.bmg160_set_latch_stat,"ax",%progbits
	.align	1
	.global	bmg160_set_latch_stat
	.syntax unified
	.thumb
	.thumb_func
	.fpu fpv4-sp-d16
	.type	bmg160_set_latch_stat, %function
bmg160_set_latch_stat:
.LFB69:
	.loc 1 3372 1
	@ args = 0, pretend = 0, frame = 16
	@ frame_needed = 0, uses_anonymous_args = 0
	push	{r4, lr}
.LCFI207:
	sub	sp, sp, #16
.LCFI208:
	mov	r3, r0
	strb	r3, [sp, #7]
	.loc 1 3374 5
	movs	r3, #255
	strb	r3, [sp, #15]
	.loc 1 3375 5
	movs	r3, #0
	strb	r3, [sp, #14]
	.loc 1 3377 15
	ldr	r3, .L504
	ldr	r3, [r3]
	.loc 1 3377 5
	cmp	r3, #0
	bne	.L501
	.loc 1 3378 10
	mvn	r3, #126
	b	.L503
.L501:
	.loc 1 3381 20
	ldr	r3, .L504
	ldr	r3, [r3]
	ldr	r4, [r3, #12]
	.loc 1 3381 39
	ldr	r3, .L504
	ldr	r3, [r3]
	.loc 1 3381 12
	ldrb	r0, [r3, #1]	@ zero_extendqisi2
	add	r2, sp, #14
	movs	r3, #1
	movs	r1, #33
	blx	r4
.LVL125:
	mov	r3, r0
	strb	r3, [sp, #15]
	.loc 1 3384 26
	ldrb	r3, [sp, #14]	@ zero_extendqisi2
	sxtb	r3, r3
	bic	r3, r3, #16
	sxtb	r2, r3
	.loc 1 3384 53
	ldrb	r3, [sp, #7]	@ zero_extendqisi2
	lsls	r3, r3, #4
	.loc 1 3384 59
	sxtb	r3, r3
	and	r3, r3, #16
	sxtb	r3, r3
	.loc 1 3384 35
	orrs	r3, r3, r2
	sxtb	r3, r3
	uxtb	r3, r3
	.loc 1 3384 13
	strb	r3, [sp, #14]
	.loc 1 3386 21
	ldr	r3, .L504
	ldr	r3, [r3]
	ldr	r4, [r3, #8]
	.loc 1 3386 41
	ldr	r3, .L504
	ldr	r3, [r3]
	.loc 1 3386 13
	ldrb	r0, [r3, #1]	@ zero_extendqisi2
	add	r2, sp, #14
	movs	r3, #1
	movs	r1, #33
	blx	r4
.LVL126:
	mov	r3, r0
	uxtb	r2, r3
	.loc 1 3386 10
	ldrb	r3, [sp, #15]	@ zero_extendqisi2
	add	r3, r3, r2
	uxtb	r3, r3
	strb	r3, [sp, #15]
	.loc 1 3390 9
	ldrsb	r3, [sp, #15]
.L503:
	.loc 1 3391 1 discriminator 1
	mov	r0, r3
	add	sp, sp, #16
.LCFI209:
	@ sp needed
	pop	{r4, pc}
.L505:
	.align	2
.L504:
	.word	p_bmg160
.LFE69:
	.size	bmg160_set_latch_stat, .-bmg160_set_latch_stat
	.section	.text.bmg160_get_latch_intr,"ax",%progbits
	.align	1
	.global	bmg160_get_latch_intr
	.syntax unified
	.thumb
	.thumb_func
	.fpu fpv4-sp-d16
	.type	bmg160_get_latch_intr, %function
bmg160_get_latch_intr:
.LFB70:
	.loc 1 3426 1
	@ args = 0, pretend = 0, frame = 16
	@ frame_needed = 0, uses_anonymous_args = 0
	push	{r4, lr}
.LCFI210:
	sub	sp, sp, #16
.LCFI211:
	str	r0, [sp, #4]
	.loc 1 3428 5
	movs	r3, #255
	strb	r3, [sp, #15]
	.loc 1 3429 5
	movs	r3, #0
	strb	r3, [sp, #14]
	.loc 1 3431 15
	ldr	r3, .L510
	ldr	r3, [r3]
	.loc 1 3431 5
	cmp	r3, #0
	bne	.L507
	.loc 1 3432 10
	mvn	r3, #126
	b	.L509
.L507:
	.loc 1 3435 20
	ldr	r3, .L510
	ldr	r3, [r3]
	ldr	r4, [r3, #12]
	.loc 1 3435 39
	ldr	r3, .L510
	ldr	r3, [r3]
	.loc 1 3435 12
	ldrb	r0, [r3, #1]	@ zero_extendqisi2
	add	r2, sp, #14
	movs	r3, #1
	movs	r1, #33
	blx	r4
.LVL127:
	mov	r3, r0
	strb	r3, [sp, #15]
	.loc 1 3438 44
	ldrb	r3, [sp, #14]	@ zero_extendqisi2
	and	r3, r3, #15
	uxtb	r2, r3
	.loc 1 3438 20
	ldr	r3, [sp, #4]
	strb	r2, [r3]
	.loc 1 3441 9
	ldrsb	r3, [sp, #15]
.L509:
	.loc 1 3442 1 discriminator 1
	mov	r0, r3
	add	sp, sp, #16
.LCFI212:
	@ sp needed
	pop	{r4, pc}
.L511:
	.align	2
.L510:
	.word	p_bmg160
.LFE70:
	.size	bmg160_get_latch_intr, .-bmg160_get_latch_intr
	.section	.text.bmg160_set_latch_intr,"ax",%progbits
	.align	1
	.global	bmg160_set_latch_intr
	.syntax unified
	.thumb
	.thumb_func
	.fpu fpv4-sp-d16
	.type	bmg160_set_latch_intr, %function
bmg160_set_latch_intr:
.LFB71:
	.loc 1 3477 1
	@ args = 0, pretend = 0, frame = 16
	@ frame_needed = 0, uses_anonymous_args = 0
	push	{r4, lr}
.LCFI213:
	sub	sp, sp, #16
.LCFI214:
	mov	r3, r0
	strb	r3, [sp, #7]
	.loc 1 3479 5
	movs	r3, #255
	strb	r3, [sp, #15]
	.loc 1 3480 5
	movs	r3, #0
	strb	r3, [sp, #14]
	.loc 1 3482 15
	ldr	r3, .L516
	ldr	r3, [r3]
	.loc 1 3482 5
	cmp	r3, #0
	bne	.L513
	.loc 1 3483 10
	mvn	r3, #126
	b	.L515
.L513:
	.loc 1 3486 20
	ldr	r3, .L516
	ldr	r3, [r3]
	ldr	r4, [r3, #12]
	.loc 1 3486 39
	ldr	r3, .L516
	ldr	r3, [r3]
	.loc 1 3486 12
	ldrb	r0, [r3, #1]	@ zero_extendqisi2
	add	r2, sp, #14
	movs	r3, #1
	movs	r1, #33
	blx	r4
.LVL128:
	mov	r3, r0
	strb	r3, [sp, #15]
	.loc 1 3489 26
	ldrb	r3, [sp, #14]	@ zero_extendqisi2
	sxtb	r3, r3
	bic	r3, r3, #15
	sxtb	r2, r3
	.loc 1 3489 59
	ldrsb	r3, [sp, #7]
	and	r3, r3, #15
	sxtb	r3, r3
	.loc 1 3489 35
	orrs	r3, r3, r2
	sxtb	r3, r3
	uxtb	r3, r3
	.loc 1 3489 13
	strb	r3, [sp, #14]
	.loc 1 3491 21
	ldr	r3, .L516
	ldr	r3, [r3]
	ldr	r4, [r3, #8]
	.loc 1 3491 41
	ldr	r3, .L516
	ldr	r3, [r3]
	.loc 1 3491 13
	ldrb	r0, [r3, #1]	@ zero_extendqisi2
	add	r2, sp, #14
	movs	r3, #1
	movs	r1, #33
	blx	r4
.LVL129:
	mov	r3, r0
	uxtb	r2, r3
	.loc 1 3491 10
	ldrb	r3, [sp, #15]	@ zero_extendqisi2
	add	r3, r3, r2
	uxtb	r3, r3
	strb	r3, [sp, #15]
	.loc 1 3495 9
	ldrsb	r3, [sp, #15]
.L515:
	.loc 1 3496 1 discriminator 1
	mov	r0, r3
	add	sp, sp, #16
.LCFI215:
	@ sp needed
	pop	{r4, pc}
.L517:
	.align	2
.L516:
	.word	p_bmg160
.LFE71:
	.size	bmg160_set_latch_intr, .-bmg160_set_latch_intr
	.section	.text.bmg160_get_highrate_hyst,"ax",%progbits
	.align	1
	.global	bmg160_get_highrate_hyst
	.syntax unified
	.thumb
	.thumb_func
	.fpu fpv4-sp-d16
	.type	bmg160_get_highrate_hyst, %function
bmg160_get_highrate_hyst:
.LFB72:
	.loc 1 3524 1
	@ args = 0, pretend = 0, frame = 16
	@ frame_needed = 0, uses_anonymous_args = 0
	push	{r4, lr}
.LCFI216:
	sub	sp, sp, #16
.LCFI217:
	mov	r3, r0
	str	r1, [sp]
	strb	r3, [sp, #7]
	.loc 1 3526 5
	movs	r3, #255
	strb	r3, [sp, #15]
	.loc 1 3527 5
	movs	r3, #0
	strb	r3, [sp, #14]
	.loc 1 3529 15
	ldr	r3, .L527
	ldr	r3, [r3]
	.loc 1 3529 5
	cmp	r3, #0
	bne	.L519
	.loc 1 3530 10
	mvn	r3, #126
	b	.L526
.L519:
	.loc 1 3532 3
	ldrb	r3, [sp, #7]	@ zero_extendqisi2
	cmp	r3, #2
	beq	.L521
	cmp	r3, #2
	bgt	.L522
	cmp	r3, #0
	beq	.L523
	cmp	r3, #1
	beq	.L524
	b	.L522
.L523:
	.loc 1 3535 21
	ldr	r3, .L527
	ldr	r3, [r3]
	ldr	r4, [r3, #12]
	.loc 1 3535 40
	ldr	r3, .L527
	ldr	r3, [r3]
	.loc 1 3535 13
	ldrb	r0, [r3, #1]	@ zero_extendqisi2
	add	r2, sp, #14
	movs	r3, #1
	movs	r1, #34
	blx	r4
.LVL130:
	mov	r3, r0
	strb	r3, [sp, #15]
	.loc 1 3539 48
	ldrb	r3, [sp, #14]	@ zero_extendqisi2
	lsrs	r3, r3, #6
	uxtb	r2, r3
	.loc 1 3539 24
	ldr	r3, [sp]
	strb	r2, [r3]
	.loc 1 3541 4
	b	.L525
.L524:
	.loc 1 3543 21
	ldr	r3, .L527
	ldr	r3, [r3]
	ldr	r4, [r3, #12]
	.loc 1 3543 40
	ldr	r3, .L527
	ldr	r3, [r3]
	.loc 1 3543 13
	ldrb	r0, [r3, #1]	@ zero_extendqisi2
	add	r2, sp, #14
	movs	r3, #1
	movs	r1, #36
	blx	r4
.LVL131:
	mov	r3, r0
	strb	r3, [sp, #15]
	.loc 1 3547 48
	ldrb	r3, [sp, #14]	@ zero_extendqisi2
	lsrs	r3, r3, #6
	uxtb	r2, r3
	.loc 1 3547 24
	ldr	r3, [sp]
	strb	r2, [r3]
	.loc 1 3549 4
	b	.L525
.L521:
	.loc 1 3551 21
	ldr	r3, .L527
	ldr	r3, [r3]
	ldr	r4, [r3, #12]
	.loc 1 3551 40
	ldr	r3, .L527
	ldr	r3, [r3]
	.loc 1 3551 13
	ldrb	r0, [r3, #1]	@ zero_extendqisi2
	add	r2, sp, #14
	movs	r3, #1
	movs	r1, #38
	blx	r4
.LVL132:
	mov	r3, r0
	strb	r3, [sp, #15]
	.loc 1 3555 48
	ldrb	r3, [sp, #14]	@ zero_extendqisi2
	lsrs	r3, r3, #6
	uxtb	r2, r3
	.loc 1 3555 24
	ldr	r3, [sp]
	strb	r2, [r3]
	.loc 1 3557 4
	b	.L525
.L522:
	.loc 1 3559 11
	movs	r3, #254
	strb	r3, [sp, #15]
	.loc 1 3560 4
	nop
.L525:
	.loc 1 3563 9
	ldrsb	r3, [sp, #15]
.L526:
	.loc 1 3564 1 discriminator 1
	mov	r0, r3
	add	sp, sp, #16
.LCFI218:
	@ sp needed
	pop	{r4, pc}
.L528:
	.align	2
.L527:
	.word	p_bmg160
.LFE72:
	.size	bmg160_get_highrate_hyst, .-bmg160_get_highrate_hyst
	.section	.text.bmg160_set_highrate_hyst,"ax",%progbits
	.align	1
	.global	bmg160_set_highrate_hyst
	.syntax unified
	.thumb
	.thumb_func
	.fpu fpv4-sp-d16
	.type	bmg160_set_highrate_hyst, %function
bmg160_set_highrate_hyst:
.LFB73:
	.loc 1 3592 1
	@ args = 0, pretend = 0, frame = 16
	@ frame_needed = 0, uses_anonymous_args = 0
	push	{r4, lr}
.LCFI219:
	sub	sp, sp, #16
.LCFI220:
	mov	r3, r0
	mov	r2, r1
	strb	r3, [sp, #7]
	mov	r3, r2
	strb	r3, [sp, #6]
	.loc 1 3594 5
	movs	r3, #255
	strb	r3, [sp, #15]
	.loc 1 3595 5
	movs	r3, #0
	strb	r3, [sp, #14]
	.loc 1 3597 15
	ldr	r3, .L538
	ldr	r3, [r3]
	.loc 1 3597 5
	cmp	r3, #0
	bne	.L530
	.loc 1 3598 10
	mvn	r3, #126
	b	.L537
.L530:
	.loc 1 3600 3
	ldrb	r3, [sp, #7]	@ zero_extendqisi2
	cmp	r3, #2
	beq	.L532
	cmp	r3, #2
	bgt	.L533
	cmp	r3, #0
	beq	.L534
	cmp	r3, #1
	beq	.L535
	b	.L533
.L534:
	.loc 1 3603 21
	ldr	r3, .L538
	ldr	r3, [r3]
	ldr	r4, [r3, #12]
	.loc 1 3603 40
	ldr	r3, .L538
	ldr	r3, [r3]
	.loc 1 3603 13
	ldrb	r0, [r3, #1]	@ zero_extendqisi2
	add	r2, sp, #14
	movs	r3, #1
	movs	r1, #34
	blx	r4
.LVL133:
	mov	r3, r0
	strb	r3, [sp, #15]
	.loc 1 3607 27
	ldrb	r3, [sp, #14]	@ zero_extendqisi2
	sxtb	r3, r3
	and	r3, r3, #63
	sxtb	r2, r3
	.loc 1 3607 57
	ldrb	r3, [sp, #6]	@ zero_extendqisi2
	lsls	r3, r3, #6
	.loc 1 3607 36
	sxtb	r3, r3
	orrs	r3, r3, r2
	sxtb	r3, r3
	uxtb	r3, r3
	.loc 1 3607 14
	strb	r3, [sp, #14]
	.loc 1 3609 22
	ldr	r3, .L538
	ldr	r3, [r3]
	ldr	r4, [r3, #8]
	.loc 1 3609 42
	ldr	r3, .L538
	ldr	r3, [r3]
	.loc 1 3609 14
	ldrb	r0, [r3, #1]	@ zero_extendqisi2
	add	r2, sp, #14
	movs	r3, #1
	movs	r1, #34
	blx	r4
.LVL134:
	mov	r3, r0
	uxtb	r2, r3
	.loc 1 3609 11
	ldrb	r3, [sp, #15]	@ zero_extendqisi2
	add	r3, r3, r2
	uxtb	r3, r3
	strb	r3, [sp, #15]
	.loc 1 3613 4
	b	.L536
.L535:
	.loc 1 3615 21
	ldr	r3, .L538
	ldr	r3, [r3]
	ldr	r4, [r3, #12]
	.loc 1 3615 40
	ldr	r3, .L538
	ldr	r3, [r3]
	.loc 1 3615 13
	ldrb	r0, [r3, #1]	@ zero_extendqisi2
	add	r2, sp, #14
	movs	r3, #1
	movs	r1, #36
	blx	r4
.LVL135:
	mov	r3, r0
	strb	r3, [sp, #15]
	.loc 1 3619 27
	ldrb	r3, [sp, #14]	@ zero_extendqisi2
	sxtb	r3, r3
	and	r3, r3, #63
	sxtb	r2, r3
	.loc 1 3619 57
	ldrb	r3, [sp, #6]	@ zero_extendqisi2
	lsls	r3, r3, #6
	.loc 1 3619 36
	sxtb	r3, r3
	orrs	r3, r3, r2
	sxtb	r3, r3
	uxtb	r3, r3
	.loc 1 3619 14
	strb	r3, [sp, #14]
	.loc 1 3621 22
	ldr	r3, .L538
	ldr	r3, [r3]
	ldr	r4, [r3, #8]
	.loc 1 3621 42
	ldr	r3, .L538
	ldr	r3, [r3]
	.loc 1 3621 14
	ldrb	r0, [r3, #1]	@ zero_extendqisi2
	add	r2, sp, #14
	movs	r3, #1
	movs	r1, #36
	blx	r4
.LVL136:
	mov	r3, r0
	uxtb	r2, r3
	.loc 1 3621 11
	ldrb	r3, [sp, #15]	@ zero_extendqisi2
	add	r3, r3, r2
	uxtb	r3, r3
	strb	r3, [sp, #15]
	.loc 1 3625 4
	b	.L536
.L532:
	.loc 1 3627 21
	ldr	r3, .L538
	ldr	r3, [r3]
	ldr	r4, [r3, #12]
	.loc 1 3627 40
	ldr	r3, .L538
	ldr	r3, [r3]
	.loc 1 3627 13
	ldrb	r0, [r3, #1]	@ zero_extendqisi2
	add	r2, sp, #14
	movs	r3, #1
	movs	r1, #38
	blx	r4
.LVL137:
	mov	r3, r0
	strb	r3, [sp, #15]
	.loc 1 3631 27
	ldrb	r3, [sp, #14]	@ zero_extendqisi2
	sxtb	r3, r3
	and	r3, r3, #63
	sxtb	r2, r3
	.loc 1 3631 57
	ldrb	r3, [sp, #6]	@ zero_extendqisi2
	lsls	r3, r3, #6
	.loc 1 3631 36
	sxtb	r3, r3
	orrs	r3, r3, r2
	sxtb	r3, r3
	uxtb	r3, r3
	.loc 1 3631 14
	strb	r3, [sp, #14]
	.loc 1 3633 22
	ldr	r3, .L538
	ldr	r3, [r3]
	ldr	r4, [r3, #8]
	.loc 1 3633 42
	ldr	r3, .L538
	ldr	r3, [r3]
	.loc 1 3633 14
	ldrb	r0, [r3, #1]	@ zero_extendqisi2
	add	r2, sp, #14
	movs	r3, #1
	movs	r1, #38
	blx	r4
.LVL138:
	mov	r3, r0
	uxtb	r2, r3
	.loc 1 3633 11
	ldrb	r3, [sp, #15]	@ zero_extendqisi2
	add	r3, r3, r2
	uxtb	r3, r3
	strb	r3, [sp, #15]
	.loc 1 3637 4
	b	.L536
.L533:
	.loc 1 3639 11
	movs	r3, #254
	strb	r3, [sp, #15]
	.loc 1 3640 4
	nop
.L536:
	.loc 1 3643 9
	ldrsb	r3, [sp, #15]
.L537:
	.loc 1 3644 1 discriminator 1
	mov	r0, r3
	add	sp, sp, #16
.LCFI221:
	@ sp needed
	pop	{r4, pc}
.L539:
	.align	2
.L538:
	.word	p_bmg160
.LFE73:
	.size	bmg160_set_highrate_hyst, .-bmg160_set_highrate_hyst
	.section	.text.bmg160_get_highrate_thres,"ax",%progbits
	.align	1
	.global	bmg160_get_highrate_thres
	.syntax unified
	.thumb
	.thumb_func
	.fpu fpv4-sp-d16
	.type	bmg160_get_highrate_thres, %function
bmg160_get_highrate_thres:
.LFB74:
	.loc 1 3672 1
	@ args = 0, pretend = 0, frame = 16
	@ frame_needed = 0, uses_anonymous_args = 0
	push	{r4, lr}
.LCFI222:
	sub	sp, sp, #16
.LCFI223:
	mov	r3, r0
	str	r1, [sp]
	strb	r3, [sp, #7]
	.loc 1 3674 5
	movs	r3, #255
	strb	r3, [sp, #15]
	.loc 1 3675 5
	movs	r3, #0
	strb	r3, [sp, #14]
	.loc 1 3677 15
	ldr	r3, .L549
	ldr	r3, [r3]
	.loc 1 3677 5
	cmp	r3, #0
	bne	.L541
	.loc 1 3678 10
	mvn	r3, #126
	b	.L548
.L541:
	.loc 1 3680 3
	ldrb	r3, [sp, #7]	@ zero_extendqisi2
	cmp	r3, #2
	beq	.L543
	cmp	r3, #2
	bgt	.L544
	cmp	r3, #0
	beq	.L545
	cmp	r3, #1
	beq	.L546
	b	.L544
.L545:
	.loc 1 3683 21
	ldr	r3, .L549
	ldr	r3, [r3]
	ldr	r4, [r3, #12]
	.loc 1 3683 40
	ldr	r3, .L549
	ldr	r3, [r3]
	.loc 1 3683 13
	ldrb	r0, [r3, #1]	@ zero_extendqisi2
	add	r2, sp, #14
	movs	r3, #1
	movs	r1, #34
	blx	r4
.LVL139:
	mov	r3, r0
	strb	r3, [sp, #15]
	.loc 1 3687 49
	ldrb	r3, [sp, #14]	@ zero_extendqisi2
	asrs	r3, r3, #1
	uxtb	r3, r3
	and	r3, r3, #31
	uxtb	r2, r3
	.loc 1 3687 25
	ldr	r3, [sp]
	strb	r2, [r3]
	.loc 1 3689 4
	b	.L547
.L546:
	.loc 1 3691 21
	ldr	r3, .L549
	ldr	r3, [r3]
	ldr	r4, [r3, #12]
	.loc 1 3691 40
	ldr	r3, .L549
	ldr	r3, [r3]
	.loc 1 3691 13
	ldrb	r0, [r3, #1]	@ zero_extendqisi2
	add	r2, sp, #14
	movs	r3, #1
	movs	r1, #36
	blx	r4
.LVL140:
	mov	r3, r0
	strb	r3, [sp, #15]
	.loc 1 3695 49
	ldrb	r3, [sp, #14]	@ zero_extendqisi2
	asrs	r3, r3, #1
	uxtb	r3, r3
	and	r3, r3, #31
	uxtb	r2, r3
	.loc 1 3695 25
	ldr	r3, [sp]
	strb	r2, [r3]
	.loc 1 3697 4
	b	.L547
.L543:
	.loc 1 3699 21
	ldr	r3, .L549
	ldr	r3, [r3]
	ldr	r4, [r3, #12]
	.loc 1 3699 40
	ldr	r3, .L549
	ldr	r3, [r3]
	.loc 1 3699 13
	ldrb	r0, [r3, #1]	@ zero_extendqisi2
	add	r2, sp, #14
	movs	r3, #1
	movs	r1, #38
	blx	r4
.LVL141:
	mov	r3, r0
	strb	r3, [sp, #15]
	.loc 1 3703 49
	ldrb	r3, [sp, #14]	@ zero_extendqisi2
	asrs	r3, r3, #1
	uxtb	r3, r3
	and	r3, r3, #31
	uxtb	r2, r3
	.loc 1 3703 25
	ldr	r3, [sp]
	strb	r2, [r3]
	.loc 1 3705 4
	b	.L547
.L544:
	.loc 1 3707 11
	movs	r3, #254
	strb	r3, [sp, #15]
	.loc 1 3708 4
	nop
.L547:
	.loc 1 3711 9
	ldrsb	r3, [sp, #15]
.L548:
	.loc 1 3712 1 discriminator 1
	mov	r0, r3
	add	sp, sp, #16
.LCFI224:
	@ sp needed
	pop	{r4, pc}
.L550:
	.align	2
.L549:
	.word	p_bmg160
.LFE74:
	.size	bmg160_get_highrate_thres, .-bmg160_get_highrate_thres
	.section	.text.bmg160_set_highrate_thres,"ax",%progbits
	.align	1
	.global	bmg160_set_highrate_thres
	.syntax unified
	.thumb
	.thumb_func
	.fpu fpv4-sp-d16
	.type	bmg160_set_highrate_thres, %function
bmg160_set_highrate_thres:
.LFB75:
	.loc 1 3740 1
	@ args = 0, pretend = 0, frame = 16
	@ frame_needed = 0, uses_anonymous_args = 0
	push	{r4, lr}
.LCFI225:
	sub	sp, sp, #16
.LCFI226:
	mov	r3, r0
	mov	r2, r1
	strb	r3, [sp, #7]
	mov	r3, r2
	strb	r3, [sp, #6]
	.loc 1 3742 5
	movs	r3, #255
	strb	r3, [sp, #15]
	.loc 1 3743 5
	movs	r3, #0
	strb	r3, [sp, #14]
	.loc 1 3745 15
	ldr	r3, .L560
	ldr	r3, [r3]
	.loc 1 3745 5
	cmp	r3, #0
	bne	.L552
	.loc 1 3746 10
	mvn	r3, #126
	b	.L559
.L552:
	.loc 1 3748 3
	ldrb	r3, [sp, #7]	@ zero_extendqisi2
	cmp	r3, #2
	beq	.L554
	cmp	r3, #2
	bgt	.L555
	cmp	r3, #0
	beq	.L556
	cmp	r3, #1
	beq	.L557
	b	.L555
.L556:
	.loc 1 3751 21
	ldr	r3, .L560
	ldr	r3, [r3]
	ldr	r4, [r3, #12]
	.loc 1 3751 40
	ldr	r3, .L560
	ldr	r3, [r3]
	.loc 1 3751 13
	ldrb	r0, [r3, #1]	@ zero_extendqisi2
	add	r2, sp, #14
	movs	r3, #1
	movs	r1, #34
	blx	r4
.LVL142:
	mov	r3, r0
	strb	r3, [sp, #15]
	.loc 1 3755 27
	ldrb	r3, [sp, #14]	@ zero_extendqisi2
	sxtb	r3, r3
	bic	r3, r3, #62
	sxtb	r2, r3
	.loc 1 3755 58
	ldrb	r3, [sp, #6]	@ zero_extendqisi2
	lsls	r3, r3, #1
	.loc 1 3755 64
	sxtb	r3, r3
	and	r3, r3, #62
	sxtb	r3, r3
	.loc 1 3755 36
	orrs	r3, r3, r2
	sxtb	r3, r3
	uxtb	r3, r3
	.loc 1 3755 14
	strb	r3, [sp, #14]
	.loc 1 3757 22
	ldr	r3, .L560
	ldr	r3, [r3]
	ldr	r4, [r3, #8]
	.loc 1 3757 42
	ldr	r3, .L560
	ldr	r3, [r3]
	.loc 1 3757 14
	ldrb	r0, [r3, #1]	@ zero_extendqisi2
	add	r2, sp, #14
	movs	r3, #1
	movs	r1, #34
	blx	r4
.LVL143:
	mov	r3, r0
	uxtb	r2, r3
	.loc 1 3757 11
	ldrb	r3, [sp, #15]	@ zero_extendqisi2
	add	r3, r3, r2
	uxtb	r3, r3
	strb	r3, [sp, #15]
	.loc 1 3761 4
	b	.L558
.L557:
	.loc 1 3763 21
	ldr	r3, .L560
	ldr	r3, [r3]
	ldr	r4, [r3, #12]
	.loc 1 3763 40
	ldr	r3, .L560
	ldr	r3, [r3]
	.loc 1 3763 13
	ldrb	r0, [r3, #1]	@ zero_extendqisi2
	add	r2, sp, #14
	movs	r3, #1
	movs	r1, #36
	blx	r4
.LVL144:
	mov	r3, r0
	strb	r3, [sp, #15]
	.loc 1 3767 27
	ldrb	r3, [sp, #14]	@ zero_extendqisi2
	sxtb	r3, r3
	bic	r3, r3, #62
	sxtb	r2, r3
	.loc 1 3767 58
	ldrb	r3, [sp, #6]	@ zero_extendqisi2
	lsls	r3, r3, #1
	.loc 1 3767 64
	sxtb	r3, r3
	and	r3, r3, #62
	sxtb	r3, r3
	.loc 1 3767 36
	orrs	r3, r3, r2
	sxtb	r3, r3
	uxtb	r3, r3
	.loc 1 3767 14
	strb	r3, [sp, #14]
	.loc 1 3769 22
	ldr	r3, .L560
	ldr	r3, [r3]
	ldr	r4, [r3, #8]
	.loc 1 3769 42
	ldr	r3, .L560
	ldr	r3, [r3]
	.loc 1 3769 14
	ldrb	r0, [r3, #1]	@ zero_extendqisi2
	add	r2, sp, #14
	movs	r3, #1
	movs	r1, #36
	blx	r4
.LVL145:
	mov	r3, r0
	uxtb	r2, r3
	.loc 1 3769 11
	ldrb	r3, [sp, #15]	@ zero_extendqisi2
	add	r3, r3, r2
	uxtb	r3, r3
	strb	r3, [sp, #15]
	.loc 1 3773 4
	b	.L558
.L554:
	.loc 1 3775 21
	ldr	r3, .L560
	ldr	r3, [r3]
	ldr	r4, [r3, #12]
	.loc 1 3775 40
	ldr	r3, .L560
	ldr	r3, [r3]
	.loc 1 3775 13
	ldrb	r0, [r3, #1]	@ zero_extendqisi2
	add	r2, sp, #14
	movs	r3, #1
	movs	r1, #38
	blx	r4
.LVL146:
	mov	r3, r0
	strb	r3, [sp, #15]
	.loc 1 3779 27
	ldrb	r3, [sp, #14]	@ zero_extendqisi2
	sxtb	r3, r3
	bic	r3, r3, #62
	sxtb	r2, r3
	.loc 1 3779 58
	ldrb	r3, [sp, #6]	@ zero_extendqisi2
	lsls	r3, r3, #1
	.loc 1 3779 64
	sxtb	r3, r3
	and	r3, r3, #62
	sxtb	r3, r3
	.loc 1 3779 36
	orrs	r3, r3, r2
	sxtb	r3, r3
	uxtb	r3, r3
	.loc 1 3779 14
	strb	r3, [sp, #14]
	.loc 1 3781 22
	ldr	r3, .L560
	ldr	r3, [r3]
	ldr	r4, [r3, #8]
	.loc 1 3781 42
	ldr	r3, .L560
	ldr	r3, [r3]
	.loc 1 3781 14
	ldrb	r0, [r3, #1]	@ zero_extendqisi2
	add	r2, sp, #14
	movs	r3, #1
	movs	r1, #38
	blx	r4
.LVL147:
	mov	r3, r0
	uxtb	r2, r3
	.loc 1 3781 11
	ldrb	r3, [sp, #15]	@ zero_extendqisi2
	add	r3, r3, r2
	uxtb	r3, r3
	strb	r3, [sp, #15]
	.loc 1 3785 4
	b	.L558
.L555:
	.loc 1 3787 11
	movs	r3, #254
	strb	r3, [sp, #15]
	.loc 1 3788 4
	nop
.L558:
	.loc 1 3791 9
	ldrsb	r3, [sp, #15]
.L559:
	.loc 1 3792 1 discriminator 1
	mov	r0, r3
	add	sp, sp, #16
.LCFI227:
	@ sp needed
	pop	{r4, pc}
.L561:
	.align	2
.L560:
	.word	p_bmg160
.LFE75:
	.size	bmg160_set_highrate_thres, .-bmg160_set_highrate_thres
	.section	.text.bmg160_get_highrate_enable_axis,"ax",%progbits
	.align	1
	.global	bmg160_get_highrate_enable_axis
	.syntax unified
	.thumb
	.thumb_func
	.fpu fpv4-sp-d16
	.type	bmg160_get_highrate_enable_axis, %function
bmg160_get_highrate_enable_axis:
.LFB76:
	.loc 1 3821 1
	@ args = 0, pretend = 0, frame = 16
	@ frame_needed = 0, uses_anonymous_args = 0
	push	{r4, lr}
.LCFI228:
	sub	sp, sp, #16
.LCFI229:
	mov	r3, r0
	str	r1, [sp]
	strb	r3, [sp, #7]
	.loc 1 3823 5
	movs	r3, #255
	strb	r3, [sp, #15]
	.loc 1 3824 5
	movs	r3, #0
	strb	r3, [sp, #14]
	.loc 1 3826 15
	ldr	r3, .L571
	ldr	r3, [r3]
	.loc 1 3826 5
	cmp	r3, #0
	bne	.L563
	.loc 1 3827 10
	mvn	r3, #126
	b	.L570
.L563:
	.loc 1 3829 3
	ldrb	r3, [sp, #7]	@ zero_extendqisi2
	cmp	r3, #2
	beq	.L565
	cmp	r3, #2
	bgt	.L566
	cmp	r3, #0
	beq	.L567
	cmp	r3, #1
	beq	.L568
	b	.L566
.L567:
	.loc 1 3832 21
	ldr	r3, .L571
	ldr	r3, [r3]
	ldr	r4, [r3, #12]
	.loc 1 3832 40
	ldr	r3, .L571
	ldr	r3, [r3]
	.loc 1 3832 13
	ldrb	r0, [r3, #1]	@ zero_extendqisi2
	add	r2, sp, #14
	movs	r3, #1
	movs	r1, #34
	blx	r4
.LVL148:
	mov	r3, r0
	strb	r3, [sp, #15]
	.loc 1 3836 41
	ldrb	r3, [sp, #14]	@ zero_extendqisi2
	and	r3, r3, #1
	uxtb	r2, r3
	.loc 1 3836 17
	ldr	r3, [sp]
	strb	r2, [r3]
	.loc 1 3838 4
	b	.L569
.L568:
	.loc 1 3840 21
	ldr	r3, .L571
	ldr	r3, [r3]
	ldr	r4, [r3, #12]
	.loc 1 3840 40
	ldr	r3, .L571
	ldr	r3, [r3]
	.loc 1 3840 13
	ldrb	r0, [r3, #1]	@ zero_extendqisi2
	add	r2, sp, #14
	movs	r3, #1
	movs	r1, #36
	blx	r4
.LVL149:
	mov	r3, r0
	strb	r3, [sp, #15]
	.loc 1 3844 41
	ldrb	r3, [sp, #14]	@ zero_extendqisi2
	and	r3, r3, #1
	uxtb	r2, r3
	.loc 1 3844 17
	ldr	r3, [sp]
	strb	r2, [r3]
	.loc 1 3846 4
	b	.L569
.L565:
	.loc 1 3848 21
	ldr	r3, .L571
	ldr	r3, [r3]
	ldr	r4, [r3, #12]
	.loc 1 3848 40
	ldr	r3, .L571
	ldr	r3, [r3]
	.loc 1 3848 13
	ldrb	r0, [r3, #1]	@ zero_extendqisi2
	add	r2, sp, #14
	movs	r3, #1
	movs	r1, #38
	blx	r4
.LVL150:
	mov	r3, r0
	strb	r3, [sp, #15]
	.loc 1 3852 41
	ldrb	r3, [sp, #14]	@ zero_extendqisi2
	and	r3, r3, #1
	uxtb	r2, r3
	.loc 1 3852 17
	ldr	r3, [sp]
	strb	r2, [r3]
	.loc 1 3854 4
	b	.L569
.L566:
	.loc 1 3856 11
	movs	r3, #254
	strb	r3, [sp, #15]
	.loc 1 3857 4
	nop
.L569:
	.loc 1 3860 9
	ldrsb	r3, [sp, #15]
.L570:
	.loc 1 3861 1 discriminator 1
	mov	r0, r3
	add	sp, sp, #16
.LCFI230:
	@ sp needed
	pop	{r4, pc}
.L572:
	.align	2
.L571:
	.word	p_bmg160
.LFE76:
	.size	bmg160_get_highrate_enable_axis, .-bmg160_get_highrate_enable_axis
	.section	.text.bmg160_set_highrate_enable_axis,"ax",%progbits
	.align	1
	.global	bmg160_set_highrate_enable_axis
	.syntax unified
	.thumb
	.thumb_func
	.fpu fpv4-sp-d16
	.type	bmg160_set_highrate_enable_axis, %function
bmg160_set_highrate_enable_axis:
.LFB77:
	.loc 1 3890 1
	@ args = 0, pretend = 0, frame = 16
	@ frame_needed = 0, uses_anonymous_args = 0
	push	{r4, lr}
.LCFI231:
	sub	sp, sp, #16
.LCFI232:
	mov	r3, r0
	mov	r2, r1
	strb	r3, [sp, #7]
	mov	r3, r2
	strb	r3, [sp, #6]
	.loc 1 3892 5
	movs	r3, #255
	strb	r3, [sp, #15]
	.loc 1 3893 5
	movs	r3, #0
	strb	r3, [sp, #14]
	.loc 1 3895 15
	ldr	r3, .L582
	ldr	r3, [r3]
	.loc 1 3895 5
	cmp	r3, #0
	bne	.L574
	.loc 1 3896 10
	mvn	r3, #126
	b	.L581
.L574:
	.loc 1 3898 3
	ldrb	r3, [sp, #7]	@ zero_extendqisi2
	cmp	r3, #2
	beq	.L576
	cmp	r3, #2
	bgt	.L577
	cmp	r3, #0
	beq	.L578
	cmp	r3, #1
	beq	.L579
	b	.L577
.L578:
	.loc 1 3901 21
	ldr	r3, .L582
	ldr	r3, [r3]
	ldr	r4, [r3, #12]
	.loc 1 3901 40
	ldr	r3, .L582
	ldr	r3, [r3]
	.loc 1 3901 13
	ldrb	r0, [r3, #1]	@ zero_extendqisi2
	add	r2, sp, #14
	movs	r3, #1
	movs	r1, #34
	blx	r4
.LVL151:
	mov	r3, r0
	strb	r3, [sp, #15]
	.loc 1 3905 27
	ldrb	r3, [sp, #14]	@ zero_extendqisi2
	sxtb	r3, r3
	bic	r3, r3, #1
	sxtb	r2, r3
	.loc 1 3905 56
	ldrsb	r3, [sp, #6]
	and	r3, r3, #1
	sxtb	r3, r3
	.loc 1 3905 36
	orrs	r3, r3, r2
	sxtb	r3, r3
	uxtb	r3, r3
	.loc 1 3905 14
	strb	r3, [sp, #14]
	.loc 1 3907 22
	ldr	r3, .L582
	ldr	r3, [r3]
	ldr	r4, [r3, #8]
	.loc 1 3907 42
	ldr	r3, .L582
	ldr	r3, [r3]
	.loc 1 3907 14
	ldrb	r0, [r3, #1]	@ zero_extendqisi2
	add	r2, sp, #14
	movs	r3, #1
	movs	r1, #34
	blx	r4
.LVL152:
	mov	r3, r0
	uxtb	r2, r3
	.loc 1 3907 11
	ldrb	r3, [sp, #15]	@ zero_extendqisi2
	add	r3, r3, r2
	uxtb	r3, r3
	strb	r3, [sp, #15]
	.loc 1 3911 4
	b	.L580
.L579:
	.loc 1 3913 21
	ldr	r3, .L582
	ldr	r3, [r3]
	ldr	r4, [r3, #12]
	.loc 1 3913 40
	ldr	r3, .L582
	ldr	r3, [r3]
	.loc 1 3913 13
	ldrb	r0, [r3, #1]	@ zero_extendqisi2
	add	r2, sp, #14
	movs	r3, #1
	movs	r1, #36
	blx	r4
.LVL153:
	mov	r3, r0
	strb	r3, [sp, #15]
	.loc 1 3917 27
	ldrb	r3, [sp, #14]	@ zero_extendqisi2
	sxtb	r3, r3
	bic	r3, r3, #1
	sxtb	r2, r3
	.loc 1 3917 56
	ldrsb	r3, [sp, #6]
	and	r3, r3, #1
	sxtb	r3, r3
	.loc 1 3917 36
	orrs	r3, r3, r2
	sxtb	r3, r3
	uxtb	r3, r3
	.loc 1 3917 14
	strb	r3, [sp, #14]
	.loc 1 3919 22
	ldr	r3, .L582
	ldr	r3, [r3]
	ldr	r4, [r3, #8]
	.loc 1 3919 42
	ldr	r3, .L582
	ldr	r3, [r3]
	.loc 1 3919 14
	ldrb	r0, [r3, #1]	@ zero_extendqisi2
	add	r2, sp, #14
	movs	r3, #1
	movs	r1, #36
	blx	r4
.LVL154:
	mov	r3, r0
	uxtb	r2, r3
	.loc 1 3919 11
	ldrb	r3, [sp, #15]	@ zero_extendqisi2
	add	r3, r3, r2
	uxtb	r3, r3
	strb	r3, [sp, #15]
	.loc 1 3923 4
	b	.L580
.L576:
	.loc 1 3925 21
	ldr	r3, .L582
	ldr	r3, [r3]
	ldr	r4, [r3, #12]
	.loc 1 3925 40
	ldr	r3, .L582
	ldr	r3, [r3]
	.loc 1 3925 13
	ldrb	r0, [r3, #1]	@ zero_extendqisi2
	add	r2, sp, #14
	movs	r3, #1
	movs	r1, #38
	blx	r4
.LVL155:
	mov	r3, r0
	strb	r3, [sp, #15]
	.loc 1 3929 27
	ldrb	r3, [sp, #14]	@ zero_extendqisi2
	sxtb	r3, r3
	bic	r3, r3, #1
	sxtb	r2, r3
	.loc 1 3929 56
	ldrsb	r3, [sp, #6]
	and	r3, r3, #1
	sxtb	r3, r3
	.loc 1 3929 36
	orrs	r3, r3, r2
	sxtb	r3, r3
	uxtb	r3, r3
	.loc 1 3929 14
	strb	r3, [sp, #14]
	.loc 1 3931 22
	ldr	r3, .L582
	ldr	r3, [r3]
	ldr	r4, [r3, #8]
	.loc 1 3931 42
	ldr	r3, .L582
	ldr	r3, [r3]
	.loc 1 3931 14
	ldrb	r0, [r3, #1]	@ zero_extendqisi2
	add	r2, sp, #14
	movs	r3, #1
	movs	r1, #38
	blx	r4
.LVL156:
	mov	r3, r0
	uxtb	r2, r3
	.loc 1 3931 11
	ldrb	r3, [sp, #15]	@ zero_extendqisi2
	add	r3, r3, r2
	uxtb	r3, r3
	strb	r3, [sp, #15]
	.loc 1 3935 4
	b	.L580
.L577:
	.loc 1 3937 11
	movs	r3, #254
	strb	r3, [sp, #15]
	.loc 1 3938 4
	nop
.L580:
	.loc 1 3941 9
	ldrsb	r3, [sp, #15]
.L581:
	.loc 1 3942 1 discriminator 1
	mov	r0, r3
	add	sp, sp, #16
.LCFI233:
	@ sp needed
	pop	{r4, pc}
.L583:
	.align	2
.L582:
	.word	p_bmg160
.LFE77:
	.size	bmg160_set_highrate_enable_axis, .-bmg160_set_highrate_enable_axis
	.section	.text.bmg160_get_highrate_durn_axis,"ax",%progbits
	.align	1
	.global	bmg160_get_highrate_durn_axis
	.syntax unified
	.thumb
	.thumb_func
	.fpu fpv4-sp-d16
	.type	bmg160_get_highrate_durn_axis, %function
bmg160_get_highrate_durn_axis:
.LFB78:
	.loc 1 3973 1
	@ args = 0, pretend = 0, frame = 16
	@ frame_needed = 0, uses_anonymous_args = 0
	push	{r4, lr}
.LCFI234:
	sub	sp, sp, #16
.LCFI235:
	mov	r3, r0
	str	r1, [sp]
	strb	r3, [sp, #7]
	.loc 1 3975 5
	movs	r3, #255
	strb	r3, [sp, #15]
	.loc 1 3976 5
	movs	r3, #0
	strb	r3, [sp, #14]
	.loc 1 3978 15
	ldr	r3, .L593
	ldr	r3, [r3]
	.loc 1 3978 5
	cmp	r3, #0
	bne	.L585
	.loc 1 3979 10
	mvn	r3, #126
	b	.L592
.L585:
	.loc 1 3981 3
	ldrb	r3, [sp, #7]	@ zero_extendqisi2
	cmp	r3, #2
	beq	.L587
	cmp	r3, #2
	bgt	.L588
	cmp	r3, #0
	beq	.L589
	cmp	r3, #1
	beq	.L590
	b	.L588
.L589:
	.loc 1 3984 21
	ldr	r3, .L593
	ldr	r3, [r3]
	ldr	r4, [r3, #12]
	.loc 1 3984 40
	ldr	r3, .L593
	ldr	r3, [r3]
	.loc 1 3984 13
	ldrb	r0, [r3, #1]	@ zero_extendqisi2
	add	r2, sp, #14
	movs	r3, #1
	movs	r1, #35
	blx	r4
.LVL157:
	mov	r3, r0
	strb	r3, [sp, #15]
	.loc 1 3988 29
	ldrb	r2, [sp, #14]	@ zero_extendqisi2
	ldr	r3, [sp]
	strb	r2, [r3]
	.loc 1 3989 4
	b	.L591
.L590:
	.loc 1 3991 21
	ldr	r3, .L593
	ldr	r3, [r3]
	ldr	r4, [r3, #12]
	.loc 1 3991 40
	ldr	r3, .L593
	ldr	r3, [r3]
	.loc 1 3991 13
	ldrb	r0, [r3, #1]	@ zero_extendqisi2
	add	r2, sp, #14
	movs	r3, #1
	movs	r1, #36
	blx	r4
.LVL158:
	mov	r3, r0
	strb	r3, [sp, #15]
	.loc 1 3995 29
	ldrb	r2, [sp, #14]	@ zero_extendqisi2
	ldr	r3, [sp]
	strb	r2, [r3]
	.loc 1 3996 4
	b	.L591
.L587:
	.loc 1 3998 21
	ldr	r3, .L593
	ldr	r3, [r3]
	ldr	r4, [r3, #12]
	.loc 1 3998 40
	ldr	r3, .L593
	ldr	r3, [r3]
	.loc 1 3998 13
	ldrb	r0, [r3, #1]	@ zero_extendqisi2
	add	r2, sp, #14
	movs	r3, #1
	movs	r1, #38
	blx	r4
.LVL159:
	mov	r3, r0
	strb	r3, [sp, #15]
	.loc 1 4002 29
	ldrb	r2, [sp, #14]	@ zero_extendqisi2
	ldr	r3, [sp]
	strb	r2, [r3]
	.loc 1 4003 4
	b	.L591
.L588:
	.loc 1 4005 11
	movs	r3, #254
	strb	r3, [sp, #15]
	.loc 1 4006 4
	nop
.L591:
	.loc 1 4009 9
	ldrsb	r3, [sp, #15]
.L592:
	.loc 1 4010 1 discriminator 1
	mov	r0, r3
	add	sp, sp, #16
.LCFI236:
	@ sp needed
	pop	{r4, pc}
.L594:
	.align	2
.L593:
	.word	p_bmg160
.LFE78:
	.size	bmg160_get_highrate_durn_axis, .-bmg160_get_highrate_durn_axis
	.section	.text.bmg160_set_highrate_durn_axis,"ax",%progbits
	.align	1
	.global	bmg160_set_highrate_durn_axis
	.syntax unified
	.thumb
	.thumb_func
	.fpu fpv4-sp-d16
	.type	bmg160_set_highrate_durn_axis, %function
bmg160_set_highrate_durn_axis:
.LFB79:
	.loc 1 4041 1
	@ args = 0, pretend = 0, frame = 16
	@ frame_needed = 0, uses_anonymous_args = 0
	push	{r4, lr}
.LCFI237:
	sub	sp, sp, #16
.LCFI238:
	mov	r3, r0
	mov	r2, r1
	strb	r3, [sp, #7]
	mov	r3, r2
	strb	r3, [sp, #6]
	.loc 1 4043 5
	movs	r3, #255
	strb	r3, [sp, #15]
	.loc 1 4044 5
	movs	r3, #0
	strb	r3, [sp, #14]
	.loc 1 4046 15
	ldr	r3, .L604
	ldr	r3, [r3]
	.loc 1 4046 5
	cmp	r3, #0
	bne	.L596
	.loc 1 4047 10
	mvn	r3, #126
	b	.L603
.L596:
	.loc 1 4049 3
	ldrb	r3, [sp, #7]	@ zero_extendqisi2
	cmp	r3, #2
	beq	.L598
	cmp	r3, #2
	bgt	.L599
	cmp	r3, #0
	beq	.L600
	cmp	r3, #1
	beq	.L601
	b	.L599
.L600:
	.loc 1 4052 14
	ldrb	r3, [sp, #6]
	strb	r3, [sp, #14]
	.loc 1 4053 21
	ldr	r3, .L604
	ldr	r3, [r3]
	ldr	r4, [r3, #8]
	.loc 1 4053 41
	ldr	r3, .L604
	ldr	r3, [r3]
	.loc 1 4053 13
	ldrb	r0, [r3, #1]	@ zero_extendqisi2
	add	r2, sp, #14
	movs	r3, #1
	movs	r1, #34
	blx	r4
.LVL160:
	mov	r3, r0
	strb	r3, [sp, #15]
	.loc 1 4057 4
	b	.L602
.L601:
	.loc 1 4059 14
	ldrb	r3, [sp, #6]
	strb	r3, [sp, #14]
	.loc 1 4060 21
	ldr	r3, .L604
	ldr	r3, [r3]
	ldr	r4, [r3, #8]
	.loc 1 4060 41
	ldr	r3, .L604
	ldr	r3, [r3]
	.loc 1 4060 13
	ldrb	r0, [r3, #1]	@ zero_extendqisi2
	add	r2, sp, #14
	movs	r3, #1
	movs	r1, #36
	blx	r4
.LVL161:
	mov	r3, r0
	strb	r3, [sp, #15]
	.loc 1 4064 4
	b	.L602
.L598:
	.loc 1 4066 14
	ldrb	r3, [sp, #6]
	strb	r3, [sp, #14]
	.loc 1 4067 21
	ldr	r3, .L604
	ldr	r3, [r3]
	ldr	r4, [r3, #8]
	.loc 1 4067 41
	ldr	r3, .L604
	ldr	r3, [r3]
	.loc 1 4067 13
	ldrb	r0, [r3, #1]	@ zero_extendqisi2
	add	r2, sp, #14
	movs	r3, #1
	movs	r1, #38
	blx	r4
.LVL162:
	mov	r3, r0
	strb	r3, [sp, #15]
	.loc 1 4071 4
	b	.L602
.L599:
	.loc 1 4073 11
	movs	r3, #254
	strb	r3, [sp, #15]
	.loc 1 4074 4
	nop
.L602:
	.loc 1 4077 9
	ldrsb	r3, [sp, #15]
.L603:
	.loc 1 4078 1 discriminator 1
	mov	r0, r3
	add	sp, sp, #16
.LCFI239:
	@ sp needed
	pop	{r4, pc}
.L605:
	.align	2
.L604:
	.word	p_bmg160
.LFE79:
	.size	bmg160_set_highrate_durn_axis, .-bmg160_set_highrate_durn_axis
	.section	.text.bmg160_get_slow_offset_thres,"ax",%progbits
	.align	1
	.global	bmg160_get_slow_offset_thres
	.syntax unified
	.thumb
	.thumb_func
	.fpu fpv4-sp-d16
	.type	bmg160_get_slow_offset_thres, %function
bmg160_get_slow_offset_thres:
.LFB80:
	.loc 1 4102 1
	@ args = 0, pretend = 0, frame = 16
	@ frame_needed = 0, uses_anonymous_args = 0
	push	{r4, lr}
.LCFI240:
	sub	sp, sp, #16
.LCFI241:
	str	r0, [sp, #4]
	.loc 1 4104 5
	movs	r3, #255
	strb	r3, [sp, #15]
	.loc 1 4105 5
	movs	r3, #0
	strb	r3, [sp, #14]
	.loc 1 4107 15
	ldr	r3, .L610
	ldr	r3, [r3]
	.loc 1 4107 5
	cmp	r3, #0
	bne	.L607
	.loc 1 4108 10
	mvn	r3, #126
	b	.L609
.L607:
	.loc 1 4111 20
	ldr	r3, .L610
	ldr	r3, [r3]
	ldr	r4, [r3, #12]
	.loc 1 4111 39
	ldr	r3, .L610
	ldr	r3, [r3]
	.loc 1 4111 12
	ldrb	r0, [r3, #1]	@ zero_extendqisi2
	add	r2, sp, #14
	movs	r3, #1
	movs	r1, #49
	blx	r4
.LVL163:
	mov	r3, r0
	strb	r3, [sp, #15]
	.loc 1 4114 46
	ldrb	r3, [sp, #14]	@ zero_extendqisi2
	lsrs	r3, r3, #6
	uxtb	r2, r3
	.loc 1 4114 22
	ldr	r3, [sp, #4]
	strb	r2, [r3]
	.loc 1 4117 9
	ldrsb	r3, [sp, #15]
.L609:
	.loc 1 4118 1 discriminator 1
	mov	r0, r3
	add	sp, sp, #16
.LCFI242:
	@ sp needed
	pop	{r4, pc}
.L611:
	.align	2
.L610:
	.word	p_bmg160
.LFE80:
	.size	bmg160_get_slow_offset_thres, .-bmg160_get_slow_offset_thres
	.section	.text.bmg160_set_slow_offset_thres,"ax",%progbits
	.align	1
	.global	bmg160_set_slow_offset_thres
	.syntax unified
	.thumb
	.thumb_func
	.fpu fpv4-sp-d16
	.type	bmg160_set_slow_offset_thres, %function
bmg160_set_slow_offset_thres:
.LFB81:
	.loc 1 4141 1
	@ args = 0, pretend = 0, frame = 16
	@ frame_needed = 0, uses_anonymous_args = 0
	push	{r4, lr}
.LCFI243:
	sub	sp, sp, #16
.LCFI244:
	mov	r3, r0
	strb	r3, [sp, #7]
	.loc 1 4143 5
	movs	r3, #255
	strb	r3, [sp, #15]
	.loc 1 4144 5
	movs	r3, #0
	strb	r3, [sp, #14]
	.loc 1 4146 15
	ldr	r3, .L616
	ldr	r3, [r3]
	.loc 1 4146 5
	cmp	r3, #0
	bne	.L613
	.loc 1 4147 10
	mvn	r3, #126
	b	.L615
.L613:
	.loc 1 4150 20
	ldr	r3, .L616
	ldr	r3, [r3]
	ldr	r4, [r3, #12]
	.loc 1 4150 39
	ldr	r3, .L616
	ldr	r3, [r3]
	.loc 1 4150 12
	ldrb	r0, [r3, #1]	@ zero_extendqisi2
	add	r2, sp, #14
	movs	r3, #1
	movs	r1, #49
	blx	r4
.LVL164:
	mov	r3, r0
	strb	r3, [sp, #15]
	.loc 1 4153 26
	ldrb	r3, [sp, #14]	@ zero_extendqisi2
	sxtb	r3, r3
	and	r3, r3, #63
	sxtb	r2, r3
	.loc 1 4153 55
	ldrb	r3, [sp, #7]	@ zero_extendqisi2
	lsls	r3, r3, #6
	.loc 1 4153 35
	sxtb	r3, r3
	orrs	r3, r3, r2
	sxtb	r3, r3
	uxtb	r3, r3
	.loc 1 4153 13
	strb	r3, [sp, #14]
	.loc 1 4155 21
	ldr	r3, .L616
	ldr	r3, [r3]
	ldr	r4, [r3, #8]
	.loc 1 4155 41
	ldr	r3, .L616
	ldr	r3, [r3]
	.loc 1 4155 13
	ldrb	r0, [r3, #1]	@ zero_extendqisi2
	add	r2, sp, #14
	movs	r3, #1
	movs	r1, #49
	blx	r4
.LVL165:
	mov	r3, r0
	uxtb	r2, r3
	.loc 1 4155 10
	ldrb	r3, [sp, #15]	@ zero_extendqisi2
	add	r3, r3, r2
	uxtb	r3, r3
	strb	r3, [sp, #15]
	.loc 1 4159 9
	ldrsb	r3, [sp, #15]
.L615:
	.loc 1 4160 1 discriminator 1
	mov	r0, r3
	add	sp, sp, #16
.LCFI245:
	@ sp needed
	pop	{r4, pc}
.L617:
	.align	2
.L616:
	.word	p_bmg160
.LFE81:
	.size	bmg160_set_slow_offset_thres, .-bmg160_set_slow_offset_thres
	.section	.text.bmg160_get_slow_offset_durn,"ax",%progbits
	.align	1
	.global	bmg160_get_slow_offset_durn
	.syntax unified
	.thumb
	.thumb_func
	.fpu fpv4-sp-d16
	.type	bmg160_get_slow_offset_durn, %function
bmg160_get_slow_offset_durn:
.LFB82:
	.loc 1 4187 1
	@ args = 0, pretend = 0, frame = 16
	@ frame_needed = 0, uses_anonymous_args = 0
	push	{r4, lr}
.LCFI246:
	sub	sp, sp, #16
.LCFI247:
	str	r0, [sp, #4]
	.loc 1 4189 5
	movs	r3, #255
	strb	r3, [sp, #15]
	.loc 1 4190 5
	movs	r3, #0
	strb	r3, [sp, #14]
	.loc 1 4192 15
	ldr	r3, .L622
	ldr	r3, [r3]
	.loc 1 4192 5
	cmp	r3, #0
	bne	.L619
	.loc 1 4193 10
	mvn	r3, #126
	b	.L621
.L619:
	.loc 1 4196 20
	ldr	r3, .L622
	ldr	r3, [r3]
	ldr	r4, [r3, #12]
	.loc 1 4196 39
	ldr	r3, .L622
	ldr	r3, [r3]
	.loc 1 4196 12
	ldrb	r0, [r3, #1]	@ zero_extendqisi2
	add	r2, sp, #14
	movs	r3, #1
	movs	r1, #49
	blx	r4
.LVL166:
	mov	r3, r0
	strb	r3, [sp, #15]
	.loc 1 4199 45
	ldrb	r3, [sp, #14]	@ zero_extendqisi2
	asrs	r3, r3, #3
	uxtb	r3, r3
	and	r3, r3, #7
	uxtb	r2, r3
	.loc 1 4199 21
	ldr	r3, [sp, #4]
	strb	r2, [r3]
	.loc 1 4202 9
	ldrsb	r3, [sp, #15]
.L621:
	.loc 1 4203 1 discriminator 1
	mov	r0, r3
	add	sp, sp, #16
.LCFI248:
	@ sp needed
	pop	{r4, pc}
.L623:
	.align	2
.L622:
	.word	p_bmg160
.LFE82:
	.size	bmg160_get_slow_offset_durn, .-bmg160_get_slow_offset_durn
	.section	.text.bmg160_set_slow_offset_durn,"ax",%progbits
	.align	1
	.global	bmg160_set_slow_offset_durn
	.syntax unified
	.thumb
	.thumb_func
	.fpu fpv4-sp-d16
	.type	bmg160_set_slow_offset_durn, %function
bmg160_set_slow_offset_durn:
.LFB83:
	.loc 1 4230 1
	@ args = 0, pretend = 0, frame = 16
	@ frame_needed = 0, uses_anonymous_args = 0
	push	{r4, lr}
.LCFI249:
	sub	sp, sp, #16
.LCFI250:
	mov	r3, r0
	strb	r3, [sp, #7]
	.loc 1 4232 5
	movs	r3, #255
	strb	r3, [sp, #15]
	.loc 1 4233 5
	movs	r3, #0
	strb	r3, [sp, #14]
	.loc 1 4235 15
	ldr	r3, .L628
	ldr	r3, [r3]
	.loc 1 4235 5
	cmp	r3, #0
	bne	.L625
	.loc 1 4236 10
	mvn	r3, #126
	b	.L627
.L625:
	.loc 1 4239 20
	ldr	r3, .L628
	ldr	r3, [r3]
	ldr	r4, [r3, #12]
	.loc 1 4239 39
	ldr	r3, .L628
	ldr	r3, [r3]
	.loc 1 4239 12
	ldrb	r0, [r3, #1]	@ zero_extendqisi2
	add	r2, sp, #14
	movs	r3, #1
	movs	r1, #49
	blx	r4
.LVL167:
	mov	r3, r0
	strb	r3, [sp, #15]
	.loc 1 4242 26
	ldrb	r3, [sp, #14]	@ zero_extendqisi2
	sxtb	r3, r3
	bic	r3, r3, #56
	sxtb	r2, r3
	.loc 1 4242 54
	ldrb	r3, [sp, #7]	@ zero_extendqisi2
	lsls	r3, r3, #3
	.loc 1 4242 60
	sxtb	r3, r3
	and	r3, r3, #56
	sxtb	r3, r3
	.loc 1 4242 35
	orrs	r3, r3, r2
	sxtb	r3, r3
	uxtb	r3, r3
	.loc 1 4242 13
	strb	r3, [sp, #14]
	.loc 1 4244 21
	ldr	r3, .L628
	ldr	r3, [r3]
	ldr	r4, [r3, #8]
	.loc 1 4244 41
	ldr	r3, .L628
	ldr	r3, [r3]
	.loc 1 4244 13
	ldrb	r0, [r3, #1]	@ zero_extendqisi2
	add	r2, sp, #14
	movs	r3, #1
	movs	r1, #49
	blx	r4
.LVL168:
	mov	r3, r0
	uxtb	r2, r3
	.loc 1 4244 10
	ldrb	r3, [sp, #15]	@ zero_extendqisi2
	add	r3, r3, r2
	uxtb	r3, r3
	strb	r3, [sp, #15]
	.loc 1 4248 9
	ldrsb	r3, [sp, #15]
.L627:
	.loc 1 4249 1 discriminator 1
	mov	r0, r3
	add	sp, sp, #16
.LCFI251:
	@ sp needed
	pop	{r4, pc}
.L629:
	.align	2
.L628:
	.word	p_bmg160
.LFE83:
	.size	bmg160_set_slow_offset_durn, .-bmg160_set_slow_offset_durn
	.section	.text.bmg160_get_slow_offset_enable_axis,"ax",%progbits
	.align	1
	.global	bmg160_get_slow_offset_enable_axis
	.syntax unified
	.thumb
	.thumb_func
	.fpu fpv4-sp-d16
	.type	bmg160_get_slow_offset_enable_axis, %function
bmg160_get_slow_offset_enable_axis:
.LFB84:
	.loc 1 4279 1
	@ args = 0, pretend = 0, frame = 16
	@ frame_needed = 0, uses_anonymous_args = 0
	push	{r4, lr}
.LCFI252:
	sub	sp, sp, #16
.LCFI253:
	mov	r3, r0
	str	r1, [sp]
	strb	r3, [sp, #7]
	.loc 1 4281 5
	movs	r3, #255
	strb	r3, [sp, #15]
	.loc 1 4282 5
	movs	r3, #0
	strb	r3, [sp, #14]
	.loc 1 4284 15
	ldr	r3, .L639
	ldr	r3, [r3]
	.loc 1 4284 5
	cmp	r3, #0
	bne	.L631
	.loc 1 4285 10
	mvn	r3, #126
	b	.L638
.L631:
	.loc 1 4287 3
	ldrb	r3, [sp, #7]	@ zero_extendqisi2
	cmp	r3, #2
	beq	.L633
	cmp	r3, #2
	bgt	.L634
	cmp	r3, #0
	beq	.L635
	cmp	r3, #1
	beq	.L636
	b	.L634
.L635:
	.loc 1 4290 21
	ldr	r3, .L639
	ldr	r3, [r3]
	ldr	r4, [r3, #12]
	.loc 1 4290 40
	ldr	r3, .L639
	ldr	r3, [r3]
	.loc 1 4290 13
	ldrb	r0, [r3, #1]	@ zero_extendqisi2
	add	r2, sp, #14
	movs	r3, #1
	movs	r1, #49
	blx	r4
.LVL169:
	mov	r3, r0
	strb	r3, [sp, #15]
	.loc 1 4294 46
	ldrb	r3, [sp, #14]	@ zero_extendqisi2
	and	r3, r3, #1
	uxtb	r2, r3
	.loc 1 4294 22
	ldr	r3, [sp]
	strb	r2, [r3]
	.loc 1 4296 4
	b	.L637
.L636:
	.loc 1 4298 21
	ldr	r3, .L639
	ldr	r3, [r3]
	ldr	r4, [r3, #12]
	.loc 1 4298 40
	ldr	r3, .L639
	ldr	r3, [r3]
	.loc 1 4298 13
	ldrb	r0, [r3, #1]	@ zero_extendqisi2
	add	r2, sp, #14
	movs	r3, #1
	movs	r1, #49
	blx	r4
.LVL170:
	mov	r3, r0
	strb	r3, [sp, #15]
	.loc 1 4302 46
	ldrb	r3, [sp, #14]	@ zero_extendqisi2
	asrs	r3, r3, #1
	uxtb	r3, r3
	and	r3, r3, #1
	uxtb	r2, r3
	.loc 1 4302 22
	ldr	r3, [sp]
	strb	r2, [r3]
	.loc 1 4304 4
	b	.L637
.L633:
	.loc 1 4306 21
	ldr	r3, .L639
	ldr	r3, [r3]
	ldr	r4, [r3, #12]
	.loc 1 4306 40
	ldr	r3, .L639
	ldr	r3, [r3]
	.loc 1 4306 13
	ldrb	r0, [r3, #1]	@ zero_extendqisi2
	add	r2, sp, #14
	movs	r3, #1
	movs	r1, #49
	blx	r4
.LVL171:
	mov	r3, r0
	strb	r3, [sp, #15]
	.loc 1 4310 46
	ldrb	r3, [sp, #14]	@ zero_extendqisi2
	asrs	r3, r3, #2
	uxtb	r3, r3
	and	r3, r3, #1
	uxtb	r2, r3
	.loc 1 4310 22
	ldr	r3, [sp]
	strb	r2, [r3]
	.loc 1 4312 4
	b	.L637
.L634:
	.loc 1 4314 11
	movs	r3, #254
	strb	r3, [sp, #15]
	.loc 1 4315 4
	nop
.L637:
	.loc 1 4318 9
	ldrsb	r3, [sp, #15]
.L638:
	.loc 1 4319 1 discriminator 1
	mov	r0, r3
	add	sp, sp, #16
.LCFI254:
	@ sp needed
	pop	{r4, pc}
.L640:
	.align	2
.L639:
	.word	p_bmg160
.LFE84:
	.size	bmg160_get_slow_offset_enable_axis, .-bmg160_get_slow_offset_enable_axis
	.section	.text.bmg160_set_slow_offset_enable_axis,"ax",%progbits
	.align	1
	.global	bmg160_set_slow_offset_enable_axis
	.syntax unified
	.thumb
	.thumb_func
	.fpu fpv4-sp-d16
	.type	bmg160_set_slow_offset_enable_axis, %function
bmg160_set_slow_offset_enable_axis:
.LFB85:
	.loc 1 4349 1
	@ args = 0, pretend = 0, frame = 16
	@ frame_needed = 0, uses_anonymous_args = 0
	push	{r4, lr}
.LCFI255:
	sub	sp, sp, #16
.LCFI256:
	mov	r3, r0
	mov	r2, r1
	strb	r3, [sp, #7]
	mov	r3, r2
	strb	r3, [sp, #6]
	.loc 1 4351 5
	movs	r3, #255
	strb	r3, [sp, #15]
	.loc 1 4352 5
	movs	r3, #0
	strb	r3, [sp, #14]
	.loc 1 4354 15
	ldr	r3, .L650
	ldr	r3, [r3]
	.loc 1 4354 5
	cmp	r3, #0
	bne	.L642
	.loc 1 4355 10
	mvn	r3, #126
	b	.L649
.L642:
	.loc 1 4357 3
	ldrb	r3, [sp, #7]	@ zero_extendqisi2
	cmp	r3, #2
	beq	.L644
	cmp	r3, #2
	bgt	.L645
	cmp	r3, #0
	beq	.L646
	cmp	r3, #1
	beq	.L647
	b	.L645
.L646:
	.loc 1 4360 21
	ldr	r3, .L650
	ldr	r3, [r3]
	ldr	r4, [r3, #12]
	.loc 1 4360 40
	ldr	r3, .L650
	ldr	r3, [r3]
	.loc 1 4360 13
	ldrb	r0, [r3, #1]	@ zero_extendqisi2
	add	r2, sp, #14
	movs	r3, #1
	movs	r1, #49
	blx	r4
.LVL172:
	mov	r3, r0
	strb	r3, [sp, #15]
	.loc 1 4364 27
	ldrb	r3, [sp, #14]	@ zero_extendqisi2
	sxtb	r3, r3
	bic	r3, r3, #1
	sxtb	r2, r3
	.loc 1 4364 61
	ldrsb	r3, [sp, #6]
	and	r3, r3, #1
	sxtb	r3, r3
	.loc 1 4364 36
	orrs	r3, r3, r2
	sxtb	r3, r3
	uxtb	r3, r3
	.loc 1 4364 14
	strb	r3, [sp, #14]
	.loc 1 4366 22
	ldr	r3, .L650
	ldr	r3, [r3]
	ldr	r4, [r3, #8]
	.loc 1 4366 42
	ldr	r3, .L650
	ldr	r3, [r3]
	.loc 1 4366 14
	ldrb	r0, [r3, #1]	@ zero_extendqisi2
	add	r2, sp, #14
	movs	r3, #1
	movs	r1, #49
	blx	r4
.LVL173:
	mov	r3, r0
	uxtb	r2, r3
	.loc 1 4366 11
	ldrb	r3, [sp, #15]	@ zero_extendqisi2
	add	r3, r3, r2
	uxtb	r3, r3
	strb	r3, [sp, #15]
	.loc 1 4370 4
	b	.L648
.L647:
	.loc 1 4372 21
	ldr	r3, .L650
	ldr	r3, [r3]
	ldr	r4, [r3, #12]
	.loc 1 4372 40
	ldr	r3, .L650
	ldr	r3, [r3]
	.loc 1 4372 13
	ldrb	r0, [r3, #1]	@ zero_extendqisi2
	add	r2, sp, #14
	movs	r3, #1
	movs	r1, #49
	blx	r4
.LVL174:
	mov	r3, r0
	strb	r3, [sp, #15]
	.loc 1 4376 27
	ldrb	r3, [sp, #14]	@ zero_extendqisi2
	sxtb	r3, r3
	bic	r3, r3, #2
	sxtb	r2, r3
	.loc 1 4376 55
	ldrb	r3, [sp, #6]	@ zero_extendqisi2
	lsls	r3, r3, #1
	.loc 1 4376 61
	sxtb	r3, r3
	and	r3, r3, #2
	sxtb	r3, r3
	.loc 1 4376 36
	orrs	r3, r3, r2
	sxtb	r3, r3
	uxtb	r3, r3
	.loc 1 4376 14
	strb	r3, [sp, #14]
	.loc 1 4378 22
	ldr	r3, .L650
	ldr	r3, [r3]
	ldr	r4, [r3, #8]
	.loc 1 4378 42
	ldr	r3, .L650
	ldr	r3, [r3]
	.loc 1 4378 14
	ldrb	r0, [r3, #1]	@ zero_extendqisi2
	add	r2, sp, #14
	movs	r3, #1
	movs	r1, #49
	blx	r4
.LVL175:
	mov	r3, r0
	uxtb	r2, r3
	.loc 1 4378 11
	ldrb	r3, [sp, #15]	@ zero_extendqisi2
	add	r3, r3, r2
	uxtb	r3, r3
	strb	r3, [sp, #15]
	.loc 1 4382 4
	b	.L648
.L644:
	.loc 1 4384 21
	ldr	r3, .L650
	ldr	r3, [r3]
	ldr	r4, [r3, #12]
	.loc 1 4384 40
	ldr	r3, .L650
	ldr	r3, [r3]
	.loc 1 4384 13
	ldrb	r0, [r3, #1]	@ zero_extendqisi2
	add	r2, sp, #14
	movs	r3, #1
	movs	r1, #49
	blx	r4
.LVL176:
	mov	r3, r0
	strb	r3, [sp, #15]
	.loc 1 4388 27
	ldrb	r3, [sp, #14]	@ zero_extendqisi2
	sxtb	r3, r3
	bic	r3, r3, #4
	sxtb	r2, r3
	.loc 1 4388 55
	ldrb	r3, [sp, #6]	@ zero_extendqisi2
	lsls	r3, r3, #2
	.loc 1 4388 61
	sxtb	r3, r3
	and	r3, r3, #4
	sxtb	r3, r3
	.loc 1 4388 36
	orrs	r3, r3, r2
	sxtb	r3, r3
	uxtb	r3, r3
	.loc 1 4388 14
	strb	r3, [sp, #14]
	.loc 1 4391 22
	ldr	r3, .L650
	ldr	r3, [r3]
	ldr	r4, [r3, #8]
	.loc 1 4391 42
	ldr	r3, .L650
	ldr	r3, [r3]
	.loc 1 4391 14
	ldrb	r0, [r3, #1]	@ zero_extendqisi2
	add	r2, sp, #14
	movs	r3, #1
	movs	r1, #49
	blx	r4
.LVL177:
	mov	r3, r0
	uxtb	r2, r3
	.loc 1 4391 11
	ldrb	r3, [sp, #15]	@ zero_extendqisi2
	add	r3, r3, r2
	uxtb	r3, r3
	strb	r3, [sp, #15]
	.loc 1 4395 4
	b	.L648
.L645:
	.loc 1 4397 11
	movs	r3, #254
	strb	r3, [sp, #15]
	.loc 1 4398 4
	nop
.L648:
	.loc 1 4401 9
	ldrsb	r3, [sp, #15]
.L649:
	.loc 1 4402 1 discriminator 1
	mov	r0, r3
	add	sp, sp, #16
.LCFI257:
	@ sp needed
	pop	{r4, pc}
.L651:
	.align	2
.L650:
	.word	p_bmg160
.LFE85:
	.size	bmg160_set_slow_offset_enable_axis, .-bmg160_set_slow_offset_enable_axis
	.section	.text.bmg160_get_offset_word_length,"ax",%progbits
	.align	1
	.global	bmg160_get_offset_word_length
	.syntax unified
	.thumb
	.thumb_func
	.fpu fpv4-sp-d16
	.type	bmg160_get_offset_word_length, %function
bmg160_get_offset_word_length:
.LFB86:
	.loc 1 4432 1
	@ args = 0, pretend = 0, frame = 16
	@ frame_needed = 0, uses_anonymous_args = 0
	push	{r4, lr}
.LCFI258:
	sub	sp, sp, #16
.LCFI259:
	mov	r3, r0
	str	r1, [sp]
	strb	r3, [sp, #7]
	.loc 1 4434 5
	movs	r3, #255
	strb	r3, [sp, #15]
	.loc 1 4435 5
	movs	r3, #0
	strb	r3, [sp, #14]
	.loc 1 4437 15
	ldr	r3, .L661
	ldr	r3, [r3]
	.loc 1 4437 5
	cmp	r3, #0
	bne	.L653
	.loc 1 4438 10
	mvn	r3, #126
	b	.L659
.L653:
	.loc 1 4440 3
	ldrb	r3, [sp, #7]	@ zero_extendqisi2
	cmp	r3, #0
	beq	.L655
	cmp	r3, #1
	beq	.L656
	b	.L660
.L655:
	.loc 1 4442 21
	ldr	r3, .L661
	ldr	r3, [r3]
	ldr	r4, [r3, #12]
	.loc 1 4442 40
	ldr	r3, .L661
	ldr	r3, [r3]
	.loc 1 4442 13
	ldrb	r0, [r3, #1]	@ zero_extendqisi2
	add	r2, sp, #14
	movs	r3, #1
	movs	r1, #50
	blx	r4
.LVL178:
	mov	r3, r0
	strb	r3, [sp, #15]
	.loc 1 4447 26
	ldrb	r3, [sp, #14]	@ zero_extendqisi2
	lsrs	r3, r3, #6
	uxtb	r2, r3
	.loc 1 4446 29
	ldr	r3, [sp]
	strb	r2, [r3]
	.loc 1 4449 4
	b	.L658
.L656:
	.loc 1 4451 21
	ldr	r3, .L661
	ldr	r3, [r3]
	ldr	r4, [r3, #12]
	.loc 1 4451 40
	ldr	r3, .L661
	ldr	r3, [r3]
	.loc 1 4451 13
	ldrb	r0, [r3, #1]	@ zero_extendqisi2
	add	r2, sp, #14
	movs	r3, #1
	movs	r1, #50
	blx	r4
.LVL179:
	mov	r3, r0
	strb	r3, [sp, #15]
	.loc 1 4456 26
	ldrb	r3, [sp, #14]	@ zero_extendqisi2
	asrs	r3, r3, #4
	uxtb	r3, r3
	and	r3, r3, #3
	uxtb	r2, r3
	.loc 1 4455 29
	ldr	r3, [sp]
	strb	r2, [r3]
	.loc 1 4458 4
	b	.L658
.L660:
	.loc 1 4460 11
	movs	r3, #254
	strb	r3, [sp, #15]
	.loc 1 4461 4
	nop
.L658:
	.loc 1 4464 9
	ldrsb	r3, [sp, #15]
.L659:
	.loc 1 4465 1 discriminator 1
	mov	r0, r3
	add	sp, sp, #16
.LCFI260:
	@ sp needed
	pop	{r4, pc}
.L662:
	.align	2
.L661:
	.word	p_bmg160
.LFE86:
	.size	bmg160_get_offset_word_length, .-bmg160_get_offset_word_length
	.section	.text.bmg160_set_offset_word_length,"ax",%progbits
	.align	1
	.global	bmg160_set_offset_word_length
	.syntax unified
	.thumb
	.thumb_func
	.fpu fpv4-sp-d16
	.type	bmg160_set_offset_word_length, %function
bmg160_set_offset_word_length:
.LFB87:
	.loc 1 4495 1
	@ args = 0, pretend = 0, frame = 16
	@ frame_needed = 0, uses_anonymous_args = 0
	push	{r4, lr}
.LCFI261:
	sub	sp, sp, #16
.LCFI262:
	mov	r3, r0
	mov	r2, r1
	strb	r3, [sp, #7]
	mov	r3, r2
	strb	r3, [sp, #6]
	.loc 1 4497 5
	movs	r3, #255
	strb	r3, [sp, #15]
	.loc 1 4498 5
	movs	r3, #0
	strb	r3, [sp, #14]
	.loc 1 4500 15
	ldr	r3, .L672
	ldr	r3, [r3]
	.loc 1 4500 5
	cmp	r3, #0
	bne	.L664
	.loc 1 4501 10
	mvn	r3, #126
	b	.L670
.L664:
	.loc 1 4503 3
	ldrb	r3, [sp, #7]	@ zero_extendqisi2
	cmp	r3, #0
	beq	.L666
	cmp	r3, #1
	beq	.L667
	b	.L671
.L666:
	.loc 1 4505 21
	ldr	r3, .L672
	ldr	r3, [r3]
	ldr	r4, [r3, #12]
	.loc 1 4505 40
	ldr	r3, .L672
	ldr	r3, [r3]
	.loc 1 4505 13
	ldrb	r0, [r3, #1]	@ zero_extendqisi2
	add	r2, sp, #14
	movs	r3, #1
	movs	r1, #50
	blx	r4
.LVL180:
	mov	r3, r0
	strb	r3, [sp, #15]
	.loc 1 4509 27
	ldrb	r3, [sp, #14]	@ zero_extendqisi2
	sxtb	r3, r3
	and	r3, r3, #63
	sxtb	r2, r3
	.loc 1 4509 62
	ldrb	r3, [sp, #6]	@ zero_extendqisi2
	lsls	r3, r3, #6
	.loc 1 4509 36
	sxtb	r3, r3
	orrs	r3, r3, r2
	sxtb	r3, r3
	uxtb	r3, r3
	.loc 1 4509 14
	strb	r3, [sp, #14]
	.loc 1 4512 22
	ldr	r3, .L672
	ldr	r3, [r3]
	ldr	r4, [r3, #8]
	.loc 1 4512 42
	ldr	r3, .L672
	ldr	r3, [r3]
	.loc 1 4512 14
	ldrb	r0, [r3, #1]	@ zero_extendqisi2
	add	r2, sp, #14
	movs	r3, #1
	movs	r1, #50
	blx	r4
.LVL181:
	mov	r3, r0
	uxtb	r2, r3
	.loc 1 4512 11
	ldrb	r3, [sp, #15]	@ zero_extendqisi2
	add	r3, r3, r2
	uxtb	r3, r3
	strb	r3, [sp, #15]
	.loc 1 4516 4
	b	.L669
.L667:
	.loc 1 4518 21
	ldr	r3, .L672
	ldr	r3, [r3]
	ldr	r4, [r3, #12]
	.loc 1 4518 40
	ldr	r3, .L672
	ldr	r3, [r3]
	.loc 1 4518 13
	ldrb	r0, [r3, #1]	@ zero_extendqisi2
	add	r2, sp, #14
	movs	r3, #1
	movs	r1, #50
	blx	r4
.LVL182:
	mov	r3, r0
	strb	r3, [sp, #15]
	.loc 1 4522 27
	ldrb	r3, [sp, #14]	@ zero_extendqisi2
	sxtb	r3, r3
	bic	r3, r3, #48
	sxtb	r2, r3
	.loc 1 4522 62
	ldrb	r3, [sp, #6]	@ zero_extendqisi2
	lsls	r3, r3, #4
	.loc 1 4522 68
	sxtb	r3, r3
	and	r3, r3, #48
	sxtb	r3, r3
	.loc 1 4522 36
	orrs	r3, r3, r2
	sxtb	r3, r3
	uxtb	r3, r3
	.loc 1 4522 14
	strb	r3, [sp, #14]
	.loc 1 4525 22
	ldr	r3, .L672
	ldr	r3, [r3]
	ldr	r4, [r3, #8]
	.loc 1 4525 42
	ldr	r3, .L672
	ldr	r3, [r3]
	.loc 1 4525 14
	ldrb	r0, [r3, #1]	@ zero_extendqisi2
	add	r2, sp, #14
	movs	r3, #1
	movs	r1, #50
	blx	r4
.LVL183:
	mov	r3, r0
	uxtb	r2, r3
	.loc 1 4525 11
	ldrb	r3, [sp, #15]	@ zero_extendqisi2
	add	r3, r3, r2
	uxtb	r3, r3
	strb	r3, [sp, #15]
	.loc 1 4529 4
	b	.L669
.L671:
	.loc 1 4531 11
	movs	r3, #254
	strb	r3, [sp, #15]
	.loc 1 4532 4
	nop
.L669:
	.loc 1 4535 9
	ldrsb	r3, [sp, #15]
.L670:
	.loc 1 4536 1 discriminator 1
	mov	r0, r3
	add	sp, sp, #16
.LCFI263:
	@ sp needed
	pop	{r4, pc}
.L673:
	.align	2
.L672:
	.word	p_bmg160
.LFE87:
	.size	bmg160_set_offset_word_length, .-bmg160_set_offset_word_length
	.section	.text.bmg160_enable_fast_offset,"ax",%progbits
	.align	1
	.global	bmg160_enable_fast_offset
	.syntax unified
	.thumb
	.thumb_func
	.fpu fpv4-sp-d16
	.type	bmg160_enable_fast_offset, %function
bmg160_enable_fast_offset:
.LFB88:
	.loc 1 4550 1
	@ args = 0, pretend = 0, frame = 8
	@ frame_needed = 0, uses_anonymous_args = 0
	push	{r4, lr}
.LCFI264:
	sub	sp, sp, #8
.LCFI265:
	.loc 1 4552 5
	movs	r3, #255
	strb	r3, [sp, #7]
	.loc 1 4553 5
	movs	r3, #0
	strb	r3, [sp, #6]
	.loc 1 4555 15
	ldr	r3, .L678
	ldr	r3, [r3]
	.loc 1 4555 5
	cmp	r3, #0
	bne	.L675
	.loc 1 4556 10
	mvn	r3, #126
	b	.L677
.L675:
	.loc 1 4558 20
	ldr	r3, .L678
	ldr	r3, [r3]
	ldr	r4, [r3, #12]
	.loc 1 4558 39
	ldr	r3, .L678
	ldr	r3, [r3]
	.loc 1 4558 12
	ldrb	r0, [r3, #1]	@ zero_extendqisi2
	add	r2, sp, #6
	movs	r3, #1
	movs	r1, #50
	blx	r4
.LVL184:
	mov	r3, r0
	strb	r3, [sp, #7]
	.loc 1 4561 35
	ldrb	r3, [sp, #6]	@ zero_extendqisi2
	orr	r3, r3, #8
	uxtb	r3, r3
	.loc 1 4561 13
	strb	r3, [sp, #6]
	.loc 1 4564 21
	ldr	r3, .L678
	ldr	r3, [r3]
	ldr	r4, [r3, #8]
	.loc 1 4564 41
	ldr	r3, .L678
	ldr	r3, [r3]
	.loc 1 4564 13
	ldrb	r0, [r3, #1]	@ zero_extendqisi2
	add	r2, sp, #6
	movs	r3, #1
	movs	r1, #50
	blx	r4
.LVL185:
	mov	r3, r0
	uxtb	r2, r3
	.loc 1 4564 10
	ldrb	r3, [sp, #7]	@ zero_extendqisi2
	add	r3, r3, r2
	uxtb	r3, r3
	strb	r3, [sp, #7]
	.loc 1 4568 9
	ldrsb	r3, [sp, #7]
.L677:
	.loc 1 4569 1 discriminator 1
	mov	r0, r3
	add	sp, sp, #8
.LCFI266:
	@ sp needed
	pop	{r4, pc}
.L679:
	.align	2
.L678:
	.word	p_bmg160
.LFE88:
	.size	bmg160_enable_fast_offset, .-bmg160_enable_fast_offset
	.section	.text.bmg160_get_fast_offset_enable_axis,"ax",%progbits
	.align	1
	.global	bmg160_get_fast_offset_enable_axis
	.syntax unified
	.thumb
	.thumb_func
	.fpu fpv4-sp-d16
	.type	bmg160_get_fast_offset_enable_axis, %function
bmg160_get_fast_offset_enable_axis:
.LFB89:
	.loc 1 4595 1
	@ args = 0, pretend = 0, frame = 16
	@ frame_needed = 0, uses_anonymous_args = 0
	push	{r4, lr}
.LCFI267:
	sub	sp, sp, #16
.LCFI268:
	str	r0, [sp, #4]
	.loc 1 4597 5
	movs	r3, #255
	strb	r3, [sp, #15]
	.loc 1 4598 5
	movs	r3, #0
	strb	r3, [sp, #14]
	.loc 1 4600 15
	ldr	r3, .L684
	ldr	r3, [r3]
	.loc 1 4600 5
	cmp	r3, #0
	bne	.L681
	.loc 1 4601 10
	mvn	r3, #126
	b	.L683
.L681:
	.loc 1 4604 20
	ldr	r3, .L684
	ldr	r3, [r3]
	ldr	r4, [r3, #12]
	.loc 1 4604 39
	ldr	r3, .L684
	ldr	r3, [r3]
	.loc 1 4604 12
	ldrb	r0, [r3, #1]	@ zero_extendqisi2
	add	r2, sp, #14
	movs	r3, #1
	movs	r1, #50
	blx	r4
.LVL186:
	mov	r3, r0
	strb	r3, [sp, #15]
	.loc 1 4608 45
	ldrb	r3, [sp, #14]	@ zero_extendqisi2
	and	r3, r3, #7
	uxtb	r2, r3
	.loc 1 4608 21
	ldr	r3, [sp, #4]
	strb	r2, [r3]
	.loc 1 4611 9
	ldrsb	r3, [sp, #15]
.L683:
	.loc 1 4612 1 discriminator 1
	mov	r0, r3
	add	sp, sp, #16
.LCFI269:
	@ sp needed
	pop	{r4, pc}
.L685:
	.align	2
.L684:
	.word	p_bmg160
.LFE89:
	.size	bmg160_get_fast_offset_enable_axis, .-bmg160_get_fast_offset_enable_axis
	.section	.text.bmg160_set_fast_offset_enable_axis,"ax",%progbits
	.align	1
	.global	bmg160_set_fast_offset_enable_axis
	.syntax unified
	.thumb
	.thumb_func
	.fpu fpv4-sp-d16
	.type	bmg160_set_fast_offset_enable_axis, %function
bmg160_set_fast_offset_enable_axis:
.LFB90:
	.loc 1 4644 1
	@ args = 0, pretend = 0, frame = 16
	@ frame_needed = 0, uses_anonymous_args = 0
	push	{r4, lr}
.LCFI270:
	sub	sp, sp, #16
.LCFI271:
	mov	r3, r0
	mov	r2, r1
	strb	r3, [sp, #7]
	mov	r3, r2
	strb	r3, [sp, #6]
	.loc 1 4646 5
	movs	r3, #255
	strb	r3, [sp, #15]
	.loc 1 4647 5
	movs	r3, #0
	strb	r3, [sp, #14]
	.loc 1 4649 15
	ldr	r3, .L695
	ldr	r3, [r3]
	.loc 1 4649 5
	cmp	r3, #0
	bne	.L687
	.loc 1 4650 10
	mvn	r3, #126
	b	.L694
.L687:
	.loc 1 4652 3
	ldrb	r3, [sp, #7]	@ zero_extendqisi2
	cmp	r3, #2
	beq	.L689
	cmp	r3, #2
	bgt	.L690
	cmp	r3, #0
	beq	.L691
	cmp	r3, #1
	beq	.L692
	b	.L690
.L691:
	.loc 1 4655 21
	ldr	r3, .L695
	ldr	r3, [r3]
	ldr	r4, [r3, #12]
	.loc 1 4655 40
	ldr	r3, .L695
	ldr	r3, [r3]
	.loc 1 4655 13
	ldrb	r0, [r3, #1]	@ zero_extendqisi2
	add	r2, sp, #14
	movs	r3, #1
	movs	r1, #50
	blx	r4
.LVL187:
	mov	r3, r0
	strb	r3, [sp, #15]
	.loc 1 4659 27
	ldrb	r3, [sp, #14]	@ zero_extendqisi2
	sxtb	r3, r3
	bic	r3, r3, #1
	sxtb	r2, r3
	.loc 1 4659 61
	ldrsb	r3, [sp, #6]
	and	r3, r3, #1
	sxtb	r3, r3
	.loc 1 4659 36
	orrs	r3, r3, r2
	sxtb	r3, r3
	uxtb	r3, r3
	.loc 1 4659 14
	strb	r3, [sp, #14]
	.loc 1 4661 22
	ldr	r3, .L695
	ldr	r3, [r3]
	ldr	r4, [r3, #8]
	.loc 1 4661 42
	ldr	r3, .L695
	ldr	r3, [r3]
	.loc 1 4661 14
	ldrb	r0, [r3, #1]	@ zero_extendqisi2
	add	r2, sp, #14
	movs	r3, #1
	movs	r1, #50
	blx	r4
.LVL188:
	mov	r3, r0
	uxtb	r2, r3
	.loc 1 4661 11
	ldrb	r3, [sp, #15]	@ zero_extendqisi2
	add	r3, r3, r2
	uxtb	r3, r3
	strb	r3, [sp, #15]
	.loc 1 4665 4
	b	.L693
.L692:
	.loc 1 4667 21
	ldr	r3, .L695
	ldr	r3, [r3]
	ldr	r4, [r3, #12]
	.loc 1 4667 40
	ldr	r3, .L695
	ldr	r3, [r3]
	.loc 1 4667 13
	ldrb	r0, [r3, #1]	@ zero_extendqisi2
	add	r2, sp, #14
	movs	r3, #1
	movs	r1, #50
	blx	r4
.LVL189:
	mov	r3, r0
	strb	r3, [sp, #15]
	.loc 1 4671 27
	ldrb	r3, [sp, #14]	@ zero_extendqisi2
	sxtb	r3, r3
	bic	r3, r3, #2
	sxtb	r2, r3
	.loc 1 4671 55
	ldrb	r3, [sp, #6]	@ zero_extendqisi2
	lsls	r3, r3, #1
	.loc 1 4671 61
	sxtb	r3, r3
	and	r3, r3, #2
	sxtb	r3, r3
	.loc 1 4671 36
	orrs	r3, r3, r2
	sxtb	r3, r3
	uxtb	r3, r3
	.loc 1 4671 14
	strb	r3, [sp, #14]
	.loc 1 4673 22
	ldr	r3, .L695
	ldr	r3, [r3]
	ldr	r4, [r3, #8]
	.loc 1 4673 42
	ldr	r3, .L695
	ldr	r3, [r3]
	.loc 1 4673 14
	ldrb	r0, [r3, #1]	@ zero_extendqisi2
	add	r2, sp, #14
	movs	r3, #1
	movs	r1, #50
	blx	r4
.LVL190:
	mov	r3, r0
	uxtb	r2, r3
	.loc 1 4673 11
	ldrb	r3, [sp, #15]	@ zero_extendqisi2
	add	r3, r3, r2
	uxtb	r3, r3
	strb	r3, [sp, #15]
	.loc 1 4677 4
	b	.L693
.L689:
	.loc 1 4679 21
	ldr	r3, .L695
	ldr	r3, [r3]
	ldr	r4, [r3, #12]
	.loc 1 4679 40
	ldr	r3, .L695
	ldr	r3, [r3]
	.loc 1 4679 13
	ldrb	r0, [r3, #1]	@ zero_extendqisi2
	add	r2, sp, #14
	movs	r3, #1
	movs	r1, #50
	blx	r4
.LVL191:
	mov	r3, r0
	strb	r3, [sp, #15]
	.loc 1 4683 27
	ldrb	r3, [sp, #14]	@ zero_extendqisi2
	sxtb	r3, r3
	bic	r3, r3, #4
	sxtb	r2, r3
	.loc 1 4683 55
	ldrb	r3, [sp, #6]	@ zero_extendqisi2
	lsls	r3, r3, #2
	.loc 1 4683 61
	sxtb	r3, r3
	and	r3, r3, #4
	sxtb	r3, r3
	.loc 1 4683 36
	orrs	r3, r3, r2
	sxtb	r3, r3
	uxtb	r3, r3
	.loc 1 4683 14
	strb	r3, [sp, #14]
	.loc 1 4685 22
	ldr	r3, .L695
	ldr	r3, [r3]
	ldr	r4, [r3, #8]
	.loc 1 4685 42
	ldr	r3, .L695
	ldr	r3, [r3]
	.loc 1 4685 14
	ldrb	r0, [r3, #1]	@ zero_extendqisi2
	add	r2, sp, #14
	movs	r3, #1
	movs	r1, #50
	blx	r4
.LVL192:
	mov	r3, r0
	uxtb	r2, r3
	.loc 1 4685 11
	ldrb	r3, [sp, #15]	@ zero_extendqisi2
	add	r3, r3, r2
	uxtb	r3, r3
	strb	r3, [sp, #15]
	.loc 1 4689 4
	b	.L693
.L690:
	.loc 1 4691 11
	movs	r3, #254
	strb	r3, [sp, #15]
	.loc 1 4692 4
	nop
.L693:
	.loc 1 4695 9
	ldrsb	r3, [sp, #15]
.L694:
	.loc 1 4696 1 discriminator 1
	mov	r0, r3
	add	sp, sp, #16
.LCFI272:
	@ sp needed
	pop	{r4, pc}
.L696:
	.align	2
.L695:
	.word	p_bmg160
.LFE90:
	.size	bmg160_set_fast_offset_enable_axis, .-bmg160_set_fast_offset_enable_axis
	.section	.text.bmg160_get_nvm_remain,"ax",%progbits
	.align	1
	.global	bmg160_get_nvm_remain
	.syntax unified
	.thumb
	.thumb_func
	.fpu fpv4-sp-d16
	.type	bmg160_get_nvm_remain, %function
bmg160_get_nvm_remain:
.LFB91:
	.loc 1 4715 1
	@ args = 0, pretend = 0, frame = 16
	@ frame_needed = 0, uses_anonymous_args = 0
	push	{r4, lr}
.LCFI273:
	sub	sp, sp, #16
.LCFI274:
	str	r0, [sp, #4]
	.loc 1 4717 5
	movs	r3, #255
	strb	r3, [sp, #15]
	.loc 1 4718 5
	movs	r3, #0
	strb	r3, [sp, #14]
	.loc 1 4720 15
	ldr	r3, .L701
	ldr	r3, [r3]
	.loc 1 4720 5
	cmp	r3, #0
	bne	.L698
	.loc 1 4721 10
	mvn	r3, #126
	b	.L700
.L698:
	.loc 1 4724 20
	ldr	r3, .L701
	ldr	r3, [r3]
	ldr	r4, [r3, #12]
	.loc 1 4724 39
	ldr	r3, .L701
	ldr	r3, [r3]
	.loc 1 4724 12
	ldrb	r0, [r3, #1]	@ zero_extendqisi2
	add	r2, sp, #14
	movs	r3, #1
	movs	r1, #51
	blx	r4
.LVL193:
	mov	r3, r0
	strb	r3, [sp, #15]
	.loc 1 4727 44
	ldrb	r3, [sp, #14]	@ zero_extendqisi2
	lsrs	r3, r3, #4
	uxtb	r2, r3
	.loc 1 4727 20
	ldr	r3, [sp, #4]
	strb	r2, [r3]
	.loc 1 4730 9
	ldrsb	r3, [sp, #15]
.L700:
	.loc 1 4731 1 discriminator 1
	mov	r0, r3
	add	sp, sp, #16
.LCFI275:
	@ sp needed
	pop	{r4, pc}
.L702:
	.align	2
.L701:
	.word	p_bmg160
.LFE91:
	.size	bmg160_get_nvm_remain, .-bmg160_get_nvm_remain
	.section	.text.bmg160_set_nvm_load,"ax",%progbits
	.align	1
	.global	bmg160_set_nvm_load
	.syntax unified
	.thumb
	.thumb_func
	.fpu fpv4-sp-d16
	.type	bmg160_set_nvm_load, %function
bmg160_set_nvm_load:
.LFB92:
	.loc 1 4750 1
	@ args = 0, pretend = 0, frame = 16
	@ frame_needed = 0, uses_anonymous_args = 0
	push	{r4, lr}
.LCFI276:
	sub	sp, sp, #16
.LCFI277:
	mov	r3, r0
	strb	r3, [sp, #7]
	.loc 1 4752 5
	movs	r3, #255
	strb	r3, [sp, #15]
	.loc 1 4753 5
	movs	r3, #0
	strb	r3, [sp, #14]
	.loc 1 4755 15
	ldr	r3, .L707
	ldr	r3, [r3]
	.loc 1 4755 5
	cmp	r3, #0
	bne	.L704
	.loc 1 4756 10
	mvn	r3, #126
	b	.L706
.L704:
	.loc 1 4759 20
	ldr	r3, .L707
	ldr	r3, [r3]
	ldr	r4, [r3, #12]
	.loc 1 4759 39
	ldr	r3, .L707
	ldr	r3, [r3]
	.loc 1 4759 12
	ldrb	r0, [r3, #1]	@ zero_extendqisi2
	add	r2, sp, #14
	movs	r3, #1
	movs	r1, #51
	blx	r4
.LVL194:
	mov	r3, r0
	strb	r3, [sp, #15]
	.loc 1 4762 26
	ldrb	r3, [sp, #14]	@ zero_extendqisi2
	sxtb	r3, r3
	bic	r3, r3, #8
	sxtb	r2, r3
	.loc 1 4762 51
	ldrb	r3, [sp, #7]	@ zero_extendqisi2
	lsls	r3, r3, #3
	.loc 1 4762 57
	sxtb	r3, r3
	and	r3, r3, #8
	sxtb	r3, r3
	.loc 1 4762 35
	orrs	r3, r3, r2
	sxtb	r3, r3
	uxtb	r3, r3
	.loc 1 4762 13
	strb	r3, [sp, #14]
	.loc 1 4764 21
	ldr	r3, .L707
	ldr	r3, [r3]
	ldr	r4, [r3, #8]
	.loc 1 4764 41
	ldr	r3, .L707
	ldr	r3, [r3]
	.loc 1 4764 13
	ldrb	r0, [r3, #1]	@ zero_extendqisi2
	add	r2, sp, #14
	movs	r3, #1
	movs	r1, #51
	blx	r4
.LVL195:
	mov	r3, r0
	uxtb	r2, r3
	.loc 1 4764 10
	ldrb	r3, [sp, #15]	@ zero_extendqisi2
	add	r3, r3, r2
	uxtb	r3, r3
	strb	r3, [sp, #15]
	.loc 1 4768 9
	ldrsb	r3, [sp, #15]
.L706:
	.loc 1 4769 1 discriminator 1
	mov	r0, r3
	add	sp, sp, #16
.LCFI278:
	@ sp needed
	pop	{r4, pc}
.L708:
	.align	2
.L707:
	.word	p_bmg160
.LFE92:
	.size	bmg160_set_nvm_load, .-bmg160_set_nvm_load
	.section	.text.bmg160_get_nvm_rdy,"ax",%progbits
	.align	1
	.global	bmg160_get_nvm_rdy
	.syntax unified
	.thumb
	.thumb_func
	.fpu fpv4-sp-d16
	.type	bmg160_get_nvm_rdy, %function
bmg160_get_nvm_rdy:
.LFB93:
	.loc 1 4788 1
	@ args = 0, pretend = 0, frame = 16
	@ frame_needed = 0, uses_anonymous_args = 0
	push	{r4, lr}
.LCFI279:
	sub	sp, sp, #16
.LCFI280:
	str	r0, [sp, #4]
	.loc 1 4790 5
	movs	r3, #255
	strb	r3, [sp, #15]
	.loc 1 4791 5
	movs	r3, #0
	strb	r3, [sp, #14]
	.loc 1 4793 15
	ldr	r3, .L713
	ldr	r3, [r3]
	.loc 1 4793 5
	cmp	r3, #0
	bne	.L710
	.loc 1 4794 10
	mvn	r3, #126
	b	.L712
.L710:
	.loc 1 4796 20
	ldr	r3, .L713
	ldr	r3, [r3]
	ldr	r4, [r3, #12]
	.loc 1 4796 39
	ldr	r3, .L713
	ldr	r3, [r3]
	.loc 1 4796 12
	ldrb	r0, [r3, #1]	@ zero_extendqisi2
	add	r2, sp, #14
	movs	r3, #1
	movs	r1, #51
	blx	r4
.LVL196:
	mov	r3, r0
	strb	r3, [sp, #15]
	.loc 1 4799 41
	ldrb	r3, [sp, #14]	@ zero_extendqisi2
	asrs	r3, r3, #2
	uxtb	r3, r3
	and	r3, r3, #1
	uxtb	r2, r3
	.loc 1 4799 17
	ldr	r3, [sp, #4]
	strb	r2, [r3]
	.loc 1 4802 9
	ldrsb	r3, [sp, #15]
.L712:
	.loc 1 4803 1 discriminator 1
	mov	r0, r3
	add	sp, sp, #16
.LCFI281:
	@ sp needed
	pop	{r4, pc}
.L714:
	.align	2
.L713:
	.word	p_bmg160
.LFE93:
	.size	bmg160_get_nvm_rdy, .-bmg160_get_nvm_rdy
	.section	.text.bmg160_set_nvm_prog_trig,"ax",%progbits
	.align	1
	.global	bmg160_set_nvm_prog_trig
	.syntax unified
	.thumb
	.thumb_func
	.fpu fpv4-sp-d16
	.type	bmg160_set_nvm_prog_trig, %function
bmg160_set_nvm_prog_trig:
.LFB94:
	.loc 1 4822 1
	@ args = 0, pretend = 0, frame = 16
	@ frame_needed = 0, uses_anonymous_args = 0
	push	{r4, lr}
.LCFI282:
	sub	sp, sp, #16
.LCFI283:
	mov	r3, r0
	strb	r3, [sp, #7]
	.loc 1 4824 5
	movs	r3, #255
	strb	r3, [sp, #15]
	.loc 1 4825 5
	movs	r3, #0
	strb	r3, [sp, #14]
	.loc 1 4827 15
	ldr	r3, .L719
	ldr	r3, [r3]
	.loc 1 4827 5
	cmp	r3, #0
	bne	.L716
	.loc 1 4828 10
	mvn	r3, #126
	b	.L718
.L716:
	.loc 1 4830 20
	ldr	r3, .L719
	ldr	r3, [r3]
	ldr	r4, [r3, #12]
	.loc 1 4830 39
	ldr	r3, .L719
	ldr	r3, [r3]
	.loc 1 4830 12
	ldrb	r0, [r3, #1]	@ zero_extendqisi2
	add	r2, sp, #14
	movs	r3, #1
	movs	r1, #51
	blx	r4
.LVL197:
	mov	r3, r0
	strb	r3, [sp, #15]
	.loc 1 4833 26
	ldrb	r3, [sp, #14]	@ zero_extendqisi2
	sxtb	r3, r3
	bic	r3, r3, #2
	sxtb	r2, r3
	.loc 1 4833 51
	ldrb	r3, [sp, #7]	@ zero_extendqisi2
	lsls	r3, r3, #1
	.loc 1 4833 57
	sxtb	r3, r3
	and	r3, r3, #2
	sxtb	r3, r3
	.loc 1 4833 35
	orrs	r3, r3, r2
	sxtb	r3, r3
	uxtb	r3, r3
	.loc 1 4833 13
	strb	r3, [sp, #14]
	.loc 1 4835 21
	ldr	r3, .L719
	ldr	r3, [r3]
	ldr	r4, [r3, #8]
	.loc 1 4835 41
	ldr	r3, .L719
	ldr	r3, [r3]
	.loc 1 4835 13
	ldrb	r0, [r3, #1]	@ zero_extendqisi2
	add	r2, sp, #14
	movs	r3, #1
	movs	r1, #51
	blx	r4
.LVL198:
	mov	r3, r0
	uxtb	r2, r3
	.loc 1 4835 10
	ldrb	r3, [sp, #15]	@ zero_extendqisi2
	add	r3, r3, r2
	uxtb	r3, r3
	strb	r3, [sp, #15]
	.loc 1 4839 9
	ldrsb	r3, [sp, #15]
.L718:
	.loc 1 4840 1 discriminator 1
	mov	r0, r3
	add	sp, sp, #16
.LCFI284:
	@ sp needed
	pop	{r4, pc}
.L720:
	.align	2
.L719:
	.word	p_bmg160
.LFE94:
	.size	bmg160_set_nvm_prog_trig, .-bmg160_set_nvm_prog_trig
	.section	.text.bmg160_get_nvm_prog_mode,"ax",%progbits
	.align	1
	.global	bmg160_get_nvm_prog_mode
	.syntax unified
	.thumb
	.thumb_func
	.fpu fpv4-sp-d16
	.type	bmg160_get_nvm_prog_mode, %function
bmg160_get_nvm_prog_mode:
.LFB95:
	.loc 1 4860 1
	@ args = 0, pretend = 0, frame = 16
	@ frame_needed = 0, uses_anonymous_args = 0
	push	{r4, lr}
.LCFI285:
	sub	sp, sp, #16
.LCFI286:
	str	r0, [sp, #4]
	.loc 1 4862 5
	movs	r3, #255
	strb	r3, [sp, #15]
	.loc 1 4863 5
	movs	r3, #0
	strb	r3, [sp, #14]
	.loc 1 4865 15
	ldr	r3, .L725
	ldr	r3, [r3]
	.loc 1 4865 5
	cmp	r3, #0
	bne	.L722
	.loc 1 4866 10
	mvn	r3, #126
	b	.L724
.L722:
	.loc 1 4868 20
	ldr	r3, .L725
	ldr	r3, [r3]
	ldr	r4, [r3, #12]
	.loc 1 4868 39
	ldr	r3, .L725
	ldr	r3, [r3]
	.loc 1 4868 12
	ldrb	r0, [r3, #1]	@ zero_extendqisi2
	add	r2, sp, #14
	movs	r3, #1
	movs	r1, #51
	blx	r4
.LVL199:
	mov	r3, r0
	strb	r3, [sp, #15]
	.loc 1 4871 42
	ldrb	r3, [sp, #14]	@ zero_extendqisi2
	and	r3, r3, #1
	uxtb	r2, r3
	.loc 1 4871 18
	ldr	r3, [sp, #4]
	strb	r2, [r3]
	.loc 1 4874 9
	ldrsb	r3, [sp, #15]
.L724:
	.loc 1 4875 1 discriminator 1
	mov	r0, r3
	add	sp, sp, #16
.LCFI287:
	@ sp needed
	pop	{r4, pc}
.L726:
	.align	2
.L725:
	.word	p_bmg160
.LFE95:
	.size	bmg160_get_nvm_prog_mode, .-bmg160_get_nvm_prog_mode
	.section	.text.bmg160_set_nvm_prog_mode,"ax",%progbits
	.align	1
	.global	bmg160_set_nvm_prog_mode
	.syntax unified
	.thumb
	.thumb_func
	.fpu fpv4-sp-d16
	.type	bmg160_set_nvm_prog_mode, %function
bmg160_set_nvm_prog_mode:
.LFB96:
	.loc 1 4895 1
	@ args = 0, pretend = 0, frame = 16
	@ frame_needed = 0, uses_anonymous_args = 0
	push	{r4, lr}
.LCFI288:
	sub	sp, sp, #16
.LCFI289:
	mov	r3, r0
	strb	r3, [sp, #7]
	.loc 1 4897 5
	movs	r3, #255
	strb	r3, [sp, #15]
	.loc 1 4898 5
	movs	r3, #0
	strb	r3, [sp, #14]
	.loc 1 4900 15
	ldr	r3, .L731
	ldr	r3, [r3]
	.loc 1 4900 5
	cmp	r3, #0
	bne	.L728
	.loc 1 4901 10
	mvn	r3, #126
	b	.L730
.L728:
	.loc 1 4903 20
	ldr	r3, .L731
	ldr	r3, [r3]
	ldr	r4, [r3, #12]
	.loc 1 4903 39
	ldr	r3, .L731
	ldr	r3, [r3]
	.loc 1 4903 12
	ldrb	r0, [r3, #1]	@ zero_extendqisi2
	add	r2, sp, #14
	movs	r3, #1
	movs	r1, #51
	blx	r4
.LVL200:
	mov	r3, r0
	strb	r3, [sp, #15]
	.loc 1 4906 26
	ldrb	r3, [sp, #14]	@ zero_extendqisi2
	sxtb	r3, r3
	bic	r3, r3, #1
	sxtb	r2, r3
	.loc 1 4906 57
	ldrsb	r3, [sp, #7]
	and	r3, r3, #1
	sxtb	r3, r3
	.loc 1 4906 35
	orrs	r3, r3, r2
	sxtb	r3, r3
	uxtb	r3, r3
	.loc 1 4906 13
	strb	r3, [sp, #14]
	.loc 1 4908 21
	ldr	r3, .L731
	ldr	r3, [r3]
	ldr	r4, [r3, #8]
	.loc 1 4908 41
	ldr	r3, .L731
	ldr	r3, [r3]
	.loc 1 4908 13
	ldrb	r0, [r3, #1]	@ zero_extendqisi2
	add	r2, sp, #14
	movs	r3, #1
	movs	r1, #51
	blx	r4
.LVL201:
	mov	r3, r0
	uxtb	r2, r3
	.loc 1 4908 10
	ldrb	r3, [sp, #15]	@ zero_extendqisi2
	add	r3, r3, r2
	uxtb	r3, r3
	strb	r3, [sp, #15]
	.loc 1 4912 9
	ldrsb	r3, [sp, #15]
.L730:
	.loc 1 4913 1 discriminator 1
	mov	r0, r3
	add	sp, sp, #16
.LCFI290:
	@ sp needed
	pop	{r4, pc}
.L732:
	.align	2
.L731:
	.word	p_bmg160
.LFE96:
	.size	bmg160_set_nvm_prog_mode, .-bmg160_set_nvm_prog_mode
	.section	.text.bmg160_get_i2c_wdt,"ax",%progbits
	.align	1
	.global	bmg160_get_i2c_wdt
	.syntax unified
	.thumb
	.thumb_func
	.fpu fpv4-sp-d16
	.type	bmg160_get_i2c_wdt, %function
bmg160_get_i2c_wdt:
.LFB97:
	.loc 1 4941 1
	@ args = 0, pretend = 0, frame = 16
	@ frame_needed = 0, uses_anonymous_args = 0
	push	{r4, lr}
.LCFI291:
	sub	sp, sp, #16
.LCFI292:
	mov	r3, r0
	str	r1, [sp]
	strb	r3, [sp, #7]
	.loc 1 4943 5
	movs	r3, #255
	strb	r3, [sp, #15]
	.loc 1 4944 5
	movs	r3, #0
	strb	r3, [sp, #14]
	.loc 1 4946 15
	ldr	r3, .L742
	ldr	r3, [r3]
	.loc 1 4946 5
	cmp	r3, #0
	bne	.L734
	.loc 1 4947 10
	mvn	r3, #126
	b	.L740
.L734:
	.loc 1 4949 3
	ldrb	r3, [sp, #7]	@ zero_extendqisi2
	cmp	r3, #0
	beq	.L736
	cmp	r3, #1
	beq	.L737
	b	.L741
.L736:
	.loc 1 4952 21
	ldr	r3, .L742
	ldr	r3, [r3]
	ldr	r4, [r3, #12]
	.loc 1 4952 40
	ldr	r3, .L742
	ldr	r3, [r3]
	.loc 1 4952 13
	ldrb	r0, [r3, #1]	@ zero_extendqisi2
	add	r2, sp, #14
	movs	r3, #1
	movs	r1, #52
	blx	r4
.LVL202:
	mov	r3, r0
	strb	r3, [sp, #15]
	.loc 1 4956 42
	ldrb	r3, [sp, #14]	@ zero_extendqisi2
	asrs	r3, r3, #2
	uxtb	r3, r3
	and	r3, r3, #1
	uxtb	r2, r3
	.loc 1 4956 18
	ldr	r3, [sp]
	strb	r2, [r3]
	.loc 1 4958 4
	b	.L739
.L737:
	.loc 1 4960 21
	ldr	r3, .L742
	ldr	r3, [r3]
	ldr	r4, [r3, #12]
	.loc 1 4960 40
	ldr	r3, .L742
	ldr	r3, [r3]
	.loc 1 4960 13
	ldrb	r0, [r3, #1]	@ zero_extendqisi2
	add	r2, sp, #14
	movs	r3, #1
	movs	r1, #52
	blx	r4
.LVL203:
	mov	r3, r0
	strb	r3, [sp, #15]
	.loc 1 4964 42
	ldrb	r3, [sp, #14]	@ zero_extendqisi2
	asrs	r3, r3, #1
	uxtb	r3, r3
	and	r3, r3, #1
	uxtb	r2, r3
	.loc 1 4964 18
	ldr	r3, [sp]
	strb	r2, [r3]
	.loc 1 4966 4
	b	.L739
.L741:
	.loc 1 4968 11
	movs	r3, #254
	strb	r3, [sp, #15]
	.loc 1 4969 4
	nop
.L739:
	.loc 1 4972 9
	ldrsb	r3, [sp, #15]
.L740:
	.loc 1 4973 1 discriminator 1
	mov	r0, r3
	add	sp, sp, #16
.LCFI293:
	@ sp needed
	pop	{r4, pc}
.L743:
	.align	2
.L742:
	.word	p_bmg160
.LFE97:
	.size	bmg160_get_i2c_wdt, .-bmg160_get_i2c_wdt
	.section	.text.bmg160_set_i2c_wdt,"ax",%progbits
	.align	1
	.global	bmg160_set_i2c_wdt
	.syntax unified
	.thumb
	.thumb_func
	.fpu fpv4-sp-d16
	.type	bmg160_set_i2c_wdt, %function
bmg160_set_i2c_wdt:
.LFB98:
	.loc 1 5001 1
	@ args = 0, pretend = 0, frame = 16
	@ frame_needed = 0, uses_anonymous_args = 0
	push	{r4, lr}
.LCFI294:
	sub	sp, sp, #16
.LCFI295:
	mov	r3, r0
	mov	r2, r1
	strb	r3, [sp, #7]
	mov	r3, r2
	strb	r3, [sp, #6]
	.loc 1 5003 5
	movs	r3, #255
	strb	r3, [sp, #15]
	.loc 1 5004 5
	movs	r3, #0
	strb	r3, [sp, #14]
	.loc 1 5006 15
	ldr	r3, .L753
	ldr	r3, [r3]
	.loc 1 5006 5
	cmp	r3, #0
	bne	.L745
	.loc 1 5007 10
	mvn	r3, #126
	b	.L751
.L745:
	.loc 1 5009 3
	ldrb	r3, [sp, #7]	@ zero_extendqisi2
	cmp	r3, #0
	beq	.L747
	cmp	r3, #1
	beq	.L748
	b	.L752
.L747:
	.loc 1 5012 21
	ldr	r3, .L753
	ldr	r3, [r3]
	ldr	r4, [r3, #12]
	.loc 1 5012 40
	ldr	r3, .L753
	ldr	r3, [r3]
	.loc 1 5012 13
	ldrb	r0, [r3, #1]	@ zero_extendqisi2
	add	r2, sp, #14
	movs	r3, #1
	movs	r1, #52
	blx	r4
.LVL204:
	mov	r3, r0
	strb	r3, [sp, #15]
	.loc 1 5016 27
	ldrb	r3, [sp, #14]	@ zero_extendqisi2
	sxtb	r3, r3
	bic	r3, r3, #4
	sxtb	r2, r3
	.loc 1 5016 51
	ldrb	r3, [sp, #6]	@ zero_extendqisi2
	lsls	r3, r3, #2
	.loc 1 5016 57
	sxtb	r3, r3
	and	r3, r3, #4
	sxtb	r3, r3
	.loc 1 5016 36
	orrs	r3, r3, r2
	sxtb	r3, r3
	uxtb	r3, r3
	.loc 1 5016 14
	strb	r3, [sp, #14]
	.loc 1 5018 22
	ldr	r3, .L753
	ldr	r3, [r3]
	ldr	r4, [r3, #8]
	.loc 1 5018 42
	ldr	r3, .L753
	ldr	r3, [r3]
	.loc 1 5018 14
	ldrb	r0, [r3, #1]	@ zero_extendqisi2
	add	r2, sp, #14
	movs	r3, #1
	movs	r1, #52
	blx	r4
.LVL205:
	mov	r3, r0
	uxtb	r2, r3
	.loc 1 5018 11
	ldrb	r3, [sp, #15]	@ zero_extendqisi2
	add	r3, r3, r2
	uxtb	r3, r3
	strb	r3, [sp, #15]
	.loc 1 5022 4
	b	.L750
.L748:
	.loc 1 5024 21
	ldr	r3, .L753
	ldr	r3, [r3]
	ldr	r4, [r3, #12]
	.loc 1 5024 40
	ldr	r3, .L753
	ldr	r3, [r3]
	.loc 1 5024 13
	ldrb	r0, [r3, #1]	@ zero_extendqisi2
	add	r2, sp, #14
	movs	r3, #1
	movs	r1, #52
	blx	r4
.LVL206:
	mov	r3, r0
	strb	r3, [sp, #15]
	.loc 1 5028 27
	ldrb	r3, [sp, #14]	@ zero_extendqisi2
	sxtb	r3, r3
	bic	r3, r3, #2
	sxtb	r2, r3
	.loc 1 5028 51
	ldrb	r3, [sp, #6]	@ zero_extendqisi2
	lsls	r3, r3, #1
	.loc 1 5028 57
	sxtb	r3, r3
	and	r3, r3, #2
	sxtb	r3, r3
	.loc 1 5028 36
	orrs	r3, r3, r2
	sxtb	r3, r3
	uxtb	r3, r3
	.loc 1 5028 14
	strb	r3, [sp, #14]
	.loc 1 5030 22
	ldr	r3, .L753
	ldr	r3, [r3]
	ldr	r4, [r3, #8]
	.loc 1 5030 42
	ldr	r3, .L753
	ldr	r3, [r3]
	.loc 1 5030 14
	ldrb	r0, [r3, #1]	@ zero_extendqisi2
	add	r2, sp, #14
	movs	r3, #1
	movs	r1, #52
	blx	r4
.LVL207:
	mov	r3, r0
	uxtb	r2, r3
	.loc 1 5030 11
	ldrb	r3, [sp, #15]	@ zero_extendqisi2
	add	r3, r3, r2
	uxtb	r3, r3
	strb	r3, [sp, #15]
	.loc 1 5034 4
	b	.L750
.L752:
	.loc 1 5036 11
	movs	r3, #254
	strb	r3, [sp, #15]
	.loc 1 5037 4
	nop
.L750:
	.loc 1 5040 9
	ldrsb	r3, [sp, #15]
.L751:
	.loc 1 5041 1 discriminator 1
	mov	r0, r3
	add	sp, sp, #16
.LCFI296:
	@ sp needed
	pop	{r4, pc}
.L754:
	.align	2
.L753:
	.word	p_bmg160
.LFE98:
	.size	bmg160_set_i2c_wdt, .-bmg160_set_i2c_wdt
	.section	.text.bmg160_get_spi3,"ax",%progbits
	.align	1
	.global	bmg160_get_spi3
	.syntax unified
	.thumb
	.thumb_func
	.fpu fpv4-sp-d16
	.type	bmg160_get_spi3, %function
bmg160_get_spi3:
.LFB99:
	.loc 1 5063 1
	@ args = 0, pretend = 0, frame = 16
	@ frame_needed = 0, uses_anonymous_args = 0
	push	{r4, lr}
.LCFI297:
	sub	sp, sp, #16
.LCFI298:
	str	r0, [sp, #4]
	.loc 1 5065 5
	movs	r3, #255
	strb	r3, [sp, #15]
	.loc 1 5066 5
	movs	r3, #0
	strb	r3, [sp, #14]
	.loc 1 5068 15
	ldr	r3, .L759
	ldr	r3, [r3]
	.loc 1 5068 5
	cmp	r3, #0
	bne	.L756
	.loc 1 5069 10
	mvn	r3, #126
	b	.L758
.L756:
	.loc 1 5071 20
	ldr	r3, .L759
	ldr	r3, [r3]
	ldr	r4, [r3, #12]
	.loc 1 5071 39
	ldr	r3, .L759
	ldr	r3, [r3]
	.loc 1 5071 12
	ldrb	r0, [r3, #1]	@ zero_extendqisi2
	add	r2, sp, #14
	movs	r3, #1
	movs	r1, #52
	blx	r4
.LVL208:
	mov	r3, r0
	strb	r3, [sp, #15]
	.loc 1 5075 38
	ldrb	r3, [sp, #14]	@ zero_extendqisi2
	and	r3, r3, #1
	uxtb	r2, r3
	.loc 1 5075 14
	ldr	r3, [sp, #4]
	strb	r2, [r3]
	.loc 1 5078 9
	ldrsb	r3, [sp, #15]
.L758:
	.loc 1 5079 1 discriminator 1
	mov	r0, r3
	add	sp, sp, #16
.LCFI299:
	@ sp needed
	pop	{r4, pc}
.L760:
	.align	2
.L759:
	.word	p_bmg160
.LFE99:
	.size	bmg160_get_spi3, .-bmg160_get_spi3
	.section	.text.bmg160_set_spi3,"ax",%progbits
	.align	1
	.global	bmg160_set_spi3
	.syntax unified
	.thumb
	.thumb_func
	.fpu fpv4-sp-d16
	.type	bmg160_set_spi3, %function
bmg160_set_spi3:
.LFB100:
	.loc 1 5101 1
	@ args = 0, pretend = 0, frame = 16
	@ frame_needed = 0, uses_anonymous_args = 0
	push	{r4, lr}
.LCFI300:
	sub	sp, sp, #16
.LCFI301:
	mov	r3, r0
	strb	r3, [sp, #7]
	.loc 1 5103 5
	movs	r3, #255
	strb	r3, [sp, #15]
	.loc 1 5104 5
	movs	r3, #0
	strb	r3, [sp, #14]
	.loc 1 5106 15
	ldr	r3, .L765
	ldr	r3, [r3]
	.loc 1 5106 5
	cmp	r3, #0
	bne	.L762
	.loc 1 5107 10
	mvn	r3, #126
	b	.L764
.L762:
	.loc 1 5109 20
	ldr	r3, .L765
	ldr	r3, [r3]
	ldr	r4, [r3, #12]
	.loc 1 5109 39
	ldr	r3, .L765
	ldr	r3, [r3]
	.loc 1 5109 12
	ldrb	r0, [r3, #1]	@ zero_extendqisi2
	add	r2, sp, #14
	movs	r3, #1
	movs	r1, #52
	blx	r4
.LVL209:
	mov	r3, r0
	strb	r3, [sp, #15]
	.loc 1 5112 26
	ldrb	r3, [sp, #14]	@ zero_extendqisi2
	sxtb	r3, r3
	bic	r3, r3, #1
	sxtb	r2, r3
	.loc 1 5112 53
	ldrsb	r3, [sp, #7]
	and	r3, r3, #1
	sxtb	r3, r3
	.loc 1 5112 35
	orrs	r3, r3, r2
	sxtb	r3, r3
	uxtb	r3, r3
	.loc 1 5112 13
	strb	r3, [sp, #14]
	.loc 1 5114 21
	ldr	r3, .L765
	ldr	r3, [r3]
	ldr	r4, [r3, #8]
	.loc 1 5114 41
	ldr	r3, .L765
	ldr	r3, [r3]
	.loc 1 5114 13
	ldrb	r0, [r3, #1]	@ zero_extendqisi2
	add	r2, sp, #14
	movs	r3, #1
	movs	r1, #52
	blx	r4
.LVL210:
	mov	r3, r0
	uxtb	r2, r3
	.loc 1 5114 10
	ldrb	r3, [sp, #15]	@ zero_extendqisi2
	add	r3, r3, r2
	uxtb	r3, r3
	strb	r3, [sp, #15]
	.loc 1 5118 9
	ldrsb	r3, [sp, #15]
.L764:
	.loc 1 5119 1 discriminator 1
	mov	r0, r3
	add	sp, sp, #16
.LCFI302:
	@ sp needed
	pop	{r4, pc}
.L766:
	.align	2
.L765:
	.word	p_bmg160
.LFE100:
	.size	bmg160_set_spi3, .-bmg160_set_spi3
	.section	.text.bmg160_get_fifo_tag,"ax",%progbits
	.align	1
	.global	bmg160_get_fifo_tag
	.syntax unified
	.thumb
	.thumb_func
	.fpu fpv4-sp-d16
	.type	bmg160_get_fifo_tag, %function
bmg160_get_fifo_tag:
.LFB101:
	.loc 1 5139 1
	@ args = 0, pretend = 0, frame = 16
	@ frame_needed = 0, uses_anonymous_args = 0
	push	{r4, lr}
.LCFI303:
	sub	sp, sp, #16
.LCFI304:
	str	r0, [sp, #4]
	.loc 1 5141 5
	movs	r3, #255
	strb	r3, [sp, #15]
	.loc 1 5142 5
	movs	r3, #0
	strb	r3, [sp, #14]
	.loc 1 5144 15
	ldr	r3, .L771
	ldr	r3, [r3]
	.loc 1 5144 5
	cmp	r3, #0
	bne	.L768
	.loc 1 5145 10
	mvn	r3, #126
	b	.L770
.L768:
	.loc 1 5148 20
	ldr	r3, .L771
	ldr	r3, [r3]
	ldr	r4, [r3, #12]
	.loc 1 5148 39
	ldr	r3, .L771
	ldr	r3, [r3]
	.loc 1 5148 12
	ldrb	r0, [r3, #1]	@ zero_extendqisi2
	add	r2, sp, #14
	movs	r3, #1
	movs	r1, #61
	blx	r4
.LVL211:
	mov	r3, r0
	strb	r3, [sp, #15]
	.loc 1 5151 42
	ldrb	r3, [sp, #14]	@ zero_extendqisi2
	lsrs	r3, r3, #7
	uxtb	r2, r3
	.loc 1 5151 18
	ldr	r3, [sp, #4]
	strb	r2, [r3]
	.loc 1 5154 9
	ldrsb	r3, [sp, #15]
.L770:
	.loc 1 5155 1 discriminator 1
	mov	r0, r3
	add	sp, sp, #16
.LCFI305:
	@ sp needed
	pop	{r4, pc}
.L772:
	.align	2
.L771:
	.word	p_bmg160
.LFE101:
	.size	bmg160_get_fifo_tag, .-bmg160_get_fifo_tag
	.section	.text.bmg160_set_fifo_tag,"ax",%progbits
	.align	1
	.global	bmg160_set_fifo_tag
	.syntax unified
	.thumb
	.thumb_func
	.fpu fpv4-sp-d16
	.type	bmg160_set_fifo_tag, %function
bmg160_set_fifo_tag:
.LFB102:
	.loc 1 5175 1
	@ args = 0, pretend = 0, frame = 16
	@ frame_needed = 0, uses_anonymous_args = 0
	push	{r4, lr}
.LCFI306:
	sub	sp, sp, #16
.LCFI307:
	mov	r3, r0
	strb	r3, [sp, #7]
	.loc 1 5177 5
	movs	r3, #255
	strb	r3, [sp, #15]
	.loc 1 5178 5
	movs	r3, #0
	strb	r3, [sp, #14]
	.loc 1 5180 15
	ldr	r3, .L779
	ldr	r3, [r3]
	.loc 1 5180 5
	cmp	r3, #0
	bne	.L774
	.loc 1 5181 10
	mvn	r3, #126
	b	.L778
.L774:
	.loc 1 5183 6
	ldrb	r3, [sp, #7]	@ zero_extendqisi2
	cmp	r3, #1
	bhi	.L776
	.loc 1 5185 21
	ldr	r3, .L779
	ldr	r3, [r3]
	ldr	r4, [r3, #12]
	.loc 1 5185 40
	ldr	r3, .L779
	ldr	r3, [r3]
	.loc 1 5185 13
	ldrb	r0, [r3, #1]	@ zero_extendqisi2
	add	r2, sp, #14
	movs	r3, #1
	movs	r1, #61
	blx	r4
.LVL212:
	mov	r3, r0
	strb	r3, [sp, #15]
	.loc 1 5189 27
	ldrb	r3, [sp, #14]	@ zero_extendqisi2
	sxtb	r3, r3
	and	r3, r3, #127
	sxtb	r2, r3
	.loc 1 5189 52
	ldrb	r3, [sp, #7]	@ zero_extendqisi2
	lsls	r3, r3, #7
	.loc 1 5189 36
	sxtb	r3, r3
	orrs	r3, r3, r2
	sxtb	r3, r3
	uxtb	r3, r3
	.loc 1 5189 14
	strb	r3, [sp, #14]
	.loc 1 5191 22
	ldr	r3, .L779
	ldr	r3, [r3]
	ldr	r4, [r3, #8]
	.loc 1 5191 42
	ldr	r3, .L779
	ldr	r3, [r3]
	.loc 1 5191 14
	ldrb	r0, [r3, #1]	@ zero_extendqisi2
	add	r2, sp, #14
	movs	r3, #1
	movs	r1, #61
	blx	r4
.LVL213:
	mov	r3, r0
	uxtb	r2, r3
	.loc 1 5191 11
	ldrb	r3, [sp, #15]	@ zero_extendqisi2
	add	r3, r3, r2
	uxtb	r3, r3
	strb	r3, [sp, #15]
	b	.L777
.L776:
	.loc 1 5196 11
	movs	r3, #254
	strb	r3, [sp, #15]
.L777:
	.loc 1 5199 9
	ldrsb	r3, [sp, #15]
.L778:
	.loc 1 5200 1 discriminator 1
	mov	r0, r3
	add	sp, sp, #16
.LCFI308:
	@ sp needed
	pop	{r4, pc}
.L780:
	.align	2
.L779:
	.word	p_bmg160
.LFE102:
	.size	bmg160_set_fifo_tag, .-bmg160_set_fifo_tag
	.section	.text.bmg160_get_fifo_wm_level,"ax",%progbits
	.align	1
	.global	bmg160_get_fifo_wm_level
	.syntax unified
	.thumb
	.thumb_func
	.fpu fpv4-sp-d16
	.type	bmg160_get_fifo_wm_level, %function
bmg160_get_fifo_wm_level:
.LFB103:
	.loc 1 5219 1
	@ args = 0, pretend = 0, frame = 16
	@ frame_needed = 0, uses_anonymous_args = 0
	push	{r4, lr}
.LCFI309:
	sub	sp, sp, #16
.LCFI310:
	str	r0, [sp, #4]
	.loc 1 5221 5
	movs	r3, #255
	strb	r3, [sp, #15]
	.loc 1 5222 5
	movs	r3, #0
	strb	r3, [sp, #14]
	.loc 1 5224 15
	ldr	r3, .L785
	ldr	r3, [r3]
	.loc 1 5224 5
	cmp	r3, #0
	bne	.L782
	.loc 1 5225 10
	mvn	r3, #126
	b	.L784
.L782:
	.loc 1 5227 20
	ldr	r3, .L785
	ldr	r3, [r3]
	ldr	r4, [r3, #12]
	.loc 1 5227 39
	ldr	r3, .L785
	ldr	r3, [r3]
	.loc 1 5227 12
	ldrb	r0, [r3, #1]	@ zero_extendqisi2
	add	r2, sp, #14
	movs	r3, #1
	movs	r1, #61
	blx	r4
.LVL214:
	mov	r3, r0
	strb	r3, [sp, #15]
	.loc 1 5230 47
	ldrb	r3, [sp, #14]	@ zero_extendqisi2
	and	r3, r3, #127
	uxtb	r2, r3
	.loc 1 5230 23
	ldr	r3, [sp, #4]
	strb	r2, [r3]
	.loc 1 5233 9
	ldrsb	r3, [sp, #15]
.L784:
	.loc 1 5234 1 discriminator 1
	mov	r0, r3
	add	sp, sp, #16
.LCFI311:
	@ sp needed
	pop	{r4, pc}
.L786:
	.align	2
.L785:
	.word	p_bmg160
.LFE103:
	.size	bmg160_get_fifo_wm_level, .-bmg160_get_fifo_wm_level
	.section	.text.bmg160_set_fifo_wm_level,"ax",%progbits
	.align	1
	.global	bmg160_set_fifo_wm_level
	.syntax unified
	.thumb
	.thumb_func
	.fpu fpv4-sp-d16
	.type	bmg160_set_fifo_wm_level, %function
bmg160_set_fifo_wm_level:
.LFB104:
	.loc 1 5253 1
	@ args = 0, pretend = 0, frame = 16
	@ frame_needed = 0, uses_anonymous_args = 0
	push	{r4, lr}
.LCFI312:
	sub	sp, sp, #16
.LCFI313:
	mov	r3, r0
	strb	r3, [sp, #7]
	.loc 1 5255 5
	movs	r3, #255
	strb	r3, [sp, #15]
	.loc 1 5256 5
	movs	r3, #0
	strb	r3, [sp, #14]
	.loc 1 5258 15
	ldr	r3, .L793
	ldr	r3, [r3]
	.loc 1 5258 5
	cmp	r3, #0
	bne	.L788
	.loc 1 5259 10
	mvn	r3, #126
	b	.L792
.L788:
	.loc 1 5261 26
	ldrsb	r3, [sp, #7]
	.loc 1 5261 6
	cmp	r3, #0
	blt	.L790
	.loc 1 5262 21
	ldr	r3, .L793
	ldr	r3, [r3]
	ldr	r4, [r3, #12]
	.loc 1 5262 40
	ldr	r3, .L793
	ldr	r3, [r3]
	.loc 1 5262 13
	ldrb	r0, [r3, #1]	@ zero_extendqisi2
	add	r2, sp, #14
	movs	r3, #1
	movs	r1, #61
	blx	r4
.LVL215:
	mov	r3, r0
	strb	r3, [sp, #15]
	.loc 1 5266 27
	ldrb	r3, [sp, #14]	@ zero_extendqisi2
	sxtb	r3, r3
	bic	r3, r3, #127
	sxtb	r2, r3
	.loc 1 5266 63
	ldrsb	r3, [sp, #7]
	and	r3, r3, #127
	sxtb	r3, r3
	.loc 1 5266 36
	orrs	r3, r3, r2
	sxtb	r3, r3
	uxtb	r3, r3
	.loc 1 5266 14
	strb	r3, [sp, #14]
	.loc 1 5268 22
	ldr	r3, .L793
	ldr	r3, [r3]
	ldr	r4, [r3, #8]
	.loc 1 5268 42
	ldr	r3, .L793
	ldr	r3, [r3]
	.loc 1 5268 14
	ldrb	r0, [r3, #1]	@ zero_extendqisi2
	add	r2, sp, #14
	movs	r3, #1
	movs	r1, #61
	blx	r4
.LVL216:
	mov	r3, r0
	uxtb	r2, r3
	.loc 1 5268 11
	ldrb	r3, [sp, #15]	@ zero_extendqisi2
	add	r3, r3, r2
	uxtb	r3, r3
	strb	r3, [sp, #15]
	b	.L791
.L790:
	.loc 1 5273 11
	movs	r3, #254
	strb	r3, [sp, #15]
.L791:
	.loc 1 5276 9
	ldrsb	r3, [sp, #15]
.L792:
	.loc 1 5277 1 discriminator 1
	mov	r0, r3
	add	sp, sp, #16
.LCFI314:
	@ sp needed
	pop	{r4, pc}
.L794:
	.align	2
.L793:
	.word	p_bmg160
.LFE104:
	.size	bmg160_set_fifo_wm_level, .-bmg160_set_fifo_wm_level
	.section	.text.bmg160_get_offset,"ax",%progbits
	.align	1
	.global	bmg160_get_offset
	.syntax unified
	.thumb
	.thumb_func
	.fpu fpv4-sp-d16
	.type	bmg160_get_offset, %function
bmg160_get_offset:
.LFB105:
	.loc 1 5314 1
	@ args = 0, pretend = 0, frame = 16
	@ frame_needed = 0, uses_anonymous_args = 0
	push	{r4, lr}
.LCFI315:
	sub	sp, sp, #16
.LCFI316:
	mov	r3, r0
	str	r1, [sp]
	strb	r3, [sp, #7]
	.loc 1 5316 5
	movs	r3, #255
	strb	r3, [sp, #15]
	.loc 1 5317 5
	movs	r3, #0
	strb	r3, [sp, #14]
	.loc 1 5318 5
	movs	r3, #0
	strb	r3, [sp, #13]
	.loc 1 5320 15
	ldr	r3, .L804
	ldr	r3, [r3]
	.loc 1 5320 5
	cmp	r3, #0
	bne	.L796
	.loc 1 5321 10
	mvn	r3, #126
	b	.L803
.L796:
	.loc 1 5323 3
	ldrb	r3, [sp, #7]	@ zero_extendqisi2
	cmp	r3, #2
	beq	.L798
	cmp	r3, #2
	bgt	.L799
	cmp	r3, #0
	beq	.L800
	cmp	r3, #1
	beq	.L801
	b	.L799
.L800:
	.loc 1 5326 21
	ldr	r3, .L804
	ldr	r3, [r3]
	ldr	r4, [r3, #12]
	.loc 1 5326 40
	ldr	r3, .L804
	ldr	r3, [r3]
	.loc 1 5326 13
	ldrb	r0, [r3, #1]	@ zero_extendqisi2
	add	r2, sp, #14
	movs	r3, #1
	movs	r1, #58
	blx	r4
.LVL217:
	mov	r3, r0
	strb	r3, [sp, #15]
	.loc 1 5330 42
	ldrb	r3, [sp, #14]	@ zero_extendqisi2
	asrs	r3, r3, #2
	uxtb	r3, r3
	and	r3, r3, #3
	uxtb	r3, r3
	.loc 1 5330 16
	strb	r3, [sp, #14]
	.loc 1 5332 21
	ldr	r3, .L804
	ldr	r3, [r3]
	ldr	r4, [r3, #12]
	.loc 1 5332 40
	ldr	r3, .L804
	ldr	r3, [r3]
	.loc 1 5332 13
	ldrb	r0, [r3, #1]	@ zero_extendqisi2
	add	r2, sp, #13
	movs	r3, #1
	movs	r1, #54
	blx	r4
.LVL218:
	mov	r3, r0
	strb	r3, [sp, #15]
	.loc 1 5336 42
	ldrb	r3, [sp, #13]	@ zero_extendqisi2
	lsrs	r3, r3, #6
	uxtb	r3, r3
	.loc 1 5336 16
	strb	r3, [sp, #13]
	.loc 1 5338 32
	ldrb	r3, [sp, #13]	@ zero_extendqisi2
	lsls	r3, r3, #4
	.loc 1 5340 4
	sxtb	r2, r3
	ldrb	r3, [sp, #14]	@ zero_extendqisi2
	sxtb	r3, r3
	orrs	r3, r3, r2
	sxtb	r3, r3
	uxtb	r3, r3
	.loc 1 5338 16
	strb	r3, [sp, #13]
	.loc 1 5341 21
	ldr	r3, .L804
	ldr	r3, [r3]
	ldr	r4, [r3, #12]
	.loc 1 5341 40
	ldr	r3, .L804
	ldr	r3, [r3]
	.loc 1 5341 13
	ldrb	r0, [r3, #1]	@ zero_extendqisi2
	add	r2, sp, #14
	movs	r3, #1
	movs	r1, #55
	blx	r4
.LVL219:
	mov	r3, r0
	strb	r3, [sp, #15]
	.loc 1 5345 5
	ldrb	r3, [sp, #14]	@ zero_extendqisi2
	sxtb	r3, r3
	.loc 1 5346 4
	lsls	r3, r3, #4
	.loc 1 5344 20
	sxth	r2, r3
	ldrb	r3, [sp, #13]	@ zero_extendqisi2
	sxth	r3, r3
	orrs	r3, r3, r2
	sxth	r2, r3
	.loc 1 5344 18
	ldr	r3, [sp]
	strh	r2, [r3]	@ movhi
	.loc 1 5348 4
	b	.L802
.L801:
	.loc 1 5350 21
	ldr	r3, .L804
	ldr	r3, [r3]
	ldr	r4, [r3, #12]
	.loc 1 5350 40
	ldr	r3, .L804
	ldr	r3, [r3]
	.loc 1 5350 13
	ldrb	r0, [r3, #1]	@ zero_extendqisi2
	add	r2, sp, #14
	movs	r3, #1
	movs	r1, #58
	blx	r4
.LVL220:
	mov	r3, r0
	strb	r3, [sp, #15]
	.loc 1 5354 42
	ldrb	r3, [sp, #14]	@ zero_extendqisi2
	asrs	r3, r3, #1
	uxtb	r3, r3
	and	r3, r3, #1
	uxtb	r3, r3
	.loc 1 5354 16
	strb	r3, [sp, #14]
	.loc 1 5356 21
	ldr	r3, .L804
	ldr	r3, [r3]
	ldr	r4, [r3, #12]
	.loc 1 5356 40
	ldr	r3, .L804
	ldr	r3, [r3]
	.loc 1 5356 13
	ldrb	r0, [r3, #1]	@ zero_extendqisi2
	add	r2, sp, #13
	movs	r3, #1
	movs	r1, #54
	blx	r4
.LVL221:
	mov	r3, r0
	strb	r3, [sp, #15]
	.loc 1 5360 42
	ldrb	r3, [sp, #13]	@ zero_extendqisi2
	asrs	r3, r3, #3
	uxtb	r3, r3
	and	r3, r3, #7
	uxtb	r3, r3
	.loc 1 5360 16
	strb	r3, [sp, #13]
	.loc 1 5362 32
	ldrb	r3, [sp, #13]	@ zero_extendqisi2
	lsls	r3, r3, #1
	.loc 1 5364 4
	sxtb	r2, r3
	ldrb	r3, [sp, #14]	@ zero_extendqisi2
	sxtb	r3, r3
	orrs	r3, r3, r2
	sxtb	r3, r3
	uxtb	r3, r3
	.loc 1 5362 16
	strb	r3, [sp, #13]
	.loc 1 5365 21
	ldr	r3, .L804
	ldr	r3, [r3]
	ldr	r4, [r3, #12]
	.loc 1 5365 40
	ldr	r3, .L804
	ldr	r3, [r3]
	.loc 1 5365 13
	ldrb	r0, [r3, #1]	@ zero_extendqisi2
	add	r2, sp, #14
	movs	r3, #1
	movs	r1, #56
	blx	r4
.LVL222:
	mov	r3, r0
	strb	r3, [sp, #15]
	.loc 1 5370 5
	ldrb	r3, [sp, #14]	@ zero_extendqisi2
	sxtb	r3, r3
	.loc 1 5371 4
	lsls	r3, r3, #4
	.loc 1 5369 20
	sxth	r2, r3
	ldrb	r3, [sp, #13]	@ zero_extendqisi2
	sxth	r3, r3
	orrs	r3, r3, r2
	sxth	r2, r3
	.loc 1 5369 18
	ldr	r3, [sp]
	strh	r2, [r3]	@ movhi
	.loc 1 5373 4
	b	.L802
.L798:
	.loc 1 5375 21
	ldr	r3, .L804
	ldr	r3, [r3]
	ldr	r4, [r3, #12]
	.loc 1 5375 40
	ldr	r3, .L804
	ldr	r3, [r3]
	.loc 1 5375 13
	ldrb	r0, [r3, #1]	@ zero_extendqisi2
	add	r2, sp, #14
	movs	r3, #1
	movs	r1, #58
	blx	r4
.LVL223:
	mov	r3, r0
	strb	r3, [sp, #15]
	.loc 1 5379 42
	ldrb	r3, [sp, #14]	@ zero_extendqisi2
	and	r3, r3, #1
	uxtb	r3, r3
	.loc 1 5379 16
	strb	r3, [sp, #14]
	.loc 1 5381 21
	ldr	r3, .L804
	ldr	r3, [r3]
	ldr	r4, [r3, #12]
	.loc 1 5381 40
	ldr	r3, .L804
	ldr	r3, [r3]
	.loc 1 5381 13
	ldrb	r0, [r3, #1]	@ zero_extendqisi2
	add	r2, sp, #13
	movs	r3, #1
	movs	r1, #54
	blx	r4
.LVL224:
	mov	r3, r0
	strb	r3, [sp, #15]
	.loc 1 5385 42
	ldrb	r3, [sp, #13]	@ zero_extendqisi2
	and	r3, r3, #7
	uxtb	r3, r3
	.loc 1 5385 16
	strb	r3, [sp, #13]
	.loc 1 5387 32
	ldrb	r3, [sp, #13]	@ zero_extendqisi2
	lsls	r3, r3, #1
	.loc 1 5389 4
	sxtb	r2, r3
	ldrb	r3, [sp, #14]	@ zero_extendqisi2
	sxtb	r3, r3
	orrs	r3, r3, r2
	sxtb	r3, r3
	uxtb	r3, r3
	.loc 1 5387 16
	strb	r3, [sp, #13]
	.loc 1 5390 21
	ldr	r3, .L804
	ldr	r3, [r3]
	ldr	r4, [r3, #12]
	.loc 1 5390 40
	ldr	r3, .L804
	ldr	r3, [r3]
	.loc 1 5390 13
	ldrb	r0, [r3, #1]	@ zero_extendqisi2
	add	r2, sp, #14
	movs	r3, #1
	movs	r1, #57
	blx	r4
.LVL225:
	mov	r3, r0
	strb	r3, [sp, #15]
	.loc 1 5395 5
	ldrb	r3, [sp, #14]	@ zero_extendqisi2
	sxtb	r3, r3
	.loc 1 5396 4
	lsls	r3, r3, #4
	.loc 1 5394 20
	sxth	r2, r3
	ldrb	r3, [sp, #13]	@ zero_extendqisi2
	sxth	r3, r3
	orrs	r3, r3, r2
	sxth	r2, r3
	.loc 1 5394 18
	ldr	r3, [sp]
	strh	r2, [r3]	@ movhi
	.loc 1 5398 4
	b	.L802
.L799:
	.loc 1 5400 11
	movs	r3, #254
	strb	r3, [sp, #15]
	.loc 1 5401 4
	nop
.L802:
	.loc 1 5404 9
	ldrsb	r3, [sp, #15]
.L803:
	.loc 1 5405 1 discriminator 1
	mov	r0, r3
	add	sp, sp, #16
.LCFI317:
	@ sp needed
	pop	{r4, pc}
.L805:
	.align	2
.L804:
	.word	p_bmg160
.LFE105:
	.size	bmg160_get_offset, .-bmg160_get_offset
	.section	.text.bmg160_set_offset,"ax",%progbits
	.align	1
	.global	bmg160_set_offset
	.syntax unified
	.thumb
	.thumb_func
	.fpu fpv4-sp-d16
	.type	bmg160_set_offset, %function
bmg160_set_offset:
.LFB106:
	.loc 1 5442 1
	@ args = 0, pretend = 0, frame = 16
	@ frame_needed = 0, uses_anonymous_args = 0
	push	{r4, lr}
.LCFI318:
	sub	sp, sp, #16
.LCFI319:
	mov	r3, r0
	mov	r2, r1
	strb	r3, [sp, #7]
	mov	r3, r2	@ movhi
	strh	r3, [sp, #4]	@ movhi
	.loc 1 5444 5
	movs	r3, #255
	strb	r3, [sp, #15]
	.loc 1 5445 5
	movs	r3, #0
	strb	r3, [sp, #14]
	.loc 1 5446 5
	movs	r3, #0
	strb	r3, [sp, #13]
	.loc 1 5448 15
	ldr	r3, .L815
	ldr	r3, [r3]
	.loc 1 5448 5
	cmp	r3, #0
	bne	.L807
	.loc 1 5449 10
	mvn	r3, #126
	b	.L814
.L807:
	.loc 1 5451 3
	ldrb	r3, [sp, #7]	@ zero_extendqisi2
	cmp	r3, #2
	beq	.L809
	cmp	r3, #2
	bgt	.L810
	cmp	r3, #0
	beq	.L811
	cmp	r3, #1
	beq	.L812
	b	.L810
.L811:
	.loc 1 5454 16
	ldrh	r3, [sp, #4]	@ movhi
	sxtb	r3, r3
	asrs	r3, r3, #4
	sxtb	r3, r3
	uxtb	r3, r3
	strb	r3, [sp, #14]
	.loc 1 5457 21
	ldr	r3, .L815
	ldr	r3, [r3]
	ldr	r4, [r3, #8]
	.loc 1 5457 41
	ldr	r3, .L815
	ldr	r3, [r3]
	.loc 1 5457 13
	ldrb	r0, [r3, #1]	@ zero_extendqisi2
	add	r2, sp, #14
	movs	r3, #1
	movs	r1, #55
	blx	r4
.LVL226:
	mov	r3, r0
	strb	r3, [sp, #15]
	.loc 1 5463 4
	ldrh	r3, [sp, #4]	@ movhi
	uxtb	r3, r3
	.loc 1 5462 18
	and	r3, r3, #12
	uxtb	r3, r3
	.loc 1 5462 16
	strb	r3, [sp, #14]
	.loc 1 5464 31
	ldrb	r3, [sp, #13]	@ zero_extendqisi2
	sxtb	r3, r3
	and	r3, r3, #63
	sxtb	r2, r3
	.loc 1 5464 54
	ldrb	r3, [sp, #14]	@ zero_extendqisi2
	lsls	r3, r3, #6
	.loc 1 5464 40
	sxtb	r3, r3
	orrs	r3, r3, r2
	sxtb	r3, r3
	uxtb	r3, r3
	.loc 1 5464 16
	strb	r3, [sp, #13]
	.loc 1 5466 22
	ldr	r3, .L815
	ldr	r3, [r3]
	ldr	r4, [r3, #12]
	.loc 1 5466 41
	ldr	r3, .L815
	ldr	r3, [r3]
	.loc 1 5466 14
	ldrb	r0, [r3, #1]	@ zero_extendqisi2
	add	r2, sp, #13
	movs	r3, #1
	movs	r1, #54
	blx	r4
.LVL227:
	mov	r3, r0
	uxtb	r2, r3
	.loc 1 5466 11
	ldrb	r3, [sp, #15]	@ zero_extendqisi2
	add	r3, r3, r2
	uxtb	r3, r3
	strb	r3, [sp, #15]
	.loc 1 5472 4
	ldrh	r3, [sp, #4]	@ movhi
	uxtb	r3, r3
	.loc 1 5471 18
	and	r3, r3, #3
	uxtb	r3, r3
	.loc 1 5471 16
	strb	r3, [sp, #14]
	.loc 1 5473 31
	ldrb	r3, [sp, #13]	@ zero_extendqisi2
	sxtb	r3, r3
	bic	r3, r3, #12
	sxtb	r2, r3
	.loc 1 5473 54
	ldrb	r3, [sp, #14]	@ zero_extendqisi2
	lsls	r3, r3, #2
	.loc 1 5473 60
	sxtb	r3, r3
	and	r3, r3, #12
	sxtb	r3, r3
	.loc 1 5473 40
	orrs	r3, r3, r2
	sxtb	r3, r3
	uxtb	r3, r3
	.loc 1 5473 16
	strb	r3, [sp, #13]
	.loc 1 5475 22
	ldr	r3, .L815
	ldr	r3, [r3]
	ldr	r4, [r3, #8]
	.loc 1 5475 42
	ldr	r3, .L815
	ldr	r3, [r3]
	.loc 1 5475 14
	ldrb	r0, [r3, #1]	@ zero_extendqisi2
	add	r2, sp, #13
	movs	r3, #1
	movs	r1, #58
	blx	r4
.LVL228:
	mov	r3, r0
	uxtb	r2, r3
	.loc 1 5475 11
	ldrb	r3, [sp, #15]	@ zero_extendqisi2
	add	r3, r3, r2
	uxtb	r3, r3
	strb	r3, [sp, #15]
	.loc 1 5479 4
	b	.L813
.L812:
	.loc 1 5481 16
	ldrh	r3, [sp, #4]	@ movhi
	sxtb	r3, r3
	asrs	r3, r3, #4
	sxtb	r3, r3
	uxtb	r3, r3
	strb	r3, [sp, #14]
	.loc 1 5484 21
	ldr	r3, .L815
	ldr	r3, [r3]
	ldr	r4, [r3, #8]
	.loc 1 5484 41
	ldr	r3, .L815
	ldr	r3, [r3]
	.loc 1 5484 13
	ldrb	r0, [r3, #1]	@ zero_extendqisi2
	add	r2, sp, #14
	movs	r3, #1
	movs	r1, #56
	blx	r4
.LVL229:
	mov	r3, r0
	strb	r3, [sp, #15]
	.loc 1 5490 4
	ldrh	r3, [sp, #4]	@ movhi
	uxtb	r3, r3
	.loc 1 5489 18
	and	r3, r3, #14
	uxtb	r3, r3
	.loc 1 5489 16
	strb	r3, [sp, #14]
	.loc 1 5491 31
	ldrb	r3, [sp, #13]	@ zero_extendqisi2
	sxtb	r3, r3
	bic	r3, r3, #56
	sxtb	r2, r3
	.loc 1 5491 54
	ldrb	r3, [sp, #14]	@ zero_extendqisi2
	lsls	r3, r3, #3
	.loc 1 5491 60
	sxtb	r3, r3
	and	r3, r3, #56
	sxtb	r3, r3
	.loc 1 5491 40
	orrs	r3, r3, r2
	sxtb	r3, r3
	uxtb	r3, r3
	.loc 1 5491 16
	strb	r3, [sp, #13]
	.loc 1 5493 22
	ldr	r3, .L815
	ldr	r3, [r3]
	ldr	r4, [r3, #12]
	.loc 1 5493 41
	ldr	r3, .L815
	ldr	r3, [r3]
	.loc 1 5493 14
	ldrb	r0, [r3, #1]	@ zero_extendqisi2
	add	r2, sp, #13
	movs	r3, #1
	movs	r1, #54
	blx	r4
.LVL230:
	mov	r3, r0
	uxtb	r2, r3
	.loc 1 5493 11
	ldrb	r3, [sp, #15]	@ zero_extendqisi2
	add	r3, r3, r2
	uxtb	r3, r3
	strb	r3, [sp, #15]
	.loc 1 5499 4
	ldrh	r3, [sp, #4]	@ movhi
	uxtb	r3, r3
	.loc 1 5498 18
	and	r3, r3, #1
	uxtb	r3, r3
	.loc 1 5498 16
	strb	r3, [sp, #14]
	.loc 1 5500 31
	ldrb	r3, [sp, #13]	@ zero_extendqisi2
	sxtb	r3, r3
	bic	r3, r3, #2
	sxtb	r2, r3
	.loc 1 5500 54
	ldrb	r3, [sp, #14]	@ zero_extendqisi2
	lsls	r3, r3, #1
	.loc 1 5500 60
	sxtb	r3, r3
	and	r3, r3, #2
	sxtb	r3, r3
	.loc 1 5500 40
	orrs	r3, r3, r2
	sxtb	r3, r3
	uxtb	r3, r3
	.loc 1 5500 16
	strb	r3, [sp, #13]
	.loc 1 5502 22
	ldr	r3, .L815
	ldr	r3, [r3]
	ldr	r4, [r3, #8]
	.loc 1 5502 42
	ldr	r3, .L815
	ldr	r3, [r3]
	.loc 1 5502 14
	ldrb	r0, [r3, #1]	@ zero_extendqisi2
	add	r2, sp, #13
	movs	r3, #1
	movs	r1, #58
	blx	r4
.LVL231:
	mov	r3, r0
	uxtb	r2, r3
	.loc 1 5502 11
	ldrb	r3, [sp, #15]	@ zero_extendqisi2
	add	r3, r3, r2
	uxtb	r3, r3
	strb	r3, [sp, #15]
	.loc 1 5506 4
	b	.L813
.L809:
	.loc 1 5508 16
	ldrh	r3, [sp, #4]	@ movhi
	sxtb	r3, r3
	asrs	r3, r3, #4
	sxtb	r3, r3
	uxtb	r3, r3
	strb	r3, [sp, #14]
	.loc 1 5511 21
	ldr	r3, .L815
	ldr	r3, [r3]
	ldr	r4, [r3, #8]
	.loc 1 5511 41
	ldr	r3, .L815
	ldr	r3, [r3]
	.loc 1 5511 13
	ldrb	r0, [r3, #1]	@ zero_extendqisi2
	add	r2, sp, #14
	movs	r3, #1
	movs	r1, #57
	blx	r4
.LVL232:
	mov	r3, r0
	strb	r3, [sp, #15]
	.loc 1 5517 4
	ldrh	r3, [sp, #4]	@ movhi
	uxtb	r3, r3
	.loc 1 5516 18
	and	r3, r3, #14
	uxtb	r3, r3
	.loc 1 5516 16
	strb	r3, [sp, #14]
	.loc 1 5518 31
	ldrb	r3, [sp, #13]	@ zero_extendqisi2
	sxtb	r3, r3
	bic	r3, r3, #7
	sxtb	r2, r3
	.loc 1 5518 60
	ldrb	r3, [sp, #14]	@ zero_extendqisi2
	sxtb	r3, r3
	and	r3, r3, #7
	sxtb	r3, r3
	.loc 1 5518 40
	orrs	r3, r3, r2
	sxtb	r3, r3
	uxtb	r3, r3
	.loc 1 5518 16
	strb	r3, [sp, #13]
	.loc 1 5520 22
	ldr	r3, .L815
	ldr	r3, [r3]
	ldr	r4, [r3, #12]
	.loc 1 5520 41
	ldr	r3, .L815
	ldr	r3, [r3]
	.loc 1 5520 14
	ldrb	r0, [r3, #1]	@ zero_extendqisi2
	add	r2, sp, #13
	movs	r3, #1
	movs	r1, #54
	blx	r4
.LVL233:
	mov	r3, r0
	uxtb	r2, r3
	.loc 1 5520 11
	ldrb	r3, [sp, #15]	@ zero_extendqisi2
	add	r3, r3, r2
	uxtb	r3, r3
	strb	r3, [sp, #15]
	.loc 1 5526 4
	ldrh	r3, [sp, #4]	@ movhi
	uxtb	r3, r3
	.loc 1 5525 18
	and	r3, r3, #1
	uxtb	r3, r3
	.loc 1 5525 16
	strb	r3, [sp, #14]
	.loc 1 5527 31
	ldrb	r3, [sp, #13]	@ zero_extendqisi2
	sxtb	r3, r3
	bic	r3, r3, #1
	sxtb	r2, r3
	.loc 1 5527 60
	ldrb	r3, [sp, #14]	@ zero_extendqisi2
	sxtb	r3, r3
	and	r3, r3, #1
	sxtb	r3, r3
	.loc 1 5527 40
	orrs	r3, r3, r2
	sxtb	r3, r3
	uxtb	r3, r3
	.loc 1 5527 16
	strb	r3, [sp, #13]
	.loc 1 5529 22
	ldr	r3, .L815
	ldr	r3, [r3]
	ldr	r4, [r3, #8]
	.loc 1 5529 42
	ldr	r3, .L815
	ldr	r3, [r3]
	.loc 1 5529 14
	ldrb	r0, [r3, #1]	@ zero_extendqisi2
	add	r2, sp, #13
	movs	r3, #1
	movs	r1, #58
	blx	r4
.LVL234:
	mov	r3, r0
	uxtb	r2, r3
	.loc 1 5529 11
	ldrb	r3, [sp, #15]	@ zero_extendqisi2
	add	r3, r3, r2
	uxtb	r3, r3
	strb	r3, [sp, #15]
	.loc 1 5533 4
	b	.L813
.L810:
	.loc 1 5535 11
	movs	r3, #254
	strb	r3, [sp, #15]
	.loc 1 5536 4
	nop
.L813:
	.loc 1 5539 9
	ldrsb	r3, [sp, #15]
.L814:
	.loc 1 5540 1 discriminator 1
	mov	r0, r3
	add	sp, sp, #16
.LCFI320:
	@ sp needed
	pop	{r4, pc}
.L816:
	.align	2
.L815:
	.word	p_bmg160
.LFE106:
	.size	bmg160_set_offset, .-bmg160_set_offset
	.section	.text.bmg160_get_gp,"ax",%progbits
	.align	1
	.global	bmg160_get_gp
	.syntax unified
	.thumb
	.thumb_func
	.fpu fpv4-sp-d16
	.type	bmg160_get_gp, %function
bmg160_get_gp:
.LFB107:
	.loc 1 5564 1
	@ args = 0, pretend = 0, frame = 16
	@ frame_needed = 0, uses_anonymous_args = 0
	push	{r4, lr}
.LCFI321:
	sub	sp, sp, #16
.LCFI322:
	mov	r3, r0
	str	r1, [sp]
	strb	r3, [sp, #7]
	.loc 1 5566 5
	movs	r3, #255
	strb	r3, [sp, #15]
	.loc 1 5567 5
	movs	r3, #0
	strb	r3, [sp, #14]
	.loc 1 5569 15
	ldr	r3, .L826
	ldr	r3, [r3]
	.loc 1 5569 5
	cmp	r3, #0
	bne	.L818
	.loc 1 5570 10
	mvn	r3, #126
	b	.L824
.L818:
	.loc 1 5572 3
	ldrb	r3, [sp, #7]	@ zero_extendqisi2
	cmp	r3, #0
	beq	.L820
	cmp	r3, #1
	beq	.L821
	b	.L825
.L820:
	.loc 1 5575 21
	ldr	r3, .L826
	ldr	r3, [r3]
	ldr	r4, [r3, #12]
	.loc 1 5575 40
	ldr	r3, .L826
	ldr	r3, [r3]
	.loc 1 5575 13
	ldrb	r0, [r3, #1]	@ zero_extendqisi2
	add	r2, sp, #14
	movs	r3, #1
	movs	r1, #58
	blx	r4
.LVL235:
	mov	r3, r0
	strb	r3, [sp, #15]
	.loc 1 5579 37
	ldrb	r3, [sp, #14]	@ zero_extendqisi2
	lsrs	r3, r3, #4
	uxtb	r2, r3
	.loc 1 5579 13
	ldr	r3, [sp]
	strb	r2, [r3]
	.loc 1 5581 4
	b	.L823
.L821:
	.loc 1 5583 21
	ldr	r3, .L826
	ldr	r3, [r3]
	ldr	r4, [r3, #12]
	.loc 1 5583 40
	ldr	r3, .L826
	ldr	r3, [r3]
	.loc 1 5583 13
	ldrb	r0, [r3, #1]	@ zero_extendqisi2
	add	r2, sp, #14
	movs	r3, #1
	movs	r1, #59
	blx	r4
.LVL236:
	mov	r3, r0
	strb	r3, [sp, #15]
	.loc 1 5587 13
	ldrb	r2, [sp, #14]	@ zero_extendqisi2
	ldr	r3, [sp]
	strb	r2, [r3]
	.loc 1 5588 4
	b	.L823
.L825:
	.loc 1 5590 11
	movs	r3, #254
	strb	r3, [sp, #15]
	.loc 1 5591 4
	nop
.L823:
	.loc 1 5594 9
	ldrsb	r3, [sp, #15]
.L824:
	.loc 1 5595 1 discriminator 1
	mov	r0, r3
	add	sp, sp, #16
.LCFI323:
	@ sp needed
	pop	{r4, pc}
.L827:
	.align	2
.L826:
	.word	p_bmg160
.LFE107:
	.size	bmg160_get_gp, .-bmg160_get_gp
	.section	.text.bmg160_set_gp,"ax",%progbits
	.align	1
	.global	bmg160_set_gp
	.syntax unified
	.thumb
	.thumb_func
	.fpu fpv4-sp-d16
	.type	bmg160_set_gp, %function
bmg160_set_gp:
.LFB108:
	.loc 1 5619 1
	@ args = 0, pretend = 0, frame = 16
	@ frame_needed = 0, uses_anonymous_args = 0
	push	{r4, lr}
.LCFI324:
	sub	sp, sp, #16
.LCFI325:
	mov	r3, r0
	mov	r2, r1
	strb	r3, [sp, #7]
	mov	r3, r2
	strb	r3, [sp, #6]
	.loc 1 5621 5
	movs	r3, #255
	strb	r3, [sp, #15]
	.loc 1 5622 5
	movs	r3, #0
	strb	r3, [sp, #14]
	.loc 1 5624 15
	ldr	r3, .L837
	ldr	r3, [r3]
	.loc 1 5624 5
	cmp	r3, #0
	bne	.L829
	.loc 1 5625 10
	mvn	r3, #126
	b	.L835
.L829:
	.loc 1 5627 3
	ldrb	r3, [sp, #7]	@ zero_extendqisi2
	cmp	r3, #0
	beq	.L831
	cmp	r3, #1
	beq	.L832
	b	.L836
.L831:
	.loc 1 5630 21
	ldr	r3, .L837
	ldr	r3, [r3]
	ldr	r4, [r3, #12]
	.loc 1 5630 40
	ldr	r3, .L837
	ldr	r3, [r3]
	.loc 1 5630 13
	ldrb	r0, [r3, #1]	@ zero_extendqisi2
	add	r2, sp, #14
	movs	r3, #1
	movs	r1, #58
	blx	r4
.LVL237:
	mov	r3, r0
	strb	r3, [sp, #15]
	.loc 1 5634 27
	ldrb	r3, [sp, #14]	@ zero_extendqisi2
	sxtb	r3, r3
	and	r3, r3, #15
	sxtb	r2, r3
	.loc 1 5634 46
	ldrb	r3, [sp, #6]	@ zero_extendqisi2
	lsls	r3, r3, #4
	.loc 1 5634 36
	sxtb	r3, r3
	orrs	r3, r3, r2
	sxtb	r3, r3
	uxtb	r3, r3
	.loc 1 5634 14
	strb	r3, [sp, #14]
	.loc 1 5636 22
	ldr	r3, .L837
	ldr	r3, [r3]
	ldr	r4, [r3, #8]
	.loc 1 5636 42
	ldr	r3, .L837
	ldr	r3, [r3]
	.loc 1 5636 14
	ldrb	r0, [r3, #1]	@ zero_extendqisi2
	add	r2, sp, #14
	movs	r3, #1
	movs	r1, #58
	blx	r4
.LVL238:
	mov	r3, r0
	uxtb	r2, r3
	.loc 1 5636 11
	ldrb	r3, [sp, #15]	@ zero_extendqisi2
	add	r3, r3, r2
	uxtb	r3, r3
	strb	r3, [sp, #15]
	.loc 1 5640 4
	b	.L834
.L832:
	.loc 1 5642 14
	ldrb	r3, [sp, #6]
	strb	r3, [sp, #14]
	.loc 1 5643 21
	ldr	r3, .L837
	ldr	r3, [r3]
	ldr	r4, [r3, #8]
	.loc 1 5643 41
	ldr	r3, .L837
	ldr	r3, [r3]
	.loc 1 5643 13
	ldrb	r0, [r3, #1]	@ zero_extendqisi2
	add	r2, sp, #14
	movs	r3, #1
	movs	r1, #59
	blx	r4
.LVL239:
	mov	r3, r0
	strb	r3, [sp, #15]
	.loc 1 5647 4
	b	.L834
.L836:
	.loc 1 5649 11
	movs	r3, #254
	strb	r3, [sp, #15]
	.loc 1 5650 4
	nop
.L834:
	.loc 1 5653 9
	ldrsb	r3, [sp, #15]
.L835:
	.loc 1 5654 1 discriminator 1
	mov	r0, r3
	add	sp, sp, #16
.LCFI326:
	@ sp needed
	pop	{r4, pc}
.L838:
	.align	2
.L837:
	.word	p_bmg160
.LFE108:
	.size	bmg160_set_gp, .-bmg160_set_gp
	.section	.text.bmg160_get_FIFO_data_reg,"ax",%progbits
	.align	1
	.global	bmg160_get_FIFO_data_reg
	.syntax unified
	.thumb
	.thumb_func
	.fpu fpv4-sp-d16
	.type	bmg160_get_FIFO_data_reg, %function
bmg160_get_FIFO_data_reg:
.LFB109:
	.loc 1 5673 1
	@ args = 0, pretend = 0, frame = 16
	@ frame_needed = 0, uses_anonymous_args = 0
	push	{r4, lr}
.LCFI327:
	sub	sp, sp, #16
.LCFI328:
	str	r0, [sp, #4]
	.loc 1 5675 5
	movs	r3, #255
	strb	r3, [sp, #15]
	.loc 1 5676 5
	movs	r3, #0
	strb	r3, [sp, #14]
	.loc 1 5678 15
	ldr	r3, .L843
	ldr	r3, [r3]
	.loc 1 5678 5
	cmp	r3, #0
	bne	.L840
	.loc 1 5679 10
	mvn	r3, #126
	b	.L842
.L840:
	.loc 1 5682 20
	ldr	r3, .L843
	ldr	r3, [r3]
	ldr	r4, [r3, #12]
	.loc 1 5682 39
	ldr	r3, .L843
	ldr	r3, [r3]
	.loc 1 5682 12
	ldrb	r0, [r3, #1]	@ zero_extendqisi2
	add	r2, sp, #14
	movs	r3, #1
	movs	r1, #63
	blx	r4
.LVL240:
	mov	r3, r0
	strb	r3, [sp, #15]
	.loc 1 5685 19
	ldrb	r2, [sp, #14]	@ zero_extendqisi2
	ldr	r3, [sp, #4]
	strb	r2, [r3]
	.loc 1 5687 9
	ldrsb	r3, [sp, #15]
.L842:
	.loc 1 5688 1 discriminator 1
	mov	r0, r3
	add	sp, sp, #16
.LCFI329:
	@ sp needed
	pop	{r4, pc}
.L844:
	.align	2
.L843:
	.word	p_bmg160
.LFE109:
	.size	bmg160_get_FIFO_data_reg, .-bmg160_get_FIFO_data_reg
	.section	.text.bmg160_get_fifo_stat_reg,"ax",%progbits
	.align	1
	.global	bmg160_get_fifo_stat_reg
	.syntax unified
	.thumb
	.thumb_func
	.fpu fpv4-sp-d16
	.type	bmg160_get_fifo_stat_reg, %function
bmg160_get_fifo_stat_reg:
.LFB110:
	.loc 1 5707 1
	@ args = 0, pretend = 0, frame = 16
	@ frame_needed = 0, uses_anonymous_args = 0
	push	{r4, lr}
.LCFI330:
	sub	sp, sp, #16
.LCFI331:
	str	r0, [sp, #4]
	.loc 1 5709 5
	movs	r3, #255
	strb	r3, [sp, #15]
	.loc 1 5710 5
	movs	r3, #0
	strb	r3, [sp, #14]
	.loc 1 5712 15
	ldr	r3, .L849
	ldr	r3, [r3]
	.loc 1 5712 5
	cmp	r3, #0
	bne	.L846
	.loc 1 5713 10
	mvn	r3, #126
	b	.L848
.L846:
	.loc 1 5716 20
	ldr	r3, .L849
	ldr	r3, [r3]
	ldr	r4, [r3, #12]
	.loc 1 5716 39
	ldr	r3, .L849
	ldr	r3, [r3]
	.loc 1 5716 12
	ldrb	r0, [r3, #1]	@ zero_extendqisi2
	add	r2, sp, #14
	movs	r3, #1
	movs	r1, #14
	blx	r4
.LVL241:
	mov	r3, r0
	strb	r3, [sp, #15]
	.loc 1 5719 19
	ldrb	r2, [sp, #14]	@ zero_extendqisi2
	ldr	r3, [sp, #4]
	strb	r2, [r3]
	.loc 1 5721 9
	ldrsb	r3, [sp, #15]
.L848:
	.loc 1 5722 1 discriminator 1
	mov	r0, r3
	add	sp, sp, #16
.LCFI332:
	@ sp needed
	pop	{r4, pc}
.L850:
	.align	2
.L849:
	.word	p_bmg160
.LFE110:
	.size	bmg160_get_fifo_stat_reg, .-bmg160_get_fifo_stat_reg
	.section	.text.bmg160_get_fifo_frame_count,"ax",%progbits
	.align	1
	.global	bmg160_get_fifo_frame_count
	.syntax unified
	.thumb
	.thumb_func
	.fpu fpv4-sp-d16
	.type	bmg160_get_fifo_frame_count, %function
bmg160_get_fifo_frame_count:
.LFB111:
	.loc 1 5739 1
	@ args = 0, pretend = 0, frame = 16
	@ frame_needed = 0, uses_anonymous_args = 0
	push	{r4, lr}
.LCFI333:
	sub	sp, sp, #16
.LCFI334:
	str	r0, [sp, #4]
	.loc 1 5741 5
	movs	r3, #255
	strb	r3, [sp, #15]
	.loc 1 5742 5
	movs	r3, #0
	strb	r3, [sp, #14]
	.loc 1 5744 15
	ldr	r3, .L855
	ldr	r3, [r3]
	.loc 1 5744 5
	cmp	r3, #0
	bne	.L852
	.loc 1 5745 10
	mvn	r3, #126
	b	.L854
.L852:
	.loc 1 5748 20
	ldr	r3, .L855
	ldr	r3, [r3]
	ldr	r4, [r3, #12]
	.loc 1 5748 39
	ldr	r3, .L855
	ldr	r3, [r3]
	.loc 1 5748 12
	ldrb	r0, [r3, #1]	@ zero_extendqisi2
	add	r2, sp, #14
	movs	r3, #1
	movs	r1, #14
	blx	r4
.LVL242:
	mov	r3, r0
	strb	r3, [sp, #15]
	.loc 1 5751 50
	ldrb	r3, [sp, #14]	@ zero_extendqisi2
	and	r3, r3, #127
	uxtb	r2, r3
	.loc 1 5751 26
	ldr	r3, [sp, #4]
	strb	r2, [r3]
	.loc 1 5754 9
	ldrsb	r3, [sp, #15]
.L854:
	.loc 1 5755 1 discriminator 1
	mov	r0, r3
	add	sp, sp, #16
.LCFI335:
	@ sp needed
	pop	{r4, pc}
.L856:
	.align	2
.L855:
	.word	p_bmg160
.LFE111:
	.size	bmg160_get_fifo_frame_count, .-bmg160_get_fifo_frame_count
	.section	.text.bmg160_get_fifo_overrun,"ax",%progbits
	.align	1
	.global	bmg160_get_fifo_overrun
	.syntax unified
	.thumb
	.thumb_func
	.fpu fpv4-sp-d16
	.type	bmg160_get_fifo_overrun, %function
bmg160_get_fifo_overrun:
.LFB112:
	.loc 1 5772 1
	@ args = 0, pretend = 0, frame = 16
	@ frame_needed = 0, uses_anonymous_args = 0
	push	{r4, lr}
.LCFI336:
	sub	sp, sp, #16
.LCFI337:
	str	r0, [sp, #4]
	.loc 1 5774 5
	movs	r3, #255
	strb	r3, [sp, #15]
	.loc 1 5775 5
	movs	r3, #0
	strb	r3, [sp, #14]
	.loc 1 5777 15
	ldr	r3, .L861
	ldr	r3, [r3]
	.loc 1 5777 5
	cmp	r3, #0
	bne	.L858
	.loc 1 5778 10
	mvn	r3, #126
	b	.L860
.L858:
	.loc 1 5781 20
	ldr	r3, .L861
	ldr	r3, [r3]
	ldr	r4, [r3, #12]
	.loc 1 5781 39
	ldr	r3, .L861
	ldr	r3, [r3]
	.loc 1 5781 12
	ldrb	r0, [r3, #1]	@ zero_extendqisi2
	add	r2, sp, #14
	movs	r3, #1
	movs	r1, #14
	blx	r4
.LVL243:
	mov	r3, r0
	strb	r3, [sp, #15]
	.loc 1 5784 46
	ldrb	r3, [sp, #14]	@ zero_extendqisi2
	lsrs	r3, r3, #7
	uxtb	r2, r3
	.loc 1 5784 22
	ldr	r3, [sp, #4]
	strb	r2, [r3]
	.loc 1 5787 9
	ldrsb	r3, [sp, #15]
.L860:
	.loc 1 5788 1 discriminator 1
	mov	r0, r3
	add	sp, sp, #16
.LCFI338:
	@ sp needed
	pop	{r4, pc}
.L862:
	.align	2
.L861:
	.word	p_bmg160
.LFE112:
	.size	bmg160_get_fifo_overrun, .-bmg160_get_fifo_overrun
	.section	.text.bmg160_get_fifo_mode,"ax",%progbits
	.align	1
	.global	bmg160_get_fifo_mode
	.syntax unified
	.thumb
	.thumb_func
	.fpu fpv4-sp-d16
	.type	bmg160_get_fifo_mode, %function
bmg160_get_fifo_mode:
.LFB113:
	.loc 1 5811 1
	@ args = 0, pretend = 0, frame = 16
	@ frame_needed = 0, uses_anonymous_args = 0
	push	{r4, lr}
.LCFI339:
	sub	sp, sp, #16
.LCFI340:
	str	r0, [sp, #4]
	.loc 1 5813 5
	movs	r3, #255
	strb	r3, [sp, #15]
	.loc 1 5814 5
	movs	r3, #0
	strb	r3, [sp, #14]
	.loc 1 5816 15
	ldr	r3, .L867
	ldr	r3, [r3]
	.loc 1 5816 5
	cmp	r3, #0
	bne	.L864
	.loc 1 5817 10
	mvn	r3, #126
	b	.L866
.L864:
	.loc 1 5820 20
	ldr	r3, .L867
	ldr	r3, [r3]
	ldr	r4, [r3, #12]
	.loc 1 5820 39
	ldr	r3, .L867
	ldr	r3, [r3]
	.loc 1 5820 12
	ldrb	r0, [r3, #1]	@ zero_extendqisi2
	add	r2, sp, #14
	movs	r3, #1
	movs	r1, #62
	blx	r4
.LVL244:
	mov	r3, r0
	strb	r3, [sp, #15]
	.loc 1 5823 43
	ldrb	r3, [sp, #14]	@ zero_extendqisi2
	lsrs	r3, r3, #6
	uxtb	r2, r3
	.loc 1 5823 19
	ldr	r3, [sp, #4]
	strb	r2, [r3]
	.loc 1 5826 9
	ldrsb	r3, [sp, #15]
.L866:
	.loc 1 5827 1 discriminator 1
	mov	r0, r3
	add	sp, sp, #16
.LCFI341:
	@ sp needed
	pop	{r4, pc}
.L868:
	.align	2
.L867:
	.word	p_bmg160
.LFE113:
	.size	bmg160_get_fifo_mode, .-bmg160_get_fifo_mode
	.section	.text.bmg160_set_fifo_mode,"ax",%progbits
	.align	1
	.global	bmg160_set_fifo_mode
	.syntax unified
	.thumb
	.thumb_func
	.fpu fpv4-sp-d16
	.type	bmg160_set_fifo_mode, %function
bmg160_set_fifo_mode:
.LFB114:
	.loc 1 5850 1
	@ args = 0, pretend = 0, frame = 16
	@ frame_needed = 0, uses_anonymous_args = 0
	push	{r4, lr}
.LCFI342:
	sub	sp, sp, #16
.LCFI343:
	mov	r3, r0
	strb	r3, [sp, #7]
	.loc 1 5852 5
	movs	r3, #255
	strb	r3, [sp, #15]
	.loc 1 5853 5
	movs	r3, #0
	strb	r3, [sp, #14]
	.loc 1 5855 15
	ldr	r3, .L875
	ldr	r3, [r3]
	.loc 1 5855 5
	cmp	r3, #0
	bne	.L870
	.loc 1 5856 10
	mvn	r3, #126
	b	.L874
.L870:
	.loc 1 5858 6
	ldrb	r3, [sp, #7]	@ zero_extendqisi2
	cmp	r3, #3
	bhi	.L872
	.loc 1 5860 21
	ldr	r3, .L875
	ldr	r3, [r3]
	ldr	r4, [r3, #12]
	.loc 1 5860 40
	ldr	r3, .L875
	ldr	r3, [r3]
	.loc 1 5860 13
	ldrb	r0, [r3, #1]	@ zero_extendqisi2
	add	r2, sp, #14
	movs	r3, #1
	movs	r1, #62
	blx	r4
.LVL245:
	mov	r3, r0
	strb	r3, [sp, #15]
	.loc 1 5864 27
	ldrb	r3, [sp, #14]	@ zero_extendqisi2
	sxtb	r3, r3
	and	r3, r3, #63
	sxtb	r2, r3
	.loc 1 5864 53
	ldrb	r3, [sp, #7]	@ zero_extendqisi2
	lsls	r3, r3, #6
	.loc 1 5864 36
	sxtb	r3, r3
	orrs	r3, r3, r2
	sxtb	r3, r3
	uxtb	r3, r3
	.loc 1 5864 14
	strb	r3, [sp, #14]
	.loc 1 5866 22
	ldr	r3, .L875
	ldr	r3, [r3]
	ldr	r4, [r3, #8]
	.loc 1 5866 42
	ldr	r3, .L875
	ldr	r3, [r3]
	.loc 1 5866 14
	ldrb	r0, [r3, #1]	@ zero_extendqisi2
	add	r2, sp, #14
	movs	r3, #1
	movs	r1, #62
	blx	r4
.LVL246:
	mov	r3, r0
	uxtb	r2, r3
	.loc 1 5866 11
	ldrb	r3, [sp, #15]	@ zero_extendqisi2
	add	r3, r3, r2
	uxtb	r3, r3
	strb	r3, [sp, #15]
	b	.L873
.L872:
	.loc 1 5871 11
	movs	r3, #254
	strb	r3, [sp, #15]
.L873:
	.loc 1 5874 9
	ldrsb	r3, [sp, #15]
.L874:
	.loc 1 5875 1 discriminator 1
	mov	r0, r3
	add	sp, sp, #16
.LCFI344:
	@ sp needed
	pop	{r4, pc}
.L876:
	.align	2
.L875:
	.word	p_bmg160
.LFE114:
	.size	bmg160_set_fifo_mode, .-bmg160_set_fifo_mode
	.section	.text.bmg160_get_fifo_data_select,"ax",%progbits
	.align	1
	.global	bmg160_get_fifo_data_select
	.syntax unified
	.thumb
	.thumb_func
	.fpu fpv4-sp-d16
	.type	bmg160_get_fifo_data_select, %function
bmg160_get_fifo_data_select:
.LFB115:
	.loc 1 5899 1
	@ args = 0, pretend = 0, frame = 16
	@ frame_needed = 0, uses_anonymous_args = 0
	push	{r4, lr}
.LCFI345:
	sub	sp, sp, #16
.LCFI346:
	str	r0, [sp, #4]
	.loc 1 5901 5
	movs	r3, #255
	strb	r3, [sp, #15]
	.loc 1 5902 5
	movs	r3, #0
	strb	r3, [sp, #14]
	.loc 1 5904 15
	ldr	r3, .L881
	ldr	r3, [r3]
	.loc 1 5904 5
	cmp	r3, #0
	bne	.L878
	.loc 1 5905 10
	mvn	r3, #126
	b	.L880
.L878:
	.loc 1 5908 20
	ldr	r3, .L881
	ldr	r3, [r3]
	ldr	r4, [r3, #12]
	.loc 1 5908 39
	ldr	r3, .L881
	ldr	r3, [r3]
	.loc 1 5908 12
	ldrb	r0, [r3, #1]	@ zero_extendqisi2
	add	r2, sp, #14
	movs	r3, #1
	movs	r1, #62
	blx	r4
.LVL247:
	mov	r3, r0
	strb	r3, [sp, #15]
	.loc 1 5911 50
	ldrb	r3, [sp, #14]	@ zero_extendqisi2
	and	r3, r3, #3
	uxtb	r2, r3
	.loc 1 5911 26
	ldr	r3, [sp, #4]
	strb	r2, [r3]
	.loc 1 5914 9
	ldrsb	r3, [sp, #15]
.L880:
	.loc 1 5915 1 discriminator 1
	mov	r0, r3
	add	sp, sp, #16
.LCFI347:
	@ sp needed
	pop	{r4, pc}
.L882:
	.align	2
.L881:
	.word	p_bmg160
.LFE115:
	.size	bmg160_get_fifo_data_select, .-bmg160_get_fifo_data_select
	.section	.text.bmg160_set_fifo_data_select,"ax",%progbits
	.align	1
	.global	bmg160_set_fifo_data_select
	.syntax unified
	.thumb
	.thumb_func
	.fpu fpv4-sp-d16
	.type	bmg160_set_fifo_data_select, %function
bmg160_set_fifo_data_select:
.LFB116:
	.loc 1 5939 1
	@ args = 0, pretend = 0, frame = 16
	@ frame_needed = 0, uses_anonymous_args = 0
	push	{r4, lr}
.LCFI348:
	sub	sp, sp, #16
.LCFI349:
	mov	r3, r0
	strb	r3, [sp, #7]
	.loc 1 5941 5
	movs	r3, #255
	strb	r3, [sp, #15]
	.loc 1 5942 5
	movs	r3, #0
	strb	r3, [sp, #14]
	.loc 1 5944 15
	ldr	r3, .L889
	ldr	r3, [r3]
	.loc 1 5944 5
	cmp	r3, #0
	bne	.L884
	.loc 1 5945 10
	mvn	r3, #126
	b	.L888
.L884:
	.loc 1 5947 6
	ldrb	r3, [sp, #7]	@ zero_extendqisi2
	cmp	r3, #3
	bhi	.L886
	.loc 1 5950 21
	ldr	r3, .L889
	ldr	r3, [r3]
	ldr	r4, [r3, #12]
	.loc 1 5950 40
	ldr	r3, .L889
	ldr	r3, [r3]
	.loc 1 5950 13
	ldrb	r0, [r3, #1]	@ zero_extendqisi2
	add	r2, sp, #14
	movs	r3, #1
	movs	r1, #62
	blx	r4
.LVL248:
	mov	r3, r0
	strb	r3, [sp, #15]
	.loc 1 5954 27
	ldrb	r3, [sp, #14]	@ zero_extendqisi2
	sxtb	r3, r3
	bic	r3, r3, #3
	sxtb	r2, r3
	.loc 1 5954 66
	ldrsb	r3, [sp, #7]
	and	r3, r3, #3
	sxtb	r3, r3
	.loc 1 5954 36
	orrs	r3, r3, r2
	sxtb	r3, r3
	uxtb	r3, r3
	.loc 1 5954 14
	strb	r3, [sp, #14]
	.loc 1 5957 22
	ldr	r3, .L889
	ldr	r3, [r3]
	ldr	r4, [r3, #8]
	.loc 1 5957 42
	ldr	r3, .L889
	ldr	r3, [r3]
	.loc 1 5957 14
	ldrb	r0, [r3, #1]	@ zero_extendqisi2
	add	r2, sp, #14
	movs	r3, #1
	movs	r1, #62
	blx	r4
.LVL249:
	mov	r3, r0
	uxtb	r2, r3
	.loc 1 5957 11
	ldrb	r3, [sp, #15]	@ zero_extendqisi2
	add	r3, r3, r2
	uxtb	r3, r3
	strb	r3, [sp, #15]
	b	.L887
.L886:
	.loc 1 5962 11
	movs	r3, #254
	strb	r3, [sp, #15]
.L887:
	.loc 1 5965 9
	ldrsb	r3, [sp, #15]
.L888:
	.loc 1 5966 1 discriminator 1
	mov	r0, r3
	add	sp, sp, #16
.LCFI350:
	@ sp needed
	pop	{r4, pc}
.L890:
	.align	2
.L889:
	.word	p_bmg160
.LFE116:
	.size	bmg160_set_fifo_data_select, .-bmg160_set_fifo_data_select
	.section	.text.bmg160_get_power_mode,"ax",%progbits
	.align	1
	.global	bmg160_get_power_mode
	.syntax unified
	.thumb
	.thumb_func
	.fpu fpv4-sp-d16
	.type	bmg160_get_power_mode, %function
bmg160_get_power_mode:
.LFB117:
	.loc 1 5990 1
	@ args = 0, pretend = 0, frame = 16
	@ frame_needed = 0, uses_anonymous_args = 0
	push	{r4, lr}
.LCFI351:
	sub	sp, sp, #16
.LCFI352:
	str	r0, [sp, #4]
	.loc 1 5992 5
	movs	r3, #255
	strb	r3, [sp, #15]
	.loc 1 5993 5
	movs	r3, #0
	strb	r3, [sp, #13]
	.loc 1 5994 5
	movs	r3, #0
	strb	r3, [sp, #12]
	.loc 1 5995 5
	movs	r3, #0
	strb	r3, [sp, #14]
	.loc 1 5997 15
	ldr	r3, .L901
	ldr	r3, [r3]
	.loc 1 5997 5
	cmp	r3, #0
	bne	.L892
	.loc 1 5998 10
	mvn	r3, #126
	b	.L900
.L892:
	.loc 1 6001 20
	ldr	r3, .L901
	ldr	r3, [r3]
	ldr	r4, [r3, #12]
	.loc 1 6001 39
	ldr	r3, .L901
	ldr	r3, [r3]
	.loc 1 6001 12
	ldrb	r0, [r3, #1]	@ zero_extendqisi2
	add	r2, sp, #13
	movs	r3, #1
	movs	r1, #17
	blx	r4
.LVL250:
	mov	r3, r0
	strb	r3, [sp, #15]
	.loc 1 6004 21
	ldr	r3, .L901
	ldr	r3, [r3]
	ldr	r4, [r3, #12]
	.loc 1 6004 40
	ldr	r3, .L901
	ldr	r3, [r3]
	.loc 1 6004 13
	ldrb	r0, [r3, #1]	@ zero_extendqisi2
	add	r2, sp, #12
	movs	r3, #1
	movs	r1, #18
	blx	r4
.LVL251:
	mov	r3, r0
	uxtb	r2, r3
	.loc 1 6004 10
	ldrb	r3, [sp, #15]	@ zero_extendqisi2
	add	r3, r3, r2
	uxtb	r3, r3
	strb	r3, [sp, #15]
	.loc 1 6007 26
	ldrb	r3, [sp, #13]	@ zero_extendqisi2
	asrs	r3, r3, #5
	uxtb	r3, r3
	and	r3, r3, #5
	uxtb	r3, r3
	.loc 1 6007 9
	strb	r3, [sp, #13]
	.loc 1 6008 26
	ldrb	r3, [sp, #12]	@ zero_extendqisi2
	asrs	r3, r3, #6
	uxtb	r3, r3
	.loc 1 6008 9
	and	r3, r3, #1
	strb	r3, [sp, #14]
	.loc 1 6009 26
	ldrb	r3, [sp, #12]	@ zero_extendqisi2
	lsrs	r3, r3, #7
	uxtb	r3, r3
	.loc 1 6009 9
	strb	r3, [sp, #12]
	.loc 1 6010 6
	ldrb	r3, [sp, #14]	@ zero_extendqisi2
	cmp	r3, #1
	bne	.L894
	.loc 1 6011 21
	ldr	r3, [sp, #4]
	movs	r2, #4
	strb	r2, [r3]
	b	.L895
.L894:
	.loc 1 6013 15
	ldrb	r3, [sp, #13]	@ zero_extendqisi2
	.loc 1 6013 7
	cmp	r3, #0
	bne	.L896
	.loc 1 6013 34 discriminator 1
	ldrb	r3, [sp, #12]	@ zero_extendqisi2
	.loc 1 6013 24 discriminator 1
	cmp	r3, #0
	bne	.L896
	.loc 1 6014 22
	ldr	r3, [sp, #4]
	movs	r2, #0
	strb	r2, [r3]
	b	.L895
.L896:
	.loc 1 6016 16
	ldrb	r3, [sp, #13]	@ zero_extendqisi2
	.loc 1 6016 8
	cmp	r3, #1
	beq	.L897
	.loc 1 6016 35 discriminator 1
	ldrb	r3, [sp, #13]	@ zero_extendqisi2
	.loc 1 6016 25 discriminator 1
	cmp	r3, #5
	bne	.L898
.L897:
	.loc 1 6017 23
	ldr	r3, [sp, #4]
	movs	r2, #1
	strb	r2, [r3]
	b	.L895
.L898:
	.loc 1 6020 17
	ldrb	r3, [sp, #13]	@ zero_extendqisi2
	.loc 1 6020 9
	cmp	r3, #4
	bne	.L899
	.loc 1 6021 13 discriminator 1
	ldrb	r3, [sp, #12]	@ zero_extendqisi2
	.loc 1 6020 26 discriminator 1
	cmp	r3, #0
	bne	.L899
	.loc 1 6022 24
	ldr	r3, [sp, #4]
	movs	r2, #2
	strb	r2, [r3]
	b	.L895
.L899:
	.loc 1 6025 17
	ldrb	r3, [sp, #13]	@ zero_extendqisi2
	.loc 1 6025 9
	cmp	r3, #4
	bne	.L895
	.loc 1 6026 14 discriminator 1
	ldrb	r3, [sp, #12]	@ zero_extendqisi2
	.loc 1 6025 26 discriminator 1
	cmp	r3, #1
	bne	.L895
	.loc 1 6027 25
	ldr	r3, [sp, #4]
	movs	r2, #3
	strb	r2, [r3]
.L895:
	.loc 1 6034 9
	ldrsb	r3, [sp, #15]
.L900:
	.loc 1 6035 1 discriminator 1
	mov	r0, r3
	add	sp, sp, #16
.LCFI353:
	@ sp needed
	pop	{r4, pc}
.L902:
	.align	2
.L901:
	.word	p_bmg160
.LFE117:
	.size	bmg160_get_power_mode, .-bmg160_get_power_mode
	.section	.text.bmg160_set_power_mode,"ax",%progbits
	.align	1
	.global	bmg160_set_power_mode
	.syntax unified
	.thumb
	.thumb_func
	.fpu fpv4-sp-d16
	.type	bmg160_set_power_mode, %function
bmg160_set_power_mode:
.LFB118:
	.loc 1 6059 1
	@ args = 0, pretend = 0, frame = 16
	@ frame_needed = 0, uses_anonymous_args = 0
	push	{r4, lr}
.LCFI354:
	sub	sp, sp, #16
.LCFI355:
	mov	r3, r0
	strb	r3, [sp, #7]
	.loc 1 6061 5
	movs	r3, #255
	strb	r3, [sp, #15]
	.loc 1 6062 5
	movs	r3, #0
	strb	r3, [sp, #14]
	.loc 1 6063 5
	movs	r3, #0
	strb	r3, [sp, #13]
	.loc 1 6064 5
	movs	r3, #0
	strb	r3, [sp, #12]
	.loc 1 6065 5
	movs	r3, #0
	strb	r3, [sp, #11]
	.loc 1 6066 5
	movs	r3, #0
	strb	r3, [sp, #10]
	.loc 1 6068 15
	ldr	r3, .L916
	ldr	r3, [r3]
	.loc 1 6068 5
	cmp	r3, #0
	bne	.L904
	.loc 1 6069 10
	mvn	r3, #126
	b	.L915
.L904:
	.loc 1 6071 6
	ldrb	r3, [sp, #7]	@ zero_extendqisi2
	cmp	r3, #4
	bhi	.L906
	.loc 1 6073 21
	ldr	r3, .L916
	ldr	r3, [r3]
	ldr	r4, [r3, #12]
	.loc 1 6073 40
	ldr	r3, .L916
	ldr	r3, [r3]
	.loc 1 6073 13
	ldrb	r0, [r3, #1]	@ zero_extendqisi2
	add	r2, sp, #14
	movs	r3, #1
	movs	r1, #17
	blx	r4
.LVL252:
	mov	r3, r0
	strb	r3, [sp, #15]
	.loc 1 6077 22
	ldr	r3, .L916
	ldr	r3, [r3]
	ldr	r4, [r3, #12]
	.loc 1 6077 41
	ldr	r3, .L916
	ldr	r3, [r3]
	.loc 1 6077 14
	ldrb	r0, [r3, #1]	@ zero_extendqisi2
	add	r2, sp, #13
	movs	r3, #1
	movs	r1, #18
	blx	r4
.LVL253:
	mov	r3, r0
	uxtb	r2, r3
	.loc 1 6077 11
	ldrb	r3, [sp, #15]	@ zero_extendqisi2
	add	r3, r3, r2
	uxtb	r3, r3
	strb	r3, [sp, #15]
	.loc 1 6081 4
	ldrb	r3, [sp, #7]	@ zero_extendqisi2
	cmp	r3, #4
	bhi	.L914
	adr	r2, .L909
	ldr	pc, [r2, r3, lsl #2]
	.p2align 2
.L909:
	.word	.L913+1
	.word	.L912+1
	.word	.L911+1
	.word	.L910+1
	.word	.L908+1
	.p2align 1
.L913:
	.loc 1 6083 29
	ldrb	r3, [sp, #14]	@ zero_extendqisi2
	and	r3, r3, #95
	uxtb	r3, r3
	.loc 1 6083 11
	strb	r3, [sp, #14]
	.loc 1 6085 29
	ldrb	r3, [sp, #13]	@ zero_extendqisi2
	and	r3, r3, #127
	uxtb	r3, r3
	.loc 1 6085 11
	strb	r3, [sp, #13]
	.loc 1 6088 29
	ldrb	r3, [sp, #13]	@ zero_extendqisi2
	bic	r3, r3, #64
	uxtb	r3, r3
	.loc 1 6088 11
	strb	r3, [sp, #12]
	.loc 1 6091 23
	ldr	r3, .L916
	ldr	r3, [r3]
	ldr	r4, [r3, #8]
	.loc 1 6091 43
	ldr	r3, .L916
	ldr	r3, [r3]
	.loc 1 6091 15
	ldrb	r0, [r3, #1]	@ zero_extendqisi2
	add	r2, sp, #14
	movs	r3, #1
	movs	r1, #17
	blx	r4
.LVL254:
	mov	r3, r0
	uxtb	r2, r3
	.loc 1 6091 12
	ldrb	r3, [sp, #15]	@ zero_extendqisi2
	add	r3, r3, r2
	uxtb	r3, r3
	strb	r3, [sp, #15]
	.loc 1 6095 12
	ldr	r3, .L916
	ldr	r3, [r3]
	ldr	r3, [r3, #16]
	.loc 1 6095 4
	movs	r0, #1
	blx	r3
.LVL255:
	.loc 1 6098 22
	ldr	r3, .L916
	ldr	r3, [r3]
	ldr	r4, [r3, #8]
	.loc 1 6098 42
	ldr	r3, .L916
	ldr	r3, [r3]
	.loc 1 6098 14
	ldrb	r0, [r3, #1]	@ zero_extendqisi2
	add	r2, sp, #12
	movs	r3, #1
	movs	r1, #18
	blx	r4
.LVL256:
	mov	r3, r0
	uxtb	r2, r3
	.loc 1 6098 11
	ldrb	r3, [sp, #15]	@ zero_extendqisi2
	add	r3, r3, r2
	uxtb	r3, r3
	strb	r3, [sp, #15]
	.loc 1 6102 5
	b	.L914
.L912:
	.loc 1 6104 20
	ldrb	r3, [sp, #14]	@ zero_extendqisi2
	sxtb	r3, r3
	and	r3, r3, #95
	sxtb	r3, r3
	.loc 1 6104 29
	orr	r3, r3, #32
	sxtb	r3, r3
	uxtb	r3, r3
	.loc 1 6104 11
	strb	r3, [sp, #14]
	.loc 1 6107 29
	ldrb	r3, [sp, #13]	@ zero_extendqisi2
	and	r3, r3, #127
	uxtb	r3, r3
	.loc 1 6107 11
	strb	r3, [sp, #13]
	.loc 1 6110 29
	ldrb	r3, [sp, #13]	@ zero_extendqisi2
	bic	r3, r3, #64
	uxtb	r3, r3
	.loc 1 6110 11
	strb	r3, [sp, #12]
	.loc 1 6113 23
	ldr	r3, .L916
	ldr	r3, [r3]
	ldr	r4, [r3, #8]
	.loc 1 6113 43
	ldr	r3, .L916
	ldr	r3, [r3]
	.loc 1 6113 15
	ldrb	r0, [r3, #1]	@ zero_extendqisi2
	add	r2, sp, #14
	movs	r3, #1
	movs	r1, #17
	blx	r4
.LVL257:
	mov	r3, r0
	uxtb	r2, r3
	.loc 1 6113 12
	ldrb	r3, [sp, #15]	@ zero_extendqisi2
	add	r3, r3, r2
	uxtb	r3, r3
	strb	r3, [sp, #15]
	.loc 1 6117 12
	ldr	r3, .L916
	ldr	r3, [r3]
	ldr	r3, [r3, #16]
	.loc 1 6117 4
	movs	r0, #1
	blx	r3
.LVL258:
	.loc 1 6120 22
	ldr	r3, .L916
	ldr	r3, [r3]
	ldr	r4, [r3, #8]
	.loc 1 6120 42
	ldr	r3, .L916
	ldr	r3, [r3]
	.loc 1 6120 14
	ldrb	r0, [r3, #1]	@ zero_extendqisi2
	add	r2, sp, #12
	movs	r3, #1
	movs	r1, #18
	blx	r4
.LVL259:
	mov	r3, r0
	uxtb	r2, r3
	.loc 1 6120 11
	ldrb	r3, [sp, #15]	@ zero_extendqisi2
	add	r3, r3, r2
	uxtb	r3, r3
	strb	r3, [sp, #15]
	.loc 1 6124 5
	b	.L914
.L911:
	.loc 1 6126 20
	ldrb	r3, [sp, #14]	@ zero_extendqisi2
	sxtb	r3, r3
	and	r3, r3, #95
	sxtb	r3, r3
	.loc 1 6126 29
	orn	r3, r3, #127
	sxtb	r3, r3
	uxtb	r3, r3
	.loc 1 6126 11
	strb	r3, [sp, #14]
	.loc 1 6128 29
	ldrb	r3, [sp, #13]	@ zero_extendqisi2
	and	r3, r3, #127
	uxtb	r3, r3
	.loc 1 6128 11
	strb	r3, [sp, #13]
	.loc 1 6131 29
	ldrb	r3, [sp, #13]	@ zero_extendqisi2
	bic	r3, r3, #64
	uxtb	r3, r3
	.loc 1 6131 11
	strb	r3, [sp, #12]
	.loc 1 6134 23
	ldr	r3, .L916
	ldr	r3, [r3]
	ldr	r4, [r3, #8]
	.loc 1 6134 43
	ldr	r3, .L916
	ldr	r3, [r3]
	.loc 1 6134 15
	ldrb	r0, [r3, #1]	@ zero_extendqisi2
	add	r2, sp, #14
	movs	r3, #1
	movs	r1, #17
	blx	r4
.LVL260:
	mov	r3, r0
	uxtb	r2, r3
	.loc 1 6134 12
	ldrb	r3, [sp, #15]	@ zero_extendqisi2
	add	r3, r3, r2
	uxtb	r3, r3
	strb	r3, [sp, #15]
	.loc 1 6138 12
	ldr	r3, .L916
	ldr	r3, [r3]
	ldr	r3, [r3, #16]
	.loc 1 6138 4
	movs	r0, #1
	blx	r3
.LVL261:
	.loc 1 6141 22
	ldr	r3, .L916
	ldr	r3, [r3]
	ldr	r4, [r3, #8]
	.loc 1 6141 42
	ldr	r3, .L916
	ldr	r3, [r3]
	.loc 1 6141 14
	ldrb	r0, [r3, #1]	@ zero_extendqisi2
	add	r2, sp, #12
	movs	r3, #1
	movs	r1, #18
	blx	r4
.LVL262:
	mov	r3, r0
	uxtb	r2, r3
	.loc 1 6141 11
	ldrb	r3, [sp, #15]	@ zero_extendqisi2
	add	r3, r3, r2
	uxtb	r3, r3
	strb	r3, [sp, #15]
	.loc 1 6145 5
	b	.L914
.L910:
	.loc 1 6147 20
	ldrb	r3, [sp, #14]	@ zero_extendqisi2
	sxtb	r3, r3
	and	r3, r3, #95
	sxtb	r3, r3
	.loc 1 6147 29
	orn	r3, r3, #127
	sxtb	r3, r3
	uxtb	r3, r3
	.loc 1 6147 11
	strb	r3, [sp, #14]
	.loc 1 6149 29
	ldrb	r3, [sp, #13]	@ zero_extendqisi2
	orn	r3, r3, #127
	uxtb	r3, r3
	.loc 1 6149 11
	strb	r3, [sp, #13]
	.loc 1 6152 29
	ldrb	r3, [sp, #13]	@ zero_extendqisi2
	bic	r3, r3, #64
	uxtb	r3, r3
	.loc 1 6152 11
	strb	r3, [sp, #12]
	.loc 1 6155 23
	ldr	r3, .L916
	ldr	r3, [r3]
	ldr	r4, [r3, #8]
	.loc 1 6155 43
	ldr	r3, .L916
	ldr	r3, [r3]
	.loc 1 6155 15
	ldrb	r0, [r3, #1]	@ zero_extendqisi2
	add	r2, sp, #14
	movs	r3, #1
	movs	r1, #17
	blx	r4
.LVL263:
	mov	r3, r0
	uxtb	r2, r3
	.loc 1 6155 12
	ldrb	r3, [sp, #15]	@ zero_extendqisi2
	add	r3, r3, r2
	uxtb	r3, r3
	strb	r3, [sp, #15]
	.loc 1 6159 12
	ldr	r3, .L916
	ldr	r3, [r3]
	ldr	r3, [r3, #16]
	.loc 1 6159 4
	movs	r0, #1
	blx	r3
.LVL264:
	.loc 1 6162 22
	ldr	r3, .L916
	ldr	r3, [r3]
	ldr	r4, [r3, #8]
	.loc 1 6162 42
	ldr	r3, .L916
	ldr	r3, [r3]
	.loc 1 6162 14
	ldrb	r0, [r3, #1]	@ zero_extendqisi2
	add	r2, sp, #12
	movs	r3, #1
	movs	r1, #18
	blx	r4
.LVL265:
	mov	r3, r0
	uxtb	r2, r3
	.loc 1 6162 11
	ldrb	r3, [sp, #15]	@ zero_extendqisi2
	add	r3, r3, r2
	uxtb	r3, r3
	strb	r3, [sp, #15]
	.loc 1 6166 5
	b	.L914
.L917:
	.align	2
.L916:
	.word	p_bmg160
.L908:
	.loc 1 6170 5
	add	r3, sp, #10
	mov	r0, r3
	bl	bmg160_get_bw
	.loc 1 6171 5
	add	r3, sp, #11
	mov	r0, r3
	bl	bmg160_get_auto_sleep_durn
	.loc 1 6173 5
	ldrb	r3, [sp, #11]	@ zero_extendqisi2
	ldrb	r2, [sp, #10]	@ zero_extendqisi2
	mov	r1, r2
	mov	r0, r3
	bl	bmg160_set_auto_sleep_durn
	.loc 1 6175 23
	ldr	r3, .L918
	ldr	r3, [r3]
	ldr	r4, [r3, #12]
	.loc 1 6175 42
	ldr	r3, .L918
	ldr	r3, [r3]
	.loc 1 6175 15
	ldrb	r0, [r3, #1]	@ zero_extendqisi2
	add	r2, sp, #13
	movs	r3, #1
	movs	r1, #18
	blx	r4
.LVL266:
	mov	r3, r0
	uxtb	r2, r3
	.loc 1 6175 12
	ldrb	r3, [sp, #15]	@ zero_extendqisi2
	add	r3, r3, r2
	uxtb	r3, r3
	strb	r3, [sp, #15]
	.loc 1 6180 29
	ldrb	r3, [sp, #14]	@ zero_extendqisi2
	and	r3, r3, #95
	uxtb	r3, r3
	.loc 1 6180 11
	strb	r3, [sp, #14]
	.loc 1 6182 29
	ldrb	r3, [sp, #13]	@ zero_extendqisi2
	and	r3, r3, #127
	uxtb	r3, r3
	.loc 1 6182 11
	strb	r3, [sp, #13]
	.loc 1 6185 29
	ldrb	r3, [sp, #13]	@ zero_extendqisi2
	orr	r3, r3, #64
	uxtb	r3, r3
	.loc 1 6185 11
	strb	r3, [sp, #12]
	.loc 1 6188 23
	ldr	r3, .L918
	ldr	r3, [r3]
	ldr	r4, [r3, #8]
	.loc 1 6188 43
	ldr	r3, .L918
	ldr	r3, [r3]
	.loc 1 6188 15
	ldrb	r0, [r3, #1]	@ zero_extendqisi2
	add	r2, sp, #14
	movs	r3, #1
	movs	r1, #17
	blx	r4
.LVL267:
	mov	r3, r0
	uxtb	r2, r3
	.loc 1 6188 12
	ldrb	r3, [sp, #15]	@ zero_extendqisi2
	add	r3, r3, r2
	uxtb	r3, r3
	strb	r3, [sp, #15]
	.loc 1 6192 12
	ldr	r3, .L918
	ldr	r3, [r3]
	ldr	r3, [r3, #16]
	.loc 1 6192 4
	movs	r0, #1
	blx	r3
.LVL268:
	.loc 1 6195 22
	ldr	r3, .L918
	ldr	r3, [r3]
	ldr	r4, [r3, #8]
	.loc 1 6195 42
	ldr	r3, .L918
	ldr	r3, [r3]
	.loc 1 6195 14
	ldrb	r0, [r3, #1]	@ zero_extendqisi2
	add	r2, sp, #12
	movs	r3, #1
	movs	r1, #18
	blx	r4
.LVL269:
	mov	r3, r0
	uxtb	r2, r3
	.loc 1 6195 11
	ldrb	r3, [sp, #15]	@ zero_extendqisi2
	add	r3, r3, r2
	uxtb	r3, r3
	strb	r3, [sp, #15]
	.loc 1 6199 5
	b	.L914
.L906:
	.loc 1 6202 10
	movs	r3, #254
	strb	r3, [sp, #15]
.L914:
	.loc 1 6205 9
	ldrsb	r3, [sp, #15]
.L915:
	.loc 1 6206 1 discriminator 1
	mov	r0, r3
	add	sp, sp, #16
.LCFI356:
	@ sp needed
	pop	{r4, pc}
.L919:
	.align	2
.L918:
	.word	p_bmg160
.LFE118:
	.size	bmg160_set_power_mode, .-bmg160_set_power_mode
	.section	.text.bmg160_selftest,"ax",%progbits
	.align	1
	.global	bmg160_selftest
	.syntax unified
	.thumb
	.thumb_func
	.fpu fpv4-sp-d16
	.type	bmg160_selftest, %function
bmg160_selftest:
.LFB119:
	.loc 1 6226 2
	@ args = 0, pretend = 0, frame = 16
	@ frame_needed = 0, uses_anonymous_args = 0
	push	{r4, lr}
.LCFI357:
	sub	sp, sp, #16
.LCFI358:
	str	r0, [sp, #4]
	.loc 1 6228 5
	movs	r3, #255
	strb	r3, [sp, #15]
	.loc 1 6229 5
	movs	r3, #0
	strb	r3, [sp, #13]
	.loc 1 6230 5
	movs	r3, #0
	strb	r3, [sp, #14]
	.loc 1 6232 19
	ldr	r3, .L924
	ldr	r3, [r3]
	ldr	r4, [r3, #12]
	.loc 1 6232 38
	ldr	r3, .L924
	ldr	r3, [r3]
	.loc 1 6232 11
	ldrb	r0, [r3, #1]	@ zero_extendqisi2
	add	r2, sp, #13
	movs	r3, #1
	movs	r1, #60
	blx	r4
.LVL270:
	mov	r3, r0
	strb	r3, [sp, #15]
	.loc 1 6235 38
	ldrb	r3, [sp, #13]	@ zero_extendqisi2
	asrs	r3, r3, #4
	uxtb	r3, r3
	.loc 1 6235 13
	and	r3, r3, #1
	strb	r3, [sp, #14]
	.loc 1 6237 36
	ldrb	r3, [sp, #13]	@ zero_extendqisi2
	orr	r3, r3, #1
	uxtb	r3, r3
	.loc 1 6237 13
	strb	r3, [sp, #13]
	.loc 1 6240 20
	ldr	r3, .L924
	ldr	r3, [r3]
	ldr	r4, [r3, #8]
	.loc 1 6240 40
	ldr	r3, .L924
	ldr	r3, [r3]
	.loc 1 6240 12
	ldrb	r0, [r3, #1]	@ zero_extendqisi2
	add	r2, sp, #13
	movs	r3, #1
	movs	r1, #60
	blx	r4
.LVL271:
	mov	r3, r0
	uxtb	r2, r3
	.loc 1 6240 9
	ldrb	r3, [sp, #15]	@ zero_extendqisi2
	add	r3, r3, r2
	uxtb	r3, r3
	strb	r3, [sp, #15]
	.loc 1 6245 10
	ldr	r3, .L924
	ldr	r3, [r3]
	ldr	r3, [r3, #16]
	.loc 1 6245 2
	movs	r0, #10
	blx	r3
.LVL272:
	.loc 1 6248 20
	ldr	r3, .L924
	ldr	r3, [r3]
	ldr	r4, [r3, #12]
	.loc 1 6248 39
	ldr	r3, .L924
	ldr	r3, [r3]
	.loc 1 6248 12
	ldrb	r0, [r3, #1]	@ zero_extendqisi2
	add	r2, sp, #13
	movs	r3, #1
	movs	r1, #60
	blx	r4
.LVL273:
	mov	r3, r0
	uxtb	r2, r3
	.loc 1 6248 9
	ldrb	r3, [sp, #15]	@ zero_extendqisi2
	add	r3, r3, r2
	uxtb	r3, r3
	strb	r3, [sp, #15]
	.loc 1 6251 38
	ldrb	r3, [sp, #13]	@ zero_extendqisi2
	asrs	r3, r3, #2
	uxtb	r3, r3
	and	r3, r3, #1
	uxtb	r3, r3
	.loc 1 6251 13
	strb	r3, [sp, #13]
	.loc 1 6253 18
	ldrb	r3, [sp, #13]	@ zero_extendqisi2
	.loc 1 6253 5
	cmp	r3, #0
	bne	.L921
	.loc 1 6253 33 discriminator 1
	ldrb	r3, [sp, #14]	@ zero_extendqisi2
	cmp	r3, #1
	bne	.L921
	.loc 1 6255 16
	ldr	r3, [sp, #4]
	movs	r2, #0
	strb	r2, [r3]
	b	.L922
.L921:
	.loc 1 6257 16
	ldr	r3, [sp, #4]
	movs	r2, #1
	strb	r2, [r3]
.L922:
	.loc 1 6258 9
	ldrsb	r3, [sp, #15]
	.loc 1 6259 1
	mov	r0, r3
	add	sp, sp, #16
.LCFI359:
	@ sp needed
	pop	{r4, pc}
.L925:
	.align	2
.L924:
	.word	p_bmg160
.LFE119:
	.size	bmg160_selftest, .-bmg160_selftest
	.section	.text.bmg160_get_auto_sleep_durn,"ax",%progbits
	.align	1
	.global	bmg160_get_auto_sleep_durn
	.syntax unified
	.thumb
	.thumb_func
	.fpu fpv4-sp-d16
	.type	bmg160_get_auto_sleep_durn, %function
bmg160_get_auto_sleep_durn:
.LFB120:
	.loc 1 6285 1
	@ args = 0, pretend = 0, frame = 16
	@ frame_needed = 0, uses_anonymous_args = 0
	push	{r4, lr}
.LCFI360:
	sub	sp, sp, #16
.LCFI361:
	str	r0, [sp, #4]
	.loc 1 6287 5
	movs	r3, #255
	strb	r3, [sp, #15]
	.loc 1 6288 5
	movs	r3, #0
	strb	r3, [sp, #14]
	.loc 1 6290 15
	ldr	r3, .L930
	ldr	r3, [r3]
	.loc 1 6290 5
	cmp	r3, #0
	bne	.L927
	.loc 1 6291 10
	mvn	r3, #126
	b	.L929
.L927:
	.loc 1 6294 20
	ldr	r3, .L930
	ldr	r3, [r3]
	ldr	r4, [r3, #12]
	.loc 1 6294 39
	ldr	r3, .L930
	ldr	r3, [r3]
	.loc 1 6294 12
	ldrb	r0, [r3, #1]	@ zero_extendqisi2
	add	r2, sp, #14
	movs	r3, #1
	movs	r1, #18
	blx	r4
.LVL274:
	mov	r3, r0
	strb	r3, [sp, #15]
	.loc 1 6297 38
	ldrb	r3, [sp, #14]	@ zero_extendqisi2
	and	r3, r3, #7
	uxtb	r2, r3
	.loc 1 6297 14
	ldr	r3, [sp, #4]
	strb	r2, [r3]
	.loc 1 6300 9
	ldrsb	r3, [sp, #15]
.L929:
	.loc 1 6301 1 discriminator 1
	mov	r0, r3
	add	sp, sp, #16
.LCFI362:
	@ sp needed
	pop	{r4, pc}
.L931:
	.align	2
.L930:
	.word	p_bmg160
.LFE120:
	.size	bmg160_get_auto_sleep_durn, .-bmg160_get_auto_sleep_durn
	.section	.text.bmg160_set_auto_sleep_durn,"ax",%progbits
	.align	1
	.global	bmg160_set_auto_sleep_durn
	.syntax unified
	.thumb
	.thumb_func
	.fpu fpv4-sp-d16
	.type	bmg160_set_auto_sleep_durn, %function
bmg160_set_auto_sleep_durn:
.LFB121:
	.loc 1 6342 1
	@ args = 0, pretend = 0, frame = 16
	@ frame_needed = 0, uses_anonymous_args = 0
	push	{r4, lr}
.LCFI363:
	sub	sp, sp, #16
.LCFI364:
	mov	r3, r0
	mov	r2, r1
	strb	r3, [sp, #7]
	mov	r3, r2
	strb	r3, [sp, #6]
	.loc 1 6344 5
	movs	r3, #255
	strb	r3, [sp, #15]
	.loc 1 6345 4
	movs	r3, #0
	strb	r3, [sp, #13]
	.loc 1 6346 4
	movs	r3, #0
	strb	r3, [sp, #14]
	.loc 1 6348 14
	ldr	r3, .L968
	ldr	r3, [r3]
	.loc 1 6348 4
	cmp	r3, #0
	bne	.L933
	.loc 1 6349 9
	mvn	r3, #126
	b	.L966
.L933:
	.loc 1 6352 19
	ldr	r3, .L968
	ldr	r3, [r3]
	ldr	r4, [r3, #12]
	.loc 1 6352 38
	ldr	r3, .L968
	ldr	r3, [r3]
	.loc 1 6352 11
	ldrb	r0, [r3, #1]	@ zero_extendqisi2
	add	r2, sp, #13
	movs	r3, #1
	movs	r1, #18
	blx	r4
.LVL275:
	mov	r3, r0
	strb	r3, [sp, #15]
	.loc 1 6356 6
	ldrb	r3, [sp, #7]	@ zero_extendqisi2
	cmp	r3, #7
	bhi	.L935
	.loc 1 6357 4
	ldrb	r3, [sp, #6]	@ zero_extendqisi2
	cmp	r3, #7
	bhi	.L936
	adr	r2, .L938
	ldr	pc, [r2, r3, lsl #2]
	.p2align 2
.L938:
	.word	.L945+1
	.word	.L944+1
	.word	.L943+1
	.word	.L942+1
	.word	.L941+1
	.word	.L940+1
	.word	.L939+1
	.word	.L937+1
	.p2align 1
.L945:
	.loc 1 6359 8
	ldrb	r3, [sp, #7]	@ zero_extendqisi2
	cmp	r3, #1
	bls	.L946
	.loc 1 6361 28
	ldrb	r3, [sp, #7]
	strb	r3, [sp, #14]
	.loc 1 6366 5
	b	.L948
.L946:
	.loc 1 6364 28
	movs	r3, #1
	strb	r3, [sp, #14]
	.loc 1 6366 5
	b	.L948
.L944:
	.loc 1 6368 8
	ldrb	r3, [sp, #7]	@ zero_extendqisi2
	cmp	r3, #1
	bls	.L949
	.loc 1 6370 28
	ldrb	r3, [sp, #7]
	strb	r3, [sp, #14]
	.loc 1 6375 5
	b	.L948
.L949:
	.loc 1 6373 28
	movs	r3, #1
	strb	r3, [sp, #14]
	.loc 1 6375 5
	b	.L948
.L943:
	.loc 1 6377 8
	ldrb	r3, [sp, #7]	@ zero_extendqisi2
	cmp	r3, #1
	bls	.L951
	.loc 1 6379 28
	ldrb	r3, [sp, #7]
	strb	r3, [sp, #14]
	.loc 1 6384 5
	b	.L948
.L951:
	.loc 1 6382 28
	movs	r3, #1
	strb	r3, [sp, #14]
	.loc 1 6384 5
	b	.L948
.L942:
	.loc 1 6386 8
	ldrb	r3, [sp, #7]	@ zero_extendqisi2
	cmp	r3, #2
	bls	.L953
	.loc 1 6388 28
	ldrb	r3, [sp, #7]
	strb	r3, [sp, #14]
	.loc 1 6393 5
	b	.L948
.L953:
	.loc 1 6391 28
	movs	r3, #2
	strb	r3, [sp, #14]
	.loc 1 6393 5
	b	.L948
.L941:
	.loc 1 6395 8
	ldrb	r3, [sp, #7]	@ zero_extendqisi2
	cmp	r3, #4
	bls	.L955
	.loc 1 6397 28
	ldrb	r3, [sp, #7]
	strb	r3, [sp, #14]
	.loc 1 6402 5
	b	.L948
.L955:
	.loc 1 6400 28
	movs	r3, #4
	strb	r3, [sp, #14]
	.loc 1 6402 5
	b	.L948
.L940:
	.loc 1 6404 8
	ldrb	r3, [sp, #7]	@ zero_extendqisi2
	cmp	r3, #6
	bls	.L957
	.loc 1 6406 28
	ldrb	r3, [sp, #7]
	strb	r3, [sp, #14]
	.loc 1 6411 5
	b	.L948
.L957:
	.loc 1 6409 27
	movs	r3, #6
	strb	r3, [sp, #14]
	.loc 1 6411 5
	b	.L948
.L939:
	.loc 1 6413 8
	ldrb	r3, [sp, #7]	@ zero_extendqisi2
	cmp	r3, #4
	bls	.L959
	.loc 1 6415 28
	ldrb	r3, [sp, #7]
	strb	r3, [sp, #14]
	.loc 1 6420 5
	b	.L948
.L959:
	.loc 1 6418 28
	movs	r3, #4
	strb	r3, [sp, #14]
	.loc 1 6420 5
	b	.L948
.L937:
	.loc 1 6422 8
	ldrb	r3, [sp, #7]	@ zero_extendqisi2
	cmp	r3, #6
	bls	.L961
	.loc 1 6424 28
	ldrb	r3, [sp, #7]
	strb	r3, [sp, #14]
	.loc 1 6429 5
	b	.L948
.L961:
	.loc 1 6427 28
	movs	r3, #6
	strb	r3, [sp, #14]
	.loc 1 6429 5
	b	.L948
.L936:
	.loc 1 6431 7
	ldrb	r3, [sp, #7]	@ zero_extendqisi2
	cmp	r3, #1
	bls	.L963
	.loc 1 6433 27
	ldrb	r3, [sp, #7]
	strb	r3, [sp, #14]
	.loc 1 6438 5
	b	.L967
.L963:
	.loc 1 6436 27
	movs	r3, #1
	strb	r3, [sp, #14]
.L967:
	.loc 1 6438 5
	nop
.L948:
	.loc 1 6440 26
	ldrb	r3, [sp, #13]	@ zero_extendqisi2
	sxtb	r3, r3
	bic	r3, r3, #7
	sxtb	r2, r3
	.loc 1 6440 65
	ldrsb	r3, [sp, #14]
	and	r3, r3, #7
	sxtb	r3, r3
	.loc 1 6440 35
	orrs	r3, r3, r2
	sxtb	r3, r3
	uxtb	r3, r3
	.loc 1 6440 13
	strb	r3, [sp, #13]
	.loc 1 6443 21
	ldr	r3, .L968
	ldr	r3, [r3]
	ldr	r4, [r3, #8]
	.loc 1 6443 41
	ldr	r3, .L968
	ldr	r3, [r3]
	.loc 1 6443 13
	ldrb	r0, [r3, #1]	@ zero_extendqisi2
	add	r2, sp, #13
	movs	r3, #1
	movs	r1, #18
	blx	r4
.LVL276:
	mov	r3, r0
	uxtb	r2, r3
	.loc 1 6443 10
	ldrb	r3, [sp, #15]	@ zero_extendqisi2
	add	r3, r3, r2
	uxtb	r3, r3
	strb	r3, [sp, #15]
	b	.L965
.L935:
	.loc 1 6448 10
	movs	r3, #254
	strb	r3, [sp, #15]
.L965:
	.loc 1 6451 8
	ldrsb	r3, [sp, #15]
.L966:
	.loc 1 6452 1 discriminator 1
	mov	r0, r3
	add	sp, sp, #16
.LCFI365:
	@ sp needed
	pop	{r4, pc}
.L969:
	.align	2
.L968:
	.word	p_bmg160
.LFE121:
	.size	bmg160_set_auto_sleep_durn, .-bmg160_set_auto_sleep_durn
	.section	.text.bmg160_get_sleep_durn,"ax",%progbits
	.align	1
	.global	bmg160_get_sleep_durn
	.syntax unified
	.thumb
	.thumb_func
	.fpu fpv4-sp-d16
	.type	bmg160_get_sleep_durn, %function
bmg160_get_sleep_durn:
.LFB122:
	.loc 1 6479 1
	@ args = 0, pretend = 0, frame = 16
	@ frame_needed = 0, uses_anonymous_args = 0
