	.cpu cortex-m4
	.eabi_attribute 27, 1
	.eabi_attribute 28, 1
	.eabi_attribute 20, 1
	.eabi_attribute 21, 1
	.eabi_attribute 23, 3
	.eabi_attribute 24, 1
	.eabi_attribute 25, 1
	.eabi_attribute 26, 1
	.eabi_attribute 30, 6
	.eabi_attribute 34, 1
	.eabi_attribute 18, 4
	.file	"ControllerTask.c"
	.text
.Ltext0:
	.section	.text.sd_mutex_new,"ax",%progbits
	.align	1
	.syntax unified
	.thumb
	.thumb_func
	.fpu fpv4-sp-d16
	.type	sd_mutex_new, %function
sd_mutex_new:
.LFB153:
	.file 1 "../../../../../../components/softdevice/s132/headers/nrf_soc.h"
	.loc 1 393 101
	@ Naked Function: prologue and epilogue provided by programmer.
	@ args = 0, pretend = 0, frame = 0
	@ frame_needed = 0, uses_anonymous_args = 0
	.loc 1 393 103
	.syntax unified
@ 393 "../../../../../../components/softdevice/s132/headers/nrf_soc.h" 1
	svc #44
bx r14
@ 0 "" 2
	.loc 1 393 2
	.thumb
	.syntax unified
	nop
	mov	r0, r3
.LFE153:
	.size	sd_mutex_new, .-sd_mutex_new
	.section	.text.sd_mutex_acquire,"ax",%progbits
	.align	1
	.syntax unified
	.thumb
	.thumb_func
	.fpu fpv4-sp-d16
	.type	sd_mutex_acquire, %function
sd_mutex_acquire:
.LFB154:
	.loc 1 402 105
	@ Naked Function: prologue and epilogue provided by programmer.
	@ args = 0, pretend = 0, frame = 0
	@ frame_needed = 0, uses_anonymous_args = 0
	.loc 1 402 107
	.syntax unified
@ 402 "../../../../../../components/softdevice/s132/headers/nrf_soc.h" 1
	svc #45
bx r14
@ 0 "" 2
	.loc 1 402 2
	.thumb
	.syntax unified
	nop
	mov	r0, r3
.LFE154:
	.size	sd_mutex_acquire, .-sd_mutex_acquire
	.section	.text.sd_mutex_release,"ax",%progbits
	.align	1
	.syntax unified
	.thumb
	.thumb_func
	.fpu fpv4-sp-d16
	.type	sd_mutex_release, %function
sd_mutex_release:
.LFB155:
	.loc 1 410 105
	@ Naked Function: prologue and epilogue provided by programmer.
	@ args = 0, pretend = 0, frame = 0
	@ frame_needed = 0, uses_anonymous_args = 0
	.loc 1 410 107
	.syntax unified
@ 410 "../../../../../../components/softdevice/s132/headers/nrf_soc.h" 1
	svc #46
bx r14
@ 0 "" 2
	.loc 1 410 2
	.thumb
	.syntax unified
	nop
	mov	r0, r3
.LFE155:
	.size	sd_mutex_release, .-sd_mutex_release
	.section	.text.sd_rand_application_pool_capacity_get,"ax",%progbits
	.align	1
	.syntax unified
	.thumb
	.thumb_func
	.fpu fpv4-sp-d16
	.type	sd_rand_application_pool_capacity_get, %function
sd_rand_application_pool_capacity_get:
.LFB156:
	.loc 1 418 130
	@ Naked Function: prologue and epilogue provided by programmer.
	@ args = 0, pretend = 0, frame = 0
	@ frame_needed = 0, uses_anonymous_args = 0
	.loc 1 418 132
	.syntax unified
@ 418 "../../../../../../components/softdevice/s132/headers/nrf_soc.h" 1
	svc #47
bx r14
@ 0 "" 2
	.loc 1 418 2
	.thumb
	.syntax unified
	nop
	mov	r0, r3
.LFE156:
	.size	sd_rand_application_pool_capacity_get, .-sd_rand_application_pool_capacity_get
	.section	.text.sd_rand_application_bytes_available_get,"ax",%progbits
	.align	1
	.syntax unified
	.thumb
	.thumb_func
	.fpu fpv4-sp-d16
	.type	sd_rand_application_bytes_available_get, %function
sd_rand_application_bytes_available_get:
.LFB157:
	.loc 1 426 134
	@ Naked Function: prologue and epilogue provided by programmer.
	@ args = 0, pretend = 0, frame = 0
	@ frame_needed = 0, uses_anonymous_args = 0
	.loc 1 426 136
	.syntax unified
@ 426 "../../../../../../components/softdevice/s132/headers/nrf_soc.h" 1
	svc #48
bx r14
@ 0 "" 2
	.loc 1 426 2
	.thumb
	.syntax unified
	nop
	mov	r0, r3
.LFE157:
	.size	sd_rand_application_bytes_available_get, .-sd_rand_application_bytes_available_get
	.section	.text.sd_rand_application_vector_get,"ax",%progbits
	.align	1
	.syntax unified
	.thumb
	.thumb_func
	.fpu fpv4-sp-d16
	.type	sd_rand_application_vector_get, %function
sd_rand_application_vector_get:
.LFB158:
	.loc 1 436 130
	@ Naked Function: prologue and epilogue provided by programmer.
	@ args = 0, pretend = 0, frame = 0
	@ frame_needed = 0, uses_anonymous_args = 0
	.loc 1 436 132
	.syntax unified
@ 436 "../../../../../../components/softdevice/s132/headers/nrf_soc.h" 1
	svc #49
bx r14
@ 0 "" 2
	.loc 1 436 2
	.thumb
	.syntax unified
	nop
	mov	r0, r3
.LFE158:
	.size	sd_rand_application_vector_get, .-sd_rand_application_vector_get
	.section	.text.sd_power_reset_reason_get,"ax",%progbits
	.align	1
	.syntax unified
	.thumb
	.thumb_func
	.fpu fpv4-sp-d16
	.type	sd_power_reset_reason_get, %function
sd_power_reset_reason_get:
.LFB159:
	.loc 1 444 118
	@ Naked Function: prologue and epilogue provided by programmer.
	@ args = 0, pretend = 0, frame = 0
	@ frame_needed = 0, uses_anonymous_args = 0
	.loc 1 444 120
	.syntax unified
@ 444 "../../../../../../components/softdevice/s132/headers/nrf_soc.h" 1
	svc #52
bx r14
@ 0 "" 2
	.loc 1 444 2
	.thumb
	.syntax unified
	nop
	mov	r0, r3
.LFE159:
	.size	sd_power_reset_reason_get, .-sd_power_reset_reason_get
	.section	.text.sd_power_reset_reason_clr,"ax",%progbits
	.align	1
	.syntax unified
	.thumb
	.thumb_func
	.fpu fpv4-sp-d16
	.type	sd_power_reset_reason_clr, %function
sd_power_reset_reason_clr:
.LFB160:
	.loc 1 452 122
	@ Naked Function: prologue and epilogue provided by programmer.
	@ args = 0, pretend = 0, frame = 0
	@ frame_needed = 0, uses_anonymous_args = 0
	.loc 1 452 124
	.syntax unified
@ 452 "../../../../../../components/softdevice/s132/headers/nrf_soc.h" 1
	svc #53
bx r14
@ 0 "" 2
	.loc 1 452 2
	.thumb
	.syntax unified
	nop
	mov	r0, r3
.LFE160:
	.size	sd_power_reset_reason_clr, .-sd_power_reset_reason_clr
	.section	.text.sd_power_mode_set,"ax",%progbits
	.align	1
	.syntax unified
	.thumb
	.thumb_func
	.fpu fpv4-sp-d16
	.type	sd_power_mode_set, %function
sd_power_mode_set:
.LFB161:
	.loc 1 461 103
	@ Naked Function: prologue and epilogue provided by programmer.
	@ args = 0, pretend = 0, frame = 0
	@ frame_needed = 0, uses_anonymous_args = 0
	.loc 1 461 105
	.syntax unified
@ 461 "../../../../../../components/softdevice/s132/headers/nrf_soc.h" 1
	svc #50
bx r14
@ 0 "" 2
	.loc 1 461 2
	.thumb
	.syntax unified
	nop
	mov	r0, r3
.LFE161:
	.size	sd_power_mode_set, .-sd_power_mode_set
	.section	.text.sd_power_system_off,"ax",%progbits
	.align	1
	.syntax unified
	.thumb
	.thumb_func
	.fpu fpv4-sp-d16
	.type	sd_power_system_off, %function
sd_power_system_off:
.LFB162:
	.loc 1 467 91
	@ Naked Function: prologue and epilogue provided by programmer.
	@ args = 0, pretend = 0, frame = 0
	@ frame_needed = 0, uses_anonymous_args = 0
	.loc 1 467 93
	.syntax unified
@ 467 "../../../../../../components/softdevice/s132/headers/nrf_soc.h" 1
	svc #51
bx r14
@ 0 "" 2
	.loc 1 467 2
	.thumb
	.syntax unified
	nop
	mov	r0, r3
.LFE162:
	.size	sd_power_system_off, .-sd_power_system_off
	.section	.text.sd_power_pof_enable,"ax",%progbits
	.align	1
	.syntax unified
	.thumb
	.thumb_func
	.fpu fpv4-sp-d16
	.type	sd_power_pof_enable, %function
sd_power_pof_enable:
.LFB163:
	.loc 1 478 105
	@ Naked Function: prologue and epilogue provided by programmer.
	@ args = 0, pretend = 0, frame = 0
	@ frame_needed = 0, uses_anonymous_args = 0
	.loc 1 478 107
	.syntax unified
@ 478 "../../../../../../components/softdevice/s132/headers/nrf_soc.h" 1
	svc #54
bx r14
@ 0 "" 2
	.loc 1 478 2
	.thumb
	.syntax unified
	nop
	mov	r0, r3
.LFE163:
	.size	sd_power_pof_enable, .-sd_power_pof_enable
	.section	.text.sd_power_pof_threshold_set,"ax",%progbits
	.align	1
	.syntax unified
	.thumb
	.thumb_func
	.fpu fpv4-sp-d16
	.type	sd_power_pof_threshold_set, %function
sd_power_pof_threshold_set:
.LFB164:
	.loc 1 489 111
	@ Naked Function: prologue and epilogue provided by programmer.
	@ args = 0, pretend = 0, frame = 0
	@ frame_needed = 0, uses_anonymous_args = 0
	.loc 1 489 113
	.syntax unified
@ 489 "../../../../../../components/softdevice/s132/headers/nrf_soc.h" 1
	svc #55
bx r14
@ 0 "" 2
	.loc 1 489 2
	.thumb
	.syntax unified
	nop
	mov	r0, r3
.LFE164:
	.size	sd_power_pof_threshold_set, .-sd_power_pof_threshold_set
	.section	.text.sd_power_ram_power_set,"ax",%progbits
	.align	1
	.syntax unified
	.thumb
	.thumb_func
	.fpu fpv4-sp-d16
	.type	sd_power_ram_power_set, %function
sd_power_ram_power_set:
.LFB165:
	.loc 1 499 126
	@ Naked Function: prologue and epilogue provided by programmer.
	@ args = 0, pretend = 0, frame = 0
	@ frame_needed = 0, uses_anonymous_args = 0
	.loc 1 499 128
	.syntax unified
@ 499 "../../../../../../components/softdevice/s132/headers/nrf_soc.h" 1
	svc #57
bx r14
@ 0 "" 2
	.loc 1 499 2
	.thumb
	.syntax unified
	nop
	mov	r0, r3
.LFE165:
	.size	sd_power_ram_power_set, .-sd_power_ram_power_set
	.section	.text.sd_power_ram_power_clr,"ax",%progbits
	.align	1
	.syntax unified
	.thumb
	.thumb_func
	.fpu fpv4-sp-d16
	.type	sd_power_ram_power_clr, %function
sd_power_ram_power_clr:
.LFB166:
	.loc 1 508 126
	@ Naked Function: prologue and epilogue provided by programmer.
	@ args = 0, pretend = 0, frame = 0
	@ frame_needed = 0, uses_anonymous_args = 0
	.loc 1 508 128
	.syntax unified
@ 508 "../../../../../../components/softdevice/s132/headers/nrf_soc.h" 1
	svc #58
bx r14
@ 0 "" 2
	.loc 1 508 2
	.thumb
	.syntax unified
	nop
	mov	r0, r3
.LFE166:
	.size	sd_power_ram_power_clr, .-sd_power_ram_power_clr
	.section	.text.sd_power_ram_power_get,"ax",%progbits
	.align	1
	.syntax unified
	.thumb
	.thumb_func
	.fpu fpv4-sp-d16
	.type	sd_power_ram_power_get, %function
sd_power_ram_power_get:
.LFB167:
	.loc 1 517 127
	@ Naked Function: prologue and epilogue provided by programmer.
	@ args = 0, pretend = 0, frame = 0
	@ frame_needed = 0, uses_anonymous_args = 0
	.loc 1 517 129
	.syntax unified
@ 517 "../../../../../../components/softdevice/s132/headers/nrf_soc.h" 1
	svc #59
bx r14
@ 0 "" 2
	.loc 1 517 2
	.thumb
	.syntax unified
	nop
	mov	r0, r3
.LFE167:
	.size	sd_power_ram_power_get, .-sd_power_ram_power_get
	.section	.text.sd_power_gpregret_set,"ax",%progbits
	.align	1
	.syntax unified
	.thumb
	.thumb_func
	.fpu fpv4-sp-d16
	.type	sd_power_gpregret_set, %function
sd_power_gpregret_set:
.LFB168:
	.loc 1 526 132
	@ Naked Function: prologue and epilogue provided by programmer.
	@ args = 0, pretend = 0, frame = 0
	@ frame_needed = 0, uses_anonymous_args = 0
	.loc 1 526 134
	.syntax unified
@ 526 "../../../../../../components/softdevice/s132/headers/nrf_soc.h" 1
	svc #60
bx r14
@ 0 "" 2
	.loc 1 526 2
	.thumb
	.syntax unified
	nop
	mov	r0, r3
.LFE168:
	.size	sd_power_gpregret_set, .-sd_power_gpregret_set
	.section	.text.sd_power_gpregret_clr,"ax",%progbits
	.align	1
	.syntax unified
	.thumb
	.thumb_func
	.fpu fpv4-sp-d16
	.type	sd_power_gpregret_clr, %function
sd_power_gpregret_clr:
.LFB169:
	.loc 1 535 132
	@ Naked Function: prologue and epilogue provided by programmer.
	@ args = 0, pretend = 0, frame = 0
	@ frame_needed = 0, uses_anonymous_args = 0
	.loc 1 535 134
	.syntax unified
@ 535 "../../../../../../components/softdevice/s132/headers/nrf_soc.h" 1
	svc #61
bx r14
@ 0 "" 2
	.loc 1 535 2
	.thumb
	.syntax unified
	nop
	mov	r0, r3
.LFE169:
	.size	sd_power_gpregret_clr, .-sd_power_gpregret_clr
	.section	.text.sd_power_gpregret_get,"ax",%progbits
	.align	1
	.syntax unified
	.thumb
	.thumb_func
	.fpu fpv4-sp-d16
	.type	sd_power_gpregret_get, %function
sd_power_gpregret_get:
.LFB170:
	.loc 1 544 131
	@ Naked Function: prologue and epilogue provided by programmer.
	@ args = 0, pretend = 0, frame = 0
	@ frame_needed = 0, uses_anonymous_args = 0
	.loc 1 544 133
	.syntax unified
@ 544 "../../../../../../components/softdevice/s132/headers/nrf_soc.h" 1
	svc #62
bx r14
@ 0 "" 2
	.loc 1 544 2
	.thumb
	.syntax unified
	nop
	mov	r0, r3
.LFE170:
	.size	sd_power_gpregret_get, .-sd_power_gpregret_get
	.section	.text.sd_power_dcdc_mode_set,"ax",%progbits
	.align	1
	.syntax unified
	.thumb
	.thumb_func
	.fpu fpv4-sp-d16
	.type	sd_power_dcdc_mode_set, %function
sd_power_dcdc_mode_set:
.LFB171:
	.loc 1 553 107
	@ Naked Function: prologue and epilogue provided by programmer.
	@ args = 0, pretend = 0, frame = 0
	@ frame_needed = 0, uses_anonymous_args = 0
	.loc 1 553 109
	.syntax unified
@ 553 "../../../../../../components/softdevice/s132/headers/nrf_soc.h" 1
	svc #63
bx r14
@ 0 "" 2
	.loc 1 553 2
	.thumb
	.syntax unified
	nop
	mov	r0, r3
.LFE171:
	.size	sd_power_dcdc_mode_set, .-sd_power_dcdc_mode_set
	.section	.text.sd_clock_hfclk_request,"ax",%progbits
	.align	1
	.syntax unified
	.thumb
	.thumb_func
	.fpu fpv4-sp-d16
	.type	sd_clock_hfclk_request, %function
sd_clock_hfclk_request:
.LFB172:
	.loc 1 566 94
	@ Naked Function: prologue and epilogue provided by programmer.
	@ args = 0, pretend = 0, frame = 0
	@ frame_needed = 0, uses_anonymous_args = 0
	.loc 1 566 96
	.syntax unified
@ 566 "../../../../../../components/softdevice/s132/headers/nrf_soc.h" 1
	svc #66
bx r14
@ 0 "" 2
	.loc 1 566 2
	.thumb
	.syntax unified
	nop
	mov	r0, r3
.LFE172:
	.size	sd_clock_hfclk_request, .-sd_clock_hfclk_request
	.section	.text.sd_clock_hfclk_release,"ax",%progbits
	.align	1
	.syntax unified
	.thumb
	.thumb_func
	.fpu fpv4-sp-d16
	.type	sd_clock_hfclk_release, %function
sd_clock_hfclk_release:
.LFB173:
	.loc 1 577 94
	@ Naked Function: prologue and epilogue provided by programmer.
	@ args = 0, pretend = 0, frame = 0
	@ frame_needed = 0, uses_anonymous_args = 0
	.loc 1 577 96
	.syntax unified
@ 577 "../../../../../../components/softdevice/s132/headers/nrf_soc.h" 1
	svc #67
bx r14
@ 0 "" 2
	.loc 1 577 2
	.thumb
	.syntax unified
	nop
	mov	r0, r3
.LFE173:
	.size	sd_clock_hfclk_release, .-sd_clock_hfclk_release
	.section	.text.sd_clock_hfclk_is_running,"ax",%progbits
	.align	1
	.syntax unified
	.thumb
	.thumb_func
	.fpu fpv4-sp-d16
	.type	sd_clock_hfclk_is_running, %function
sd_clock_hfclk_is_running:
.LFB174:
	.loc 1 588 116
	@ Naked Function: prologue and epilogue provided by programmer.
	@ args = 0, pretend = 0, frame = 0
	@ frame_needed = 0, uses_anonymous_args = 0
	.loc 1 588 118
	.syntax unified
@ 588 "../../../../../../components/softdevice/s132/headers/nrf_soc.h" 1
	svc #68
bx r14
@ 0 "" 2
	.loc 1 588 2
	.thumb
	.syntax unified
	nop
	mov	r0, r3
.LFE174:
	.size	sd_clock_hfclk_is_running, .-sd_clock_hfclk_is_running
	.section	.text.sd_app_evt_wait,"ax",%progbits
	.align	1
	.syntax unified
	.thumb
	.thumb_func
	.fpu fpv4-sp-d16
	.type	sd_app_evt_wait, %function
sd_app_evt_wait:
.LFB175:
	.loc 1 616 87
	@ Naked Function: prologue and epilogue provided by programmer.
	@ args = 0, pretend = 0, frame = 0
	@ frame_needed = 0, uses_anonymous_args = 0
	.loc 1 616 89
	.syntax unified
@ 616 "../../../../../../components/softdevice/s132/headers/nrf_soc.h" 1
	svc #65
bx r14
@ 0 "" 2
	.loc 1 616 2
	.thumb
	.syntax unified
	nop
	mov	r0, r3
.LFE175:
	.size	sd_app_evt_wait, .-sd_app_evt_wait
	.section	.text.sd_ppi_channel_enable_get,"ax",%progbits
	.align	1
	.syntax unified
	.thumb
	.thumb_func
	.fpu fpv4-sp-d16
	.type	sd_ppi_channel_enable_get, %function
sd_ppi_channel_enable_get:
.LFB176:
	.loc 1 624 120
	@ Naked Function: prologue and epilogue provided by programmer.
	@ args = 0, pretend = 0, frame = 0
	@ frame_needed = 0, uses_anonymous_args = 0
	.loc 1 624 122
	.syntax unified
@ 624 "../../../../../../components/softdevice/s132/headers/nrf_soc.h" 1
	svc #32
bx r14
@ 0 "" 2
	.loc 1 624 2
	.thumb
	.syntax unified
	nop
	mov	r0, r3
.LFE176:
	.size	sd_ppi_channel_enable_get, .-sd_ppi_channel_enable_get
	.section	.text.sd_ppi_channel_enable_set,"ax",%progbits
	.align	1
	.syntax unified
	.thumb
	.thumb_func
	.fpu fpv4-sp-d16
	.type	sd_ppi_channel_enable_set, %function
sd_ppi_channel_enable_set:
.LFB177:
	.loc 1 632 124
	@ Naked Function: prologue and epilogue provided by programmer.
	@ args = 0, pretend = 0, frame = 0
	@ frame_needed = 0, uses_anonymous_args = 0
	.loc 1 632 126
	.syntax unified
@ 632 "../../../../../../components/softdevice/s132/headers/nrf_soc.h" 1
	svc #33
bx r14
@ 0 "" 2
	.loc 1 632 2
	.thumb
	.syntax unified
	nop
	mov	r0, r3
.LFE177:
	.size	sd_ppi_channel_enable_set, .-sd_ppi_channel_enable_set
	.section	.text.sd_ppi_channel_enable_clr,"ax",%progbits
	.align	1
	.syntax unified
	.thumb
	.thumb_func
	.fpu fpv4-sp-d16
	.type	sd_ppi_channel_enable_clr, %function
sd_ppi_channel_enable_clr:
.LFB178:
	.loc 1 640 124
	@ Naked Function: prologue and epilogue provided by programmer.
	@ args = 0, pretend = 0, frame = 0
	@ frame_needed = 0, uses_anonymous_args = 0
	.loc 1 640 126
	.syntax unified
@ 640 "../../../../../../components/softdevice/s132/headers/nrf_soc.h" 1
	svc #34
bx r14
@ 0 "" 2
	.loc 1 640 2
	.thumb
	.syntax unified
	nop
	mov	r0, r3
.LFE178:
	.size	sd_ppi_channel_enable_clr, .-sd_ppi_channel_enable_clr
	.section	.text.sd_ppi_channel_assign,"ax",%progbits
	.align	1
	.syntax unified
	.thumb
	.thumb_func
	.fpu fpv4-sp-d16
	.type	sd_ppi_channel_assign, %function
sd_ppi_channel_assign:
.LFB179:
	.loc 1 651 181
	@ Naked Function: prologue and epilogue provided by programmer.
	@ args = 0, pretend = 0, frame = 0
	@ frame_needed = 0, uses_anonymous_args = 0
	.loc 1 651 183
	.syntax unified
@ 651 "../../../../../../components/softdevice/s132/headers/nrf_soc.h" 1
	svc #35
bx r14
@ 0 "" 2
	.loc 1 651 2
	.thumb
	.syntax unified
	nop
	mov	r0, r3
.LFE179:
	.size	sd_ppi_channel_assign, .-sd_ppi_channel_assign
	.section	.text.sd_ppi_group_task_enable,"ax",%progbits
	.align	1
	.syntax unified
	.thumb
	.thumb_func
	.fpu fpv4-sp-d16
	.type	sd_ppi_group_task_enable, %function
sd_ppi_group_task_enable:
.LFB180:
	.loc 1 660 109
	@ Naked Function: prologue and epilogue provided by programmer.
	@ args = 0, pretend = 0, frame = 0
	@ frame_needed = 0, uses_anonymous_args = 0
	.loc 1 660 111
	.syntax unified
@ 660 "../../../../../../components/softdevice/s132/headers/nrf_soc.h" 1
	svc #36
bx r14
@ 0 "" 2
	.loc 1 660 2
	.thumb
	.syntax unified
	nop
	mov	r0, r3
.LFE180:
	.size	sd_ppi_group_task_enable, .-sd_ppi_group_task_enable
	.section	.text.sd_ppi_group_task_disable,"ax",%progbits
	.align	1
	.syntax unified
	.thumb
	.thumb_func
	.fpu fpv4-sp-d16
	.type	sd_ppi_group_task_disable, %function
sd_ppi_group_task_disable:
.LFB181:
	.loc 1 669 110
	@ Naked Function: prologue and epilogue provided by programmer.
	@ args = 0, pretend = 0, frame = 0
	@ frame_needed = 0, uses_anonymous_args = 0
	.loc 1 669 112
	.syntax unified
@ 669 "../../../../../../components/softdevice/s132/headers/nrf_soc.h" 1
	svc #37
bx r14
@ 0 "" 2
	.loc 1 669 2
	.thumb
	.syntax unified
	nop
	mov	r0, r3
.LFE181:
	.size	sd_ppi_group_task_disable, .-sd_ppi_group_task_disable
	.section	.text.sd_ppi_group_assign,"ax",%progbits
	.align	1
	.syntax unified
	.thumb
	.thumb_func
	.fpu fpv4-sp-d16
	.type	sd_ppi_group_assign, %function
sd_ppi_group_assign:
.LFB182:
	.loc 1 679 126
	@ Naked Function: prologue and epilogue provided by programmer.
	@ args = 0, pretend = 0, frame = 0
	@ frame_needed = 0, uses_anonymous_args = 0
	.loc 1 679 128
	.syntax unified
@ 679 "../../../../../../components/softdevice/s132/headers/nrf_soc.h" 1
	svc #38
bx r14
@ 0 "" 2
	.loc 1 679 2
	.thumb
	.syntax unified
	nop
	mov	r0, r3
.LFE182:
	.size	sd_ppi_group_assign, .-sd_ppi_group_assign
	.section	.text.sd_ppi_group_get,"ax",%progbits
	.align	1
	.syntax unified
	.thumb
	.thumb_func
	.fpu fpv4-sp-d16
	.type	sd_ppi_group_get, %function
sd_ppi_group_get:
.LFB183:
	.loc 1 689 127
	@ Naked Function: prologue and epilogue provided by programmer.
	@ args = 0, pretend = 0, frame = 0
	@ frame_needed = 0, uses_anonymous_args = 0
	.loc 1 689 129
	.syntax unified
@ 689 "../../../../../../components/softdevice/s132/headers/nrf_soc.h" 1
	svc #39
bx r14
@ 0 "" 2
	.loc 1 689 2
	.thumb
	.syntax unified
	nop
	mov	r0, r3
.LFE183:
	.size	sd_ppi_group_get, .-sd_ppi_group_get
	.section	.text.sd_radio_notification_cfg_set,"ax",%progbits
	.align	1
	.syntax unified
	.thumb
	.thumb_func
	.fpu fpv4-sp-d16
	.type	sd_radio_notification_cfg_set, %function
sd_radio_notification_cfg_set:
.LFB184:
	.loc 1 720 127
	@ Naked Function: prologue and epilogue provided by programmer.
	@ args = 0, pretend = 0, frame = 0
	@ frame_needed = 0, uses_anonymous_args = 0
	.loc 1 720 129
	.syntax unified
@ 720 "../../../../../../components/softdevice/s132/headers/nrf_soc.h" 1
	svc #69
bx r14
@ 0 "" 2
	.loc 1 720 2
	.thumb
	.syntax unified
	nop
	mov	r0, r3
.LFE184:
	.size	sd_radio_notification_cfg_set, .-sd_radio_notification_cfg_set
	.section	.text.sd_ecb_block_encrypt,"ax",%progbits
	.align	1
	.syntax unified
	.thumb
	.thumb_func
	.fpu fpv4-sp-d16
	.type	sd_ecb_block_encrypt, %function
sd_ecb_block_encrypt:
.LFB185:
	.loc 1 736 119
	@ Naked Function: prologue and epilogue provided by programmer.
	@ args = 0, pretend = 0, frame = 0
	@ frame_needed = 0, uses_anonymous_args = 0
	.loc 1 736 121
	.syntax unified
@ 736 "../../../../../../components/softdevice/s132/headers/nrf_soc.h" 1
	svc #70
bx r14
@ 0 "" 2
	.loc 1 736 2
	.thumb
	.syntax unified
	nop
	mov	r0, r3
.LFE185:
	.size	sd_ecb_block_encrypt, .-sd_ecb_block_encrypt
	.section	.text.sd_ecb_blocks_encrypt,"ax",%progbits
	.align	1
	.syntax unified
	.thumb
	.thumb_func
	.fpu fpv4-sp-d16
	.type	sd_ecb_blocks_encrypt, %function
sd_ecb_blocks_encrypt:
.LFB186:
	.loc 1 753 150
	@ Naked Function: prologue and epilogue provided by programmer.
	@ args = 0, pretend = 0, frame = 0
	@ frame_needed = 0, uses_anonymous_args = 0
	.loc 1 753 152
	.syntax unified
@ 753 "../../../../../../components/softdevice/s132/headers/nrf_soc.h" 1
	svc #71
bx r14
@ 0 "" 2
	.loc 1 753 2
	.thumb
	.syntax unified
	nop
	mov	r0, r3
.LFE186:
	.size	sd_ecb_blocks_encrypt, .-sd_ecb_blocks_encrypt
	.section	.text.sd_evt_get,"ax",%progbits
	.align	1
	.syntax unified
	.thumb
	.thumb_func
	.fpu fpv4-sp-d16
	.type	sd_evt_get, %function
sd_evt_get:
.LFB187:
	.loc 1 764 97
	@ Naked Function: prologue and epilogue provided by programmer.
	@ args = 0, pretend = 0, frame = 0
	@ frame_needed = 0, uses_anonymous_args = 0
	.loc 1 764 99
	.syntax unified
@ 764 "../../../../../../components/softdevice/s132/headers/nrf_soc.h" 1
	svc #75
bx r14
@ 0 "" 2
	.loc 1 764 2
	.thumb
	.syntax unified
	nop
	mov	r0, r3
.LFE187:
	.size	sd_evt_get, .-sd_evt_get
	.section	.text.sd_temp_get,"ax",%progbits
	.align	1
	.syntax unified
	.thumb
	.thumb_func
	.fpu fpv4-sp-d16
	.type	sd_temp_get, %function
sd_temp_get:
.LFB188:
	.loc 1 775 95
	@ Naked Function: prologue and epilogue provided by programmer.
	@ args = 0, pretend = 0, frame = 0
	@ frame_needed = 0, uses_anonymous_args = 0
	.loc 1 775 97
	.syntax unified
@ 775 "../../../../../../components/softdevice/s132/headers/nrf_soc.h" 1
	svc #76
bx r14
@ 0 "" 2
	.loc 1 775 2
	.thumb
	.syntax unified
	nop
	mov	r0, r3
.LFE188:
	.size	sd_temp_get, .-sd_temp_get
	.section	.text.sd_flash_write,"ax",%progbits
	.align	1
	.syntax unified
	.thumb
	.thumb_func
	.fpu fpv4-sp-d16
	.type	sd_flash_write, %function
sd_flash_write:
.LFB189:
	.loc 1 812 137
	@ Naked Function: prologue and epilogue provided by programmer.
	@ args = 0, pretend = 0, frame = 0
	@ frame_needed = 0, uses_anonymous_args = 0
	.loc 1 812 139
	.syntax unified
@ 812 "../../../../../../components/softdevice/s132/headers/nrf_soc.h" 1
	svc #41
bx r14
@ 0 "" 2
	.loc 1 812 2
	.thumb
	.syntax unified
	nop
	mov	r0, r3
.LFE189:
	.size	sd_flash_write, .-sd_flash_write
	.section	.text.sd_flash_page_erase,"ax",%progbits
	.align	1
	.syntax unified
	.thumb
	.thumb_func
	.fpu fpv4-sp-d16
	.type	sd_flash_page_erase, %function
sd_flash_page_erase:
.LFB190:
	.loc 1 844 107
	@ Naked Function: prologue and epilogue provided by programmer.
	@ args = 0, pretend = 0, frame = 0
	@ frame_needed = 0, uses_anonymous_args = 0
	.loc 1 844 109
	.syntax unified
@ 844 "../../../../../../components/softdevice/s132/headers/nrf_soc.h" 1
	svc #40
bx r14
@ 0 "" 2
	.loc 1 844 2
	.thumb
	.syntax unified
	nop
	mov	r0, r3
.LFE190:
	.size	sd_flash_page_erase, .-sd_flash_page_erase
	.section	.text.sd_flash_protect,"ax",%progbits
	.align	1
	.syntax unified
	.thumb
	.thumb_func
	.fpu fpv4-sp-d16
	.type	sd_flash_protect, %function
sd_flash_protect:
.LFB191:
	.loc 1 867 166
	@ Naked Function: prologue and epilogue provided by programmer.
	@ args = 0, pretend = 0, frame = 0
	@ frame_needed = 0, uses_anonymous_args = 0
	.loc 1 867 168
	.syntax unified
@ 867 "../../../../../../components/softdevice/s132/headers/nrf_soc.h" 1
	svc #42
bx r14
@ 0 "" 2
	.loc 1 867 2
	.thumb
	.syntax unified
	nop
	mov	r0, r3
.LFE191:
	.size	sd_flash_protect, .-sd_flash_protect
	.section	.text.sd_radio_session_open,"ax",%progbits
	.align	1
	.syntax unified
	.thumb
	.thumb_func
	.fpu fpv4-sp-d16
	.type	sd_radio_session_open, %function
sd_radio_session_open:
.LFB192:
	.loc 1 889 140
	@ Naked Function: prologue and epilogue provided by programmer.
	@ args = 0, pretend = 0, frame = 0
	@ frame_needed = 0, uses_anonymous_args = 0
	.loc 1 889 142
	.syntax unified
@ 889 "../../../../../../components/softdevice/s132/headers/nrf_soc.h" 1
	svc #72
bx r14
@ 0 "" 2
	.loc 1 889 2
	.thumb
	.syntax unified
	nop
	mov	r0, r3
.LFE192:
	.size	sd_radio_session_open, .-sd_radio_session_open
	.section	.text.sd_radio_session_close,"ax",%progbits
	.align	1
	.syntax unified
	.thumb
	.thumb_func
	.fpu fpv4-sp-d16
	.type	sd_radio_session_close, %function
sd_radio_session_close:
.LFB193:
	.loc 1 902 94
	@ Naked Function: prologue and epilogue provided by programmer.
	@ args = 0, pretend = 0, frame = 0
	@ frame_needed = 0, uses_anonymous_args = 0
	.loc 1 902 96
	.syntax unified
@ 902 "../../../../../../components/softdevice/s132/headers/nrf_soc.h" 1
	svc #73
bx r14
@ 0 "" 2
	.loc 1 902 2
	.thumb
	.syntax unified
	nop
	mov	r0, r3
.LFE193:
	.size	sd_radio_session_close, .-sd_radio_session_close
	.section	.text.sd_radio_request,"ax",%progbits
	.align	1
	.syntax unified
	.thumb
	.thumb_func
	.fpu fpv4-sp-d16
	.type	sd_radio_request, %function
sd_radio_request:
.LFB194:
	.loc 1 934 121
	@ Naked Function: prologue and epilogue provided by programmer.
	@ args = 0, pretend = 0, frame = 0
	@ frame_needed = 0, uses_anonymous_args = 0
	.loc 1 934 123
	.syntax unified
@ 934 "../../../../../../components/softdevice/s132/headers/nrf_soc.h" 1
	svc #74
bx r14
@ 0 "" 2
	.loc 1 934 2
	.thumb
	.syntax unified
	nop
	mov	r0, r3
.LFE194:
	.size	sd_radio_request, .-sd_radio_request
	.section	.text.sd_protected_register_write,"ax",%progbits
	.align	1
	.syntax unified
	.thumb
	.thumb_func
	.fpu fpv4-sp-d16
	.type	sd_protected_register_write, %function
sd_protected_register_write:
.LFB195:
	.loc 1 955 141
	@ Naked Function: prologue and epilogue provided by programmer.
	@ args = 0, pretend = 0, frame = 0
	@ frame_needed = 0, uses_anonymous_args = 0
	.loc 1 955 143
	.syntax unified
@ 955 "../../../../../../components/softdevice/s132/headers/nrf_soc.h" 1
	svc #43
bx r14
@ 0 "" 2
	.loc 1 955 2
	.thumb
	.syntax unified
	nop
	mov	r0, r3
.LFE195:
	.size	sd_protected_register_write, .-sd_protected_register_write
	.section .rodata
	.align	2
.LC0:
	.ascii	"Tx:%i Ty:%i\000"
	.global	__aeabi_f2d
	.global	__aeabi_d2f
	.global	__aeabi_dcmplt
	.global	__aeabi_dcmpge
	.align	2
.LC1:
	.ascii	"HEADING is more the 90 degrees wrong stopping contr"
	.ascii	"oller\000"
	.global	__aeabi_dcmpgt
	.global	__aeabi_dmul
	.global	__aeabi_ddiv
	.global	__aeabi_dadd
	.align	2
.LC2:
	.ascii	"controller sending idle\000"
	.section	.text.vMainPoseControllerTask,"ax",%progbits
	.align	1
	.global	vMainPoseControllerTask
	.syntax unified
	.thumb
	.thumb_func
	.fpu fpv4-sp-d16
	.type	vMainPoseControllerTask, %function
vMainPoseControllerTask:
.LFB292:
	.file 2 "C:\\nRF5_SDK_15.0.0_a53641a\\examples\\ble_peripheral\\slam_applicationLeithe\\software\\ControllerTask.c"
	.loc 2 42 50
	@ args = 0, pretend = 0, frame = 280
	@ frame_needed = 0, uses_anonymous_args = 0
	push	{r4, r5, lr}
.LCFI0:
	sub	sp, sp, #284
.LCFI1:
	add	r3, sp, #4
	str	r0, [r3]
	.loc 2 44 23
	mov	r3, #0
	str	r3, [sp, #72]	@ float
	mov	r3, #0
	str	r3, [sp, #76]	@ float
	.loc 2 45 23
	mov	r3, #0
	str	r3, [sp, #64]	@ float
	mov	r3, #0
	str	r3, [sp, #68]	@ float
	.loc 2 46 11
	ldr	r3, .L150
	str	r3, [sp, #196]	@ float
	.loc 2 47 13
	movs	r3, #0
	strb	r3, [sp, #63]
	.loc 2 49 13
	movs	r3, #90
	strb	r3, [sp, #279]
	.loc 2 52 11
	ldr	r3, .L150+4
	str	r3, [sp, #192]	@ float
	.loc 2 53 11
	ldr	r3, .L150+8
	str	r3, [sp, #188]	@ float
	.loc 2 54 11
	ldr	r3, .L150+12
	str	r3, [sp, #184]	@ float
	.loc 2 55 11
	mov	r3, #1065353216
	str	r3, [sp, #180]	@ float
	.loc 2 56 11
	ldr	r3, .L150+16
	str	r3, [sp, #272]	@ float
	.loc 2 57 11
	ldr	r3, .L150+20
	str	r3, [sp, #268]	@ float
	.loc 2 60 11
	mov	r3, #0
	str	r3, [sp, #176]	@ float
	.loc 2 61 13
	movs	r3, #0
	strh	r3, [sp, #174]	@ movhi
	.loc 2 62 13
	movs	r3, #0
	strh	r3, [sp, #172]	@ movhi
	.loc 2 65 11
	mov	r3, #0
	str	r3, [sp, #264]	@ float
	.loc 2 66 11
	mov	r3, #0
	str	r3, [sp, #56]	@ float
	.loc 2 67 11
	mov	r3, #0
	str	r3, [sp, #52]	@ float
	.loc 2 68 11
	mov	r3, #0
	str	r3, [sp, #260]	@ float
	.loc 2 69 11
	mov	r3, #0
	str	r3, [sp, #256]	@ float
	.loc 2 70 11
	mov	r3, #0
	str	r3, [sp, #252]	@ float
	.loc 2 72 11
	mov	r3, #0
	str	r3, [sp, #168]	@ float
	.loc 2 73 11
	mov	r3, #0
	str	r3, [sp, #164]	@ float
	.loc 2 74 11
	mov	r3, #0
	str	r3, [sp, #160]	@ float
	.loc 2 76 11
	mov	r3, #0
	str	r3, [sp, #248]	@ float
	.loc 2 77 11
	mov	r3, #0
	str	r3, [sp, #244]	@ float
	.loc 2 79 13
	movs	r3, #0
	strb	r3, [sp, #243]
	.loc 2 80 22
	movs	r3, #0
	strh	r3, [sp, #50]	@ movhi
	.loc 2 81 22
	movs	r3, #0
	strh	r3, [sp, #48]	@ movhi
	.loc 2 83 13
	movs	r3, #0
	strb	r3, [sp, #242]
	.loc 2 86 13
	movs	r3, #0
	strb	r3, [sp, #241]
	.loc 2 87 11
	mov	r3, #0
	str	r3, [sp, #236]	@ float
	.loc 2 88 11
	mov	r3, #0
	str	r3, [sp, #156]	@ float
	.loc 2 89 11
	mov	r3, #0
	str	r3, [sp, #152]	@ float
	.loc 2 90 11
	mov	r3, #0
	str	r3, [sp, #232]	@ float
	.loc 2 91 11
	mov	r3, #0
	str	r3, [sp, #228]	@ float
	.loc 2 92 11
	mov	r3, #0
	str	r3, [sp, #224]	@ float
	.loc 2 94 13
	movs	r3, #0
	strb	r3, [sp, #219]
	.loc 2 96 13
	movs	r3, #0
	strb	r3, [sp, #218]
	.loc 2 97 13
	movs	r3, #10
	strb	r3, [sp, #217]
	.loc 2 98 13
	movs	r3, #5
	strb	r3, [sp, #216]
	.loc 2 99 13
	movs	r3, #0
	strb	r3, [sp, #215]
	.loc 2 100 13
	movs	r3, #0
	strb	r3, [sp, #151]
	.loc 2 101 13
	movs	r3, #0
	strb	r3, [sp, #214]
	.loc 2 102 13
	movs	r3, #0
	strb	r3, [sp, #213]
	.loc 2 103 13
	movs	r3, #40
	strb	r3, [sp, #150]
	.loc 2 104 13
	movs	r3, #0
	strb	r3, [sp, #149]
	.loc 2 106 11
	mov	r3, #0
	str	r3, [sp, #144]	@ float
	.loc 2 107 11
	mov	r3, #0
	str	r3, [sp, #140]	@ float
	.loc 2 109 13
	movs	r3, #0
	strb	r3, [sp, #139]
.L115:
	.loc 2 113 13
	ldr	r3, .L150+24
	ldrb	r3, [r3]	@ zero_extendqisi2
	.loc 2 113 12
	cmp	r3, #0
	beq	.L45
.LBB2:
	.loc 2 114 13
	ldr	r3, .L150+28
	ldr	r3, [r3]
	movs	r1, #1
	mov	r0, r3
	bl	xQueueSemaphoreTake
	.loc 2 116 34
	add	r3, sp, #20
	mov	r0, r3
	bl	encoder_get_ticks
	.loc 2 117 36
	add	r3, sp, #20
	ldr	r3, [r3]
	.loc 2 117 29
	sxth	r2, r3
	ldr	r3, .L150+32
	strh	r2, [r3]	@ movhi
	.loc 2 118 37
	add	r3, sp, #20
	ldr	r3, [r3, #4]
	.loc 2 118 30
	sxth	r2, r3
	ldr	r3, .L150+36
	strh	r2, [r3]	@ movhi
	.loc 2 119 13
	ldr	r3, .L150+28
	ldr	r0, [r3]
	movs	r3, #0
	movs	r2, #0
	movs	r1, #0
	bl	xQueueGenericSend
	.loc 2 120 17
	ldr	r3, .L150+40
	ldr	r3, [r3]
	mov	r1, #-1
	mov	r0, r3
	bl	xQueueSemaphoreTake
	mov	r3, r0
	.loc 2 120 16
	cmp	r3, #1
	bne	.L115
.LBB3:
	.loc 2 122 17
	ldr	r3, .L150+44
	ldr	r3, [r3]
	mov	r1, #-1
	mov	r0, r3
	bl	xQueueSemaphoreTake
	.loc 2 123 26
	ldr	r3, .L150+48
	ldr	r3, [r3]	@ float
	str	r3, [sp, #176]	@ float
	.loc 2 124 22
	ldr	r3, .L150+52
	ldrh	r3, [r3]	@ movhi
	strh	r3, [sp, #174]	@ movhi
	.loc 2 125 22
	ldr	r3, .L150+56
	ldrh	r3, [r3]	@ movhi
	strh	r3, [sp, #172]	@ movhi
	.loc 2 126 23
	ldr	r3, .L150+60
	ldr	r3, [r3]	@ float
	str	r3, [sp, #144]	@ float
	.loc 2 127 24
	ldr	r3, .L150+64
	ldr	r3, [r3]	@ float
	str	r3, [sp, #140]	@ float
	.loc 2 128 17
	ldr	r3, .L150+44
	ldr	r0, [r3]
	movs	r3, #0
	movs	r2, #0
	movs	r1, #0
	bl	xQueueGenericSend
	.loc 2 130 21
	ldr	r3, .L150+68
	ldr	r3, [r3]
	add	r1, sp, #72
	movs	r2, #0
	mov	r0, r3
	bl	xQueueReceive
	mov	r3, r0
	.loc 2 130 20
	cmp	r3, #1
	bne	.L47
.LBB4:
	.loc 2 132 45
	vldr.32	s15, [sp, #72]
	.loc 2 132 28
	vmov.f32	s14, #1.0e+1
	vmul.f32	s15, s15, s14
	vstr.32	s15, [sp, #256]
	.loc 2 133 45
	vldr.32	s15, [sp, #76]
	.loc 2 133 28
	vmov.f32	s14, #1.0e+1
	vmul.f32	s15, s15, s14
	vstr.32	s15, [sp, #252]
	.loc 2 134 35
	ldr	r3, [sp, #176]	@ float
	str	r3, [sp, #232]	@ float
	.loc 2 135 31
	ldrsh	r3, [sp, #174]
	vmov	s15, r3	@ int
	vcvt.f32.s32	s15, s15
	vstr.32	s15, [sp, #228]
	.loc 2 136 31
	ldrsh	r3, [sp, #172]
	vmov	s15, r3	@ int
	vcvt.f32.s32	s15, s15
	vstr.32	s15, [sp, #224]
	.loc 2 137 29
	ldrb	r3, [sp, #214]	@ zero_extendqisi2
	adds	r3, r3, #1
	strb	r3, [sp, #214]
	.loc 2 138 30
	movs	r3, #1
	strb	r3, [sp, #213]
	.loc 2 139 36
	movs	r3, #0
	strb	r3, [sp, #241]
	.loc 2 140 33
	movs	r3, #0
	strb	r3, [sp, #243]
	.loc 2 141 36
	movs	r3, #0
	strb	r3, [sp, #219]
	.loc 2 142 21
	vldr.32	s15, [sp, #256]
	vcvt.s32.f32	s14, s15
	vldr.32	s15, [sp, #252]
	vcvt.s32.f32	s15, s15
	add	r0, sp, #28
	vmov	r3, s15	@ int
	vmov	r2, s14	@ int
	ldr	r1, .L150+72
	bl	sprintf
	.loc 2 143 21
	add	r3, sp, #28
	mov	r1, r3
	movs	r0, #4
	bl	display_text_on_line
	b	.L151
.L152:
	.align	2
.L150:
	.word	1097859072
	.word	1043511490
	.word	1024391733
	.word	1128792064
	.word	1133903872
	.word	1120403456
	.word	gHandshook
	.word	xTickMutex
	.word	gLeftWheelTicks
	.word	gRightWheelTicks
	.word	xControllerBSem
	.word	xPoseMutex
	.word	gTheta_hat
	.word	gX_hat
	.word	gY_hat
	.word	gLeft
	.word	gRight
	.word	poseControllerQ
	.word	.LC0
.L151:
.L47:
.LBE4:
	.loc 2 145 26
	ldr	r3, [sp, #264]	@ float
	str	r3, [sp, #156]	@ float
	.loc 2 146 48
	ldrsh	r3, [sp, #174]
	vmov	s15, r3	@ int
	vcvt.f32.s32	s15, s15
	vldr.32	s14, [sp, #256]
	vsub.f32	s14, s14, s15
	.loc 2 146 66
	ldrsh	r3, [sp, #174]
	vmov	s15, r3	@ int
	vcvt.f32.s32	s15, s15
	vldr.32	s13, [sp, #256]
	vsub.f32	s15, s13, s15
	.loc 2 146 56
	vmul.f32	s14, s14, s15
	.loc 2 146 84
	ldrsh	r3, [sp, #172]
	vmov	s15, r3	@ int
	vcvt.f32.s32	s15, s15
	vldr.32	s13, [sp, #252]
	vsub.f32	s13, s13, s15
	.loc 2 146 102
	ldrsh	r3, [sp, #172]
	vmov	s15, r3	@ int
	vcvt.f32.s32	s15, s15
	vldr.32	s12, [sp, #252]
	vsub.f32	s15, s12, s15
	.loc 2 146 92
	vmul.f32	s15, s13, s15
	.loc 2 146 74
	vadd.f32	s15, s14, s15
	.loc 2 146 35
	vmov	r0, s15
	bl	__aeabi_f2d
.LVL0:
	mov	r2, r0
	mov	r3, r1
	vmov	d0, r2, r3
	bl	sqrt
	vmov	r2, r3, d0
	.loc 2 146 26
	mov	r0, r2
	mov	r1, r3
	bl	__aeabi_d2f
.LVL1:
	mov	r3, r0	@ float
	str	r3, [sp, #264]	@ float
	.loc 2 148 32
	ldrsh	r3, [sp, #174]
	vmov	s15, r3	@ int
	vcvt.f32.s32	s15, s15
	.loc 2 148 23
	vldr.32	s14, [sp, #256]
	vsub.f32	s15, s14, s15
	vstr.32	s15, [sp, #168]
	.loc 2 149 32
	ldrsh	r3, [sp, #172]
	vmov	s15, r3	@ int
	vcvt.f32.s32	s15, s15
	.loc 2 149 23
	vldr.32	s14, [sp, #252]
	vsub.f32	s15, s14, s15
	vstr.32	s15, [sp, #164]
	.loc 2 150 30
	ldr	r0, [sp, #164]	@ float
	bl	__aeabi_f2d
.LVL2:
	mov	r4, r0
	mov	r5, r1
	ldr	r0, [sp, #168]	@ float
	bl	__aeabi_f2d
.LVL3:
	mov	r2, r0
	mov	r3, r1
	vmov	d1, r2, r3
	vmov	d0, r4, r5
	bl	atan2
	vmov	r2, r3, d0
	.loc 2 150 28
	mov	r0, r2
	mov	r1, r3
	bl	__aeabi_d2f
.LVL4:
	mov	r3, r0	@ float
	str	r3, [sp, #160]	@ float
	.loc 2 152 31
	ldr	r3, [sp, #56]	@ float
	str	r3, [sp, #152]	@ float
	.loc 2 153 40
	vldr.32	s14, [sp, #160]
	vldr.32	s15, [sp, #176]
	vsub.f32	s15, s14, s15
	.loc 2 153 27
	vstr.32	s15, [sp, #56]
	.loc 2 154 17
	add	r3, sp, #56
	mov	r0, r3
	bl	vFunc_Inf2pi
	.loc 2 155 39
	vldr.32	s14, [sp, #56]
	vldr.32	s15, [sp, #152]
	vsub.f32	s15, s14, s15
	.loc 2 155 26
	vstr.32	s15, [sp, #52]
	.loc 2 156 17
	add	r3, sp, #52
	mov	r0, r3
	bl	vFunc_Inf2pi
	.loc 2 157 26
	vldr.32	s15, [sp, #52]
	vmov.f32	s14, #2.5e+1
	vmul.f32	s15, s15, s14
	vstr.32	s15, [sp, #52]
	.loc 2 160 21
	ldr	r3, [sp, #56]	@ float
	mov	r0, r3	@ float
	bl	__aeabi_f2d
.LVL5:
	mov	r2, r0
	mov	r3, r1
	vmov	d0, r2, r3
	bl	fabs
	.loc 2 160 37
	ldr	r0, [sp, #192]	@ float
	bl	__aeabi_f2d
.LVL6:
	.loc 2 163 21
	ldr	r3, [sp, #56]	@ float
	mov	r0, r3	@ float
	bl	__aeabi_f2d
.LVL7:
	mov	r2, r0
	mov	r3, r1
	vmov	d0, r2, r3
	bl	fabs
	vmov	r4, r5, d0
	.loc 2 163 37
	ldr	r0, [sp, #188]	@ float
	bl	__aeabi_f2d
.LVL8:
	mov	r2, r0
	mov	r3, r1
	.loc 2 163 20
	mov	r0, r4
	mov	r1, r5
	bl	__aeabi_dcmplt
.LVL9:
	mov	r3, r0
	cmp	r3, #0
	beq	.L48
	.loc 2 164 33
	movs	r3, #1
	strb	r3, [sp, #243]
	.loc 2 165 34
	mov	r3, #0
	str	r3, [sp, #260]	@ float
.L48:
	.loc 2 167 20
	ldr	r3, [sp, #56]	@ float
	mov	r0, r3	@ float
	bl	__aeabi_f2d
.LVL10:
	mov	r2, r0
	mov	r3, r1
	vmov	d0, r2, r3
	bl	fabs
	vmov	r0, r1, d0
	.loc 2 167 19
	adr	r3, .L153
	ldrd	r2, [r3]
	bl	__aeabi_dcmpge
.LVL11:
	mov	r3, r0
	cmp	r3, #0
	beq	.L50
	.loc 2 167 48 discriminator 1
	ldrb	r3, [sp, #243]	@ zero_extendqisi2
	cmp	r3, #0
	beq	.L50
	.loc 2 168 25
	ldrb	r3, [sp, #241]	@ zero_extendqisi2
	cmp	r3, #0
	bne	.L50
	.loc 2 169 44
	movs	r3, #1
	strb	r3, [sp, #241]
	.loc 2 170 238
	ldr	r3, .L153+16
	ldrh	r3, [r3]
	.loc 2 170 249
	lsls	r3, r3, #16
	.loc 2 170 205
	orr	r3, r3, #3
	.loc 2 170 157
	ldr	r1, .L153+20
	mov	r0, r3
	bl	nrf_log_frontend_std_0
.L50:
	.loc 2 174 36
	vldr.32	s15, [sp, #56]
	vldr.32	s14, [sp, #152]
	vsub.f32	s15, s14, s15
	vmov	r0, s15
	bl	__aeabi_f2d
.LVL12:
	.loc 2 174 20
	adr	r3, .L153
	ldrd	r2, [r3]
	bl	__aeabi_dcmpgt
.LVL13:
	mov	r3, r0
	cmp	r3, #0
	bne	.L52
	.loc 2 174 80 discriminator 1
	vldr.32	s15, [sp, #56]
	vldr.32	s14, [sp, #152]
	vsub.f32	s15, s14, s15
	vmov	r0, s15
	bl	__aeabi_f2d
.LVL14:
	.loc 2 174 61 discriminator 1
	adr	r3, .L153+8
	ldrd	r2, [r3]
	bl	__aeabi_dcmplt
.LVL15:
	mov	r3, r0
	cmp	r3, #0
	beq	.L137
.L52:
	.loc 2 176 35
	ldr	r3, [sp, #264]	@ float
	str	r3, [sp, #236]	@ float
	.loc 2 177 24
	ldrb	r3, [sp, #213]	@ zero_extendqisi2
	cmp	r3, #0
	bne	.L56
	.loc 2 178 40
	movs	r3, #1
	strb	r3, [sp, #241]
	.loc 2 177 24
	b	.L56
.L137:
	.loc 2 181 57
	vldr.32	s14, [sp, #256]
	vldr.32	s15, [sp, #228]
	vsub.f32	s14, s14, s15
	.loc 2 181 80
	vldr.32	s13, [sp, #256]
	vldr.32	s15, [sp, #228]
	vsub.f32	s15, s13, s15
	.loc 2 181 70
	vmul.f32	s14, s14, s15
	.loc 2 181 103
	vldr.32	s13, [sp, #252]
	vldr.32	s15, [sp, #224]
	vsub.f32	s13, s13, s15
	.loc 2 181 126
	vldr.32	s12, [sp, #252]
	vldr.32	s15, [sp, #224]
	vsub.f32	s15, s12, s15
	.loc 2 181 116
	vmul.f32	s15, s13, s15
	.loc 2 181 93
	vadd.f32	s15, s14, s15
	.loc 2 181 44
	vmov	r0, s15
	bl	__aeabi_f2d
.LVL16:
	mov	r2, r0
	mov	r3, r1
	vmov	d0, r2, r3
	bl	sqrt
	vmov	r2, r3, d0
	.loc 2 181 35
	mov	r0, r2
	mov	r1, r3
	bl	__aeabi_d2f
.LVL17:
	mov	r3, r0	@ float
	str	r3, [sp, #236]	@ float
.L56:
	.loc 2 184 23
	mov	r3, #1065353216
	str	r3, [sp, #208]	@ float
	.loc 2 185 23
	mov	r3, #1065353216
	str	r3, [sp, #204]	@ float
	.loc 2 186 20
	vldr.32	s15, [sp, #236]
	vcmpe.f32	s15, #0
	vmrs	APSR_nzcv, FPSCR
	ble	.L57
	.loc 2 186 82 discriminator 1
	vldr.32	s14, [sp, #268]
	vldr.32	s15, [sp, #272]
	vadd.f32	s15, s14, s15
	.loc 2 186 39 discriminator 1
	vldr.32	s14, [sp, #236]
	vcmpe.f32	s14, s15
	vmrs	APSR_nzcv, FPSCR
	bpl	.L57
.LBB5:
	.loc 2 187 27
	ldr	r3, [sp, #268]	@ float
	str	r3, [sp, #132]	@ float
	.loc 2 188 27
	ldr	r3, [sp, #272]	@ float
	str	r3, [sp, #128]	@ float
	.loc 2 189 44
	vldr.32	s14, [sp, #236]
	vmov.f32	s13, #4.0e+0
	vdiv.f32	s15, s14, s13
	vstr.32	s15, [sp, #268]
	.loc 2 190 60
	vldr.32	s15, [sp, #236]
	vmov.f32	s14, #3.0e+0
	vmul.f32	s14, s15, s14
	.loc 2 190 44
	vmov.f32	s13, #4.0e+0
	vdiv.f32	s15, s14, s13
	vstr.32	s15, [sp, #272]
	.loc 2 191 39
	vldr.32	s13, [sp, #268]
	vldr.32	s14, [sp, #132]
	vdiv.f32	s15, s13, s14
	vstr.32	s15, [sp, #208]
	.loc 2 192 39
	vldr.32	s13, [sp, #272]
	vldr.32	s14, [sp, #128]
	vdiv.f32	s15, s13, s14
	vstr.32	s15, [sp, #204]
.LBE5:
	.loc 2 186 109
	b	.L60
.L57:
	.loc 2 194 44
	ldr	r3, .L153+24
	str	r3, [sp, #272]	@ float
	.loc 2 195 44
	ldr	r3, .L153+28
	str	r3, [sp, #268]	@ float
.L60:
	.loc 2 198 20
	vldr.32	s14, [sp, #264]
	vldr.32	s15, [sp, #196]
	vcmpe.f32	s14, s15
	vmrs	APSR_nzcv, FPSCR
	ble	.L61
	.loc 2 198 46 discriminator 1
	ldrb	r3, [sp, #241]	@ zero_extendqisi2
	cmp	r3, #0
	bne	.L61
	.loc 2 200 31
	movs	r3, #0
	strb	r3, [sp, #242]
	.loc 2 201 24
	ldrb	r3, [sp, #243]	@ zero_extendqisi2
	cmp	r3, #0
	beq	.L63
.LBB6:
	.loc 2 203 31
	vldr.32	s14, [sp, #236]
	vldr.32	s15, [sp, #264]
	vsub.f32	s15, s14, s15
	vstr.32	s15, [sp, #88]
	.loc 2 206 28
	vldr.32	s15, [sp, #88]
	vcmpe.f32	s15, #0
	vmrs	APSR_nzcv, FPSCR
	blt	.L64
	.loc 2 206 51 discriminator 1
	vldr.32	s14, [sp, #88]
	vldr.32	s15, [sp, #268]
	vcmpe.f32	s14, s15
	vmrs	APSR_nzcv, FPSCR
	bhi	.L64
.LBB7:
	.loc 2 207 32
	ldrb	r3, [sp, #215]	@ zero_extendqisi2
	cmp	r3, #0
	bne	.L67
	.loc 2 208 36
	vldr.32	s15, [sp, #88]
	vmov.f32	s14, #1.5e+1
	vcmpe.f32	s15, s14
	vmrs	APSR_nzcv, FPSCR
	bpl	.L138
	.loc 2 209 56
	ldrb	r3, [sp, #217]	@ zero_extendqisi2
	adds	r3, r3, #1
	strb	r3, [sp, #217]
	b	.L70
.L138:
	.loc 2 211 57
	movs	r3, #1
	strb	r3, [sp, #215]
	.loc 2 212 55
	ldrb	r3, [sp, #217]
	adds	r3, r3, #10
	strb	r3, [sp, #279]
	b	.L70
.L67:
	.loc 2 214 39
	vldr.32	s15, [sp, #144]
	vcmp.f32	s15, #0
	vmrs	APSR_nzcv, FPSCR
	beq	.L71
	.loc 2 214 51 discriminator 1
	vldr.32	s15, [sp, #140]
	vcmp.f32	s15, #0
	vmrs	APSR_nzcv, FPSCR
	bne	.L70
.L71:
	.loc 2 215 48
	ldrb	r3, [sp, #219]
	adds	r3, r3, #2
	strb	r3, [sp, #219]
.L70:
	.loc 2 217 68
	ldrb	r2, [sp, #217]	@ zero_extendqisi2
	ldrb	r3, [sp, #219]	@ zero_extendqisi2
	add	r3, r3, r2
	.loc 2 217 35
	vmov	s15, r3	@ int
	vcvt.f32.s32	s15, s15
	vstr.32	s15, [sp, #84]
	.loc 2 218 61
	vldr.32	s14, .L153+32
	vldr.32	s15, [sp, #84]
	vsub.f32	s15, s14, s15
	.loc 2 218 75
	vldr.32	s13, .L153+32
	vdiv.f32	s14, s15, s13
	.loc 2 218 103
	ldrb	r3, [sp, #279]	@ zero_extendqisi2
	vmov	s15, r3	@ int
	vcvt.f32.s32	s13, s15
	vldr.32	s15, [sp, #208]
	vmul.f32	s15, s13, s15
	.loc 2 218 82
	vmul.f32	s14, s14, s15
	.loc 2 218 125
	vldr.32	s15, [sp, #88]
	vmul.f32	s13, s14, s15
	.loc 2 218 144
	vldr.32	s15, [sp, #268]
	vdiv.f32	s14, s13, s15
	.loc 2 218 193
	ldrb	r2, [sp, #217]	@ zero_extendqisi2
	ldrb	r3, [sp, #219]	@ zero_extendqisi2
	add	r3, r3, r2
	.loc 2 218 170
	vmov	s15, r3	@ int
	vcvt.f32.s32	s15, s15
	.loc 2 218 51
	vadd.f32	s15, s14, s15
	vstr.32	s15, [sp, #220]
.LBE7:
	.loc 2 206 98
	b	.L72
.L64:
	.loc 2 222 33
	vldr.32	s14, [sp, #264]
	vldr.32	s15, [sp, #272]
	vcmpe.f32	s14, s15
	vmrs	APSR_nzcv, FPSCR
	bpl	.L139
	.loc 2 223 32
	vldr.32	s15, [sp, #264]
	vldr.32	s14, .L153+36
	vcmpe.f32	s15, s14
	vmrs	APSR_nzcv, FPSCR
	ble	.L140
	.loc 2 224 36
	vldr.32	s15, [sp, #144]
	vcmp.f32	s15, #0
	vmrs	APSR_nzcv, FPSCR
	beq	.L77
	.loc 2 224 48 discriminator 1
	vldr.32	s15, [sp, #140]
	vcmp.f32	s15, #0
	vmrs	APSR_nzcv, FPSCR
	bne	.L78
.L77:
	.loc 2 225 52
	movs	r3, #2
	strb	r3, [sp, #219]
.L78:
	.loc 2 227 77
	ldrb	r2, [sp, #217]	@ zero_extendqisi2
	ldrb	r3, [sp, #219]	@ zero_extendqisi2
	add	r3, r3, r2
	.loc 2 227 55
	vmov	s15, r3	@ int
	vcvt.f32.s32	s15, s15
	vstr.32	s15, [sp, #220]
	b	.L72
.L140:
.LBB8:
	.loc 2 229 36
	vldr.32	s14, [sp, #156]
	vldr.32	s15, [sp, #264]
	vcmp.f32	s14, s15
	vmrs	APSR_nzcv, FPSCR
	bne	.L79
	.loc 2 230 52
	ldrb	r2, [sp, #217]
	ldrb	r3, [sp, #216]
	subs	r3, r2, r3
	strb	r3, [sp, #219]
	.loc 2 231 59
	ldrb	r3, [sp, #216]
	adds	r3, r3, #5
	strb	r3, [sp, #216]
.L79:
	.loc 2 233 78
	ldrb	r2, [sp, #216]	@ zero_extendqisi2
	ldrb	r3, [sp, #219]	@ zero_extendqisi2
	add	r3, r3, r2
	.loc 2 233 39
	vmov	s15, r3	@ int
	vcvt.f32.s32	s15, s15
	vstr.32	s15, [sp, #80]
	.loc 2 234 65
	vldr.32	s14, .L153+32
	vldr.32	s15, [sp, #80]
	vsub.f32	s15, s14, s15
	.loc 2 234 81
	vldr.32	s13, .L153+32
	vdiv.f32	s14, s15, s13
	.loc 2 234 109
	ldrb	r3, [sp, #279]	@ zero_extendqisi2
	vmov	s15, r3	@ int
	vcvt.f32.s32	s13, s15
	vldr.32	s15, [sp, #204]
	vmul.f32	s15, s13, s15
	.loc 2 234 88
	vmul.f32	s14, s14, s15
	.loc 2 234 143
	vldr.32	s12, [sp, #264]
	vldr.32	s13, [sp, #272]
	vdiv.f32	s15, s12, s13
	.loc 2 234 131
	vmul.f32	s14, s14, s15
	.loc 2 234 197
	ldrb	r2, [sp, #216]	@ zero_extendqisi2
	ldrb	r3, [sp, #219]	@ zero_extendqisi2
	add	r3, r3, r2
	.loc 2 234 170
	vmov	s15, r3	@ int
	vcvt.f32.s32	s15, s15
	.loc 2 234 55
	vadd.f32	s15, s14, s15
	vstr.32	s15, [sp, #220]
	b	.L72
.L154:
	.align	3
.L153:
	.word	1413754136
	.word	1073291771
	.word	1413754136
	.word	-1074191877
	.word	m_nrf_log_app_logs_data_dynamic
	.word	.LC1
	.word	1133903872
	.word	1120403456
	.word	1120403456
	.word	1112014848
.L139:
.LBE8:
	.loc 2 237 51
	ldrb	r3, [sp, #279]	@ zero_extendqisi2
	vmov	s15, r3	@ int
	vcvt.f32.u32	s15, s15
	vstr.32	s15, [sp, #220]
.L72:
	.loc 2 241 66
	vldr.32	s14, [sp, #56]
	vldr.32	s15, [sp, #184]
	vmul.f32	s15, s14, s15
	.loc 2 241 56
	vldr.32	s14, [sp, #220]
	vsub.f32	s14, s14, s15
	.loc 2 241 88
	vldr.32	s13, [sp, #180]
	vldr.32	s15, [sp, #248]
	vmul.f32	s15, s13, s15
	.loc 2 241 78
	vsub.f32	s15, s14, s15
	.loc 2 241 32
	vcvt.s32.f32	s15, s15
	vmov	r3, s15	@ int
	sxth	r3, r3
	strh	r3, [sp, #50]	@ movhi
	.loc 2 242 66
	vldr.32	s14, [sp, #56]
	vldr.32	s15, [sp, #184]
	vmul.f32	s14, s14, s15
	.loc 2 242 56
	vldr.32	s15, [sp, #220]
	vadd.f32	s14, s14, s15
	.loc 2 242 88
	vldr.32	s13, [sp, #180]
	vldr.32	s15, [sp, #244]
	vmul.f32	s15, s13, s15
	.loc 2 242 78
	vadd.f32	s15, s14, s15
	.loc 2 242 32
	vcvt.s32.f32	s15, s15
	vmov	r3, s15	@ int
	sxth	r3, r3
	strh	r3, [sp, #48]	@ movhi
	.loc 2 244 38
	vldr.32	s15, [sp, #56]
	vldr.32	s14, [sp, #248]
	vadd.f32	s15, s14, s15
	vstr.32	s15, [sp, #248]
	.loc 2 245 39
	vldr.32	s15, [sp, #56]
	vldr.32	s14, [sp, #244]
	vsub.f32	s15, s14, s15
	vstr.32	s15, [sp, #244]
	.loc 2 249 38
	movs	r3, #1
	strb	r3, [sp, #63]
.LBE6:
	b	.L80
.L63:
.LBB9:
	.loc 2 253 54
	vldr.32	s14, [sp, #176]
	vldr.32	s15, [sp, #232]
	vsub.f32	s15, s14, s15
	.loc 2 253 31
	add	r3, sp, #16
	vstr.32	s15, [r3]
	.loc 2 254 54
	vldr.32	s14, [sp, #160]
	vldr.32	s15, [sp, #232]
	vsub.f32	s15, s14, s15
	.loc 2 254 31
	add	r3, sp, #12
	vstr.32	s15, [r3]
	.loc 2 255 25
	add	r3, sp, #12
	mov	r0, r3
	bl	vFunc_Inf2pi
	.loc 2 256 25
	add	r3, sp, #16
	mov	r0, r3
	bl	vFunc_Inf2pi
	.loc 2 257 31
	add	r3, sp, #12
	vldr.32	s15, [r3]
	vmov.f32	s14, #7.5e-1
	vmul.f32	s15, s15, s14
	vstr.32	s15, [sp, #124]
	.loc 2 258 54
	vldr.32	s14, [sp, #176]
	vldr.32	s15, [sp, #124]
	vsub.f32	s15, s14, s15
	.loc 2 258 31
	add	r3, sp, #8
	vstr.32	s15, [r3]
	.loc 2 259 25
	add	r3, sp, #8
	mov	r0, r3
	bl	vFunc_Inf2pi
	.loc 2 260 31
	ldr	r3, .L155
	str	r3, [sp, #120]	@ float
	.loc 2 261 31
	ldr	r3, .L155+4
	str	r3, [sp, #116]	@ float
	.loc 2 262 31
	ldr	r3, .L155+8
	str	r3, [sp, #112]	@ float
	.loc 2 264 31
	mov	r3, #0
	str	r3, [sp, #108]	@ float
	.loc 2 265 31
	mov	r3, #0
	str	r3, [sp, #104]	@ float
	.loc 2 266 31
	mov	r3, #0
	str	r3, [sp, #200]	@ float
	.loc 2 268 46
	add	r3, sp, #12
	ldr	r3, [r3]	@ float
	mov	r0, r3	@ float
	bl	__aeabi_f2d
.LVL18:
	mov	r2, r0
	mov	r3, r1
	vmov	d0, r2, r3
	bl	fabs
	vmov	r0, r1, d0
	.loc 2 268 61
	mov	r2, #0
	ldr	r3, .L155+12
	bl	__aeabi_dmul
.LVL19:
	mov	r2, r0
	mov	r3, r1
	.loc 2 268 31
	mov	r0, r2
	mov	r1, r3
	bl	__aeabi_d2f
.LVL20:
	mov	r3, r0	@ float
	str	r3, [sp, #100]	@ float
	.loc 2 270 38
	ldr	r0, [sp, #260]	@ float
	bl	__aeabi_f2d
.LVL21:
	mov	r4, r0
	mov	r5, r1
	.loc 2 270 51
	ldr	r3, [sp, #56]	@ float
	mov	r0, r3	@ float
	bl	__aeabi_f2d
.LVL22:
	mov	r2, #0
	ldr	r3, .L155+16
	bl	__aeabi_dmul
.LVL23:
	mov	r2, r0
	mov	r3, r1
	mov	r0, r2
	mov	r1, r3
	.loc 2 270 58
	mov	r2, #0
	ldr	r3, .L155+20
	bl	__aeabi_ddiv
.LVL24:
	mov	r2, r0
	mov	r3, r1
	.loc 2 270 38
	mov	r0, r4
	mov	r1, r5
	bl	__aeabi_dadd
.LVL25:
	mov	r2, r0
	mov	r3, r1
	mov	r0, r2
	mov	r1, r3
	bl	__aeabi_d2f
.LVL26:
	mov	r3, r0	@ float
	str	r3, [sp, #260]	@ float
	.loc 2 272 42
	add	r3, sp, #16
	vldr.32	s15, [r3]
	.loc 2 272 28
	vldr.32	s14, [sp, #120]
	vmul.f32	s15, s14, s15
	vstr.32	s15, [sp, #108]
	.loc 2 273 60
	vldr.32	s14, [sp, #108]
	vldr.32	s15, [sp, #100]
	vcmpe.f32	s14, s15
	vmrs	APSR_nzcv, FPSCR
	bpl	.L141
	.loc 2 273 60 is_stmt 0 discriminator 1
	ldr	r3, [sp, #108]	@ float
	b	.L83
.L141:
	.loc 2 273 60 discriminator 2
	ldr	r3, [sp, #100]	@ float
.L83:
	.loc 2 273 28 is_stmt 1 discriminator 4
	str	r3, [sp, #108]	@ float
	.loc 2 274 39 discriminator 4
	vldr.32	s15, [sp, #100]
	vneg.f32	s15, s15
	.loc 2 274 72 discriminator 4
	vldr.32	s14, [sp, #108]
	vcmpe.f32	s14, s15
	vmrs	APSR_nzcv, FPSCR
	bpl	.L142
	.loc 2 274 72 is_stmt 0 discriminator 1
	vldr.32	s15, [sp, #100]
	vneg.f32	s15, s15
	b	.L86
.L142:
	.loc 2 274 72 discriminator 2
	vldr.32	s15, [sp, #108]
.L86:
	.loc 2 274 28 is_stmt 1 discriminator 4
	vstr.32	s15, [sp, #108]
	.loc 2 277 28 discriminator 4
	vldr.32	s14, [sp, #116]
	vldr.32	s15, [sp, #260]
	vmul.f32	s15, s14, s15
	vstr.32	s15, [sp, #104]
	.loc 2 278 50 discriminator 4
	vldr.32	s15, [sp, #104]
	vmov.f32	s14, #1.0e+1
	vcmpe.f32	s15, s14
	vmrs	APSR_nzcv, FPSCR
	bpl	.L143
	.loc 2 278 50 is_stmt 0 discriminator 1
	ldr	r3, [sp, #104]	@ float
	b	.L89
.L143:
	.loc 2 278 50 discriminator 2
	ldr	r3, .L155+24
.L89:
	.loc 2 278 28 is_stmt 1 discriminator 4
	str	r3, [sp, #104]	@ float
	.loc 2 279 52 discriminator 4
	vldr.32	s15, [sp, #104]
	vmov.f32	s14, #-1.0e+1
	vcmpe.f32	s15, s14
	vmrs	APSR_nzcv, FPSCR
	bpl	.L144
	.loc 2 279 52 is_stmt 0 discriminator 1
	ldr	r3, .L155+28
	b	.L92
.L144:
	.loc 2 279 52 discriminator 2
	ldr	r3, [sp, #104]	@ float
.L92:
	.loc 2 279 28 is_stmt 1 discriminator 4
	str	r3, [sp, #104]	@ float
	.loc 2 282 28 discriminator 4
	add	r3, sp, #16
	ldr	r3, [r3]	@ float
	mov	r0, r3	@ float
	bl	__aeabi_f2d
.LVL27:
	mov	r2, r0
	mov	r3, r1
	vmov	d0, r2, r3
	bl	fabs
	vmov	r4, r5, d0
	.loc 2 282 46 discriminator 4
	add	r3, sp, #12
	ldr	r3, [r3]	@ float
	mov	r0, r3	@ float
	bl	__aeabi_f2d
.LVL28:
	mov	r2, #0
	ldr	r3, .L155+32
	bl	__aeabi_dmul
.LVL29:
	mov	r2, r0
	mov	r3, r1
	vmov	d7, r2, r3
	vmov.f32	s0, s14
	vmov.f32	s1, s15
	bl	fabs
	vmov	r2, r3, d0
	.loc 2 282 27 discriminator 4
	mov	r0, r4
	mov	r1, r5
	bl	__aeabi_dcmpgt
.LVL30:
	mov	r3, r0
	cmp	r3, #0
	beq	.L93
	.loc 2 283 32
	ldr	r0, [sp, #112]	@ float
	bl	__aeabi_f2d
.LVL31:
	mov	r4, r0
	mov	r5, r1
	.loc 2 283 35
	add	r3, sp, #8
	ldr	r3, [r3]	@ float
	mov	r0, r3	@ float
	bl	__aeabi_f2d
.LVL32:
	mov	r2, r0
	mov	r3, r1
	vmov	d0, r2, r3
	bl	fabs
	vmov	r2, r3, d0
	.loc 2 283 32
	mov	r0, r4
	mov	r1, r5
	bl	__aeabi_dmul
.LVL33:
	mov	r2, r0
	mov	r3, r1
	.loc 2 283 27
	mov	r0, r2
	mov	r1, r3
	bl	__aeabi_d2f
.LVL34:
	mov	r3, r0	@ float
	str	r3, [sp, #200]	@ float
	.loc 2 284 37
	vldr.32	s15, [sp, #56]
	.loc 2 284 27
	vcmpe.f32	s15, #0
	vmrs	APSR_nzcv, FPSCR
	ble	.L95
	.loc 2 285 28
	vldr.32	s15, [sp, #200]
	vneg.f32	s15, s15
	vstr.32	s15, [sp, #200]
.L95:
	.loc 2 288 60
	vldr.32	s14, [sp, #200]
	vldr.32	s15, [sp, #100]
	vcmpe.f32	s14, s15
	vmrs	APSR_nzcv, FPSCR
	bpl	.L145
	.loc 2 288 60 is_stmt 0 discriminator 1
	ldr	r3, [sp, #200]	@ float
	b	.L99
.L145:
	.loc 2 288 60 discriminator 2
	ldr	r3, [sp, #100]	@ float
.L99:
	.loc 2 288 28 is_stmt 1 discriminator 4
	str	r3, [sp, #200]	@ float
	.loc 2 289 39 discriminator 4
	vldr.32	s15, [sp, #100]
	vneg.f32	s15, s15
	.loc 2 289 72 discriminator 4
	vldr.32	s14, [sp, #200]
	vcmpe.f32	s14, s15
	vmrs	APSR_nzcv, FPSCR
	bpl	.L146
	.loc 2 289 72 is_stmt 0 discriminator 1
	vldr.32	s15, [sp, #100]
	vneg.f32	s15, s15
	b	.L102
.L146:
	.loc 2 289 72 discriminator 2
	vldr.32	s15, [sp, #200]
.L102:
	.loc 2 289 28 is_stmt 1 discriminator 4
	vstr.32	s15, [sp, #200]
.L93:
	.loc 2 293 43
	vldr.32	s14, [sp, #108]
	vldr.32	s15, [sp, #200]
	vadd.f32	s15, s14, s15
	.loc 2 293 31
	vldr.32	s14, [sp, #104]
	vadd.f32	s15, s14, s15
	vstr.32	s15, [sp, #96]
	.loc 2 299 65
	vldr.32	s15, [sp, #96]
	vldr.32	s14, .L155+36
	vcmpe.f32	s15, s14
	vmrs	APSR_nzcv, FPSCR
	bpl	.L147
	.loc 2 299 65 is_stmt 0 discriminator 1
	ldr	r3, [sp, #96]	@ float
	b	.L105
.L147:
	.loc 2 299 65 discriminator 2
	ldr	r3, .L155
.L105:
	.loc 2 299 32 is_stmt 1 discriminator 4
	str	r3, [sp, #96]	@ float
	.loc 2 300 66 discriminator 4
	vldr.32	s15, [sp, #96]
	vldr.32	s14, .L155+40
	vcmpe.f32	s15, s14
	vmrs	APSR_nzcv, FPSCR
	bpl	.L148
	.loc 2 300 66 is_stmt 0 discriminator 1
	ldr	r3, .L155+44
	b	.L108
.L148:
	.loc 2 300 66 discriminator 2
	ldr	r3, [sp, #96]	@ float
.L108:
	.loc 2 300 32 is_stmt 1 discriminator 4
	str	r3, [sp, #96]	@ float
	.loc 2 301 29 discriminator 4
	vldr.32	s15, [sp, #96]
	vcvt.s32.f32	s15, s15
	vmov	r3, s15	@ int
	str	r3, [sp, #92]
	.loc 2 302 32 discriminator 4
	ldr	r3, [sp, #92]
	uxth	r3, r3
	rsbs	r3, r3, #0
	uxth	r3, r3
	sxth	r3, r3
	strh	r3, [sp, #50]	@ movhi
	.loc 2 303 32 discriminator 4
	ldr	r3, [sp, #92]
	sxth	r3, r3
	strh	r3, [sp, #48]	@ movhi
	.loc 2 305 49 discriminator 4
	vldr.32	s15, [sp, #56]
	.loc 2 305 38 discriminator 4
	vcmpe.f32	s15, #0
	vmrs	APSR_nzcv, FPSCR
	bpl	.L149
	.loc 2 305 38 is_stmt 0 discriminator 1
	movs	r3, #3
	b	.L111
.L149:
	.loc 2 305 38 discriminator 2
	movs	r3, #4
.L111:
	.loc 2 305 38 discriminator 4
	strb	r3, [sp, #63]
	.loc 2 306 34 is_stmt 1 discriminator 4
	movs	r3, #0
	strb	r3, [sp, #213]
.L80:
.LBE9:
	.loc 2 311 21
	ldrh	r3, [sp, #50]	@ movhi
	sxth	r0, r3
	ldrh	r3, [sp, #48]	@ movhi
	sxth	r1, r3
	add	r3, sp, #20
	ldm	r3, {r2, r3}
	bl	motorRegulator
	b	.L112
.L61:
	.loc 2 314 24
	ldrb	r3, [sp, #242]	@ zero_extendqisi2
	cmp	r3, #0
	bne	.L113
.LBB10:
	.loc 2 315 234 discriminator 2
	ldr	r3, .L155+48
	ldrh	r3, [r3]
	.loc 2 315 245 discriminator 2
	lsls	r3, r3, #16
	.loc 2 315 201 discriminator 2
	orr	r3, r3, #3
	.loc 2 315 153 discriminator 2
	ldr	r1, .L155+52
	mov	r0, r3
	bl	nrf_log_frontend_std_0
	.loc 2 316 25 discriminator 2
	bl	send_idle
	.loc 2 317 38 discriminator 2
	movs	r3, #0
	strb	r3, [sp, #218]
	.loc 2 318 35 discriminator 2
	movs	r3, #1
	strb	r3, [sp, #242]
.L113:
.LBE10:
	.loc 2 320 33
	ldrb	r3, [sp, #218]	@ zero_extendqisi2
	adds	r3, r3, #1
	strb	r3, [sp, #218]
	.loc 2 322 21
	bl	motor_brake
	.loc 2 324 34
	movs	r3, #0
	strb	r3, [sp, #63]
.L112:
	.loc 2 326 17
	ldr	r3, .L155+56
	ldr	r0, [r3]
	add	r1, sp, #63
	movs	r3, #0
	movs	r2, #0
	bl	xQueueGenericSend
	b	.L115
.L45:
.LBE3:
.LBE2:
	.loc 2 331 13
	bl	motor_brake
	.loc 2 113 12
	b	.L115
.L156:
	.align	2
.L155:
	.word	1120403456
	.word	1117782016
	.word	1128792064
	.word	1076756480
	.word	1078198272
	.word	1083129856
	.word	1092616192
	.word	-1054867456
	.word	1072168960
	.word	1120403456
	.word	-1027080192
	.word	-1027080192
	.word	m_nrf_log_app_logs_data_dynamic
	.word	.LC2
	.word	scanStatusQ
.LFE292:
	.size	vMainPoseControllerTask, .-vMainPoseControllerTask
	.global	leftI
	.section	.bss.leftI,"aw",%nobits
	.align	2
	.type	leftI, %object
	.size	leftI, 4
leftI:
	.space	4
	.global	rightI
	.section	.bss.rightI,"aw",%nobits
	.align	2
	.type	rightI, %object
	.size	rightI, 4
rightI:
	.space	4
	.global	__aeabi_i2d
	.global	__aeabi_dsub
	.global	__aeabi_d2iz
	.section .rodata
	.align	2
.LC3:
	.ascii	"speed PID L: %d R:%d\000"
	.section	.text.motorRegulator,"ax",%progbits
	.align	1
	.global	motorRegulator
	.syntax unified
	.thumb
	.thumb_func
	.fpu fpv4-sp-d16
	.type	motorRegulator, %function
motorRegulator:
.LFB293:
	.loc 2 339 73
	@ args = 0, pretend = 0, frame = 40
	@ frame_needed = 0, uses_anonymous_args = 0
	push	{r4, r5, lr}
.LCFI2:
	sub	sp, sp, #44
.LCFI3:
	mov	r4, r0
	mov	r0, r1
	add	r1, sp, #4
	stm	r1, {r2, r3}
	mov	r3, r4	@ movhi
	strh	r3, [sp, #14]	@ movhi
	mov	r3, r0	@ movhi
	strh	r3, [sp, #12]	@ movhi
	.loc 2 340 16
	ldr	r3, .L176
	vldr.32	s15, [r3]
	.loc 2 340 8
	vcmpe.f32	s15, #0
	vmrs	APSR_nzcv, FPSCR
	ble	.L158
	.loc 2 340 20 discriminator 1
	ldrsh	r3, [sp, #12]
	cmp	r3, #0
	blt	.L160
.L158:
	.loc 2 340 44 discriminator 3
	ldr	r3, .L176
	vldr.32	s15, [r3]
	.loc 2 340 34 discriminator 3
	vcmpe.f32	s15, #0
	vmrs	APSR_nzcv, FPSCR
	bpl	.L161
	.loc 2 340 48 discriminator 4
	ldrsh	r3, [sp, #12]
	cmp	r3, #0
	ble	.L161
.L160:
	.loc 2 341 16
	ldr	r3, .L176
	mov	r2, #0
	str	r2, [r3]	@ float
	.loc 2 342 15
	ldr	r3, .L176+4
	mov	r2, #0
	str	r2, [r3]	@ float
.L161:
	.loc 2 344 15
	ldr	r3, .L176+4
	vldr.32	s15, [r3]
	.loc 2 344 8
	vcmpe.f32	s15, #0
	vmrs	APSR_nzcv, FPSCR
	ble	.L163
	.loc 2 344 19 discriminator 1
	ldrsh	r3, [sp, #14]
	cmp	r3, #0
	blt	.L165
.L163:
	.loc 2 344 42 discriminator 3
	ldr	r3, .L176+4
	vldr.32	s15, [r3]
	.loc 2 344 33 discriminator 3
	vcmpe.f32	s15, #0
	vmrs	APSR_nzcv, FPSCR
	bpl	.L166
	.loc 2 344 46 discriminator 4
	ldrsh	r3, [sp, #14]
	cmp	r3, #0
	ble	.L166
.L165:
	.loc 2 345 16
	ldr	r3, .L176
	mov	r2, #0
	str	r2, [r3]	@ float
	.loc 2 346 15
	ldr	r3, .L176+4
	mov	r2, #0
	str	r2, [r3]	@ float
.L166:
	.loc 2 350 11
	mov	r3, #1073741824
	str	r3, [sp, #32]	@ float
	.loc 2 351 11
	mov	r3, #1065353216
	str	r3, [sp, #28]	@ float
	.loc 2 352 11
	ldr	r3, .L176+8
	str	r3, [sp, #24]	@ float
	.loc 2 353 27
	ldrsh	r3, [sp, #14]
	mov	r0, r3
	bl	__aeabi_i2d
.LVL35:
	mov	r2, #0
	mov	r3, #1073741824
	bl	__aeabi_ddiv
.LVL36:
	mov	r2, r0
	mov	r3, r1
	mov	r4, r2
	mov	r5, r3
	.loc 2 353 39
	ldr	r3, [sp, #4]
	.loc 2 353 32
	mov	r0, r3
	bl	__aeabi_i2d
.LVL37:
	mov	r2, r0
	mov	r3, r1
	mov	r0, r4
	mov	r1, r5
	bl	__aeabi_dsub
.LVL38:
	mov	r2, r0
	mov	r3, r1
	.loc 2 353 9
	mov	r0, r2
	mov	r1, r3
	bl	__aeabi_d2iz
.LVL39:
	mov	r3, r0
	str	r3, [sp, #20]
	.loc 2 354 28
	ldrsh	r3, [sp, #12]
	mov	r0, r3
	bl	__aeabi_i2d
.LVL40:
	mov	r2, #0
	mov	r3, #1073741824
	bl	__aeabi_ddiv
.LVL41:
	mov	r2, r0
	mov	r3, r1
	mov	r4, r2
	mov	r5, r3
	.loc 2 354 40
	ldr	r3, [sp, #8]
	.loc 2 354 33
	mov	r0, r3
	bl	__aeabi_i2d
.LVL42:
	mov	r2, r0
	mov	r3, r1
	mov	r0, r4
	mov	r1, r5
	bl	__aeabi_dsub
.LVL43:
	mov	r2, r0
	mov	r3, r1
	.loc 2 354 9
	mov	r0, r2
	mov	r1, r3
	bl	__aeabi_d2iz
.LVL44:
	mov	r3, r0
	str	r3, [sp, #16]
	.loc 2 355 24
	ldr	r3, [sp, #20]
	vmov	s15, r3	@ int
	vcvt.f32.s32	s14, s15
	vldr.32	s15, [sp, #24]
	vmul.f32	s14, s14, s15
	.loc 2 355 11
	ldr	r3, .L176+4
	vldr.32	s15, [r3]
	vadd.f32	s15, s14, s15
	ldr	r3, .L176+4
	vstr.32	s15, [r3]
	.loc 2 356 26
	ldr	r3, [sp, #16]
	vmov	s15, r3	@ int
	vcvt.f32.s32	s14, s15
	vldr.32	s15, [sp, #24]
	vmul.f32	s14, s14, s15
	.loc 2 356 12
	ldr	r3, .L176
	vldr.32	s15, [r3]
	vadd.f32	s15, s14, s15
	ldr	r3, .L176
	vstr.32	s15, [r3]
	.loc 2 357 17
	ldr	r3, [sp, #16]
	vmov	s15, r3	@ int
	vcvt.f32.s32	s14, s15
	vldr.32	s15, [sp, #28]
	vmul.f32	s14, s14, s15
	.loc 2 357 35
	ldr	r3, .L176
	vldr.32	s13, [r3]
	vldr.32	s15, [sp, #32]
	vmul.f32	s15, s13, s15
	.loc 2 357 30
	vadd.f32	s15, s14, s15
	.loc 2 357 12
	vcvt.s32.f32	s15, s15
	vmov	r3, s15	@ int
	strh	r3, [sp, #36]	@ movhi
	.loc 2 358 17
	ldr	r3, [sp, #20]
	vmov	s15, r3	@ int
	vcvt.f32.s32	s14, s15
	vldr.32	s15, [sp, #28]
	vmul.f32	s14, s14, s15
	.loc 2 358 34
	ldr	r3, .L176+4
	vldr.32	s13, [r3]
	vldr.32	s15, [sp, #32]
	vmul.f32	s15, s13, s15
	.loc 2 358 29
	vadd.f32	s15, s14, s15
	.loc 2 358 12
	vcvt.s32.f32	s15, s15
	vmov	r3, s15	@ int
	strh	r3, [sp, #38]	@ movhi
	.loc 2 360 213
	ldr	r3, .L176+12
	ldrh	r3, [r3]
	.loc 2 360 224
	lsls	r3, r3, #16
	.loc 2 360 180
	orr	r3, r3, #3
	.loc 2 360 132
	mov	r0, r3
	ldrsh	r2, [sp, #38]
	ldrsh	r3, [sp, #36]
	ldr	r1, .L176+16
	bl	nrf_log_frontend_std_2
	.loc 2 361 8
	ldrsh	r3, [sp, #38]
	cmp	r3, #100
	ble	.L168
	.loc 2 362 16
	movs	r3, #100
	strh	r3, [sp, #38]	@ movhi
.L168:
	.loc 2 364 8
	ldrsh	r3, [sp, #38]
	cmn	r3, #100
	bge	.L169
	.loc 2 365 16
	movw	r3, #65436
	strh	r3, [sp, #38]	@ movhi
.L169:
	.loc 2 367 8
	ldrsh	r3, [sp, #36]
	cmp	r3, #100
	ble	.L170
	.loc 2 368 16
	movs	r3, #100
	strh	r3, [sp, #36]	@ movhi
.L170:
	.loc 2 370 8
	ldrsh	r3, [sp, #36]
	cmn	r3, #100
	bge	.L171
	.loc 2 371 16
	movw	r3, #65436
	strh	r3, [sp, #36]	@ movhi
.L171:
	.loc 2 374 5
	ldrsh	r3, [sp, #38]
	ldrsh	r2, [sp, #36]
	mov	r1, r2
	mov	r0, r3
	bl	vMotorMovementSwitch
	.loc 2 375 1
	nop
	add	sp, sp, #44
.LCFI4:
	@ sp needed
	pop	{r4, r5, pc}
.L177:
	.align	2
.L176:
	.word	rightI
	.word	leftI
	.word	1025758986
	.word	m_nrf_log_app_logs_data_dynamic
	.word	.LC3
.LFE293:
	.size	motorRegulator, .-motorRegulator
	.section	.debug_frame,"",%progbits
.Lframe0:
	.4byte	.LECIE0-.LSCIE0
.LSCIE0:
	.4byte	0xffffffff
	.byte	0x3
	.ascii	"\000"
	.uleb128 0x1
	.sleb128 -4
	.uleb128 0xe
	.byte	0xc
	.uleb128 0xd
	.uleb128 0
	.align	2
.LECIE0:
.LSFDE0:
	.4byte	.LEFDE0-.LASFDE0
.LASFDE0:
	.4byte	.Lframe0
	.4byte	.LFB153
	.4byte	.LFE153-.LFB153
	.align	2
.LEFDE0:
.LSFDE2:
	.4byte	.LEFDE2-.LASFDE2
.LASFDE2:
	.4byte	.Lframe0
	.4byte	.LFB154
	.4byte	.LFE154-.LFB154
	.align	2
.LEFDE2:
.LSFDE4:
	.4byte	.LEFDE4-.LASFDE4
.LASFDE4:
	.4byte	.Lframe0
	.4byte	.LFB155
	.4byte	.LFE155-.LFB155
	.align	2
.LEFDE4:
.LSFDE6:
	.4byte	.LEFDE6-.LASFDE6
.LASFDE6:
	.4byte	.Lframe0
	.4byte	.LFB156
	.4byte	.LFE156-.LFB156
	.align	2
.LEFDE6:
.LSFDE8:
	.4byte	.LEFDE8-.LASFDE8
.LASFDE8:
	.4byte	.Lframe0
	.4byte	.LFB157
	.4byte	.LFE157-.LFB157
	.align	2
.LEFDE8:
.LSFDE10:
	.4byte	.LEFDE10-.LASFDE10
.LASFDE10:
	.4byte	.Lframe0
	.4byte	.LFB158
	.4byte	.LFE158-.LFB158
	.align	2
.LEFDE10:
.LSFDE12:
	.4byte	.LEFDE12-.LASFDE12
.LASFDE12:
	.4byte	.Lframe0
	.4byte	.LFB159
	.4byte	.LFE159-.LFB159
	.align	2
.LEFDE12:
.LSFDE14:
	.4byte	.LEFDE14-.LASFDE14
.LASFDE14:
	.4byte	.Lframe0
	.4byte	.LFB160
	.4byte	.LFE160-.LFB160
	.align	2
.LEFDE14:
.LSFDE16:
	.4byte	.LEFDE16-.LASFDE16
.LASFDE16:
	.4byte	.Lframe0
	.4byte	.LFB161
	.4byte	.LFE161-.LFB161
	.align	2
.LEFDE16:
.LSFDE18:
	.4byte	.LEFDE18-.LASFDE18
.LASFDE18:
	.4byte	.Lframe0
	.4byte	.LFB162
	.4byte	.LFE162-.LFB162
	.align	2
.LEFDE18:
.LSFDE20:
	.4byte	.LEFDE20-.LASFDE20
.LASFDE20:
	.4byte	.Lframe0
	.4byte	.LFB163
	.4byte	.LFE163-.LFB163
	.align	2
.LEFDE20:
.LSFDE22:
	.4byte	.LEFDE22-.LASFDE22
.LASFDE22:
	.4byte	.Lframe0
	.4byte	.LFB164
	.4byte	.LFE164-.LFB164
	.align	2
.LEFDE22:
.LSFDE24:
	.4byte	.LEFDE24-.LASFDE24
.LASFDE24:
	.4byte	.Lframe0
	.4byte	.LFB165
	.4byte	.LFE165-.LFB165
	.align	2
.LEFDE24:
.LSFDE26:
	.4byte	.LEFDE26-.LASFDE26
.LASFDE26:
	.4byte	.Lframe0
	.4byte	.LFB166
	.4byte	.LFE166-.LFB166
	.align	2
.LEFDE26:
.LSFDE28:
	.4byte	.LEFDE28-.LASFDE28
.LASFDE28:
	.4byte	.Lframe0
	.4byte	.LFB167
	.4byte	.LFE167-.LFB167
	.align	2
.LEFDE28:
.LSFDE30:
	.4byte	.LEFDE30-.LASFDE30
.LASFDE30:
	.4byte	.Lframe0
	.4byte	.LFB168
	.4byte	.LFE168-.LFB168
	.align	2
.LEFDE30:
.LSFDE32:
	.4byte	.LEFDE32-.LASFDE32
.LASFDE32:
	.4byte	.Lframe0
	.4byte	.LFB169
	.4byte	.LFE169-.LFB169
	.align	2
.LEFDE32:
.LSFDE34:
	.4byte	.LEFDE34-.LASFDE34
.LASFDE34:
	.4byte	.Lframe0
	.4byte	.LFB170
	.4byte	.LFE170-.LFB170
	.align	2
.LEFDE34:
.LSFDE36:
	.4byte	.LEFDE36-.LASFDE36
.LASFDE36:
	.4byte	.Lframe0
	.4byte	.LFB171
	.4byte	.LFE171-.LFB171
	.align	2
.LEFDE36:
.LSFDE38:
	.4byte	.LEFDE38-.LASFDE38
.LASFDE38:
	.4byte	.Lframe0
	.4byte	.LFB172
	.4byte	.LFE172-.LFB172
	.align	2
.LEFDE38:
.LSFDE40:
	.4byte	.LEFDE40-.LASFDE40
.LASFDE40:
	.4byte	.Lframe0
	.4byte	.LFB173
	.4byte	.LFE173-.LFB173
	.align	2
.LEFDE40:
.LSFDE42:
	.4byte	.LEFDE42-.LASFDE42
.LASFDE42:
	.4byte	.Lframe0
	.4byte	.LFB174
	.4byte	.LFE174-.LFB174
	.align	2
.LEFDE42:
.LSFDE44:
	.4byte	.LEFDE44-.LASFDE44
.LASFDE44:
	.4byte	.Lframe0
	.4byte	.LFB175
	.4byte	.LFE175-.LFB175
	.align	2
.LEFDE44:
.LSFDE46:
	.4byte	.LEFDE46-.LASFDE46
.LASFDE46:
	.4byte	.Lframe0
	.4byte	.LFB176
	.4byte	.LFE176-.LFB176
	.align	2
.LEFDE46:
.LSFDE48:
	.4byte	.LEFDE48-.LASFDE48
.LASFDE48:
	.4byte	.Lframe0
	.4byte	.LFB177
	.4byte	.LFE177-.LFB177
	.align	2
.LEFDE48:
.LSFDE50:
	.4byte	.LEFDE50-.LASFDE50
.LASFDE50:
	.4byte	.Lframe0
	.4byte	.LFB178
	.4byte	.LFE178-.LFB178
	.align	2
.LEFDE50:
.LSFDE52:
	.4byte	.LEFDE52-.LASFDE52
.LASFDE52:
	.4byte	.Lframe0
	.4byte	.LFB179
	.4byte	.LFE179-.LFB179
	.align	2
.LEFDE52:
.LSFDE54:
	.4byte	.LEFDE54-.LASFDE54
.LASFDE54:
	.4byte	.Lframe0
	.4byte	.LFB180
	.4byte	.LFE180-.LFB180
	.align	2
.LEFDE54:
.LSFDE56:
	.4byte	.LEFDE56-.LASFDE56
.LASFDE56:
	.4byte	.Lframe0
	.4byte	.LFB181
	.4byte	.LFE181-.LFB181
	.align	2
.LEFDE56:
.LSFDE58:
	.4byte	.LEFDE58-.LASFDE58
.LASFDE58:
	.4byte	.Lframe0
	.4byte	.LFB182
	.4byte	.LFE182-.LFB182
	.align	2
.LEFDE58:
.LSFDE60:
	.4byte	.LEFDE60-.LASFDE60
.LASFDE60:
	.4byte	.Lframe0
	.4byte	.LFB183
	.4byte	.LFE183-.LFB183
	.align	2
.LEFDE60:
.LSFDE62:
	.4byte	.LEFDE62-.LASFDE62
.LASFDE62:
	.4byte	.Lframe0
	.4byte	.LFB184
	.4byte	.LFE184-.LFB184
	.align	2
.LEFDE62:
.LSFDE64:
	.4byte	.LEFDE64-.LASFDE64
.LASFDE64:
	.4byte	.Lframe0
	.4byte	.LFB185
	.4byte	.LFE185-.LFB185
	.align	2
.LEFDE64:
.LSFDE66:
	.4byte	.LEFDE66-.LASFDE66
.LASFDE66:
	.4byte	.Lframe0
	.4byte	.LFB186
	.4byte	.LFE186-.LFB186
	.align	2
.LEFDE66:
.LSFDE68:
	.4byte	.LEFDE68-.LASFDE68
.LASFDE68:
	.4byte	.Lframe0
	.4byte	.LFB187
	.4byte	.LFE187-.LFB187
	.align	2
.LEFDE68:
.LSFDE70:
	.4byte	.LEFDE70-.LASFDE70
.LASFDE70:
	.4byte	.Lframe0
	.4byte	.LFB188
	.4byte	.LFE188-.LFB188
	.align	2
.LEFDE70:
.LSFDE72:
	.4byte	.LEFDE72-.LASFDE72
.LASFDE72:
	.4byte	.Lframe0
	.4byte	.LFB189
	.4byte	.LFE189-.LFB189
	.align	2
.LEFDE72:
.LSFDE74:
	.4byte	.LEFDE74-.LASFDE74
.LASFDE74:
	.4byte	.Lframe0
	.4byte	.LFB190
	.4byte	.LFE190-.LFB190
	.align	2
.LEFDE74:
.LSFDE76:
	.4byte	.LEFDE76-.LASFDE76
.LASFDE76:
	.4byte	.Lframe0
	.4byte	.LFB191
	.4byte	.LFE191-.LFB191
	.align	2
.LEFDE76:
.LSFDE78:
	.4byte	.LEFDE78-.LASFDE78
.LASFDE78:
	.4byte	.Lframe0
	.4byte	.LFB192
	.4byte	.LFE192-.LFB192
	.align	2
.LEFDE78:
.LSFDE80:
	.4byte	.LEFDE80-.LASFDE80
.LASFDE80:
	.4byte	.Lframe0
	.4byte	.LFB193
	.4byte	.LFE193-.LFB193
	.align	2
.LEFDE80:
.LSFDE82:
	.4byte	.LEFDE82-.LASFDE82
.LASFDE82:
	.4byte	.Lframe0
	.4byte	.LFB194
	.4byte	.LFE194-.LFB194
	.align	2
.LEFDE82:
.LSFDE84:
	.4byte	.LEFDE84-.LASFDE84
.LASFDE84:
	.4byte	.Lframe0
	.4byte	.LFB195
	.4byte	.LFE195-.LFB195
	.align	2
.LEFDE84:
.LSFDE86:
	.4byte	.LEFDE86-.LASFDE86
.LASFDE86:
	.4byte	.Lframe0
	.4byte	.LFB292
	.4byte	.LFE292-.LFB292
	.byte	0x4
	.4byte	.LCFI0-.LFB292
	.byte	0xe
	.uleb128 0xc
	.byte	0x84
	.uleb128 0x3
	.byte	0x85
	.uleb128 0x2
	.byte	0x8e
	.uleb128 0x1
	.byte	0x4
	.4byte	.LCFI1-.LCFI0
	.byte	0xe
	.uleb128 0x128
	.align	2
.LEFDE86:
.LSFDE88:
	.4byte	.LEFDE88-.LASFDE88
.LASFDE88:
	.4byte	.Lframe0
	.4byte	.LFB293
	.4byte	.LFE293-.LFB293
	.byte	0x4
	.4byte	.LCFI2-.LFB293
	.byte	0xe
	.uleb128 0xc
	.byte	0x84
	.uleb128 0x3
	.byte	0x85
	.uleb128 0x2
	.byte	0x8e
	.uleb128 0x1
	.byte	0x4
	.4byte	.LCFI3-.LCFI2
	.byte	0xe
	.uleb128 0x38
	.byte	0x4
	.4byte	.LCFI4-.LCFI3
	.byte	0xe
	.uleb128 0xc
	.align	2
.LEFDE88:
	.text
.Letext0: