	.cpu cortex-m4
	.eabi_attribute 27, 1
	.eabi_attribute 28, 1
	.eabi_attribute 20, 1
	.eabi_attribute 21, 1
	.eabi_attribute 23, 3
	.eabi_attribute 24, 1
	.eabi_attribute 25, 1
	.eabi_attribute 26, 1
	.eabi_attribute 30, 6
	.eabi_attribute 34, 1
	.eabi_attribute 18, 4
	.file	"diskio_blkdev.c"
	.text
.Ltext0:
	.section	.text.nrf_blk_dev_init,"ax",%progbits
	.align	1
	.syntax unified
	.thumb
	.thumb_func
	.fpu fpv4-sp-d16
	.type	nrf_blk_dev_init, %function
nrf_blk_dev_init:
.LFB142:
	.file 1 "../../../../../../components/libraries/block_dev/nrf_block_dev.h"
	.loc 1 239 1
	@ args = 0, pretend = 0, frame = 16
	@ frame_needed = 0, uses_anonymous_args = 0
	push	{lr}
.LCFI0:
	sub	sp, sp, #20
.LCFI1:
	str	r0, [sp, #12]
	str	r1, [sp, #8]
	str	r2, [sp, #4]
	.loc 1 241 21
	ldr	r3, [sp, #12]
	ldr	r3, [r3]
	.loc 1 241 28
	ldr	r3, [r3]
	.loc 1 241 12
	ldr	r2, [sp, #4]
	ldr	r1, [sp, #8]
	ldr	r0, [sp, #12]
	blx	r3
.LVL0:
	mov	r3, r0
	.loc 1 242 1
	mov	r0, r3
	add	sp, sp, #20
.LCFI2:
	@ sp needed
	ldr	pc, [sp], #4
.LFE142:
	.size	nrf_blk_dev_init, .-nrf_blk_dev_init
	.section	.text.nrf_blk_dev_uninit,"ax",%progbits
	.align	1
	.syntax unified
	.thumb
	.thumb_func
	.fpu fpv4-sp-d16
	.type	nrf_blk_dev_uninit, %function
nrf_blk_dev_uninit:
.LFB143:
	.loc 1 252 1
	@ args = 0, pretend = 0, frame = 8
	@ frame_needed = 0, uses_anonymous_args = 0
	push	{lr}
.LCFI3:
	sub	sp, sp, #12
.LCFI4:
	str	r0, [sp, #4]
	.loc 1 254 21
	ldr	r3, [sp, #4]
	ldr	r3, [r3]
	.loc 1 254 28
	ldr	r3, [r3, #4]
	.loc 1 254 12
	ldr	r0, [sp, #4]
	blx	r3
.LVL1:
	mov	r3, r0
	.loc 1 255 1
	mov	r0, r3
	add	sp, sp, #12
.LCFI5:
	@ sp needed
	ldr	pc, [sp], #4
.LFE143:
	.size	nrf_blk_dev_uninit, .-nrf_blk_dev_uninit
	.section	.text.nrf_blk_dev_read_req,"ax",%progbits
	.align	1
	.syntax unified
	.thumb
	.thumb_func
	.fpu fpv4-sp-d16
	.type	nrf_blk_dev_read_req, %function
nrf_blk_dev_read_req:
.LFB144:
	.loc 1 273 1
	@ args = 0, pretend = 0, frame = 8
	@ frame_needed = 0, uses_anonymous_args = 0
	push	{r4, lr}
.LCFI6:
	sub	sp, sp, #8
.LCFI7:
	str	r0, [sp, #4]
	str	r1, [sp]
	.loc 1 277 14
	ldr	r3, [sp]
	ldr	r4, [r3]
	.loc 1 277 35
	ldr	r3, [sp, #4]
	ldr	r3, [r3]
	.loc 1 277 42
	ldr	r3, [r3, #20]
	.loc 1 277 26
	ldr	r0, [sp, #4]
	blx	r3
.LVL2:
	mov	r3, r0
	.loc 1 277 63
	ldr	r3, [r3]
	.loc 1 277 8
	cmp	r4, r3
	bcc	.L6
	.loc 1 279 16
	movs	r3, #7
	b	.L7
.L6:
	.loc 1 282 21
	ldr	r3, [sp, #4]
	ldr	r3, [r3]
	.loc 1 282 28
	ldr	r3, [r3, #8]
	.loc 1 282 12
	ldr	r1, [sp]
	ldr	r0, [sp, #4]
	blx	r3
.LVL3:
	mov	r3, r0
.L7:
	.loc 1 283 1
	mov	r0, r3
	add	sp, sp, #8
.LCFI8:
	@ sp needed
	pop	{r4, pc}
.LFE144:
	.size	nrf_blk_dev_read_req, .-nrf_blk_dev_read_req
	.section	.text.nrf_blk_dev_write_req,"ax",%progbits
	.align	1
	.syntax unified
	.thumb
	.thumb_func
	.fpu fpv4-sp-d16
	.type	nrf_blk_dev_write_req, %function
nrf_blk_dev_write_req:
.LFB145:
	.loc 1 301 1
	@ args = 0, pretend = 0, frame = 8
	@ frame_needed = 0, uses_anonymous_args = 0
	push	{r4, lr}
.LCFI9:
	sub	sp, sp, #8
.LCFI10:
	str	r0, [sp, #4]
	str	r1, [sp]
	.loc 1 305 14
	ldr	r3, [sp]
	ldr	r4, [r3]
	.loc 1 305 35
	ldr	r3, [sp, #4]
	ldr	r3, [r3]
	.loc 1 305 42
	ldr	r3, [r3, #20]
	.loc 1 305 26
	ldr	r0, [sp, #4]
	blx	r3
.LVL4:
	mov	r3, r0
	.loc 1 305 63
	ldr	r3, [r3]
	.loc 1 305 8
	cmp	r4, r3
	bcc	.L9
	.loc 1 307 16
	movs	r3, #7
	b	.L10
.L9:
	.loc 1 310 21
	ldr	r3, [sp, #4]
	ldr	r3, [r3]
	.loc 1 310 28
	ldr	r3, [r3, #12]
	.loc 1 310 12
	ldr	r1, [sp]
	ldr	r0, [sp, #4]
	blx	r3
.LVL5:
	mov	r3, r0
.L10:
	.loc 1 311 1
	mov	r0, r3
	add	sp, sp, #8
.LCFI11:
	@ sp needed
	pop	{r4, pc}
.LFE145:
	.size	nrf_blk_dev_write_req, .-nrf_blk_dev_write_req
	.section	.text.nrf_blk_dev_ioctl,"ax",%progbits
	.align	1
	.syntax unified
	.thumb
	.thumb_func
	.fpu fpv4-sp-d16
	.type	nrf_blk_dev_ioctl, %function
nrf_blk_dev_ioctl:
.LFB146:
	.loc 1 325 1
	@ args = 0, pretend = 0, frame = 16
	@ frame_needed = 0, uses_anonymous_args = 0
	push	{lr}
.LCFI12:
	sub	sp, sp, #20
.LCFI13:
	str	r0, [sp, #12]
	mov	r3, r1
	str	r2, [sp, #4]
	strb	r3, [sp, #11]
	.loc 1 327 21
	ldr	r3, [sp, #12]
	ldr	r3, [r3]
	.loc 1 327 28
	ldr	r3, [r3, #16]
	.loc 1 327 12
	ldrb	r1, [sp, #11]	@ zero_extendqisi2
	ldr	r2, [sp, #4]
	ldr	r0, [sp, #12]
	blx	r3
.LVL6:
	mov	r3, r0
	.loc 1 328 1
	mov	r0, r3
	add	sp, sp, #20
.LCFI14:
	@ sp needed
	ldr	pc, [sp], #4
.LFE146:
	.size	nrf_blk_dev_ioctl, .-nrf_blk_dev_ioctl
	.section	.text.nrf_blk_dev_geometry,"ax",%progbits
	.align	1
	.syntax unified
	.thumb
	.thumb_func
	.fpu fpv4-sp-d16
	.type	nrf_blk_dev_geometry, %function
nrf_blk_dev_geometry:
.LFB147:
	.loc 1 339 1
	@ args = 0, pretend = 0, frame = 8
	@ frame_needed = 0, uses_anonymous_args = 0
	push	{lr}
.LCFI15:
	sub	sp, sp, #12
.LCFI16:
	str	r0, [sp, #4]
	.loc 1 341 21
	ldr	r3, [sp, #4]
	ldr	r3, [r3]
	.loc 1 341 28
	ldr	r3, [r3, #20]
	.loc 1 341 12
	ldr	r0, [sp, #4]
	blx	r3
.LVL7:
	mov	r3, r0
	.loc 1 342 1
	mov	r0, r3
	add	sp, sp, #12
.LCFI17:
	@ sp needed
	ldr	pc, [sp], #4
.LFE147:
	.size	nrf_blk_dev_geometry, .-nrf_blk_dev_geometry
	.section	.bss.m_drives,"aw",%nobits
	.align	2
	.type	m_drives, %object
	.size	m_drives, 4
m_drives:
	.space	4
	.section	.bss.m_drives_count,"aw",%nobits
	.type	m_drives_count, %object
	.size	m_drives_count, 1
m_drives_count:
	.space	1
	.section	.text.block_dev_handler,"ax",%progbits
	.align	1
	.syntax unified
	.thumb
	.thumb_func
	.fpu fpv4-sp-d16
	.type	block_dev_handler, %function
block_dev_handler:
.LFB148:
	.file 2 "C:\\nRF5_SDK_15.0.0_a53641a\\external\\fatfs\\port\\diskio_blkdev.c"
	.loc 2 61 1
	@ args = 0, pretend = 0, frame = 16
	@ frame_needed = 0, uses_anonymous_args = 0
	@ link register save eliminated.
	sub	sp, sp, #16
.LCFI18:
	str	r0, [sp, #4]
	str	r1, [sp]
	.loc 2 62 46
	ldr	r3, [sp]
	ldr	r3, [r3, #8]
	.loc 2 62 13
	strb	r3, [sp, #15]
	.loc 2 65 20
	ldr	r3, [sp]
	ldrb	r3, [r3]	@ zero_extendqisi2
	.loc 2 65 5
	cmp	r3, #3
	bhi	.L18
	.loc 2 71 21
	ldr	r3, .L19
	ldr	r1, [r3]
	ldrb	r2, [sp, #15]	@ zero_extendqisi2
	mov	r3, r2
	lsls	r3, r3, #1
	add	r3, r3, r2
	lsls	r3, r3, #2
	add	r3, r3, r1
	.loc 2 71 48
	ldr	r2, [sp]
	ldrb	r2, [r2, #1]	@ zero_extendqisi2
	.loc 2 71 39
	strb	r2, [r3, #8]
	.loc 2 72 21
	ldr	r3, .L19
	ldr	r1, [r3]
	ldrb	r2, [sp, #15]	@ zero_extendqisi2
	mov	r3, r2
	lsls	r3, r3, #1
	add	r3, r3, r2
	lsls	r3, r3, #2
	add	r3, r3, r1
	.loc 2 72 32
	movs	r2, #0
	strb	r2, [r3, #10]
	.loc 2 73 13
	b	.L17
.L18:
	.loc 2 75 13
	nop
.L17:
	.loc 2 77 1
	nop
	add	sp, sp, #16
.LCFI19:
	@ sp needed
	bx	lr
.L20:
	.align	2
.L19:
	.word	m_drives
.LFE148:
	.size	block_dev_handler, .-block_dev_handler
	.section	.text.default_wait_func,"ax",%progbits
	.align	1
	.syntax unified
	.thumb
	.thumb_func
	.fpu fpv4-sp-d16
	.type	default_wait_func, %function
default_wait_func:
.LFB149:
	.loc 2 83 1
	@ args = 0, pretend = 0, frame = 0
	@ frame_needed = 0, uses_anonymous_args = 0
	@ link register save eliminated.
.LBB4:
.LBB5:
	.file 3 "../../../../../../components/toolchain/cmsis/include/cmsis_gcc.h"
	.loc 3 396 3
	.syntax unified
@ 396 "../../../../../../components/toolchain/cmsis/include/cmsis_gcc.h" 1
	wfe
@ 0 "" 2
	.loc 3 397 1
	.thumb
	.syntax unified
	nop
.LBE5:
.LBE4:
	.loc 2 85 1
	nop
	bx	lr
.LFE149:
	.size	default_wait_func, .-default_wait_func
	.section	.text.disk_initialize,"ax",%progbits
	.align	1
	.global	disk_initialize
	.syntax unified
	.thumb
	.thumb_func
	.fpu fpv4-sp-d16
	.type	disk_initialize, %function
disk_initialize:
.LFB150:
	.loc 2 88 1
	@ args = 0, pretend = 0, frame = 16
	@ frame_needed = 0, uses_anonymous_args = 0
	push	{lr}
.LCFI20:
	sub	sp, sp, #20
.LCFI21:
	mov	r3, r0
	strb	r3, [sp, #7]
	.loc 2 91 13
	ldr	r3, .L31
	ldrb	r3, [r3]	@ zero_extendqisi2
	.loc 2 91 8
	ldrb	r2, [sp, #7]	@ zero_extendqisi2
	cmp	r2, r3
	bcc	.L23
	.loc 2 93 16
	movs	r3, #3
	b	.L24
.L23:
	.loc 2 96 18
	ldr	r3, .L31+4
	ldr	r1, [r3]
	ldrb	r2, [sp, #7]	@ zero_extendqisi2
	mov	r3, r2
	lsls	r3, r3, #1
	add	r3, r3, r2
	lsls	r3, r3, #2
	add	r3, r3, r1
	.loc 2 96 30
	ldr	r3, [r3]
	.loc 2 96 8
	cmp	r3, #0
	bne	.L25
	.loc 2 98 16
	movs	r3, #3
	b	.L24
.L25:
	.loc 2 101 19
	ldr	r3, .L31+4
	ldr	r1, [r3]
	ldrb	r2, [sp, #7]	@ zero_extendqisi2
	mov	r3, r2
	lsls	r3, r3, #1
	add	r3, r3, r2
	lsls	r3, r3, #2
	add	r3, r3, r1
	.loc 2 101 24
	ldrb	r3, [r3, #9]
	uxtb	r3, r3
	.loc 2 101 31
	and	r3, r3, #1
	.loc 2 101 8
	cmp	r3, #0
	bne	.L26
	.loc 2 104 24
	ldr	r3, .L31+4
	ldr	r1, [r3]
	ldrb	r2, [sp, #7]	@ zero_extendqisi2
	mov	r3, r2
	lsls	r3, r3, #1
	add	r3, r3, r2
	lsls	r3, r3, #2
	add	r3, r3, r1
	.loc 2 104 29
	ldrb	r3, [r3, #9]
	uxtb	r3, r3
	b	.L24
.L26:
	.loc 2 107 17
	ldr	r3, .L31+4
	ldr	r1, [r3]
	ldrb	r2, [sp, #7]	@ zero_extendqisi2
	mov	r3, r2
	lsls	r3, r3, #1
	add	r3, r3, r2
	lsls	r3, r3, #2
	add	r3, r3, r1
	.loc 2 107 29
	ldr	r3, [r3, #4]
	.loc 2 107 8
	cmp	r3, #0
	bne	.L27
	.loc 2 109 17
	ldr	r3, .L31+4
	ldr	r1, [r3]
	ldrb	r2, [sp, #7]	@ zero_extendqisi2
	mov	r3, r2
	lsls	r3, r3, #1
	add	r3, r3, r2
	lsls	r3, r3, #2
	add	r3, r3, r1
	.loc 2 109 40
	ldr	r2, .L31+8
	str	r2, [r3, #4]
.L27:
	.loc 2 112 13
	ldr	r3, .L31+4
	ldr	r1, [r3]
	ldrb	r2, [sp, #7]	@ zero_extendqisi2
	mov	r3, r2
	lsls	r3, r3, #1
	add	r3, r3, r2
	lsls	r3, r3, #2
	add	r3, r3, r1
	.loc 2 112 24
	movs	r2, #1
	strb	r2, [r3, #10]
	.loc 2 113 52
	ldr	r3, .L31+4
	ldr	r1, [r3]
	ldrb	r2, [sp, #7]	@ zero_extendqisi2
	mov	r3, r2
	lsls	r3, r3, #1
	add	r3, r3, r2
	lsls	r3, r3, #2
	add	r3, r3, r1
	.loc 2 113 27
	ldr	r3, [r3]
	.loc 2 115 53
	ldrb	r2, [sp, #7]	@ zero_extendqisi2
	.loc 2 113 27
	ldr	r1, .L31+12
	mov	r0, r3
	bl	nrf_blk_dev_init
	str	r0, [sp, #12]
	.loc 2 116 8
	ldr	r3, [sp, #12]
	cmp	r3, #0
	bne	.L28
	.loc 2 118 15
	b	.L29
.L30:
	.loc 2 120 21
	ldr	r3, .L31+4
	ldr	r1, [r3]
	ldrb	r2, [sp, #7]	@ zero_extendqisi2
	mov	r3, r2
	lsls	r3, r3, #1
	add	r3, r3, r2
	lsls	r3, r3, #2
	add	r3, r3, r1
	.loc 2 120 33
	ldr	r3, [r3, #4]
	.loc 2 120 13
	blx	r3
.LVL8:
.L29:
	.loc 2 118 24
	ldr	r3, .L31+4
	ldr	r1, [r3]
	ldrb	r2, [sp, #7]	@ zero_extendqisi2
	mov	r3, r2
	lsls	r3, r3, #1
	add	r3, r3, r2
	lsls	r3, r3, #2
	add	r3, r3, r1
	.loc 2 118 29
	ldrb	r3, [r3, #10]
	uxtb	r3, r3
	.loc 2 118 15
	cmp	r3, #0
	bne	.L30
	.loc 2 123 21
	ldr	r3, .L31+4
	ldr	r1, [r3]
	ldrb	r2, [sp, #7]	@ zero_extendqisi2
	mov	r3, r2
	lsls	r3, r3, #1
	add	r3, r3, r2
	lsls	r3, r3, #2
	add	r3, r3, r1
	.loc 2 123 26
	ldrb	r3, [r3, #8]	@ zero_extendqisi2
	.loc 2 123 12
	cmp	r3, #0
	bne	.L28
	.loc 2 125 33
	ldr	r3, .L31+4
	ldr	r1, [r3]
	ldrb	r2, [sp, #7]	@ zero_extendqisi2
	mov	r3, r2
	lsls	r3, r3, #1
	add	r3, r3, r2
	lsls	r3, r3, #2
	add	r3, r3, r1
	ldrb	r3, [r3, #9]
	uxtb	r1, r3
	ldr	r3, .L31+4
	ldr	r0, [r3]
	ldrb	r2, [sp, #7]	@ zero_extendqisi2
	mov	r3, r2
	lsls	r3, r3, #1
	add	r3, r3, r2
	lsls	r3, r3, #2
	add	r3, r3, r0
	bic	r2, r1, #1
	uxtb	r2, r2
	strb	r2, [r3, #9]
.L28:
	.loc 2 129 20
	ldr	r3, .L31+4
	ldr	r1, [r3]
	ldrb	r2, [sp, #7]	@ zero_extendqisi2
	mov	r3, r2
	lsls	r3, r3, #1
	add	r3, r3, r2
	lsls	r3, r3, #2
	add	r3, r3, r1
	.loc 2 129 25
	ldrb	r3, [r3, #9]
	uxtb	r3, r3
.L24:
	.loc 2 130 1
	mov	r0, r3
	add	sp, sp, #20
.LCFI22:
	@ sp needed
	ldr	pc, [sp], #4
.L32:
	.align	2
.L31:
	.word	m_drives_count
	.word	m_drives
	.word	default_wait_func
	.word	block_dev_handler
.LFE150:
	.size	disk_initialize, .-disk_initialize
	.section	.text.disk_uninitialize,"ax",%progbits
	.align	1
	.global	disk_uninitialize
	.syntax unified
	.thumb
	.thumb_func
	.fpu fpv4-sp-d16
	.type	disk_uninitialize, %function
disk_uninitialize:
.LFB151:
	.loc 2 133 1
	@ args = 0, pretend = 0, frame = 16
	@ frame_needed = 0, uses_anonymous_args = 0
	push	{lr}
.LCFI23:
	sub	sp, sp, #20
.LCFI24:
	mov	r3, r0
	strb	r3, [sp, #7]
	.loc 2 136 13
	ldr	r3, .L43
	ldrb	r3, [r3]	@ zero_extendqisi2
	.loc 2 136 8
	ldrb	r2, [sp, #7]	@ zero_extendqisi2
	cmp	r2, r3
	bcc	.L34
	.loc 2 138 16
	movs	r3, #3
	b	.L35
.L34:
	.loc 2 141 18
	ldr	r3, .L43+4
	ldr	r1, [r3]
	ldrb	r2, [sp, #7]	@ zero_extendqisi2
	mov	r3, r2
	lsls	r3, r3, #1
	add	r3, r3, r2
	lsls	r3, r3, #2
	add	r3, r3, r1
	.loc 2 141 30
	ldr	r3, [r3]
	.loc 2 141 8
	cmp	r3, #0
	bne	.L36
	.loc 2 143 16
	movs	r3, #3
	b	.L35
.L36:
	.loc 2 146 17
	ldr	r3, .L43+4
	ldr	r1, [r3]
	ldrb	r2, [sp, #7]	@ zero_extendqisi2
	mov	r3, r2
	lsls	r3, r3, #1
	add	r3, r3, r2
	lsls	r3, r3, #2
	add	r3, r3, r1
	.loc 2 146 22
	ldrb	r3, [r3, #9]
	uxtb	r3, r3
	.loc 2 146 29
	and	r3, r3, #1
	.loc 2 146 8
	cmp	r3, #0
	beq	.L37
	.loc 2 149 24
	ldr	r3, .L43+4
	ldr	r1, [r3]
	ldrb	r2, [sp, #7]	@ zero_extendqisi2
	mov	r3, r2
	lsls	r3, r3, #1
	add	r3, r3, r2
	lsls	r3, r3, #2
	add	r3, r3, r1
	.loc 2 149 29
	ldrb	r3, [r3, #9]
	uxtb	r3, r3
	b	.L35
.L37:
	.loc 2 152 37
	ldr	r3, .L43+4
	ldr	r1, [r3]
	ldrb	r2, [sp, #7]	@ zero_extendqisi2
	mov	r3, r2
	lsls	r3, r3, #1
	add	r3, r3, r2
	lsls	r3, r3, #2
	add	r3, r3, r1
	.loc 2 152 11
	ldr	r3, [r3]
	movs	r2, #0
	movs	r1, #0
	mov	r0, r3
	bl	nrf_blk_dev_ioctl
.L38:
	.loc 2 159 42 discriminator 1
	ldr	r3, .L43+4
	ldr	r1, [r3]
	ldrb	r2, [sp, #7]	@ zero_extendqisi2
	mov	r3, r2
	lsls	r3, r3, #1
	add	r3, r3, r2
	lsls	r3, r3, #2
	add	r3, r3, r1
	.loc 2 159 15 discriminator 1
	ldr	r3, [r3]
	mov	r0, r3
	bl	nrf_blk_dev_uninit
	str	r0, [sp, #12]
	.loc 2 160 5 discriminator 1
	ldr	r3, [sp, #12]
	cmp	r3, #17
	beq	.L38
	.loc 2 162 8
	ldr	r3, [sp, #12]
	cmp	r3, #0
	bne	.L39
	.loc 2 164 15
	b	.L40
.L41:
	.loc 2 166 21
	ldr	r3, .L43+4
	ldr	r1, [r3]
	ldrb	r2, [sp, #7]	@ zero_extendqisi2
	mov	r3, r2
	lsls	r3, r3, #1
	add	r3, r3, r2
	lsls	r3, r3, #2
	add	r3, r3, r1
	.loc 2 166 33
	ldr	r3, [r3, #4]
	.loc 2 166 13
	blx	r3
.LVL9:
.L40:
	.loc 2 164 24
	ldr	r3, .L43+4
	ldr	r1, [r3]
	ldrb	r2, [sp, #7]	@ zero_extendqisi2
	mov	r3, r2
	lsls	r3, r3, #1
	add	r3, r3, r2
	lsls	r3, r3, #2
	add	r3, r3, r1
	.loc 2 164 29
	ldrb	r3, [r3, #10]
	uxtb	r3, r3
	.loc 2 164 15
	cmp	r3, #0
	bne	.L41
.L39:
	.loc 2 169 17
	ldr	r3, .L43+4
	ldr	r1, [r3]
	ldrb	r2, [sp, #7]	@ zero_extendqisi2
	mov	r3, r2
	lsls	r3, r3, #1
	add	r3, r3, r2
	lsls	r3, r3, #2
	add	r3, r3, r1
	.loc 2 169 22
	ldrb	r3, [r3, #8]	@ zero_extendqisi2
	.loc 2 169 8
	cmp	r3, #0
	bne	.L42
	.loc 2 171 29
	ldr	r3, .L43+4
	ldr	r1, [r3]
	ldrb	r2, [sp, #7]	@ zero_extendqisi2
	mov	r3, r2
	lsls	r3, r3, #1
	add	r3, r3, r2
	lsls	r3, r3, #2
	add	r3, r3, r1
	ldrb	r3, [r3, #9]
	uxtb	r1, r3
	ldr	r3, .L43+4
	ldr	r0, [r3]
	ldrb	r2, [sp, #7]	@ zero_extendqisi2
	mov	r3, r2
	lsls	r3, r3, #1
	add	r3, r3, r2
	lsls	r3, r3, #2
	add	r3, r3, r0
	orr	r2, r1, #1
	uxtb	r2, r2
	strb	r2, [r3, #9]
.L42:
	.loc 2 174 20
	ldr	r3, .L43+4
	ldr	r1, [r3]
	ldrb	r2, [sp, #7]	@ zero_extendqisi2
	mov	r3, r2
	lsls	r3, r3, #1
	add	r3, r3, r2
	lsls	r3, r3, #2
	add	r3, r3, r1
	.loc 2 174 25
	ldrb	r3, [r3, #9]
	uxtb	r3, r3
.L35:
	.loc 2 175 1
	mov	r0, r3
	add	sp, sp, #20
.LCFI25:
	@ sp needed
	ldr	pc, [sp], #4
.L44:
	.align	2
.L43:
	.word	m_drives_count
	.word	m_drives
.LFE151:
	.size	disk_uninitialize, .-disk_uninitialize
	.section	.text.disk_status,"ax",%progbits
	.align	1
	.global	disk_status
	.syntax unified
	.thumb
	.thumb_func
	.fpu fpv4-sp-d16
	.type	disk_status, %function
disk_status:
.LFB152:
	.loc 2 178 1
	@ args = 0, pretend = 0, frame = 8
	@ frame_needed = 0, uses_anonymous_args = 0
	@ link register save eliminated.
	sub	sp, sp, #8
.LCFI26:
	mov	r3, r0
	strb	r3, [sp, #7]
	.loc 2 181 13
	ldr	r3, .L48
	ldrb	r3, [r3]	@ zero_extendqisi2
	.loc 2 181 8
	ldrb	r2, [sp, #7]	@ zero_extendqisi2
	cmp	r2, r3
	bcc	.L46
	.loc 2 183 16
	movs	r3, #1
	b	.L47
.L46:
	.loc 2 185 20
	ldr	r3, .L48+4
	ldr	r1, [r3]
	ldrb	r2, [sp, #7]	@ zero_extendqisi2
	mov	r3, r2
	lsls	r3, r3, #1
	add	r3, r3, r2
	lsls	r3, r3, #2
	add	r3, r3, r1
	.loc 2 185 25
	ldrb	r3, [r3, #9]
	uxtb	r3, r3
.L47:
	.loc 2 186 1
	mov	r0, r3
	add	sp, sp, #8
.LCFI27:
	@ sp needed
	bx	lr
.L49:
	.align	2
.L48:
	.word	m_drives_count
	.word	m_drives
.LFE152:
	.size	disk_status, .-disk_status
	.section	.text.disk_read,"ax",%progbits
	.align	1
	.global	disk_read
	.syntax unified
	.thumb
	.thumb_func
	.fpu fpv4-sp-d16
	.type	disk_read, %function
disk_read:
.LFB153:
	.loc 2 189 1
	@ args = 0, pretend = 0, frame = 32
	@ frame_needed = 0, uses_anonymous_args = 0
	push	{lr}
.LCFI28:
	sub	sp, sp, #36
.LCFI29:
	str	r1, [sp, #8]
	str	r2, [sp, #4]
	str	r3, [sp]
	mov	r3, r0
	strb	r3, [sp, #15]
	.loc 2 192 14
	ldr	r3, .L60
	ldrb	r3, [r3]	@ zero_extendqisi2
	.loc 2 192 8
	ldrb	r2, [sp, #15]	@ zero_extendqisi2
	cmp	r2, r3
	bcs	.L51
	.loc 2 192 33 discriminator 1
	ldr	r3, [sp]
	cmp	r3, #0
	bne	.L52
.L51:
	.loc 2 194 16
	movs	r3, #4
	b	.L59
.L52:
	.loc 2 197 18
	ldr	r3, .L60+4
	ldr	r1, [r3]
	ldrb	r2, [sp, #15]	@ zero_extendqisi2
	mov	r3, r2
	lsls	r3, r3, #1
	add	r3, r3, r2
	lsls	r3, r3, #2
	add	r3, r3, r1
	.loc 2 197 30
	ldr	r3, [r3]
	.loc 2 197 8
	cmp	r3, #0
	beq	.L54
	.loc 2 198 21
	ldr	r3, .L60+4
	ldr	r1, [r3]
	ldrb	r2, [sp, #15]	@ zero_extendqisi2
	mov	r3, r2
	lsls	r3, r3, #1
	add	r3, r3, r2
	lsls	r3, r3, #2
	add	r3, r3, r1
	.loc 2 198 26
	ldrb	r3, [r3, #9]
	uxtb	r3, r3
	.loc 2 198 33
	and	r3, r3, #1
	.loc 2 198 9
	cmp	r3, #0
	beq	.L55
.L54:
	.loc 2 200 16
	movs	r3, #3
	b	.L59
.L55:
	.loc 2 203 27
	ldr	r3, [sp, #4]
	str	r3, [sp, #16]
	ldr	r3, [sp]
	str	r3, [sp, #20]
	ldr	r3, [sp, #8]
	str	r3, [sp, #24]
	.loc 2 209 13
	ldr	r3, .L60+4
	ldr	r1, [r3]
	ldrb	r2, [sp, #15]	@ zero_extendqisi2
	mov	r3, r2
	lsls	r3, r3, #1
	add	r3, r3, r2
	lsls	r3, r3, #2
	add	r3, r3, r1
	.loc 2 209 24
	movs	r2, #1
	strb	r2, [r3, #10]
	.loc 2 210 56
	ldr	r3, .L60+4
	ldr	r1, [r3]
	ldrb	r2, [sp, #15]	@ zero_extendqisi2
	mov	r3, r2
	lsls	r3, r3, #1
	add	r3, r3, r2
	lsls	r3, r3, #2
	add	r3, r3, r1
	.loc 2 210 27
	ldr	r3, [r3]
	add	r2, sp, #16
	mov	r1, r2
	mov	r0, r3
	bl	nrf_blk_dev_read_req
	str	r0, [sp, #28]
	.loc 2 212 8
	ldr	r3, [sp, #28]
	cmp	r3, #0
	bne	.L56
	.loc 2 214 15
	b	.L57
.L58:
	.loc 2 216 21
	ldr	r3, .L60+4
	ldr	r1, [r3]
	ldrb	r2, [sp, #15]	@ zero_extendqisi2
	mov	r3, r2
	lsls	r3, r3, #1
	add	r3, r3, r2
	lsls	r3, r3, #2
	add	r3, r3, r1
	.loc 2 216 33
	ldr	r3, [r3, #4]
	.loc 2 216 13
	blx	r3
.LVL10:
.L57:
	.loc 2 214 24
	ldr	r3, .L60+4
	ldr	r1, [r3]
	ldrb	r2, [sp, #15]	@ zero_extendqisi2
	mov	r3, r2
	lsls	r3, r3, #1
	add	r3, r3, r2
	lsls	r3, r3, #2
	add	r3, r3, r1
	.loc 2 214 29
	ldrb	r3, [r3, #10]
	uxtb	r3, r3
	.loc 2 214 15
	cmp	r3, #0
	bne	.L58
	.loc 2 219 21
	ldr	r3, .L60+4
	ldr	r1, [r3]
	ldrb	r2, [sp, #15]	@ zero_extendqisi2
	mov	r3, r2
	lsls	r3, r3, #1
	add	r3, r3, r2
	lsls	r3, r3, #2
	add	r3, r3, r1
	.loc 2 219 26
	ldrb	r3, [r3, #8]	@ zero_extendqisi2
	.loc 2 219 12
	cmp	r3, #0
	bne	.L56
	.loc 2 221 20
	movs	r3, #0
	b	.L59
.L56:
	.loc 2 224 12
	movs	r3, #1
.L59:
	.loc 2 225 1 discriminator 1
	mov	r0, r3
	add	sp, sp, #36
.LCFI30:
	@ sp needed
	ldr	pc, [sp], #4
.L61:
	.align	2
.L60:
	.word	m_drives_count
	.word	m_drives
.LFE153:
	.size	disk_read, .-disk_read
	.section	.text.disk_write,"ax",%progbits
	.align	1
	.global	disk_write
	.syntax unified
	.thumb
	.thumb_func
	.fpu fpv4-sp-d16
	.type	disk_write, %function
disk_write:
.LFB154:
	.loc 2 228 1
	@ args = 0, pretend = 0, frame = 32
	@ frame_needed = 0, uses_anonymous_args = 0
	push	{lr}
.LCFI31:
	sub	sp, sp, #36
.LCFI32:
	str	r1, [sp, #8]
	str	r2, [sp, #4]
	str	r3, [sp]
	mov	r3, r0
	strb	r3, [sp, #15]
	.loc 2 231 14
	ldr	r3, .L73
	ldrb	r3, [r3]	@ zero_extendqisi2
	.loc 2 231 8
	ldrb	r2, [sp, #15]	@ zero_extendqisi2
	cmp	r2, r3
	bcs	.L63
	.loc 2 231 33 discriminator 1
	ldr	r3, [sp]
	cmp	r3, #0
	bne	.L64
.L63:
	.loc 2 233 16
	movs	r3, #4
	b	.L72
.L64:
	.loc 2 236 18
	ldr	r3, .L73+4
	ldr	r1, [r3]
	ldrb	r2, [sp, #15]	@ zero_extendqisi2
	mov	r3, r2
	lsls	r3, r3, #1
	add	r3, r3, r2
	lsls	r3, r3, #2
	add	r3, r3, r1
	.loc 2 236 30
	ldr	r3, [r3]
	.loc 2 236 8
	cmp	r3, #0
	beq	.L66
	.loc 2 237 21
	ldr	r3, .L73+4
	ldr	r1, [r3]
	ldrb	r2, [sp, #15]	@ zero_extendqisi2
	mov	r3, r2
	lsls	r3, r3, #1
	add	r3, r3, r2
	lsls	r3, r3, #2
	add	r3, r3, r1
	.loc 2 237 26
	ldrb	r3, [r3, #9]
	uxtb	r3, r3
	.loc 2 237 33
	and	r3, r3, #1
	.loc 2 237 9
	cmp	r3, #0
	beq	.L67
.L66:
	.loc 2 239 16
	movs	r3, #3
	b	.L72
.L67:
	.loc 2 242 17
	ldr	r3, .L73+4
	ldr	r1, [r3]
	ldrb	r2, [sp, #15]	@ zero_extendqisi2
	mov	r3, r2
	lsls	r3, r3, #1
	add	r3, r3, r2
	lsls	r3, r3, #2
	add	r3, r3, r1
	.loc 2 242 22
	ldrb	r3, [r3, #9]
	uxtb	r3, r3
	.loc 2 242 29
	and	r3, r3, #4
	.loc 2 242 8
	cmp	r3, #0
	beq	.L68
	.loc 2 244 16
	movs	r3, #2
	b	.L72
.L68:
	.loc 2 247 27
	ldr	r3, [sp, #4]
	str	r3, [sp, #16]
	ldr	r3, [sp]
	str	r3, [sp, #20]
	ldr	r3, [sp, #8]
	str	r3, [sp, #24]
	.loc 2 253 13
	ldr	r3, .L73+4
	ldr	r1, [r3]
	ldrb	r2, [sp, #15]	@ zero_extendqisi2
	mov	r3, r2
	lsls	r3, r3, #1
	add	r3, r3, r2
	lsls	r3, r3, #2
	add	r3, r3, r1
	.loc 2 253 24
	movs	r2, #1
	strb	r2, [r3, #10]
	.loc 2 254 57
	ldr	r3, .L73+4
	ldr	r1, [r3]
	ldrb	r2, [sp, #15]	@ zero_extendqisi2
	mov	r3, r2
	lsls	r3, r3, #1
	add	r3, r3, r2
	lsls	r3, r3, #2
	add	r3, r3, r1
	.loc 2 254 27
	ldr	r3, [r3]
	add	r2, sp, #16
	mov	r1, r2
	mov	r0, r3
	bl	nrf_blk_dev_write_req
	str	r0, [sp, #28]
	.loc 2 255 8
	ldr	r3, [sp, #28]
	cmp	r3, #0
	bne	.L69
	.loc 2 257 15
	b	.L70
.L71:
	.loc 2 259 21
	ldr	r3, .L73+4
	ldr	r1, [r3]
	ldrb	r2, [sp, #15]	@ zero_extendqisi2
	mov	r3, r2
	lsls	r3, r3, #1
	add	r3, r3, r2
	lsls	r3, r3, #2
	add	r3, r3, r1
	.loc 2 259 33
	ldr	r3, [r3, #4]
	.loc 2 259 13
	blx	r3
.LVL11:
.L70:
	.loc 2 257 24
	ldr	r3, .L73+4
	ldr	r1, [r3]
	ldrb	r2, [sp, #15]	@ zero_extendqisi2
	mov	r3, r2
	lsls	r3, r3, #1
	add	r3, r3, r2
	lsls	r3, r3, #2
	add	r3, r3, r1
	.loc 2 257 29
	ldrb	r3, [r3, #10]
	uxtb	r3, r3
	.loc 2 257 15
	cmp	r3, #0
	bne	.L71
	.loc 2 262 21
	ldr	r3, .L73+4
	ldr	r1, [r3]
	ldrb	r2, [sp, #15]	@ zero_extendqisi2
	mov	r3, r2
	lsls	r3, r3, #1
	add	r3, r3, r2
	lsls	r3, r3, #2
	add	r3, r3, r1
	.loc 2 262 26
	ldrb	r3, [r3, #8]	@ zero_extendqisi2
	.loc 2 262 12
	cmp	r3, #0
	bne	.L69
	.loc 2 264 20
	movs	r3, #0
	b	.L72
.L69:
	.loc 2 267 12
	movs	r3, #1
.L72:
	.loc 2 268 1 discriminator 1
	mov	r0, r3
	add	sp, sp, #36
.LCFI33:
	@ sp needed
	ldr	pc, [sp], #4
.L74:
	.align	2
.L73:
	.word	m_drives_count
	.word	m_drives
.LFE154:
	.size	disk_write, .-disk_write
	.section	.text.disk_ioctl,"ax",%progbits
	.align	1
	.global	disk_ioctl
	.syntax unified
	.thumb
	.thumb_func
	.fpu fpv4-sp-d16
	.type	disk_ioctl, %function
disk_ioctl:
.LFB155:
	.loc 2 271 1
	@ args = 0, pretend = 0, frame = 24
	@ frame_needed = 0, uses_anonymous_args = 0
	push	{lr}
.LCFI34:
	sub	sp, sp, #28
.LCFI35:
	mov	r3, r0
	str	r2, [sp]
	strb	r3, [sp, #7]
	mov	r3, r1
	strb	r3, [sp, #6]
	.loc 2 274 13
	ldr	r3, .L90
	ldrb	r3, [r3]	@ zero_extendqisi2
	.loc 2 274 8
	ldrb	r2, [sp, #7]	@ zero_extendqisi2
	cmp	r2, r3
	bcc	.L76
	.loc 2 276 16
	movs	r3, #4
	b	.L77
.L76:
	.loc 2 279 5
	ldrb	r3, [sp, #6]	@ zero_extendqisi2
	cmp	r3, #2
	beq	.L78
	cmp	r3, #2
	bgt	.L88
	cmp	r3, #0
	beq	.L80
	cmp	r3, #1
	beq	.L81
	.loc 2 321 13
	b	.L88
.L80:
.LBB6:
	.loc 2 283 17
	movs	r3, #1
	strb	r3, [sp, #11]
.L84:
.LBB7:
	.loc 2 286 60
	ldr	r3, .L90+4
	ldr	r1, [r3]
	ldrb	r2, [sp, #7]	@ zero_extendqisi2
	mov	r3, r2
	lsls	r3, r3, #1
	add	r3, r3, r2
	lsls	r3, r3, #2
	add	r3, r3, r1
	.loc 2 286 34
	ldr	r3, [r3]
	add	r2, sp, #11
	movs	r1, #0
	mov	r0, r3
	bl	nrf_blk_dev_ioctl
	str	r0, [sp, #12]
	.loc 2 289 20
	ldr	r3, [sp, #12]
	cmp	r3, #0
	beq	.L82
	.loc 2 289 40 discriminator 1
	ldr	r3, [sp, #12]
	cmp	r3, #17
	bne	.L89
.L82:
.LBE7:
	.loc 2 294 22
	ldrb	r3, [sp, #11]	@ zero_extendqisi2
	.loc 2 294 13
	cmp	r3, #0
	bne	.L84
	b	.L83
.L89:
.LBB8:
	.loc 2 291 21
	nop
.L83:
.LBE8:
	.loc 2 296 20
	movs	r3, #0
	b	.L77
.L81:
.LBE6:
.LBB9:
	.loc 2 300 25
	ldr	r3, .L90+4
	ldr	r1, [r3]
	ldrb	r2, [sp, #7]	@ zero_extendqisi2
	mov	r3, r2
	lsls	r3, r3, #1
	add	r3, r3, r2
	lsls	r3, r3, #2
	add	r3, r3, r1
	.loc 2 300 37
	ldr	r3, [r3]
	.loc 2 300 16
	cmp	r3, #0
	bne	.L85
	.loc 2 302 24
	movs	r3, #3
	b	.L77
.L85:
	.loc 2 305 21
	ldr	r3, [sp]
	str	r3, [sp, #16]
	.loc 2 306 49
	ldr	r3, .L90+4
	ldr	r1, [r3]
	ldrb	r2, [sp, #7]	@ zero_extendqisi2
	mov	r3, r2
	lsls	r3, r3, #1
	add	r3, r3, r2
	lsls	r3, r3, #2
	add	r3, r3, r1
	.loc 2 306 20
	ldr	r3, [r3]
	mov	r0, r3
	bl	nrf_blk_dev_geometry
	mov	r3, r0
	.loc 2 306 77
	ldr	r2, [r3]
	.loc 2 306 18
	ldr	r3, [sp, #16]
	str	r2, [r3]
	.loc 2 307 20
	movs	r3, #0
	b	.L77
.L78:
.LBE9:
.LBB10:
	.loc 2 311 25
	ldr	r3, .L90+4
	ldr	r1, [r3]
	ldrb	r2, [sp, #7]	@ zero_extendqisi2
	mov	r3, r2
	lsls	r3, r3, #1
	add	r3, r3, r2
	lsls	r3, r3, #2
	add	r3, r3, r1
	.loc 2 311 37
	ldr	r3, [r3]
	.loc 2 311 16
	cmp	r3, #0
	bne	.L86
	.loc 2 313 24
	movs	r3, #3
	b	.L77
.L86:
	.loc 2 316 20
	ldr	r3, [sp]
	str	r3, [sp, #20]
	.loc 2 317 49
	ldr	r3, .L90+4
	ldr	r1, [r3]
	ldrb	r2, [sp, #7]	@ zero_extendqisi2
	mov	r3, r2
	lsls	r3, r3, #1
	add	r3, r3, r2
	lsls	r3, r3, #2
	add	r3, r3, r1
	.loc 2 317 20
	ldr	r3, [r3]
	mov	r0, r3
	bl	nrf_blk_dev_geometry
	mov	r3, r0
	.loc 2 317 77
	ldr	r3, [r3, #4]
	.loc 2 317 18
	uxth	r2, r3
	ldr	r3, [sp, #20]
	strh	r2, [r3]	@ movhi
	.loc 2 318 20
	movs	r3, #0
	b	.L77
.L88:
.LBE10:
	.loc 2 321 13
	nop
	.loc 2 323 12
	movs	r3, #1
.L77:
	.loc 2 324 1 discriminator 1
	mov	r0, r3
	add	sp, sp, #28
.LCFI36:
	@ sp needed
	ldr	pc, [sp], #4
.L91:
	.align	2
.L90:
	.word	m_drives_count
	.word	m_drives
.LFE155:
	.size	disk_ioctl, .-disk_ioctl
	.section	.text.diskio_blockdev_register,"ax",%progbits
	.align	1
	.global	diskio_blockdev_register
	.syntax unified
	.thumb
	.thumb_func
	.fpu fpv4-sp-d16
	.type	diskio_blockdev_register, %function
diskio_blockdev_register:
.LFB156:
	.loc 2 327 1
	@ args = 0, pretend = 0, frame = 8
	@ frame_needed = 0, uses_anonymous_args = 0
	@ link register save eliminated.
	sub	sp, sp, #8
.LCFI37:
	str	r0, [sp, #4]
	str	r1, [sp]
	.loc 2 330 14
	ldr	r2, .L93
	ldr	r3, [sp, #4]
	str	r3, [r2]
	.loc 2 331 20
	ldr	r3, [sp]
	uxtb	r2, r3
	ldr	r3, .L93+4
	strb	r2, [r3]
	.loc 2 332 1
	nop
	add	sp, sp, #8
.LCFI38:
	@ sp needed
	bx	lr
.L94:
	.align	2
.L93:
	.word	m_drives
	.word	m_drives_count
.LFE156:
	.size	diskio_blockdev_register, .-diskio_blockdev_register
	.section	.debug_frame,"",%progbits
.Lframe0:
	.4byte	.LECIE0-.LSCIE0
.LSCIE0:
	.4byte	0xffffffff
	.byte	0x3
	.ascii	"\000"
	.uleb128 0x1
	.sleb128 -4
	.uleb128 0xe
	.byte	0xc
	.uleb128 0xd
	.uleb128 0
	.align	2
.LECIE0:
.LSFDE0:
	.4byte	.LEFDE0-.LASFDE0
.LASFDE0:
	.4byte	.Lframe0
	.4byte	.LFB142
	.4byte	.LFE142-.LFB142
	.byte	0x4
	.4byte	.LCFI0-.LFB142
	.byte	0xe
	.uleb128 0x4
	.byte	0x8e
	.uleb128 0x1
	.byte	0x4
	.4byte	.LCFI1-.LCFI0
	.byte	0xe
	.uleb128 0x18
	.byte	0x4
	.4byte	.LCFI2-.LCFI1
	.byte	0xe
	.uleb128 0x4
	.align	2
.LEFDE0:
.LSFDE2:
	.4byte	.LEFDE2-.LASFDE2
.LASFDE2:
	.4byte	.Lframe0
	.4byte	.LFB143
	.4byte	.LFE143-.LFB143
	.byte	0x4
	.4byte	.LCFI3-.LFB143
	.byte	0xe
	.uleb128 0x4
	.byte	0x8e
	.uleb128 0x1
	.byte	0x4
	.4byte	.LCFI4-.LCFI3
	.byte	0xe
	.uleb128 0x10
	.byte	0x4
	.4byte	.LCFI5-.LCFI4
	.byte	0xe
	.uleb128 0x4
	.align	2
.LEFDE2:
.LSFDE4:
	.4byte	.LEFDE4-.LASFDE4
.LASFDE4:
	.4byte	.Lframe0
	.4byte	.LFB144
	.4byte	.LFE144-.LFB144
	.byte	0x4
	.4byte	.LCFI6-.LFB144
	.byte	0xe
	.uleb128 0x8
	.byte	0x84
	.uleb128 0x2
	.byte	0x8e
	.uleb128 0x1
	.byte	0x4
	.4byte	.LCFI7-.LCFI6
	.byte	0xe
	.uleb128 0x10
	.byte	0x4
	.4byte	.LCFI8-.LCFI7
	.byte	0xe
	.uleb128 0x8
	.align	2
.LEFDE4:
.LSFDE6:
	.4byte	.LEFDE6-.LASFDE6
.LASFDE6:
	.4byte	.Lframe0
	.4byte	.LFB145
	.4byte	.LFE145-.LFB145
	.byte	0x4
	.4byte	.LCFI9-.LFB145
	.byte	0xe
	.uleb128 0x8
	.byte	0x84
	.uleb128 0x2
	.byte	0x8e
	.uleb128 0x1
	.byte	0x4
	.4byte	.LCFI10-.LCFI9
	.byte	0xe
	.uleb128 0x10
	.byte	0x4
	.4byte	.LCFI11-.LCFI10
	.byte	0xe
	.uleb128 0x8
	.align	2
.LEFDE6:
.LSFDE8:
	.4byte	.LEFDE8-.LASFDE8
.LASFDE8:
	.4byte	.Lframe0
	.4byte	.LFB146
	.4byte	.LFE146-.LFB146
	.byte	0x4
	.4byte	.LCFI12-.LFB146
	.byte	0xe
	.uleb128 0x4
	.byte	0x8e
	.uleb128 0x1
	.byte	0x4
	.4byte	.LCFI13-.LCFI12
	.byte	0xe
	.uleb128 0x18
	.byte	0x4
	.4byte	.LCFI14-.LCFI13
	.byte	0xe
	.uleb128 0x4
	.align	2
.LEFDE8:
.LSFDE10:
	.4byte	.LEFDE10-.LASFDE10
.LASFDE10:
	.4byte	.Lframe0
	.4byte	.LFB147
	.4byte	.LFE147-.LFB147
	.byte	0x4
	.4byte	.LCFI15-.LFB147
	.byte	0xe
	.uleb128 0x4
	.byte	0x8e
	.uleb128 0x1
	.byte	0x4
	.4byte	.LCFI16-.LCFI15
	.byte	0xe
	.uleb128 0x10
	.byte	0x4
	.4byte	.LCFI17-.LCFI16
	.byte	0xe
	.uleb128 0x4
	.align	2
.LEFDE10:
.LSFDE12:
	.4byte	.LEFDE12-.LASFDE12
.LASFDE12:
	.4byte	.Lframe0
	.4byte	.LFB148
	.4byte	.LFE148-.LFB148
	.byte	0x4
	.4byte	.LCFI18-.LFB148
	.byte	0xe
	.uleb128 0x10
	.byte	0x4
	.4byte	.LCFI19-.LCFI18
	.byte	0xe
	.uleb128 0
	.align	2
.LEFDE12:
.LSFDE14:
	.4byte	.LEFDE14-.LASFDE14
.LASFDE14:
	.4byte	.Lframe0
	.4byte	.LFB149
	.4byte	.LFE149-.LFB149
	.align	2
.LEFDE14:
.LSFDE16:
	.4byte	.LEFDE16-.LASFDE16
.LASFDE16:
	.4byte	.Lframe0
	.4byte	.LFB150
	.4byte	.LFE150-.LFB150
	.byte	0x4
	.4byte	.LCFI20-.LFB150
	.byte	0xe
	.uleb128 0x4
	.byte	0x8e
	.uleb128 0x1
	.byte	0x4
	.4byte	.LCFI21-.LCFI20
	.byte	0xe
	.uleb128 0x18
	.byte	0x4
	.4byte	.LCFI22-.LCFI21
	.byte	0xe
	.uleb128 0x4
	.align	2
.LEFDE16:
.LSFDE18:
	.4byte	.LEFDE18-.LASFDE18
.LASFDE18:
	.4byte	.Lframe0
	.4byte	.LFB151
	.4byte	.LFE151-.LFB151
	.byte	0x4
	.4byte	.LCFI23-.LFB151
	.byte	0xe
	.uleb128 0x4
	.byte	0x8e
	.uleb128 0x1
	.byte	0x4
	.4byte	.LCFI24-.LCFI23
	.byte	0xe
	.uleb128 0x18
	.byte	0x4
	.4byte	.LCFI25-.LCFI24
	.byte	0xe
	.uleb128 0x4
	.align	2
.LEFDE18:
.LSFDE20:
	.4byte	.LEFDE20-.LASFDE20
.LASFDE20:
	.4byte	.Lframe0
	.4byte	.LFB152
	.4byte	.LFE152-.LFB152
	.byte	0x4
	.4byte	.LCFI26-.LFB152
	.byte	0xe
	.uleb128 0x8
	.byte	0x4
	.4byte	.LCFI27-.LCFI26
	.byte	0xe
	.uleb128 0
	.align	2
.LEFDE20:
.LSFDE22:
	.4byte	.LEFDE22-.LASFDE22
.LASFDE22:
	.4byte	.Lframe0
	.4byte	.LFB153
	.4byte	.LFE153-.LFB153
	.byte	0x4
	.4byte	.LCFI28-.LFB153
	.byte	0xe
	.uleb128 0x4
	.byte	0x8e
	.uleb128 0x1
	.byte	0x4
	.4byte	.LCFI29-.LCFI28
	.byte	0xe
	.uleb128 0x28
	.byte	0x4
	.4byte	.LCFI30-.LCFI29
	.byte	0xe
	.uleb128 0x4
	.align	2
.LEFDE22:
.LSFDE24:
	.4byte	.LEFDE24-.LASFDE24
.LASFDE24:
	.4byte	.Lframe0
	.4byte	.LFB154
	.4byte	.LFE154-.LFB154
	.byte	0x4
	.4byte	.LCFI31-.LFB154
	.byte	0xe
	.uleb128 0x4
	.byte	0x8e
	.uleb128 0x1
	.byte	0x4
	.4byte	.LCFI32-.LCFI31
	.byte	0xe
	.uleb128 0x28
	.byte	0x4
	.4byte	.LCFI33-.LCFI32
	.byte	0xe
	.uleb128 0x4
	.align	2
.LEFDE24:
.LSFDE26:
	.4byte	.LEFDE26-.LASFDE26
.LASFDE26:
	.4byte	.Lframe0
	.4byte	.LFB155
	.4byte	.LFE155-.LFB155
	.byte	0x4
	.4byte	.LCFI34-.LFB155
	.byte	0xe
	.uleb128 0x4
	.byte	0x8e
	.uleb128 0x1
	.byte	0x4
	.4byte	.LCFI35-.LCFI34
	.byte	0xe
	.uleb128 0x20
	.byte	0x4
	.4byte	.LCFI36-.LCFI35
	.byte	0xe
	.uleb128 0x4
	.align	2
.LEFDE26:
.LSFDE28:
	.4byte	.LEFDE28-.LASFDE28
.LASFDE28:
	.4byte	.Lframe0
	.4byte	.LFB156
	.4byte	.LFE156-.LFB156
	.byte	0x4
	.4byte	.LCFI37-.LFB156
	.byte	0xe
	.uleb128 0x8
	.byte	0x4
	.4byte	.LCFI38-.LCFI37
	.byte	0xe
	.uleb128 0
	.align	2
.LEFDE28:
	.text
.Letext0:
	.file 4 "C:\\nRF5_SDK_15.0.0_a53641a\\external\\fatfs\\port\\diskio_blkdev.h"
	.file 5 "../../../../../../external/fatfs/src/diskio.h"
	.file 6 "../../../../../../external/fatfs/src/integer.h"