	.cpu cortex-m4
	.eabi_attribute 27, 1
	.eabi_attribute 28, 1
	.eabi_attribute 20, 1
	.eabi_attribute 21, 1
	.eabi_attribute 23, 3
	.eabi_attribute 24, 1
	.eabi_attribute 25, 1
	.eabi_attribute 26, 1
	.eabi_attribute 30, 6
	.eabi_attribute 34, 1
	.eabi_attribute 18, 4
	.file	"nrf_log_frontend.c"
	.text
.Ltext0:
	.section	.text.sd_mutex_new,"ax",%progbits
	.align	1
	.syntax unified
	.thumb
	.thumb_func
	.fpu fpv4-sp-d16
	.type	sd_mutex_new, %function
sd_mutex_new:
.LFB142:
	.file 1 "../../../../../../components/softdevice/s132/headers/nrf_soc.h"
	.loc 1 393 101
	@ Naked Function: prologue and epilogue provided by programmer.
	@ args = 0, pretend = 0, frame = 0
	@ frame_needed = 0, uses_anonymous_args = 0
	.loc 1 393 103
	.syntax unified
@ 393 "../../../../../../components/softdevice/s132/headers/nrf_soc.h" 1
	svc #44
bx r14
@ 0 "" 2
	.loc 1 393 2
	.thumb
	.syntax unified
	nop
	mov	r0, r3
.LFE142:
	.size	sd_mutex_new, .-sd_mutex_new
	.section	.text.sd_mutex_acquire,"ax",%progbits
	.align	1
	.syntax unified
	.thumb
	.thumb_func
	.fpu fpv4-sp-d16
	.type	sd_mutex_acquire, %function
sd_mutex_acquire:
.LFB143:
	.loc 1 402 105
	@ Naked Function: prologue and epilogue provided by programmer.
	@ args = 0, pretend = 0, frame = 0
	@ frame_needed = 0, uses_anonymous_args = 0
	.loc 1 402 107
	.syntax unified
@ 402 "../../../../../../components/softdevice/s132/headers/nrf_soc.h" 1
	svc #45
bx r14
@ 0 "" 2
	.loc 1 402 2
	.thumb
	.syntax unified
	nop
	mov	r0, r3
.LFE143:
	.size	sd_mutex_acquire, .-sd_mutex_acquire
	.section	.text.sd_mutex_release,"ax",%progbits
	.align	1
	.syntax unified
	.thumb
	.thumb_func
	.fpu fpv4-sp-d16
	.type	sd_mutex_release, %function
sd_mutex_release:
.LFB144:
	.loc 1 410 105
	@ Naked Function: prologue and epilogue provided by programmer.
	@ args = 0, pretend = 0, frame = 0
	@ frame_needed = 0, uses_anonymous_args = 0
	.loc 1 410 107
	.syntax unified
@ 410 "../../../../../../components/softdevice/s132/headers/nrf_soc.h" 1
	svc #46
bx r14
@ 0 "" 2
	.loc 1 410 2
	.thumb
	.syntax unified
	nop
	mov	r0, r3
.LFE144:
	.size	sd_mutex_release, .-sd_mutex_release
	.section	.text.sd_rand_application_pool_capacity_get,"ax",%progbits
	.align	1
	.syntax unified
	.thumb
	.thumb_func
	.fpu fpv4-sp-d16
	.type	sd_rand_application_pool_capacity_get, %function
sd_rand_application_pool_capacity_get:
.LFB145:
	.loc 1 418 130
	@ Naked Function: prologue and epilogue provided by programmer.
	@ args = 0, pretend = 0, frame = 0
	@ frame_needed = 0, uses_anonymous_args = 0
	.loc 1 418 132
	.syntax unified
@ 418 "../../../../../../components/softdevice/s132/headers/nrf_soc.h" 1
	svc #47
bx r14
@ 0 "" 2
	.loc 1 418 2
	.thumb
	.syntax unified
	nop
	mov	r0, r3
.LFE145:
	.size	sd_rand_application_pool_capacity_get, .-sd_rand_application_pool_capacity_get
	.section	.text.sd_rand_application_bytes_available_get,"ax",%progbits
	.align	1
	.syntax unified
	.thumb
	.thumb_func
	.fpu fpv4-sp-d16
	.type	sd_rand_application_bytes_available_get, %function
sd_rand_application_bytes_available_get:
.LFB146:
	.loc 1 426 134
	@ Naked Function: prologue and epilogue provided by programmer.
	@ args = 0, pretend = 0, frame = 0
	@ frame_needed = 0, uses_anonymous_args = 0
	.loc 1 426 136
	.syntax unified
@ 426 "../../../../../../components/softdevice/s132/headers/nrf_soc.h" 1
	svc #48
bx r14
@ 0 "" 2
	.loc 1 426 2
	.thumb
	.syntax unified
	nop
	mov	r0, r3
.LFE146:
	.size	sd_rand_application_bytes_available_get, .-sd_rand_application_bytes_available_get
	.section	.text.sd_rand_application_vector_get,"ax",%progbits
	.align	1
	.syntax unified
	.thumb
	.thumb_func
	.fpu fpv4-sp-d16
	.type	sd_rand_application_vector_get, %function
sd_rand_application_vector_get:
.LFB147:
	.loc 1 436 130
	@ Naked Function: prologue and epilogue provided by programmer.
	@ args = 0, pretend = 0, frame = 0
	@ frame_needed = 0, uses_anonymous_args = 0
	.loc 1 436 132
	.syntax unified
@ 436 "../../../../../../components/softdevice/s132/headers/nrf_soc.h" 1
	svc #49
bx r14
@ 0 "" 2
	.loc 1 436 2
	.thumb
	.syntax unified
	nop
	mov	r0, r3
.LFE147:
	.size	sd_rand_application_vector_get, .-sd_rand_application_vector_get
	.section	.text.sd_power_reset_reason_get,"ax",%progbits
	.align	1
	.syntax unified
	.thumb
	.thumb_func
	.fpu fpv4-sp-d16
	.type	sd_power_reset_reason_get, %function
sd_power_reset_reason_get:
.LFB148:
	.loc 1 444 118
	@ Naked Function: prologue and epilogue provided by programmer.
	@ args = 0, pretend = 0, frame = 0
	@ frame_needed = 0, uses_anonymous_args = 0
	.loc 1 444 120
	.syntax unified
@ 444 "../../../../../../components/softdevice/s132/headers/nrf_soc.h" 1
	svc #52
bx r14
@ 0 "" 2
	.loc 1 444 2
	.thumb
	.syntax unified
	nop
	mov	r0, r3
.LFE148:
	.size	sd_power_reset_reason_get, .-sd_power_reset_reason_get
	.section	.text.sd_power_reset_reason_clr,"ax",%progbits
	.align	1
	.syntax unified
	.thumb
	.thumb_func
	.fpu fpv4-sp-d16
	.type	sd_power_reset_reason_clr, %function
sd_power_reset_reason_clr:
.LFB149:
	.loc 1 452 122
	@ Naked Function: prologue and epilogue provided by programmer.
	@ args = 0, pretend = 0, frame = 0
	@ frame_needed = 0, uses_anonymous_args = 0
	.loc 1 452 124
	.syntax unified
@ 452 "../../../../../../components/softdevice/s132/headers/nrf_soc.h" 1
	svc #53
bx r14
@ 0 "" 2
	.loc 1 452 2
	.thumb
	.syntax unified
	nop
	mov	r0, r3
.LFE149:
	.size	sd_power_reset_reason_clr, .-sd_power_reset_reason_clr
	.section	.text.sd_power_mode_set,"ax",%progbits
	.align	1
	.syntax unified
	.thumb
	.thumb_func
	.fpu fpv4-sp-d16
	.type	sd_power_mode_set, %function
sd_power_mode_set:
.LFB150:
	.loc 1 461 103
	@ Naked Function: prologue and epilogue provided by programmer.
	@ args = 0, pretend = 0, frame = 0
	@ frame_needed = 0, uses_anonymous_args = 0
	.loc 1 461 105
	.syntax unified
@ 461 "../../../../../../components/softdevice/s132/headers/nrf_soc.h" 1
	svc #50
bx r14
@ 0 "" 2
	.loc 1 461 2
	.thumb
	.syntax unified
	nop
	mov	r0, r3
.LFE150:
	.size	sd_power_mode_set, .-sd_power_mode_set
	.section	.text.sd_power_system_off,"ax",%progbits
	.align	1
	.syntax unified
	.thumb
	.thumb_func
	.fpu fpv4-sp-d16
	.type	sd_power_system_off, %function
sd_power_system_off:
.LFB151:
	.loc 1 467 91
	@ Naked Function: prologue and epilogue provided by programmer.
	@ args = 0, pretend = 0, frame = 0
	@ frame_needed = 0, uses_anonymous_args = 0
	.loc 1 467 93
	.syntax unified
@ 467 "../../../../../../components/softdevice/s132/headers/nrf_soc.h" 1
	svc #51
bx r14
@ 0 "" 2
	.loc 1 467 2
	.thumb
	.syntax unified
	nop
	mov	r0, r3
.LFE151:
	.size	sd_power_system_off, .-sd_power_system_off
	.section	.text.sd_power_pof_enable,"ax",%progbits
	.align	1
	.syntax unified
	.thumb
	.thumb_func
	.fpu fpv4-sp-d16
	.type	sd_power_pof_enable, %function
sd_power_pof_enable:
.LFB152:
	.loc 1 478 105
	@ Naked Function: prologue and epilogue provided by programmer.
	@ args = 0, pretend = 0, frame = 0
	@ frame_needed = 0, uses_anonymous_args = 0
	.loc 1 478 107
	.syntax unified
@ 478 "../../../../../../components/softdevice/s132/headers/nrf_soc.h" 1
	svc #54
bx r14
@ 0 "" 2
	.loc 1 478 2
	.thumb
	.syntax unified
	nop
	mov	r0, r3
.LFE152:
	.size	sd_power_pof_enable, .-sd_power_pof_enable
	.section	.text.sd_power_pof_threshold_set,"ax",%progbits
	.align	1
	.syntax unified
	.thumb
	.thumb_func
	.fpu fpv4-sp-d16
	.type	sd_power_pof_threshold_set, %function
sd_power_pof_threshold_set:
.LFB153:
	.loc 1 489 111
	@ Naked Function: prologue and epilogue provided by programmer.
	@ args = 0, pretend = 0, frame = 0
	@ frame_needed = 0, uses_anonymous_args = 0
	.loc 1 489 113
	.syntax unified
@ 489 "../../../../../../components/softdevice/s132/headers/nrf_soc.h" 1
	svc #55
bx r14
@ 0 "" 2
	.loc 1 489 2
	.thumb
	.syntax unified
	nop
	mov	r0, r3
.LFE153:
	.size	sd_power_pof_threshold_set, .-sd_power_pof_threshold_set
	.section	.text.sd_power_ram_power_set,"ax",%progbits
	.align	1
	.syntax unified
	.thumb
	.thumb_func
	.fpu fpv4-sp-d16
	.type	sd_power_ram_power_set, %function
sd_power_ram_power_set:
.LFB154:
	.loc 1 499 126
	@ Naked Function: prologue and epilogue provided by programmer.
	@ args = 0, pretend = 0, frame = 0
	@ frame_needed = 0, uses_anonymous_args = 0
	.loc 1 499 128
	.syntax unified
@ 499 "../../../../../../components/softdevice/s132/headers/nrf_soc.h" 1
	svc #57
bx r14
@ 0 "" 2
	.loc 1 499 2
	.thumb
	.syntax unified
	nop
	mov	r0, r3
.LFE154:
	.size	sd_power_ram_power_set, .-sd_power_ram_power_set
	.section	.text.sd_power_ram_power_clr,"ax",%progbits
	.align	1
	.syntax unified
	.thumb
	.thumb_func
	.fpu fpv4-sp-d16
	.type	sd_power_ram_power_clr, %function
sd_power_ram_power_clr:
.LFB155:
	.loc 1 508 126
	@ Naked Function: prologue and epilogue provided by programmer.
	@ args = 0, pretend = 0, frame = 0
	@ frame_needed = 0, uses_anonymous_args = 0
	.loc 1 508 128
	.syntax unified
@ 508 "../../../../../../components/softdevice/s132/headers/nrf_soc.h" 1
	svc #58
bx r14
@ 0 "" 2
	.loc 1 508 2
	.thumb
	.syntax unified
	nop
	mov	r0, r3
.LFE155:
	.size	sd_power_ram_power_clr, .-sd_power_ram_power_clr
	.section	.text.sd_power_ram_power_get,"ax",%progbits
	.align	1
	.syntax unified
	.thumb
	.thumb_func
	.fpu fpv4-sp-d16
	.type	sd_power_ram_power_get, %function
sd_power_ram_power_get:
.LFB156:
	.loc 1 517 127
	@ Naked Function: prologue and epilogue provided by programmer.
	@ args = 0, pretend = 0, frame = 0
	@ frame_needed = 0, uses_anonymous_args = 0
	.loc 1 517 129
	.syntax unified
@ 517 "../../../../../../components/softdevice/s132/headers/nrf_soc.h" 1
	svc #59
bx r14
@ 0 "" 2
	.loc 1 517 2
	.thumb
	.syntax unified
	nop
	mov	r0, r3
.LFE156:
	.size	sd_power_ram_power_get, .-sd_power_ram_power_get
	.section	.text.sd_power_gpregret_set,"ax",%progbits
	.align	1
	.syntax unified
	.thumb
	.thumb_func
	.fpu fpv4-sp-d16
	.type	sd_power_gpregret_set, %function
sd_power_gpregret_set:
.LFB157:
	.loc 1 526 132
	@ Naked Function: prologue and epilogue provided by programmer.
	@ args = 0, pretend = 0, frame = 0
	@ frame_needed = 0, uses_anonymous_args = 0
	.loc 1 526 134
	.syntax unified
@ 526 "../../../../../../components/softdevice/s132/headers/nrf_soc.h" 1
	svc #60
bx r14
@ 0 "" 2
	.loc 1 526 2
	.thumb
	.syntax unified
	nop
	mov	r0, r3
.LFE157:
	.size	sd_power_gpregret_set, .-sd_power_gpregret_set
	.section	.text.sd_power_gpregret_clr,"ax",%progbits
	.align	1
	.syntax unified
	.thumb
	.thumb_func
	.fpu fpv4-sp-d16
	.type	sd_power_gpregret_clr, %function
sd_power_gpregret_clr:
.LFB158:
	.loc 1 535 132
	@ Naked Function: prologue and epilogue provided by programmer.
	@ args = 0, pretend = 0, frame = 0
	@ frame_needed = 0, uses_anonymous_args = 0
	.loc 1 535 134
	.syntax unified
@ 535 "../../../../../../components/softdevice/s132/headers/nrf_soc.h" 1
	svc #61
bx r14
@ 0 "" 2
	.loc 1 535 2
	.thumb
	.syntax unified
	nop
	mov	r0, r3
.LFE158:
	.size	sd_power_gpregret_clr, .-sd_power_gpregret_clr
	.section	.text.sd_power_gpregret_get,"ax",%progbits
	.align	1
	.syntax unified
	.thumb
	.thumb_func
	.fpu fpv4-sp-d16
	.type	sd_power_gpregret_get, %function
sd_power_gpregret_get:
.LFB159:
	.loc 1 544 131
	@ Naked Function: prologue and epilogue provided by programmer.
	@ args = 0, pretend = 0, frame = 0
	@ frame_needed = 0, uses_anonymous_args = 0
	.loc 1 544 133
	.syntax unified
@ 544 "../../../../../../components/softdevice/s132/headers/nrf_soc.h" 1
	svc #62
bx r14
@ 0 "" 2
	.loc 1 544 2
	.thumb
	.syntax unified
	nop
	mov	r0, r3
.LFE159:
	.size	sd_power_gpregret_get, .-sd_power_gpregret_get
	.section	.text.sd_power_dcdc_mode_set,"ax",%progbits
	.align	1
	.syntax unified
	.thumb
	.thumb_func
	.fpu fpv4-sp-d16
	.type	sd_power_dcdc_mode_set, %function
sd_power_dcdc_mode_set:
.LFB160:
	.loc 1 553 107
	@ Naked Function: prologue and epilogue provided by programmer.
	@ args = 0, pretend = 0, frame = 0
	@ frame_needed = 0, uses_anonymous_args = 0
	.loc 1 553 109
	.syntax unified
@ 553 "../../../../../../components/softdevice/s132/headers/nrf_soc.h" 1
	svc #63
bx r14
@ 0 "" 2
	.loc 1 553 2
	.thumb
	.syntax unified
	nop
	mov	r0, r3
.LFE160:
	.size	sd_power_dcdc_mode_set, .-sd_power_dcdc_mode_set
	.section	.text.sd_clock_hfclk_request,"ax",%progbits
	.align	1
	.syntax unified
	.thumb
	.thumb_func
	.fpu fpv4-sp-d16
	.type	sd_clock_hfclk_request, %function
sd_clock_hfclk_request:
.LFB161:
	.loc 1 566 94
	@ Naked Function: prologue and epilogue provided by programmer.
	@ args = 0, pretend = 0, frame = 0
	@ frame_needed = 0, uses_anonymous_args = 0
	.loc 1 566 96
	.syntax unified
@ 566 "../../../../../../components/softdevice/s132/headers/nrf_soc.h" 1
	svc #66
bx r14
@ 0 "" 2
	.loc 1 566 2
	.thumb
	.syntax unified
	nop
	mov	r0, r3
.LFE161:
	.size	sd_clock_hfclk_request, .-sd_clock_hfclk_request
	.section	.text.sd_clock_hfclk_release,"ax",%progbits
	.align	1
	.syntax unified
	.thumb
	.thumb_func
	.fpu fpv4-sp-d16
	.type	sd_clock_hfclk_release, %function
sd_clock_hfclk_release:
.LFB162:
	.loc 1 577 94
	@ Naked Function: prologue and epilogue provided by programmer.
	@ args = 0, pretend = 0, frame = 0
	@ frame_needed = 0, uses_anonymous_args = 0
	.loc 1 577 96
	.syntax unified
@ 577 "../../../../../../components/softdevice/s132/headers/nrf_soc.h" 1
	svc #67
bx r14
@ 0 "" 2
	.loc 1 577 2
	.thumb
	.syntax unified
	nop
	mov	r0, r3
.LFE162:
	.size	sd_clock_hfclk_release, .-sd_clock_hfclk_release
	.section	.text.sd_clock_hfclk_is_running,"ax",%progbits
	.align	1
	.syntax unified
	.thumb
	.thumb_func
	.fpu fpv4-sp-d16
	.type	sd_clock_hfclk_is_running, %function
sd_clock_hfclk_is_running:
.LFB163:
	.loc 1 588 116
	@ Naked Function: prologue and epilogue provided by programmer.
	@ args = 0, pretend = 0, frame = 0
	@ frame_needed = 0, uses_anonymous_args = 0
	.loc 1 588 118
	.syntax unified
@ 588 "../../../../../../components/softdevice/s132/headers/nrf_soc.h" 1
	svc #68
bx r14
@ 0 "" 2
	.loc 1 588 2
	.thumb
	.syntax unified
	nop
	mov	r0, r3
.LFE163:
	.size	sd_clock_hfclk_is_running, .-sd_clock_hfclk_is_running
	.section	.text.sd_app_evt_wait,"ax",%progbits
	.align	1
	.syntax unified
	.thumb
	.thumb_func
	.fpu fpv4-sp-d16
	.type	sd_app_evt_wait, %function
sd_app_evt_wait:
.LFB164:
	.loc 1 616 87
	@ Naked Function: prologue and epilogue provided by programmer.
	@ args = 0, pretend = 0, frame = 0
	@ frame_needed = 0, uses_anonymous_args = 0
	.loc 1 616 89
	.syntax unified
@ 616 "../../../../../../components/softdevice/s132/headers/nrf_soc.h" 1
	svc #65
bx r14
@ 0 "" 2
	.loc 1 616 2
	.thumb
	.syntax unified
	nop
	mov	r0, r3
.LFE164:
	.size	sd_app_evt_wait, .-sd_app_evt_wait
	.section	.text.sd_ppi_channel_enable_get,"ax",%progbits
	.align	1
	.syntax unified
	.thumb
	.thumb_func
	.fpu fpv4-sp-d16
	.type	sd_ppi_channel_enable_get, %function
sd_ppi_channel_enable_get:
.LFB165:
	.loc 1 624 120
	@ Naked Function: prologue and epilogue provided by programmer.
	@ args = 0, pretend = 0, frame = 0
	@ frame_needed = 0, uses_anonymous_args = 0
	.loc 1 624 122
	.syntax unified
@ 624 "../../../../../../components/softdevice/s132/headers/nrf_soc.h" 1
	svc #32
bx r14
@ 0 "" 2
	.loc 1 624 2
	.thumb
	.syntax unified
	nop
	mov	r0, r3
.LFE165:
	.size	sd_ppi_channel_enable_get, .-sd_ppi_channel_enable_get
	.section	.text.sd_ppi_channel_enable_set,"ax",%progbits
	.align	1
	.syntax unified
	.thumb
	.thumb_func
	.fpu fpv4-sp-d16
	.type	sd_ppi_channel_enable_set, %function
sd_ppi_channel_enable_set:
.LFB166:
	.loc 1 632 124
	@ Naked Function: prologue and epilogue provided by programmer.
	@ args = 0, pretend = 0, frame = 0
	@ frame_needed = 0, uses_anonymous_args = 0
	.loc 1 632 126
	.syntax unified
@ 632 "../../../../../../components/softdevice/s132/headers/nrf_soc.h" 1
	svc #33
bx r14
@ 0 "" 2
	.loc 1 632 2
	.thumb
	.syntax unified
	nop
	mov	r0, r3
.LFE166:
	.size	sd_ppi_channel_enable_set, .-sd_ppi_channel_enable_set
	.section	.text.sd_ppi_channel_enable_clr,"ax",%progbits
	.align	1
	.syntax unified
	.thumb
	.thumb_func
	.fpu fpv4-sp-d16
	.type	sd_ppi_channel_enable_clr, %function
sd_ppi_channel_enable_clr:
.LFB167:
	.loc 1 640 124
	@ Naked Function: prologue and epilogue provided by programmer.
	@ args = 0, pretend = 0, frame = 0
	@ frame_needed = 0, uses_anonymous_args = 0
	.loc 1 640 126
	.syntax unified
@ 640 "../../../../../../components/softdevice/s132/headers/nrf_soc.h" 1
	svc #34
bx r14
@ 0 "" 2
	.loc 1 640 2
	.thumb
	.syntax unified
	nop
	mov	r0, r3
.LFE167:
	.size	sd_ppi_channel_enable_clr, .-sd_ppi_channel_enable_clr
	.section	.text.sd_ppi_channel_assign,"ax",%progbits
	.align	1
	.syntax unified
	.thumb
	.thumb_func
	.fpu fpv4-sp-d16
	.type	sd_ppi_channel_assign, %function
sd_ppi_channel_assign:
.LFB168:
	.loc 1 651 181
	@ Naked Function: prologue and epilogue provided by programmer.
	@ args = 0, pretend = 0, frame = 0
	@ frame_needed = 0, uses_anonymous_args = 0
	.loc 1 651 183
	.syntax unified
@ 651 "../../../../../../components/softdevice/s132/headers/nrf_soc.h" 1
	svc #35
bx r14
@ 0 "" 2
	.loc 1 651 2
	.thumb
	.syntax unified
	nop
	mov	r0, r3
.LFE168:
	.size	sd_ppi_channel_assign, .-sd_ppi_channel_assign
	.section	.text.sd_ppi_group_task_enable,"ax",%progbits
	.align	1
	.syntax unified
	.thumb
	.thumb_func
	.fpu fpv4-sp-d16
	.type	sd_ppi_group_task_enable, %function
sd_ppi_group_task_enable:
.LFB169:
	.loc 1 660 109
	@ Naked Function: prologue and epilogue provided by programmer.
	@ args = 0, pretend = 0, frame = 0
	@ frame_needed = 0, uses_anonymous_args = 0
	.loc 1 660 111
	.syntax unified
@ 660 "../../../../../../components/softdevice/s132/headers/nrf_soc.h" 1
	svc #36
bx r14
@ 0 "" 2
	.loc 1 660 2
	.thumb
	.syntax unified
	nop
	mov	r0, r3
.LFE169:
	.size	sd_ppi_group_task_enable, .-sd_ppi_group_task_enable
	.section	.text.sd_ppi_group_task_disable,"ax",%progbits
	.align	1
	.syntax unified
	.thumb
	.thumb_func
	.fpu fpv4-sp-d16
	.type	sd_ppi_group_task_disable, %function
sd_ppi_group_task_disable:
.LFB170:
	.loc 1 669 110
	@ Naked Function: prologue and epilogue provided by programmer.
	@ args = 0, pretend = 0, frame = 0
	@ frame_needed = 0, uses_anonymous_args = 0
	.loc 1 669 112
	.syntax unified
@ 669 "../../../../../../components/softdevice/s132/headers/nrf_soc.h" 1
	svc #37
bx r14
@ 0 "" 2
	.loc 1 669 2
	.thumb
	.syntax unified
	nop
	mov	r0, r3
.LFE170:
	.size	sd_ppi_group_task_disable, .-sd_ppi_group_task_disable
	.section	.text.sd_ppi_group_assign,"ax",%progbits
	.align	1
	.syntax unified
	.thumb
	.thumb_func
	.fpu fpv4-sp-d16
	.type	sd_ppi_group_assign, %function
sd_ppi_group_assign:
.LFB171:
	.loc 1 679 126
	@ Naked Function: prologue and epilogue provided by programmer.
	@ args = 0, pretend = 0, frame = 0
	@ frame_needed = 0, uses_anonymous_args = 0
	.loc 1 679 128
	.syntax unified
@ 679 "../../../../../../components/softdevice/s132/headers/nrf_soc.h" 1
	svc #38
bx r14
@ 0 "" 2
	.loc 1 679 2
	.thumb
	.syntax unified
	nop
	mov	r0, r3
.LFE171:
	.size	sd_ppi_group_assign, .-sd_ppi_group_assign
	.section	.text.sd_ppi_group_get,"ax",%progbits
	.align	1
	.syntax unified
	.thumb
	.thumb_func
	.fpu fpv4-sp-d16
	.type	sd_ppi_group_get, %function
sd_ppi_group_get:
.LFB172:
	.loc 1 689 127
	@ Naked Function: prologue and epilogue provided by programmer.
	@ args = 0, pretend = 0, frame = 0
	@ frame_needed = 0, uses_anonymous_args = 0
	.loc 1 689 129
	.syntax unified
@ 689 "../../../../../../components/softdevice/s132/headers/nrf_soc.h" 1
	svc #39
bx r14
@ 0 "" 2
	.loc 1 689 2
	.thumb
	.syntax unified
	nop
	mov	r0, r3
.LFE172:
	.size	sd_ppi_group_get, .-sd_ppi_group_get
	.section	.text.sd_radio_notification_cfg_set,"ax",%progbits
	.align	1
	.syntax unified
	.thumb
	.thumb_func
	.fpu fpv4-sp-d16
	.type	sd_radio_notification_cfg_set, %function
sd_radio_notification_cfg_set:
.LFB173:
	.loc 1 720 127
	@ Naked Function: prologue and epilogue provided by programmer.
	@ args = 0, pretend = 0, frame = 0
	@ frame_needed = 0, uses_anonymous_args = 0
	.loc 1 720 129
	.syntax unified
@ 720 "../../../../../../components/softdevice/s132/headers/nrf_soc.h" 1
	svc #69
bx r14
@ 0 "" 2
	.loc 1 720 2
	.thumb
	.syntax unified
	nop
	mov	r0, r3
.LFE173:
	.size	sd_radio_notification_cfg_set, .-sd_radio_notification_cfg_set
	.section	.text.sd_ecb_block_encrypt,"ax",%progbits
	.align	1
	.syntax unified
	.thumb
	.thumb_func
	.fpu fpv4-sp-d16
	.type	sd_ecb_block_encrypt, %function
sd_ecb_block_encrypt:
.LFB174:
	.loc 1 736 119
	@ Naked Function: prologue and epilogue provided by programmer.
	@ args = 0, pretend = 0, frame = 0
	@ frame_needed = 0, uses_anonymous_args = 0
	.loc 1 736 121
	.syntax unified
@ 736 "../../../../../../components/softdevice/s132/headers/nrf_soc.h" 1
	svc #70
bx r14
@ 0 "" 2
	.loc 1 736 2
	.thumb
	.syntax unified
	nop
	mov	r0, r3
.LFE174:
	.size	sd_ecb_block_encrypt, .-sd_ecb_block_encrypt
	.section	.text.sd_ecb_blocks_encrypt,"ax",%progbits
	.align	1
	.syntax unified
	.thumb
	.thumb_func
	.fpu fpv4-sp-d16
	.type	sd_ecb_blocks_encrypt, %function
sd_ecb_blocks_encrypt:
.LFB175:
	.loc 1 753 150
	@ Naked Function: prologue and epilogue provided by programmer.
	@ args = 0, pretend = 0, frame = 0
	@ frame_needed = 0, uses_anonymous_args = 0
	.loc 1 753 152
	.syntax unified
@ 753 "../../../../../../components/softdevice/s132/headers/nrf_soc.h" 1
	svc #71
bx r14
@ 0 "" 2
	.loc 1 753 2
	.thumb
	.syntax unified
	nop
	mov	r0, r3
.LFE175:
	.size	sd_ecb_blocks_encrypt, .-sd_ecb_blocks_encrypt
	.section	.text.sd_evt_get,"ax",%progbits
	.align	1
	.syntax unified
	.thumb
	.thumb_func
	.fpu fpv4-sp-d16
	.type	sd_evt_get, %function
sd_evt_get:
.LFB176:
	.loc 1 764 97
	@ Naked Function: prologue and epilogue provided by programmer.
	@ args = 0, pretend = 0, frame = 0
	@ frame_needed = 0, uses_anonymous_args = 0
	.loc 1 764 99
	.syntax unified
@ 764 "../../../../../../components/softdevice/s132/headers/nrf_soc.h" 1
	svc #75
bx r14
@ 0 "" 2
	.loc 1 764 2
	.thumb
	.syntax unified
	nop
	mov	r0, r3
.LFE176:
	.size	sd_evt_get, .-sd_evt_get
	.section	.text.sd_temp_get,"ax",%progbits
	.align	1
	.syntax unified
	.thumb
	.thumb_func
	.fpu fpv4-sp-d16
	.type	sd_temp_get, %function
sd_temp_get:
.LFB177:
	.loc 1 775 95
	@ Naked Function: prologue and epilogue provided by programmer.
	@ args = 0, pretend = 0, frame = 0
	@ frame_needed = 0, uses_anonymous_args = 0
	.loc 1 775 97
	.syntax unified
@ 775 "../../../../../../components/softdevice/s132/headers/nrf_soc.h" 1
	svc #76
bx r14
@ 0 "" 2
	.loc 1 775 2
	.thumb
	.syntax unified
	nop
	mov	r0, r3
.LFE177:
	.size	sd_temp_get, .-sd_temp_get
	.section	.text.sd_flash_write,"ax",%progbits
	.align	1
	.syntax unified
	.thumb
	.thumb_func
	.fpu fpv4-sp-d16
	.type	sd_flash_write, %function
sd_flash_write:
.LFB178:
	.loc 1 812 137
	@ Naked Function: prologue and epilogue provided by programmer.
	@ args = 0, pretend = 0, frame = 0
	@ frame_needed = 0, uses_anonymous_args = 0
	.loc 1 812 139
	.syntax unified
@ 812 "../../../../../../components/softdevice/s132/headers/nrf_soc.h" 1
	svc #41
bx r14
@ 0 "" 2
	.loc 1 812 2
	.thumb
	.syntax unified
	nop
	mov	r0, r3
.LFE178:
	.size	sd_flash_write, .-sd_flash_write
	.section	.text.sd_flash_page_erase,"ax",%progbits
	.align	1
	.syntax unified
	.thumb
	.thumb_func
	.fpu fpv4-sp-d16
	.type	sd_flash_page_erase, %function
sd_flash_page_erase:
.LFB179:
	.loc 1 844 107
	@ Naked Function: prologue and epilogue provided by programmer.
	@ args = 0, pretend = 0, frame = 0
	@ frame_needed = 0, uses_anonymous_args = 0
	.loc 1 844 109
	.syntax unified
@ 844 "../../../../../../components/softdevice/s132/headers/nrf_soc.h" 1
	svc #40
bx r14
@ 0 "" 2
	.loc 1 844 2
	.thumb
	.syntax unified
	nop
	mov	r0, r3
.LFE179:
	.size	sd_flash_page_erase, .-sd_flash_page_erase
	.section	.text.sd_flash_protect,"ax",%progbits
	.align	1
	.syntax unified
	.thumb
	.thumb_func
	.fpu fpv4-sp-d16
	.type	sd_flash_protect, %function
sd_flash_protect:
.LFB180:
	.loc 1 867 166
	@ Naked Function: prologue and epilogue provided by programmer.
	@ args = 0, pretend = 0, frame = 0
	@ frame_needed = 0, uses_anonymous_args = 0
	.loc 1 867 168
	.syntax unified
@ 867 "../../../../../../components/softdevice/s132/headers/nrf_soc.h" 1
	svc #42
bx r14
@ 0 "" 2
	.loc 1 867 2
	.thumb
	.syntax unified
	nop
	mov	r0, r3
.LFE180:
	.size	sd_flash_protect, .-sd_flash_protect
	.section	.text.sd_radio_session_open,"ax",%progbits
	.align	1
	.syntax unified
	.thumb
	.thumb_func
	.fpu fpv4-sp-d16
	.type	sd_radio_session_open, %function
sd_radio_session_open:
.LFB181:
	.loc 1 889 140
	@ Naked Function: prologue and epilogue provided by programmer.
	@ args = 0, pretend = 0, frame = 0
	@ frame_needed = 0, uses_anonymous_args = 0
	.loc 1 889 142
	.syntax unified
@ 889 "../../../../../../components/softdevice/s132/headers/nrf_soc.h" 1
	svc #72
bx r14
@ 0 "" 2
	.loc 1 889 2
	.thumb
	.syntax unified
	nop
	mov	r0, r3
.LFE181:
	.size	sd_radio_session_open, .-sd_radio_session_open
	.section	.text.sd_radio_session_close,"ax",%progbits
	.align	1
	.syntax unified
	.thumb
	.thumb_func
	.fpu fpv4-sp-d16
	.type	sd_radio_session_close, %function
sd_radio_session_close:
.LFB182:
	.loc 1 902 94
	@ Naked Function: prologue and epilogue provided by programmer.
	@ args = 0, pretend = 0, frame = 0
	@ frame_needed = 0, uses_anonymous_args = 0
	.loc 1 902 96
	.syntax unified
@ 902 "../../../../../../components/softdevice/s132/headers/nrf_soc.h" 1
	svc #73
bx r14
@ 0 "" 2
	.loc 1 902 2
	.thumb
	.syntax unified
	nop
	mov	r0, r3
.LFE182:
	.size	sd_radio_session_close, .-sd_radio_session_close
	.section	.text.sd_radio_request,"ax",%progbits
	.align	1
	.syntax unified
	.thumb
	.thumb_func
	.fpu fpv4-sp-d16
	.type	sd_radio_request, %function
sd_radio_request:
.LFB183:
	.loc 1 934 121
	@ Naked Function: prologue and epilogue provided by programmer.
	@ args = 0, pretend = 0, frame = 0
	@ frame_needed = 0, uses_anonymous_args = 0
	.loc 1 934 123
	.syntax unified
@ 934 "../../../../../../components/softdevice/s132/headers/nrf_soc.h" 1
	svc #74
bx r14
@ 0 "" 2
	.loc 1 934 2
	.thumb
	.syntax unified
	nop
	mov	r0, r3
.LFE183:
	.size	sd_radio_request, .-sd_radio_request
	.section	.text.sd_protected_register_write,"ax",%progbits
	.align	1
	.syntax unified
	.thumb
	.thumb_func
	.fpu fpv4-sp-d16
	.type	sd_protected_register_write, %function
sd_protected_register_write:
.LFB184:
	.loc 1 955 141
	@ Naked Function: prologue and epilogue provided by programmer.
	@ args = 0, pretend = 0, frame = 0
	@ frame_needed = 0, uses_anonymous_args = 0
	.loc 1 955 143
	.syntax unified
@ 955 "../../../../../../components/softdevice/s132/headers/nrf_soc.h" 1
	svc #43
bx r14
@ 0 "" 2
	.loc 1 955 2
	.thumb
	.syntax unified
	nop
	mov	r0, r3
.LFE184:
	.size	sd_protected_register_write, .-sd_protected_register_write
	.section	.text.nrf_log_backend_put,"ax",%progbits
	.align	1
	.syntax unified
	.thumb
	.thumb_func
	.fpu fpv4-sp-d16
	.type	nrf_log_backend_put, %function
nrf_log_backend_put:
.LFB201:
	.file 2 "../../../../../../components/libraries/experimental_log/nrf_log_backend_interface.h"
	.loc 2 173 1
	@ args = 0, pretend = 0, frame = 8
	@ frame_needed = 0, uses_anonymous_args = 0
	push	{lr}
.LCFI0:
	sub	sp, sp, #12
.LCFI1:
	str	r0, [sp, #4]
	str	r1, [sp]
	.loc 2 174 14
	ldr	r3, [sp, #4]
	ldr	r3, [r3]
	.loc 2 174 21
	ldr	r3, [r3]
	.loc 2 174 5
	ldr	r1, [sp]
	ldr	r0, [sp, #4]
	blx	r3
.LVL0:
	.loc 2 175 1
	nop
	add	sp, sp, #12
.LCFI2:
	@ sp needed
	ldr	pc, [sp], #4
.LFE201:
	.size	nrf_log_backend_put, .-nrf_log_backend_put
	.section	.text.nrf_log_backend_panic_set,"ax",%progbits
	.align	1
	.syntax unified
	.thumb
	.thumb_func
	.fpu fpv4-sp-d16
	.type	nrf_log_backend_panic_set, %function
nrf_log_backend_panic_set:
.LFB202:
	.loc 2 178 1
	@ args = 0, pretend = 0, frame = 8
	@ frame_needed = 0, uses_anonymous_args = 0
	push	{lr}
.LCFI3:
	sub	sp, sp, #12
.LCFI4:
	str	r0, [sp, #4]
	.loc 2 179 14
	ldr	r3, [sp, #4]
	ldr	r3, [r3]
	.loc 2 179 21
	ldr	r3, [r3, #4]
	.loc 2 179 5
	ldr	r0, [sp, #4]
	blx	r3
.LVL1:
	.loc 2 180 1
	nop
	add	sp, sp, #12
.LCFI5:
	@ sp needed
	ldr	pc, [sp], #4
.LFE202:
	.size	nrf_log_backend_panic_set, .-nrf_log_backend_panic_set
	.section	.text.nrf_log_backend_flush,"ax",%progbits
	.align	1
	.syntax unified
	.thumb
	.thumb_func
	.fpu fpv4-sp-d16
	.type	nrf_log_backend_flush, %function
nrf_log_backend_flush:
.LFB203:
	.loc 2 183 1
	@ args = 0, pretend = 0, frame = 8
	@ frame_needed = 0, uses_anonymous_args = 0
	push	{lr}
.LCFI6:
	sub	sp, sp, #12
.LCFI7:
	str	r0, [sp, #4]
	.loc 2 184 14
	ldr	r3, [sp, #4]
	ldr	r3, [r3]
	.loc 2 184 21
	ldr	r3, [r3, #8]
	.loc 2 184 5
	ldr	r0, [sp, #4]
	blx	r3
.LVL2:
	.loc 2 185 1
	nop
	add	sp, sp, #12
.LCFI8:
	@ sp needed
	ldr	pc, [sp], #4
.LFE203:
	.size	nrf_log_backend_flush, .-nrf_log_backend_flush
	.section	.text.nrf_log_backend_id_set,"ax",%progbits
	.align	1
	.syntax unified
	.thumb
	.thumb_func
	.fpu fpv4-sp-d16
	.type	nrf_log_backend_id_set, %function
nrf_log_backend_id_set:
.LFB204:
	.loc 2 188 1
	@ args = 0, pretend = 0, frame = 8
	@ frame_needed = 0, uses_anonymous_args = 0
	@ link register save eliminated.
	sub	sp, sp, #8
.LCFI9:
	str	r0, [sp, #4]
	mov	r3, r1
	strb	r3, [sp, #3]
	.loc 2 189 19
	ldr	r3, [sp, #4]
	ldrb	r2, [sp, #3]
	strb	r2, [r3, #8]
	.loc 2 190 1
	nop
	add	sp, sp, #8
.LCFI10:
	@ sp needed
	bx	lr
.LFE204:
	.size	nrf_log_backend_id_set, .-nrf_log_backend_id_set
	.section	.text.nrf_log_backend_id_get,"ax",%progbits
	.align	1
	.syntax unified
	.thumb
	.thumb_func
	.fpu fpv4-sp-d16
	.type	nrf_log_backend_id_get, %function
nrf_log_backend_id_get:
.LFB205:
	.loc 2 193 1
	@ args = 0, pretend = 0, frame = 8
	@ frame_needed = 0, uses_anonymous_args = 0
	@ link register save eliminated.
	sub	sp, sp, #8
.LCFI11:
	str	r0, [sp, #4]
	.loc 2 194 21
	ldr	r3, [sp, #4]
	ldrb	r3, [r3, #8]	@ zero_extendqisi2
	.loc 2 195 1
	mov	r0, r3
	add	sp, sp, #8
.LCFI12:
	@ sp needed
	bx	lr
.LFE205:
	.size	nrf_log_backend_id_get, .-nrf_log_backend_id_get
	.section	.text.nrf_log_backend_enable,"ax",%progbits
	.align	1
	.syntax unified
	.thumb
	.thumb_func
	.fpu fpv4-sp-d16
	.type	nrf_log_backend_enable, %function
nrf_log_backend_enable:
.LFB206:
	.loc 2 198 1
	@ args = 0, pretend = 0, frame = 8
	@ frame_needed = 0, uses_anonymous_args = 0
	@ link register save eliminated.
	sub	sp, sp, #8
.LCFI13:
	str	r0, [sp, #4]
	.loc 2 199 24
	ldr	r3, [sp, #4]
	movs	r2, #1
	strb	r2, [r3, #9]
	.loc 2 200 1
	nop
	add	sp, sp, #8
.LCFI14:
	@ sp needed
	bx	lr
.LFE206:
	.size	nrf_log_backend_enable, .-nrf_log_backend_enable
	.section	.text.nrf_log_backend_is_enabled,"ax",%progbits
	.align	1
	.syntax unified
	.thumb
	.thumb_func
	.fpu fpv4-sp-d16
	.type	nrf_log_backend_is_enabled, %function
nrf_log_backend_is_enabled:
.LFB208:
	.loc 2 208 1
	@ args = 0, pretend = 0, frame = 8
	@ frame_needed = 0, uses_anonymous_args = 0
	@ link register save eliminated.
	sub	sp, sp, #8
.LCFI15:
	str	r0, [sp, #4]
	.loc 2 209 21
	ldr	r3, [sp, #4]
	ldrb	r3, [r3, #9]	@ zero_extendqisi2
	.loc 2 210 1
	mov	r0, r3
	add	sp, sp, #8
.LCFI16:
	@ sp needed
	bx	lr
.LFE208:
	.size	nrf_log_backend_is_enabled, .-nrf_log_backend_is_enabled
	.section	.bss.log_mempool_nrf_balloc_pool_stack,"aw",%nobits
	.align	2
	.type	log_mempool_nrf_balloc_pool_stack, %object
	.size	log_mempool_nrf_balloc_pool_stack, 8
log_mempool_nrf_balloc_pool_stack:
	.space	8
	.section	.bss.log_mempool_nrf_balloc_pool_mem,"aw",%nobits
	.align	2
	.type	log_mempool_nrf_balloc_pool_mem, %object
	.size	log_mempool_nrf_balloc_pool_mem, 192
log_mempool_nrf_balloc_pool_mem:
	.space	192
	.section	.bss.log_mempool_nrf_balloc_cb,"aw",%nobits
	.align	2
	.type	log_mempool_nrf_balloc_cb, %object
	.size	log_mempool_nrf_balloc_cb, 8
log_mempool_nrf_balloc_cb:
	.space	8
	.global	m_nrf_log_balloc_log_mempool_logs_data_const
	.section .rodata
	.align	2
.LC0:
	.ascii	"balloc.log_mempool\000"
	.section	.log_const_data_balloc_log_mempool,"a"
	.align	2
	.type	m_nrf_log_balloc_log_mempool_logs_data_const, %object
	.size	m_nrf_log_balloc_log_mempool_logs_data_const, 8
m_nrf_log_balloc_log_mempool_logs_data_const:
	.word	.LC0
	.byte	0
	.byte	0
	.byte	0
	.byte	3
	.global	m_nrf_log_balloc_log_mempool_logs_data_dynamic
	.section	.log_dynamic_data_balloc_log_mempool,"aw"
	.align	2
	.type	m_nrf_log_balloc_log_mempool_logs_data_dynamic, %object
	.size	m_nrf_log_balloc_log_mempool_logs_data_dynamic, 4
m_nrf_log_balloc_log_mempool_logs_data_dynamic:
	.space	4
	.global	log_mempool
	.section	.nrf_balloc,"a"
	.align	2
	.type	log_mempool, %object
	.size	log_mempool, 24
log_mempool:
	.word	log_mempool_nrf_balloc_cb
	.word	log_mempool_nrf_balloc_pool_stack
	.word	log_mempool_nrf_balloc_pool_stack+8
	.word	log_mempool_nrf_balloc_pool_mem
	.word	m_nrf_log_balloc_log_mempool_logs_data_dynamic
	.short	24
	.space	2
	.section	.bss.m_log_data,"aw",%nobits
	.align	2
	.type	m_log_data, %object
	.size	m_log_data, 1060
m_log_data:
	.space	1060
	.global	m_nrf_log_app_logs_data_const
	.section .rodata
	.align	2
.LC1:
	.ascii	"app\000"
	.section	.log_const_data_app,"a"
	.align	2
	.type	m_nrf_log_app_logs_data_const, %object
	.size	m_nrf_log_app_logs_data_const, 8
m_nrf_log_app_logs_data_const:
	.word	.LC1
	.byte	0
	.byte	0
	.byte	3
	.byte	3
	.global	m_nrf_log_app_logs_data_dynamic
	.section	.log_dynamic_data_app,"aw"
	.align	2
	.type	m_nrf_log_app_logs_data_dynamic, %object
	.size	m_nrf_log_app_logs_data_dynamic, 4
m_nrf_log_app_logs_data_dynamic:
	.space	4
	.section	.text.nrf_log_init,"ax",%progbits
	.align	1
	.global	nrf_log_init
	.syntax unified
	.thumb
	.thumb_func
	.fpu fpv4-sp-d16
	.type	nrf_log_init, %function
nrf_log_init:
.LFB209:
	.file 3 "C:\\nRF5_SDK_15.0.0_a53641a\\components\\libraries\\experimental_log\\src\\nrf_log_frontend.c"
	.loc 3 112 1
	@ args = 0, pretend = 0, frame = 24
	@ frame_needed = 0, uses_anonymous_args = 0
	push	{lr}
.LCFI17:
	sub	sp, sp, #28
.LCFI18:
	str	r0, [sp, #4]
	str	r1, [sp]
	.loc 3 118 21
	ldr	r3, .L58
	movs	r2, #255
	str	r2, [r3, #8]
	.loc 3 119 23
	ldr	r3, .L58
	movs	r2, #0
	str	r2, [r3]
	.loc 3 120 23
	ldr	r3, .L58
	movs	r2, #0
	str	r2, [r3, #4]
	.loc 3 121 28
	ldr	r3, .L58
	movs	r2, #0
	str	r2, [r3, #1048]
	.loc 3 122 29
	ldr	r3, .L58
	movs	r2, #0
	str	r2, [r3, #1044]
	.loc 3 123 26
	ldr	r3, .L58
	movs	r2, #1
	strb	r2, [r3, #1056]
	.loc 3 130 27
	ldr	r0, .L58+4
	bl	nrf_memobj_pool_init
	str	r0, [sp, #16]
	.loc 3 131 8
	ldr	r3, [sp, #16]
	cmp	r3, #0
	beq	.L54
	.loc 3 133 16
	ldr	r3, [sp, #16]
	b	.L55
.L54:
	.loc 3 136 29
	ldr	r2, .L58+8
	.loc 3 136 62
	ldr	r3, .L58+12
	.loc 3 136 60
	subs	r3, r2, r3
	.loc 3 136 14
	lsrs	r3, r3, #3
	str	r3, [sp, #12]
	.loc 3 168 15
	movs	r3, #0
	str	r3, [sp, #20]
	.loc 3 168 9
	b	.L56
.L57:
.LBB14:
	.loc 3 171 132 discriminator 3
	ldr	r3, [sp, #20]
	lsls	r3, r3, #2
	.loc 3 170 53 discriminator 3
	ldr	r2, .L58+16
	add	r3, r3, r2
	str	r3, [sp, #8]
	.loc 3 172 39 discriminator 3
	ldr	r3, [sp, #20]
	uxth	r2, r3
	ldr	r3, [sp, #8]
	strh	r2, [r3]	@ movhi
.LBE14:
	.loc 3 168 38 discriminator 3
	ldr	r3, [sp, #20]
	adds	r3, r3, #1
	str	r3, [sp, #20]
.L56:
	.loc 3 168 9 discriminator 1
	ldr	r2, [sp, #20]
	ldr	r3, [sp, #12]
	cmp	r2, r3
	bcc	.L57
	.loc 3 176 12
	movs	r3, #0
.L55:
	.loc 3 177 1
	mov	r0, r3
	add	sp, sp, #28
.LCFI19:
	@ sp needed
	ldr	pc, [sp], #4
.L59:
	.align	2
.L58:
	.word	m_log_data
	.word	log_mempool
	.word	__stop_log_const_data
	.word	__start_log_const_data
	.word	__start_log_dynamic_data
.LFE209:
	.size	nrf_log_init, .-nrf_log_init
	.section	.text.nrf_log_module_cnt_get,"ax",%progbits
	.align	1
	.global	nrf_log_module_cnt_get
	.syntax unified
	.thumb
	.thumb_func
	.fpu fpv4-sp-d16
	.type	nrf_log_module_cnt_get, %function
nrf_log_module_cnt_get:
.LFB210:
	.loc 3 180 1
	@ args = 0, pretend = 0, frame = 0
	@ frame_needed = 0, uses_anonymous_args = 0
	@ link register save eliminated.
	.loc 3 181 13
	ldr	r2, .L62
	.loc 3 181 46
	ldr	r3, .L62+4
	.loc 3 181 44
	subs	r3, r2, r3
	.loc 3 181 79
	lsrs	r3, r3, #3
	.loc 3 182 1
	mov	r0, r3
	bx	lr
.L63:
	.align	2
.L62:
	.word	__stop_log_const_data
	.word	__start_log_const_data
.LFE210:
	.size	nrf_log_module_cnt_get, .-nrf_log_module_cnt_get
	.section	.text.module_idx_get,"ax",%progbits
	.align	1
	.syntax unified
	.thumb
	.thumb_func
	.fpu fpv4-sp-d16
	.type	module_idx_get, %function
module_idx_get:
.LFB211:
	.loc 3 185 1
	@ args = 0, pretend = 0, frame = 24
	@ frame_needed = 0, uses_anonymous_args = 0
	push	{lr}
.LCFI20:
	sub	sp, sp, #28
.LCFI21:
	str	r0, [sp, #4]
	mov	r3, r1
	strb	r3, [sp, #3]
	.loc 3 186 8
	ldrb	r3, [sp, #3]	@ zero_extendqisi2
	cmp	r3, #0
	beq	.L65
.LBB15:
	.loc 3 188 31
	bl	nrf_log_module_cnt_get
	str	r0, [sp, #16]
	.loc 3 190 16
	movs	r3, #0
	str	r3, [sp, #20]
	.loc 3 190 9
	b	.L66
.L69:
.LBB16:
	.loc 3 193 132
	ldr	r3, [sp, #20]
	lsls	r3, r3, #2
	.loc 3 192 45
	ldr	r2, .L70
	add	r3, r3, r2
	str	r3, [sp, #12]
	.loc 3 194 30
	ldr	r3, [sp, #12]
	ldrh	r3, [r3, #2]
	mov	r2, r3
	.loc 3 194 45
	ldr	r3, [sp, #4]
	ldr	r3, [r3]
	.loc 3 194 16
	cmp	r2, r3
	bne	.L67
	.loc 3 196 24
	ldr	r3, [sp, #4]
	ldr	r2, [sp, #20]
	str	r2, [r3]
	.loc 3 197 24
	movs	r3, #0
	b	.L68
.L67:
.LBE16:
	.loc 3 190 38 discriminator 2
	ldr	r3, [sp, #20]
	adds	r3, r3, #1
	str	r3, [sp, #20]
.L66:
	.loc 3 190 9 discriminator 1
	ldr	r2, [sp, #20]
	ldr	r3, [sp, #16]
	cmp	r2, r3
	bcc	.L69
	.loc 3 200 16
	movs	r3, #5
	b	.L68
.L65:
.LBE15:
	.loc 3 204 16
	movs	r3, #0
.L68:
	.loc 3 206 1
	mov	r0, r3
	add	sp, sp, #28
.LCFI22:
	@ sp needed
	ldr	pc, [sp], #4
.L71:
	.align	2
.L70:
	.word	__start_log_dynamic_data
.LFE211:
	.size	module_idx_get, .-module_idx_get
	.section	.text.nrf_log_module_name_get,"ax",%progbits
	.align	1
	.global	nrf_log_module_name_get
	.syntax unified
	.thumb
	.thumb_func
	.fpu fpv4-sp-d16
	.type	nrf_log_module_name_get, %function
nrf_log_module_name_get:
.LFB212:
	.loc 3 208 1
	@ args = 0, pretend = 0, frame = 16
	@ frame_needed = 0, uses_anonymous_args = 0
	push	{lr}
.LCFI23:
	sub	sp, sp, #20
.LCFI24:
	str	r0, [sp, #4]
	mov	r3, r1
	strb	r3, [sp, #3]
	.loc 3 209 9
	ldrb	r2, [sp, #3]	@ zero_extendqisi2
	add	r3, sp, #4
	mov	r1, r2
	mov	r0, r3
	bl	module_idx_get
	mov	r3, r0
	.loc 3 209 8
	cmp	r3, #0
	bne	.L73
.LBB17:
	.loc 3 211 110
	ldr	r3, [sp, #4]
	lsls	r3, r3, #3
	.loc 3 211 39
	ldr	r2, .L75
	add	r3, r3, r2
	str	r3, [sp, #12]
	.loc 3 212 29
	ldr	r3, [sp, #12]
	ldr	r3, [r3]
	b	.L74
.L73:
.LBE17:
	.loc 3 216 15
	movs	r3, #0
.L74:
	.loc 3 218 1
	mov	r0, r3
	add	sp, sp, #20
.LCFI25:
	@ sp needed
	ldr	pc, [sp], #4
.L76:
	.align	2
.L75:
	.word	__start_log_const_data
.LFE212:
	.size	nrf_log_module_name_get, .-nrf_log_module_name_get
	.section	.text.nrf_log_color_id_get,"ax",%progbits
	.align	1
	.global	nrf_log_color_id_get
	.syntax unified
	.thumb
	.thumb_func
	.fpu fpv4-sp-d16
	.type	nrf_log_color_id_get, %function
nrf_log_color_id_get:
.LFB213:
	.loc 3 221 1
	@ args = 0, pretend = 0, frame = 16
	@ frame_needed = 0, uses_anonymous_args = 0
	@ link register save eliminated.
	sub	sp, sp, #16
.LCFI26:
	str	r0, [sp, #4]
	mov	r3, r1
	strb	r3, [sp, #3]
	.loc 3 222 106
	ldr	r3, [sp, #4]
	lsls	r3, r3, #3
	.loc 3 222 35
	ldr	r2, .L86
	add	r3, r3, r2
	str	r3, [sp, #8]
	.loc 3 224 5
	ldrb	r3, [sp, #3]	@ zero_extendqisi2
	subs	r3, r3, #1
	cmp	r3, #3
	bhi	.L78
	adr	r2, .L80
	ldr	pc, [r2, r3, lsl #2]
	.p2align 2
.L80:
	.word	.L83+1
	.word	.L82+1
	.word	.L81+1
	.word	.L79+1
	.p2align 1
.L83:
	.loc 3 227 18
	movs	r3, #2
	strb	r3, [sp, #15]
	.loc 3 228 9
	b	.L84
.L82:
	.loc 3 230 18
	movs	r3, #4
	strb	r3, [sp, #15]
	.loc 3 231 9
	b	.L84
.L81:
	.loc 3 233 18
	ldr	r3, [sp, #8]
	ldrb	r3, [r3, #4]
	strb	r3, [sp, #15]
	.loc 3 234 9
	b	.L84
.L79:
	.loc 3 236 18
	ldr	r3, [sp, #8]
	ldrb	r3, [r3, #5]
	strb	r3, [sp, #15]
	.loc 3 237 9
	b	.L84
.L78:
	.loc 3 239 18
	movs	r3, #0
	strb	r3, [sp, #15]
	.loc 3 240 9
	nop
.L84:
	.loc 3 242 12
	ldrb	r3, [sp, #15]	@ zero_extendqisi2
	.loc 3 243 1
	mov	r0, r3
	add	sp, sp, #16
.LCFI27:
	@ sp needed
	bx	lr
.L87:
	.align	2
.L86:
	.word	__start_log_const_data
.LFE213:
	.size	nrf_log_color_id_get, .-nrf_log_color_id_get
	.section	.text.higher_lvl_get,"ax",%progbits
	.align	1
	.syntax unified
	.thumb
	.thumb_func
	.fpu fpv4-sp-d16
	.type	higher_lvl_get, %function
higher_lvl_get:
.LFB214:
	.loc 3 246 1
	@ args = 0, pretend = 0, frame = 24
	@ frame_needed = 0, uses_anonymous_args = 0
	@ link register save eliminated.
	sub	sp, sp, #24
.LCFI28:
	str	r0, [sp, #4]
	.loc 3 247 14
	movs	r3, #0
	str	r3, [sp, #20]
	.loc 3 252 12
	movs	r3, #0
	str	r3, [sp, #16]
	.loc 3 252 5
	b	.L89
.L91:
	.loc 3 254 55
	movs	r2, #7
	ldr	r3, [sp, #16]
	lsls	r2, r2, r3
	.loc 3 254 30
	ldr	r3, [sp, #4]
	ands	r2, r2, r3
	.loc 3 254 17
	ldr	r3, [sp, #16]
	lsr	r3, r2, r3
	str	r3, [sp, #12]
	.loc 3 255 12
	ldr	r2, [sp, #12]
	ldr	r3, [sp, #20]
	cmp	r2, r3
	bls	.L90
	.loc 3 257 21
	ldr	r3, [sp, #12]
	str	r3, [sp, #20]
.L90:
	.loc 3 252 30 discriminator 2
	ldr	r3, [sp, #16]
	adds	r3, r3, #3
	str	r3, [sp, #16]
.L89:
	.loc 3 252 5 discriminator 1
	ldr	r3, [sp, #16]
	cmp	r3, #9
	bls	.L91
	.loc 3 260 12
	ldr	r3, [sp, #20]
	.loc 3 261 1
	mov	r0, r3
	add	sp, sp, #24
.LCFI29:
	@ sp needed
	bx	lr
.LFE214:
	.size	higher_lvl_get, .-higher_lvl_get
	.section	.text.nrf_log_module_filter_set,"ax",%progbits
	.align	1
	.global	nrf_log_module_filter_set
	.syntax unified
	.thumb
	.thumb_func
	.fpu fpv4-sp-d16
	.type	nrf_log_module_filter_set, %function
nrf_log_module_filter_set:
.LFB215:
	.loc 3 264 1
	@ args = 0, pretend = 0, frame = 16
	@ frame_needed = 0, uses_anonymous_args = 0
	@ link register save eliminated.
	sub	sp, sp, #16
.LCFI30:
	str	r0, [sp, #12]
	str	r1, [sp, #8]
	mov	r3, r2
	strb	r3, [sp, #7]
	.loc 3 273 1
	nop
	add	sp, sp, #16
.LCFI31:
	@ sp needed
	bx	lr
.LFE215:
	.size	nrf_log_module_filter_set, .-nrf_log_module_filter_set
	.section	.text.nrf_log_module_init_filter_get,"ax",%progbits
	.align	1
	.syntax unified
	.thumb
	.thumb_func
	.fpu fpv4-sp-d16
	.type	nrf_log_module_init_filter_get, %function
nrf_log_module_init_filter_get:
.LFB216:
	.loc 3 276 1
	@ args = 0, pretend = 0, frame = 16
	@ frame_needed = 0, uses_anonymous_args = 0
	@ link register save eliminated.
	sub	sp, sp, #16
.LCFI32:
	str	r0, [sp, #4]
	.loc 3 278 96
	ldr	r3, [sp, #4]
	lsls	r3, r3, #3
	.loc 3 277 35
	ldr	r2, .L96
	add	r3, r3, r2
	str	r3, [sp, #12]
	.loc 3 279 43
	ldr	r3, [sp, #12]
	ldrb	r3, [r3, #6]	@ zero_extendqisi2
	.loc 3 280 1
	mov	r0, r3
	add	sp, sp, #16
.LCFI33:
	@ sp needed
	bx	lr
.L97:
	.align	2
.L96:
	.word	__start_log_const_data
.LFE216:
	.size	nrf_log_module_init_filter_get, .-nrf_log_module_init_filter_get
	.section	.text.nrf_log_module_filter_get,"ax",%progbits
	.align	1
	.global	nrf_log_module_filter_get
	.syntax unified
	.thumb
	.thumb_func
	.fpu fpv4-sp-d16
	.type	nrf_log_module_filter_get, %function
nrf_log_module_filter_get:
.LFB217:
	.loc 3 286 1
	@ args = 0, pretend = 0, frame = 24
	@ frame_needed = 0, uses_anonymous_args = 0
	push	{lr}
.LCFI34:
	sub	sp, sp, #28
.LCFI35:
	str	r0, [sp, #12]
	str	r1, [sp, #8]
	mov	r1, r2
	mov	r2, r3
	mov	r3, r1
	strb	r3, [sp, #7]
	mov	r3, r2
	strb	r3, [sp, #6]
	.loc 3 287 24
	movs	r3, #0
	strb	r3, [sp, #23]
	.loc 3 298 14
	ldrb	r3, [sp, #6]
	eor	r3, r3, #1
	uxtb	r3, r3
	.loc 3 298 13
	cmp	r3, #0
	beq	.L99
	.loc 3 300 13
	ldrb	r2, [sp, #7]	@ zero_extendqisi2
	add	r3, sp, #8
	mov	r1, r2
	mov	r0, r3
	bl	module_idx_get
	mov	r3, r0
	.loc 3 300 12
	cmp	r3, #0
	bne	.L99
.LBB18:
	.loc 3 303 104
	ldr	r3, [sp, #8]
	lsls	r3, r3, #3
	.loc 3 302 43
	ldr	r2, .L101
	add	r3, r3, r2
	str	r3, [sp, #16]
	.loc 3 304 22
	ldr	r3, [sp, #16]
	ldrb	r3, [r3, #6]
	strb	r3, [sp, #23]
.L99:
.LBE18:
	.loc 3 307 12
	ldrb	r3, [sp, #23]	@ zero_extendqisi2
	.loc 3 308 1
	mov	r0, r3
	add	sp, sp, #28
.LCFI36:
	@ sp needed
	ldr	pc, [sp], #4
.L102:
	.align	2
.L101:
	.word	__start_log_const_data
.LFE217:
	.size	nrf_log_module_filter_get, .-nrf_log_module_filter_get
	.section	.text.invalid_packets_pushed_str_omit,"ax",%progbits
	.align	1
	.syntax unified
	.thumb
	.thumb_func
	.fpu fpv4-sp-d16
	.type	invalid_packets_pushed_str_omit, %function
invalid_packets_pushed_str_omit:
.LFB218:
	.loc 3 313 1
	@ args = 0, pretend = 0, frame = 16
	@ frame_needed = 0, uses_anonymous_args = 0
	@ link register save eliminated.
	sub	sp, sp, #16
.LCFI37:
	str	r0, [sp, #4]
	str	r1, [sp]
	.loc 3 314 9
	movs	r3, #0
	strb	r3, [sp, #15]
	.loc 3 315 38
	ldr	r3, [sp, #4]
	ldrb	r3, [r3]	@ zero_extendqisi2
	and	r3, r3, #3
	uxtb	r3, r3
	.loc 3 315 8
	cmp	r3, #0
	beq	.L104
	.loc 3 315 84 discriminator 1
	ldr	r3, [sp, #4]
	ldrb	r3, [r3]	@ zero_extendqisi2
	and	r3, r3, #4
	uxtb	r3, r3
	.loc 3 315 45 discriminator 1
	cmp	r3, #0
	beq	.L105
.L104:
	.loc 3 317 48
	ldr	r3, [sp, #4]
	ldrb	r3, [r3]	@ zero_extendqisi2
	and	r3, r3, #4
	uxtb	r3, r3
	.loc 3 317 12
	cmp	r3, #0
	beq	.L106
	.loc 3 319 43
	ldr	r3, [sp, #4]
	ldrb	r3, [r3]
	ubfx	r3, r3, #0, #2
	uxtb	r3, r3
	.loc 3 319 13
	cmp	r3, #1
	beq	.L107
	cmp	r3, #2
	beq	.L108
	.loc 3 329 17
	b	.L111
.L107:
	.loc 3 322 27
	ldr	r3, [sp]
	ldr	r3, [r3]
	.loc 3 322 109
	ldr	r2, [sp, #4]
	ldrh	r2, [r2]	@ movhi
	ubfx	r2, r2, #6, #4
	uxtb	r2, r2
	.loc 3 322 27
	add	r3, r3, r2
	adds	r2, r3, #2
	ldr	r3, [sp]
	str	r2, [r3]
	.loc 3 323 17
	b	.L111
.L108:
	.loc 3 325 27
	ldr	r3, [sp]
	ldr	r3, [r3]
	.loc 3 325 113
	ldr	r2, [sp, #4]
	ldrh	r2, [r2, #2]	@ movhi
	ubfx	r2, r2, #6, #10
	uxth	r2, r2
	.loc 3 325 27
	add	r3, r3, r2
	adds	r2, r3, #2
	ldr	r3, [sp]
	str	r2, [r3]
	.loc 3 326 17
	b	.L111
.L106:
	.loc 3 334 23
	ldr	r3, [sp]
	ldr	r2, [r3]
	.loc 3 335 96
	ldr	r3, [sp, #4]
	ldrh	r3, [r3, #2]	@ movhi
	ubfx	r3, r3, #6, #10
	uxth	r3, r3
	mov	r1, r3
	.loc 3 335 124
	ldr	r3, [sp, #4]
	ldrh	r3, [r3]	@ movhi
	ubfx	r3, r3, #6, #10
	uxth	r3, r3
	.loc 3 335 101
	add	r3, r3, r1
	.loc 3 334 23
	add	r3, r3, r2
	adds	r2, r3, #1
	ldr	r3, [sp]
	str	r2, [r3]
.L111:
	.loc 3 337 13
	movs	r3, #1
	strb	r3, [sp, #15]
.L105:
	.loc 3 339 12
	ldrb	r3, [sp, #15]	@ zero_extendqisi2
	.loc 3 340 1
	mov	r0, r3
	add	sp, sp, #16
.LCFI38:
	@ sp needed
	bx	lr
.LFE218:
	.size	invalid_packets_pushed_str_omit, .-invalid_packets_pushed_str_omit
	.section	.text.log_skip,"ax",%progbits
	.align	1
	.syntax unified
	.thumb
	.thumb_func
	.fpu fpv4-sp-d16
	.type	log_skip, %function
log_skip:
.LFB219:
	.loc 3 347 1
	@ args = 0, pretend = 0, frame = 40
	@ frame_needed = 0, uses_anonymous_args = 0
	push	{lr}
.LCFI39:
	sub	sp, sp, #44
.LCFI40:
	.loc 3 348 14
	movs	r3, #0
	strh	r3, [sp, #38]	@ movhi
	.loc 3 350 11
	ldr	r0, .L127
	bl	nrf_atomic_flag_set
	.loc 3 351 11
	ldr	r0, .L127+4
	bl	nrf_atomic_flag_set
	.loc 3 353 33
	ldr	r3, .L127+8
	ldr	r3, [r3, #4]
	.loc 3 353 14
	str	r3, [sp, #16]
	.loc 3 354 14
	ldr	r3, .L127+8
	ldr	r3, [r3, #8]
	str	r3, [sp, #24]
	.loc 3 355 81
	ldr	r2, [sp, #16]
	ldr	r3, [sp, #24]
	ands	r3, r3, r2
	.loc 3 355 24
	adds	r3, r3, #2
	lsls	r3, r3, #2
	ldr	r2, .L127+8
	add	r3, r3, r2
	adds	r3, r3, #4
	str	r3, [sp, #32]
.L117:
	.loc 3 360 13
	add	r3, sp, #16
	mov	r1, r3
	ldr	r0, [sp, #32]
	bl	invalid_packets_pushed_str_omit
	mov	r3, r0
	.loc 3 360 12
	cmp	r3, #0
	beq	.L125
	.loc 3 363 70
	ldr	r2, [sp, #16]
	ldr	r3, [sp, #24]
	ands	r3, r3, r2
	.loc 3 363 22
	adds	r3, r3, #2
	lsls	r3, r3, #2
	ldr	r2, .L127+8
	add	r3, r3, r2
	adds	r3, r3, #4
	str	r3, [sp, #32]
	.loc 3 360 12
	b	.L117
.L125:
	.loc 3 367 13
	nop
	.loc 3 372 12
	movs	r3, #0
	str	r3, [sp, #28]
	.loc 3 372 5
	b	.L118
.L119:
	.loc 3 374 59 discriminator 3
	ldr	r3, [sp, #16]
	adds	r2, r3, #1
	str	r2, [sp, #16]
	.loc 3 374 62 discriminator 3
	ldr	r2, [sp, #24]
	ands	r3, r3, r2
	.loc 3 374 29 discriminator 3
	ldr	r2, [sp, #28]
	lsls	r2, r2, #2
	add	r1, sp, #4
	add	r2, r2, r1
	.loc 3 374 52 discriminator 3
	ldr	r1, .L127+8
	adds	r3, r3, #2
	lsls	r3, r3, #2
	add	r3, r3, r1
	ldr	r3, [r3, #4]
	.loc 3 374 33 discriminator 3
	str	r3, [r2]
	.loc 3 372 81 discriminator 3
	ldr	r3, [sp, #28]
	adds	r3, r3, #1
	str	r3, [sp, #28]
.L118:
	.loc 3 372 5 discriminator 1
	ldr	r3, [sp, #28]
	cmp	r3, #1
	bls	.L119
	.loc 3 377 32
	ldrb	r3, [sp, #4]
	ubfx	r3, r3, #0, #2
	uxtb	r3, r3
	.loc 3 377 5
	cmp	r3, #1
	beq	.L120
	cmp	r3, #2
	bne	.L126
	.loc 3 380 21
	ldrh	r3, [sp, #10]	@ movhi
	strh	r3, [sp, #38]	@ movhi
	.loc 3 381 45
	ldrh	r3, [sp, #6]	@ movhi
	ubfx	r3, r3, #6, #10
	uxth	r3, r3
	.loc 3 381 72
	adds	r3, r3, #3
	.loc 3 381 77
	lsrs	r2, r3, #2
	.loc 3 381 20
	ldr	r3, [sp, #16]
	add	r3, r3, r2
	str	r3, [sp, #16]
	.loc 3 382 13
	b	.L122
.L120:
	.loc 3 384 21
	ldrh	r3, [sp, #10]	@ movhi
	strh	r3, [sp, #38]	@ movhi
	.loc 3 385 38
	ldrh	r3, [sp, #4]	@ movhi
	ubfx	r3, r3, #6, #4
	uxtb	r3, r3
	mov	r2, r3
	.loc 3 385 20
	ldr	r3, [sp, #16]
	add	r3, r3, r2
	str	r3, [sp, #16]
	.loc 3 386 13
	b	.L122
.L126:
	.loc 3 389 13
	nop
.L122:
	.loc 3 392 33
	ldr	r0, .L127+4
	bl	nrf_atomic_flag_clear_fetch
	str	r0, [sp, #20]
	.loc 3 394 8
	ldr	r3, [sp, #20]
	cmp	r3, #0
	beq	.L123
	.loc 3 396 27
	ldr	r3, [sp, #16]
	ldr	r2, .L127+8
	str	r3, [r2, #4]
.L123:
	.loc 3 399 12
	ldrh	r3, [sp, #38]
	.loc 3 400 1
	mov	r0, r3
	add	sp, sp, #44
.LCFI41:
	@ sp needed
	ldr	pc, [sp], #4
.L128:
	.align	2
.L127:
	.word	m_log_data+1048
	.word	m_log_data+1044
	.word	m_log_data
.LFE219:
	.size	log_skip, .-log_skip
	.section	.text.dropped_sat16_get,"ax",%progbits
	.align	1
	.syntax unified
	.thumb
	.thumb_func
	.fpu fpv4-sp-d16
	.type	dropped_sat16_get, %function
dropped_sat16_get:
.LFB220:
	.loc 3 408 1
	@ args = 0, pretend = 0, frame = 16
	@ frame_needed = 0, uses_anonymous_args = 0
	push	{lr}
.LCFI42:
	sub	sp, sp, #20
.LCFI43:
	.loc 3 409 24
	movs	r1, #0
	ldr	r0, .L131
	bl	nrf_atomic_u32_fetch_store
	str	r0, [sp, #12]
.LBB19:
	.loc 3 410 31
	ldr	r3, [sp, #12]
	str	r3, [sp, #8]
	.loc 3 410 51
	ldr	r3, [sp, #8]
	.syntax unified
@ 410 "C:\nRF5_SDK_15.0.0_a53641a\components\libraries\experimental_log\src\nrf_log_frontend.c" 1
	usat r3, #16, r3
@ 0 "" 2
	.thumb
	.syntax unified
	str	r3, [sp, #4]
	.loc 3 410 119
	ldr	r3, [sp, #4]
.LBE19:
	.loc 3 411 1
	mov	r0, r3
	add	sp, sp, #20
.LCFI44:
	@ sp needed
	ldr	pc, [sp], #4
.L132:
	.align	2
.L131:
	.word	m_log_data+1052
.LFE220:
	.size	dropped_sat16_get, .-dropped_sat16_get
	.section	.text.std_header_set,"ax",%progbits
	.align	1
	.syntax unified
	.thumb
	.thumb_func
	.fpu fpv4-sp-d16
	.type	std_header_set, %function
std_header_set:
.LFB221:
	.loc 3 419 1
	@ args = 4, pretend = 0, frame = 32
	@ frame_needed = 0, uses_anonymous_args = 0
	push	{lr}
.LCFI45:
	sub	sp, sp, #36
.LCFI46:
	str	r0, [sp, #12]
	str	r1, [sp, #8]
	str	r2, [sp, #4]
	str	r3, [sp]
	.loc 3 423 14
	ldr	r3, [sp, #12]
	lsrs	r3, r3, #16
	str	r3, [sp, #24]
	.loc 3 424 24
	bl	dropped_sat16_get
	str	r0, [sp, #28]
	.loc 3 426 67
	ldr	r3, [sp, #28]
	lsls	r1, r3, #16
	.loc 3 426 31
	ldr	r3, [sp]
	adds	r2, r3, #1
	.loc 3 426 36
	ldr	r3, [sp, #40]
	ands	r3, r3, r2
	.loc 3 426 56
	ldr	r2, [sp, #24]
	orrs	r2, r2, r1
	.loc 3 426 44
	ldr	r1, .L134
	adds	r3, r3, #2
	lsls	r3, r3, #2
	add	r3, r3, r1
	str	r2, [r3, #4]
	.loc 3 433 81
	ldr	r2, [sp]
	ldr	r3, [sp, #40]
	ands	r3, r3, r2
	.loc 3 433 24
	adds	r3, r3, #2
	lsls	r3, r3, #2
	ldr	r2, .L134
	add	r3, r3, r2
	adds	r3, r3, #4
	str	r3, [sp, #20]
	.loc 3 434 48
	ldr	r3, [sp, #12]
	and	r3, r3, #7
	uxtb	r1, r3
	.loc 3 434 33
	ldr	r2, [sp, #20]
	ldrb	r3, [r2]
	bfi	r3, r1, #3, #3
	strb	r3, [r2]
	.loc 3 435 30
	ldr	r3, [sp, #4]
	and	r3, r3, #15
	uxtb	r1, r3
	ldr	r2, [sp, #20]
	ldrh	r3, [r2]	@ movhi
	bfi	r3, r1, #6, #4
	strh	r3, [r2]	@ movhi
	.loc 3 436 32
	ldr	r3, [sp, #8]
	.loc 3 436 50
	ubfx	r1, r3, #0, #22
	.loc 3 436 29
	ldr	r2, [sp, #20]
	ldr	r3, [r2]
	bfi	r3, r1, #10, #22
	str	r3, [r2]
	.loc 3 437 29
	ldr	r2, [sp, #20]
	ldrb	r3, [r2]
	movs	r1, #1
	bfi	r3, r1, #0, #2
	strb	r3, [r2]
	.loc 3 438 36
	ldr	r2, [sp, #20]
	ldrb	r3, [r2]
	bfc	r3, #2, #1
	strb	r3, [r2]
	.loc 3 439 1
	nop
	add	sp, sp, #36
.LCFI47:
	@ sp needed
	ldr	pc, [sp], #4
.L135:
	.align	2
.L134:
	.word	m_log_data
.LFE221:
	.size	std_header_set, .-std_header_set
	.section	.text.buf_prealloc,"ax",%progbits
	.align	1
	.syntax unified
	.thumb
	.thumb_func
	.fpu fpv4-sp-d16
	.type	buf_prealloc, %function
buf_prealloc:
.LFB222:
	.loc 3 453 1
	@ args = 0, pretend = 0, frame = 48
	@ frame_needed = 0, uses_anonymous_args = 0
	push	{lr}
.LCFI48:
	sub	sp, sp, #52
.LCFI49:
	str	r0, [sp, #12]
	str	r1, [sp, #8]
	mov	r3, r2
	strb	r3, [sp, #7]
	.loc 3 454 14
	ldr	r3, [sp, #12]
	adds	r3, r3, #2
	str	r3, [sp, #40]
	.loc 3 455 13
	movs	r3, #1
	strb	r3, [sp, #39]
.LBB20:
	.loc 3 456 15
	movs	r3, #0
	strb	r3, [sp, #27]
	.loc 3 456 32
	add	r3, sp, #27
	mov	r0, r3
	bl	app_util_critical_region_enter
	.loc 3 457 27
	ldr	r3, .L143
	ldr	r2, [r3]
	.loc 3 457 15
	ldr	r3, [sp, #8]
	str	r2, [r3]
	.loc 3 458 43
	ldr	r3, .L143
	ldr	r2, [r3, #8]
	.loc 3 458 87
	ldr	r3, .L143
	ldr	r1, [r3, #4]
	.loc 3 458 67
	ldr	r3, .L143
	ldr	r3, [r3]
	.loc 3 458 54
	subs	r3, r1, r3
	add	r3, r3, r2
	.loc 3 458 14
	adds	r3, r3, #1
	str	r3, [sp, #44]
	.loc 3 459 11
	b	.L137
.L138:
	.loc 3 461 17
	movs	r1, #1
	ldr	r0, .L143+4
	bl	nrf_atomic_u32_add
.LBB21:
	.loc 3 464 40
	bl	log_skip
	str	r0, [sp, #28]
	.loc 3 465 21
	ldr	r1, [sp, #28]
	ldr	r0, .L143+4
	bl	nrf_atomic_u32_add
	.loc 3 466 42
	ldr	r3, .L143
	ldr	r2, [r3, #8]
	.loc 3 466 86
	ldr	r3, .L143
	ldr	r1, [r3, #4]
	.loc 3 466 66
	ldr	r3, .L143
	ldr	r3, [r3]
	.loc 3 466 53
	subs	r3, r1, r3
	add	r3, r3, r2
	.loc 3 466 29
	adds	r3, r3, #1
	str	r3, [sp, #44]
.L137:
.LBE21:
	.loc 3 459 11
	ldr	r2, [sp, #40]
	ldr	r3, [sp, #44]
	cmp	r2, r3
	bhi	.L138
	.loc 3 475 8
	ldrb	r3, [sp, #39]	@ zero_extendqisi2
	cmp	r3, #0
	beq	.L139
.LBB22:
	.loc 3 478 28
	movs	r3, #0
	str	r3, [sp, #20]
	.loc 3 480 12
	ldrb	r3, [sp, #7]	@ zero_extendqisi2
	cmp	r3, #0
	beq	.L140
	.loc 3 482 37
	ldrb	r3, [sp, #20]
	movs	r2, #1
	bfi	r3, r2, #0, #2
	strb	r3, [sp, #20]
	.loc 3 483 44
	ldrb	r3, [sp, #20]
	orr	r3, r3, #4
	strb	r3, [sp, #20]
	.loc 3 484 38
	ldr	r3, [sp, #12]
	and	r3, r3, #15
	uxtb	r2, r3
	ldrh	r3, [sp, #20]	@ movhi
	bfi	r3, r2, #6, #4
	strh	r3, [sp, #20]	@ movhi
	b	.L141
.L140:
	.loc 3 488 41
	ldrb	r3, [sp, #20]
	movs	r2, #2
	bfi	r3, r2, #0, #2
	strb	r3, [sp, #20]
	.loc 3 489 48
	ldrb	r3, [sp, #20]
	orr	r3, r3, #4
	strb	r3, [sp, #20]
	.loc 3 490 40
	ldr	r3, [sp, #12]
	ubfx	r3, r3, #0, #10
	uxth	r2, r3
	ldrh	r3, [sp, #22]	@ movhi
	bfi	r3, r2, #6, #10
	strh	r3, [sp, #22]	@ movhi
.L141:
	.loc 3 493 98
	ldr	r3, .L143
	ldr	r2, [r3]
	.loc 3 493 118
	ldr	r3, .L143
	ldr	r3, [r3, #8]
	.loc 3 493 106
	ands	r3, r3, r2
	.loc 3 493 33
	adds	r3, r3, #2
	lsls	r3, r3, #2
	ldr	r2, .L143
	add	r3, r3, r2
	adds	r3, r3, #4
	str	r3, [sp, #32]
	.loc 3 495 39
	ldr	r2, [sp, #20]
	.loc 3 495 23
	ldr	r3, [sp, #32]
	str	r2, [r3]
	.loc 3 497 27
	ldr	r3, .L143
	ldr	r2, [r3]
	ldr	r3, [sp, #40]
	add	r3, r3, r2
	ldr	r2, .L143
	str	r3, [r2]
.L139:
.LBE22:
	.loc 3 500 5
	ldrb	r3, [sp, #27]	@ zero_extendqisi2
	mov	r0, r3
	bl	app_util_critical_region_exit
.LBE20:
	.loc 3 501 12
	ldrb	r3, [sp, #39]	@ zero_extendqisi2
	.loc 3 502 1
	mov	r0, r3
	add	sp, sp, #52
.LCFI50:
	@ sp needed
	ldr	pc, [sp], #4
.L144:
	.align	2
.L143:
	.word	m_log_data
	.word	m_log_data+1052
.LFE222:
	.size	buf_prealloc, .-buf_prealloc
	.section	.text.cont_buf_prealloc,"ax",%progbits
	.align	1
	.syntax unified
	.thumb
	.thumb_func
	.fpu fpv4-sp-d16
	.type	cont_buf_prealloc, %function
cont_buf_prealloc:
.LFB223:
	.loc 3 522 1
	@ args = 0, pretend = 0, frame = 48
	@ frame_needed = 0, uses_anonymous_args = 0
	push	{lr}
.LCFI51:
	sub	sp, sp, #52
.LCFI52:
	str	r0, [sp, #12]
	str	r1, [sp, #8]
	str	r2, [sp, #4]
	.loc 3 525 16
	movs	r3, #0
	str	r3, [sp, #44]
	.loc 3 527 11
	ldr	r3, [sp, #12]
	adds	r3, r3, #1
	str	r3, [sp, #12]
.LBB23:
	.loc 3 529 15
	movs	r3, #0
	strb	r3, [sp, #23]
	.loc 3 529 32
	add	r3, sp, #23
	mov	r0, r3
	bl	app_util_critical_region_enter
	.loc 3 530 27
	ldr	r3, .L153
	ldr	r2, [r3]
	.loc 3 530 15
	ldr	r3, [sp, #4]
	str	r2, [r3]
	.loc 3 531 43
	ldr	r3, .L153
	ldr	r2, [r3, #8]
	.loc 3 532 64
	ldr	r3, .L153
	ldr	r1, [r3, #4]
	.loc 3 532 44
	ldr	r3, .L153
	ldr	r3, [r3]
	.loc 3 531 54
	subs	r3, r1, r3
	add	r3, r3, r2
	.loc 3 531 14
	adds	r3, r3, #1
	str	r3, [sp, #40]
	.loc 3 533 62
	ldr	r3, .L153
	ldr	r3, [r3]
	.loc 3 533 49
	mvns	r2, r3
	.loc 3 533 82
	ldr	r3, .L153
	ldr	r3, [r3, #8]
	.loc 3 533 49
	ands	r3, r3, r2
	.loc 3 533 14
	adds	r3, r3, #1
	str	r3, [sp, #36]
	.loc 3 536 14
	ldr	r2, [sp, #40]
	ldr	r3, [sp, #36]
	cmp	r3, r2
	it	cs
	movcs	r3, r2
	str	r3, [sp, #32]
	.loc 3 537 72
	ldr	r2, [sp, #40]
	ldr	r3, [sp, #36]
	cmp	r2, r3
	bls	.L146
	.loc 3 537 72 is_stmt 0 discriminator 1
	ldr	r2, [sp, #40]
	ldr	r3, [sp, #36]
	subs	r3, r2, r3
	b	.L147
.L146:
	.loc 3 537 72 discriminator 2
	movs	r3, #0
.L147:
	.loc 3 537 14 is_stmt 1 discriminator 4
	str	r3, [sp, #28]
	.loc 3 539 8 discriminator 4
	ldr	r2, [sp, #12]
	ldr	r3, [sp, #32]
	cmp	r2, r3
	bls	.L148
	.loc 3 540 17 discriminator 1
	ldr	r3, [sp, #12]
	subs	r3, r3, #1
	.loc 3 539 39 discriminator 1
	ldr	r2, [sp, #28]
	cmp	r2, r3
	bcc	.L149
.L148:
.LBB24:
	.loc 3 544 55
	ldr	r2, [sp, #12]
	ldr	r3, [sp, #32]
	cmp	r2, r3
	bls	.L150
	.loc 3 544 55 is_stmt 0 discriminator 1
	ldr	r3, [sp, #36]
	subs	r3, r3, #1
	b	.L151
.L150:
	.loc 3 544 55 discriminator 2
	movs	r3, #0
.L151:
	.loc 3 544 19 is_stmt 1 discriminator 4
	ldr	r2, [sp, #8]
	str	r3, [r2]
	.loc 3 546 32 discriminator 4
	ldr	r3, .L153
	ldr	r2, [r3]
	.loc 3 546 95 discriminator 4
	ldr	r3, [sp, #8]
	ldr	r3, [r3]
	.loc 3 546 93 discriminator 4
	add	r3, r3, r2
	adds	r2, r3, #1
	.loc 3 546 118 discriminator 4
	ldr	r3, .L153
	ldr	r3, [r3, #8]
	.loc 3 545 18 discriminator 4
	ands	r3, r3, r2
	str	r3, [sp, #24]
	.loc 3 547 15 discriminator 4
	ldr	r3, [sp, #24]
	adds	r3, r3, #2
	lsls	r3, r3, #2
	ldr	r2, .L153
	add	r3, r3, r2
	adds	r3, r3, #4
	str	r3, [sp, #44]
	.loc 3 549 27 discriminator 4
	ldr	r3, .L153
	ldr	r2, [r3]
	.loc 3 549 39 discriminator 4
	ldr	r3, [sp, #8]
	ldr	r1, [r3]
	.loc 3 549 37 discriminator 4
	ldr	r3, [sp, #12]
	add	r3, r3, r1
	.loc 3 549 27 discriminator 4
	add	r3, r3, r2
	ldr	r2, .L153
	str	r3, [r2]
.L149:
.LBE24:
	.loc 3 552 5
	ldrb	r3, [sp, #23]	@ zero_extendqisi2
	mov	r0, r3
	bl	app_util_critical_region_exit
.LBE23:
	.loc 3 554 12
	ldr	r3, [sp, #44]
	.loc 3 555 1
	mov	r0, r3
	add	sp, sp, #52
.LCFI53:
	@ sp needed
	ldr	pc, [sp], #4
.L154:
	.align	2
.L153:
	.word	m_log_data
.LFE223:
	.size	cont_buf_prealloc, .-cont_buf_prealloc
	.section	.text.nrf_log_push,"ax",%progbits
	.align	1
	.global	nrf_log_push
	.syntax unified
	.thumb
	.thumb_func
	.fpu fpv4-sp-d16
	.type	nrf_log_push, %function
nrf_log_push:
.LFB224:
	.loc 3 559 1
	@ args = 0, pretend = 0, frame = 40
	@ frame_needed = 0, uses_anonymous_args = 0
	push	{lr}
.LCFI54:
	sub	sp, sp, #44
.LCFI55:
	str	r0, [sp, #4]
	.loc 3 560 20
	ldr	r3, .L161
	ldrb	r3, [r3, #1056]	@ zero_extendqisi2
	.loc 3 560 8
	cmp	r3, #0
	bne	.L156
	.loc 3 560 32 discriminator 1
	ldr	r3, [sp, #4]
	cmp	r3, #0
	bne	.L157
.L156:
	.loc 3 562 16
	ldr	r3, [sp, #4]
	b	.L160
.L157:
	.loc 3 565 14
	ldr	r3, .L161
	ldr	r3, [r3, #8]
	str	r3, [sp, #36]
	.loc 3 566 21
	ldr	r0, [sp, #4]
	bl	strlen
	mov	r3, r0
	.loc 3 566 14
	adds	r3, r3, #1
	str	r3, [sp, #32]
	.loc 3 567 53
	ldr	r3, [sp, #32]
	adds	r3, r3, #3
	.loc 3 567 14
	lsrs	r3, r3, #2
	str	r3, [sp, #28]
	.loc 3 568 14
	movs	r3, #0
	str	r3, [sp, #16]
	.loc 3 570 32
	add	r2, sp, #12
	add	r3, sp, #16
	mov	r1, r3
	ldr	r0, [sp, #28]
	bl	cont_buf_prealloc
	str	r0, [sp, #24]
	.loc 3 571 8
	ldr	r3, [sp, #24]
	cmp	r3, #0
	beq	.L159
.LBB25:
	.loc 3 573 85
	ldr	r2, [sp, #12]
	ldr	r3, [sp, #36]
	ands	r3, r3, r2
	.loc 3 573 28
	adds	r3, r3, #2
	lsls	r3, r3, #2
	ldr	r2, .L161
	add	r3, r3, r2
	adds	r3, r3, #4
	str	r3, [sp, #20]
	.loc 3 574 30
	ldr	r3, [sp, #20]
	movs	r2, #0
	str	r2, [r3]
	.loc 3 574 64
	ldr	r2, [sp, #20]
	ldrb	r3, [r2]
	bfc	r3, #0, #2
	strb	r3, [r2]
	.loc 3 574 101
	ldr	r3, [sp, #16]
	ubfx	r3, r3, #0, #10
	uxth	r1, r3
	ldr	r2, [sp, #20]
	ldrh	r3, [r2]	@ movhi
	bfi	r3, r1, #6, #10
	strh	r3, [r2]	@ movhi
	.loc 3 574 139
	ldr	r3, [sp, #28]
	ubfx	r3, r3, #0, #10
	uxth	r1, r3
	ldr	r2, [sp, #20]
	ldrh	r3, [r2, #2]	@ movhi
	bfi	r3, r1, #6, #10
	strh	r3, [r2, #2]	@ movhi
	.loc 3 575 9
	ldr	r2, [sp, #32]
	ldr	r1, [sp, #4]
	ldr	r0, [sp, #24]
	bl	memcpy
.L159:
.LBE25:
	.loc 3 577 12
	ldr	r3, [sp, #24]
.L160:
	.loc 3 578 1 discriminator 1
	mov	r0, r3
	add	sp, sp, #44
.LCFI56:
	@ sp needed
	ldr	pc, [sp], #4
.L162:
	.align	2
.L161:
	.word	m_log_data
.LFE224:
	.size	nrf_log_push, .-nrf_log_push
	.section	.text.std_n,"ax",%progbits
	.align	1
	.syntax unified
	.thumb
	.thumb_func
	.fpu fpv4-sp-d16
	.type	std_n, %function
std_n:
.LFB225:
	.loc 3 581 1
	@ args = 0, pretend = 0, frame = 32
	@ frame_needed = 0, uses_anonymous_args = 0
	push	{lr}
.LCFI57:
	sub	sp, sp, #44
.LCFI58:
	str	r0, [sp, #20]
	str	r1, [sp, #16]
	str	r2, [sp, #12]
	str	r3, [sp, #8]
	.loc 3 582 14
	ldr	r3, .L170
	ldr	r3, [r3, #8]
	str	r3, [sp, #28]
	.loc 3 585 9
	add	r3, sp, #24
	movs	r2, #1
	mov	r1, r3
	ldr	r0, [sp, #8]
	bl	buf_prealloc
	mov	r3, r0
	.loc 3 585 8
	cmp	r3, #0
	beq	.L164
.LBB26:
	.loc 3 589 36
	ldr	r3, [sp, #24]
	.loc 3 589 18
	adds	r3, r3, #2
	str	r3, [sp, #36]
	.loc 3 591 16
	movs	r3, #0
	str	r3, [sp, #32]
	.loc 3 591 9
	b	.L165
.L166:
	.loc 3 593 55 discriminator 3
	ldr	r3, [sp, #32]
	lsls	r3, r3, #2
	ldr	r2, [sp, #12]
	add	r2, r2, r3
	.loc 3 593 39 discriminator 3
	ldr	r3, [sp, #36]
	adds	r1, r3, #1
	str	r1, [sp, #36]
	.loc 3 593 42 discriminator 3
	ldr	r1, [sp, #28]
	ands	r3, r3, r1
	.loc 3 593 55 discriminator 3
	ldr	r2, [r2]
	.loc 3 593 50 discriminator 3
	ldr	r1, .L170
	adds	r3, r3, #2
	lsls	r3, r3, #2
	add	r3, r3, r1
	str	r2, [r3, #4]
	.loc 3 591 33 discriminator 3
	ldr	r3, [sp, #32]
	adds	r3, r3, #1
	str	r3, [sp, #32]
.L165:
	.loc 3 591 9 discriminator 1
	ldr	r2, [sp, #32]
	ldr	r3, [sp, #8]
	cmp	r2, r3
	bcc	.L166
	.loc 3 595 9
	ldr	r2, [sp, #24]
	ldr	r3, [sp, #28]
	str	r3, [sp]
	mov	r3, r2
	ldr	r2, [sp, #8]
	ldr	r1, [sp, #16]
	ldr	r0, [sp, #20]
	bl	std_header_set
.L164:
.LBE26:
	.loc 3 597 19
	ldr	r3, .L170
	ldrb	r3, [r3, #1056]	@ zero_extendqisi2
	.loc 3 597 8
	cmp	r3, #0
	beq	.L169
	.loc 3 599 20
	nop
.L168:
	.loc 3 599 21 discriminator 1
	bl	nrf_log_frontend_dequeue
	mov	r3, r0
	.loc 3 599 20 discriminator 1
	cmp	r3, #0
	bne	.L168
.L169:
	.loc 3 602 1
	nop
	add	sp, sp, #44
.LCFI59:
	@ sp needed
	ldr	pc, [sp], #4
.L171:
	.align	2
.L170:
	.word	m_log_data
.LFE225:
	.size	std_n, .-std_n
	.section	.text.nrf_log_frontend_std_0,"ax",%progbits
	.align	1
	.global	nrf_log_frontend_std_0
	.syntax unified
	.thumb
	.thumb_func
	.fpu fpv4-sp-d16
	.type	nrf_log_frontend_std_0, %function
nrf_log_frontend_std_0:
.LFB226:
	.loc 3 605 1
	@ args = 0, pretend = 0, frame = 8
	@ frame_needed = 0, uses_anonymous_args = 0
	push	{lr}
.LCFI60:
	sub	sp, sp, #12
.LCFI61:
	str	r0, [sp, #4]
	str	r1, [sp]
	.loc 3 606 5
	movs	r3, #0
	movs	r2, #0
	ldr	r1, [sp]
	ldr	r0, [sp, #4]
	bl	std_n
	.loc 3 607 1
	nop
	add	sp, sp, #12
.LCFI62:
	@ sp needed
	ldr	pc, [sp], #4
.LFE226:
	.size	nrf_log_frontend_std_0, .-nrf_log_frontend_std_0
	.section	.text.nrf_log_frontend_std_1,"ax",%progbits
	.align	1
	.global	nrf_log_frontend_std_1
	.syntax unified
	.thumb
	.thumb_func
	.fpu fpv4-sp-d16
	.type	nrf_log_frontend_std_1, %function
nrf_log_frontend_std_1:
.LFB227:
	.loc 3 613 1
	@ args = 0, pretend = 0, frame = 24
	@ frame_needed = 0, uses_anonymous_args = 0
	push	{lr}
.LCFI63:
	sub	sp, sp, #28
.LCFI64:
	str	r0, [sp, #12]
	str	r1, [sp, #8]
	str	r2, [sp, #4]
	.loc 3 614 14
	ldr	r3, [sp, #4]
	str	r3, [sp, #20]
	.loc 3 615 5
	add	r2, sp, #20
	movs	r3, #1
	ldr	r1, [sp, #8]
	ldr	r0, [sp, #12]
	bl	std_n
	.loc 3 616 1
	nop
	add	sp, sp, #28
.LCFI65:
	@ sp needed
	ldr	pc, [sp], #4
.LFE227:
	.size	nrf_log_frontend_std_1, .-nrf_log_frontend_std_1
	.section	.text.nrf_log_frontend_std_2,"ax",%progbits
	.align	1
	.global	nrf_log_frontend_std_2
	.syntax unified
	.thumb
	.thumb_func
	.fpu fpv4-sp-d16
	.type	nrf_log_frontend_std_2, %function
nrf_log_frontend_std_2:
.LFB228:
	.loc 3 623 1
	@ args = 0, pretend = 0, frame = 24
	@ frame_needed = 0, uses_anonymous_args = 0
	push	{lr}
.LCFI66:
	sub	sp, sp, #28
.LCFI67:
	str	r0, [sp, #12]
	str	r1, [sp, #8]
	str	r2, [sp, #4]
	str	r3, [sp]
	.loc 3 624 14
	ldr	r3, [sp, #4]
	str	r3, [sp, #16]
	ldr	r3, [sp]
	str	r3, [sp, #20]
	.loc 3 625 5
	add	r2, sp, #16
	movs	r3, #2
	ldr	r1, [sp, #8]
	ldr	r0, [sp, #12]
	bl	std_n
	.loc 3 626 1
	nop
	add	sp, sp, #28
.LCFI68:
	@ sp needed
	ldr	pc, [sp], #4
.LFE228:
	.size	nrf_log_frontend_std_2, .-nrf_log_frontend_std_2
	.section	.text.nrf_log_frontend_std_3,"ax",%progbits
	.align	1
	.global	nrf_log_frontend_std_3
	.syntax unified
	.thumb
	.thumb_func
	.fpu fpv4-sp-d16
	.type	nrf_log_frontend_std_3, %function
nrf_log_frontend_std_3:
.LFB229:
	.loc 3 634 1
	@ args = 4, pretend = 0, frame = 32
	@ frame_needed = 0, uses_anonymous_args = 0
	push	{lr}
.LCFI69:
	sub	sp, sp, #36
.LCFI70:
	str	r0, [sp, #12]
	str	r1, [sp, #8]
	str	r2, [sp, #4]
	str	r3, [sp]
	.loc 3 635 14
	ldr	r3, [sp, #4]
	str	r3, [sp, #20]
	ldr	r3, [sp]
	str	r3, [sp, #24]
	ldr	r3, [sp, #40]
	str	r3, [sp, #28]
	.loc 3 636 5
	add	r2, sp, #20
	movs	r3, #3
	ldr	r1, [sp, #8]
	ldr	r0, [sp, #12]
	bl	std_n
	.loc 3 637 1
	nop
	add	sp, sp, #36
.LCFI71:
	@ sp needed
	ldr	pc, [sp], #4
.LFE229:
	.size	nrf_log_frontend_std_3, .-nrf_log_frontend_std_3
	.section	.text.nrf_log_frontend_std_4,"ax",%progbits
	.align	1
	.global	nrf_log_frontend_std_4
	.syntax unified
	.thumb
	.thumb_func
	.fpu fpv4-sp-d16
	.type	nrf_log_frontend_std_4, %function
nrf_log_frontend_std_4:
.LFB230:
	.loc 3 646 1
	@ args = 8, pretend = 0, frame = 32
	@ frame_needed = 0, uses_anonymous_args = 0
	push	{lr}
.LCFI72:
	sub	sp, sp, #36
.LCFI73:
	str	r0, [sp, #12]
	str	r1, [sp, #8]
	str	r2, [sp, #4]
	str	r3, [sp]
	.loc 3 647 14
	ldr	r3, [sp, #4]
	str	r3, [sp, #16]
	ldr	r3, [sp]
	str	r3, [sp, #20]
	ldr	r3, [sp, #40]
	str	r3, [sp, #24]
	ldr	r3, [sp, #44]
	str	r3, [sp, #28]
	.loc 3 648 5
	add	r2, sp, #16
	movs	r3, #4
	ldr	r1, [sp, #8]
	ldr	r0, [sp, #12]
	bl	std_n
	.loc 3 649 1
	nop
	add	sp, sp, #36
.LCFI74:
	@ sp needed
	ldr	pc, [sp], #4
.LFE230:
	.size	nrf_log_frontend_std_4, .-nrf_log_frontend_std_4
	.section	.text.nrf_log_frontend_std_5,"ax",%progbits
	.align	1
	.global	nrf_log_frontend_std_5
	.syntax unified
	.thumb
	.thumb_func
	.fpu fpv4-sp-d16
	.type	nrf_log_frontend_std_5, %function
nrf_log_frontend_std_5:
.LFB231:
	.loc 3 659 1
	@ args = 12, pretend = 0, frame = 40
	@ frame_needed = 0, uses_anonymous_args = 0
	push	{lr}
.LCFI75:
	sub	sp, sp, #44
.LCFI76:
	str	r0, [sp, #12]
	str	r1, [sp, #8]
	str	r2, [sp, #4]
	str	r3, [sp]
	.loc 3 660 14
	ldr	r3, [sp, #4]
	str	r3, [sp, #20]
	ldr	r3, [sp]
	str	r3, [sp, #24]
	ldr	r3, [sp, #48]
	str	r3, [sp, #28]
	ldr	r3, [sp, #52]
	str	r3, [sp, #32]
	ldr	r3, [sp, #56]
	str	r3, [sp, #36]
	.loc 3 661 5
	add	r2, sp, #20
	movs	r3, #5
	ldr	r1, [sp, #8]
	ldr	r0, [sp, #12]
	bl	std_n
	.loc 3 662 1
	nop
	add	sp, sp, #44
.LCFI77:
	@ sp needed
	ldr	pc, [sp], #4
.LFE231:
	.size	nrf_log_frontend_std_5, .-nrf_log_frontend_std_5
	.section	.text.nrf_log_frontend_std_6,"ax",%progbits
	.align	1
	.global	nrf_log_frontend_std_6
	.syntax unified
	.thumb
	.thumb_func
	.fpu fpv4-sp-d16
	.type	nrf_log_frontend_std_6, %function
nrf_log_frontend_std_6:
.LFB232:
	.loc 3 673 1
	@ args = 16, pretend = 0, frame = 40
	@ frame_needed = 0, uses_anonymous_args = 0
	push	{lr}
.LCFI78:
	sub	sp, sp, #44
.LCFI79:
	str	r0, [sp, #12]
	str	r1, [sp, #8]
	str	r2, [sp, #4]
	str	r3, [sp]
	.loc 3 674 14
	ldr	r3, [sp, #4]
	str	r3, [sp, #16]
	ldr	r3, [sp]
	str	r3, [sp, #20]
	ldr	r3, [sp, #48]
	str	r3, [sp, #24]
	ldr	r3, [sp, #52]
	str	r3, [sp, #28]
	ldr	r3, [sp, #56]
	str	r3, [sp, #32]
	ldr	r3, [sp, #60]
	str	r3, [sp, #36]
	.loc 3 675 5
	add	r2, sp, #16
	movs	r3, #6
	ldr	r1, [sp, #8]
	ldr	r0, [sp, #12]
	bl	std_n
	.loc 3 676 1
	nop
	add	sp, sp, #44
.LCFI80:
	@ sp needed
	ldr	pc, [sp], #4
.LFE232:
	.size	nrf_log_frontend_std_6, .-nrf_log_frontend_std_6
	.section	.text.nrf_log_frontend_hexdump,"ax",%progbits
	.align	1
	.global	nrf_log_frontend_hexdump
	.syntax unified
	.thumb
	.thumb_func
	.fpu fpv4-sp-d16
	.type	nrf_log_frontend_hexdump, %function
nrf_log_frontend_hexdump:
.LFB233:
	.loc 3 682 1
	@ args = 0, pretend = 0, frame = 48
	@ frame_needed = 0, uses_anonymous_args = 0
	push	{lr}
.LCFI81:
	sub	sp, sp, #52
.LCFI82:
	str	r0, [sp, #12]
	str	r1, [sp, #8]
	mov	r3, r2
	strh	r3, [sp, #6]	@ movhi
	.loc 3 683 14
	ldr	r3, .L186
	ldr	r3, [r3, #8]
	str	r3, [sp, #44]
	.loc 3 686 54
	ldrh	r3, [sp, #6]
	adds	r3, r3, #3
	.loc 3 686 9
	lsrs	r3, r3, #2
	add	r1, sp, #20
	movs	r2, #0
	mov	r0, r3
	bl	buf_prealloc
	mov	r3, r0
	.loc 3 686 8
	cmp	r3, #0
	beq	.L180
.LBB27:
	.loc 3 688 18
	ldr	r3, [sp, #20]
	str	r3, [sp, #40]
	.loc 3 689 16
	ldr	r3, [sp, #20]
	adds	r3, r3, #2
	str	r3, [sp, #20]
	.loc 3 691 57
	ldr	r3, .L186
	ldr	r2, [r3, #8]
	.loc 3 691 77
	ldr	r1, [sp, #20]
	ldr	r3, [sp, #44]
	ands	r3, r3, r1
	.loc 3 691 67
	subs	r3, r2, r3
	adds	r3, r3, #1
	.loc 3 691 18
	lsls	r3, r3, #2
	str	r3, [sp, #36]
	.loc 3 692 20
	ldrh	r3, [sp, #6]
	.loc 3 692 12
	ldr	r2, [sp, #36]
	cmp	r2, r3
	bcc	.L181
	.loc 3 694 46
	ldr	r2, [sp, #20]
	ldr	r3, [sp, #44]
	ands	r3, r3, r2
	.loc 3 694 20
	adds	r3, r3, #2
	lsls	r3, r3, #2
	ldr	r2, .L186
	add	r3, r3, r2
	adds	r3, r3, #4
	.loc 3 694 13
	ldrh	r2, [sp, #6]
	ldr	r1, [sp, #8]
	mov	r0, r3
	bl	memcpy
	b	.L182
.L181:
	.loc 3 698 46
	ldr	r2, [sp, #20]
	ldr	r3, [sp, #44]
	ands	r3, r3, r2
	.loc 3 698 20
	adds	r3, r3, #2
	lsls	r3, r3, #2
	ldr	r2, .L186
	add	r3, r3, r2
	adds	r3, r3, #4
	.loc 3 698 13
	ldr	r2, [sp, #36]
	ldr	r1, [sp, #8]
	mov	r0, r3
	bl	memcpy
	.loc 3 699 13
	ldr	r2, [sp, #8]
	ldr	r3, [sp, #36]
	adds	r1, r2, r3
	ldrh	r2, [sp, #6]
	ldr	r3, [sp, #36]
	subs	r3, r2, r3
	mov	r2, r3
	ldr	r0, .L186+4
	bl	memcpy
.L182:
	.loc 3 708 18
	ldr	r3, [sp, #12]
	lsrs	r3, r3, #16
	str	r3, [sp, #32]
	.loc 3 709 28
	bl	dropped_sat16_get
	str	r0, [sp, #28]
	.loc 3 710 78
	ldr	r3, [sp, #28]
	lsls	r1, r3, #16
	.loc 3 710 42
	ldr	r3, [sp, #40]
	adds	r2, r3, #1
	.loc 3 710 47
	ldr	r3, [sp, #44]
	ands	r3, r3, r2
	.loc 3 710 67
	ldr	r2, [sp, #32]
	orrs	r2, r2, r1
	.loc 3 710 55
	ldr	r1, .L186
	adds	r3, r3, #2
	lsls	r3, r3, #2
	add	r3, r3, r1
	str	r2, [r3, #4]
	.loc 3 712 92
	ldr	r2, [sp, #40]
	ldr	r3, [sp, #44]
	ands	r3, r3, r2
	.loc 3 712 28
	adds	r3, r3, #2
	lsls	r3, r3, #2
	ldr	r2, .L186
	add	r3, r3, r2
	adds	r3, r3, #4
	str	r3, [sp, #24]
	.loc 3 713 56
	ldr	r3, [sp, #12]
	and	r3, r3, #7
	uxtb	r1, r3
	.loc 3 713 41
	ldr	r2, [sp, #24]
	ldrb	r3, [r2]
	bfi	r3, r1, #3, #3
	strb	r3, [r2]
	.loc 3 714 39
	ldr	r2, [sp, #24]
	ldrh	r3, [r2]	@ movhi
	bfc	r3, #6, #10
	strh	r3, [r2]	@ movhi
	.loc 3 715 36
	ldrh	r3, [sp, #6]	@ movhi
	ubfx	r3, r3, #0, #10
	uxth	r1, r3
	ldr	r2, [sp, #24]
	ldrh	r3, [r2, #2]	@ movhi
	bfi	r3, r1, #6, #10
	strh	r3, [r2, #2]	@ movhi
	.loc 3 716 37
	ldr	r2, [sp, #24]
	ldrb	r3, [r2]
	movs	r1, #2
	bfi	r3, r1, #0, #2
	strb	r3, [r2]
	.loc 3 717 44
	ldr	r2, [sp, #24]
	ldrb	r3, [r2]
	bfc	r3, #2, #1
	strb	r3, [r2]
.L180:
.LBE27:
	.loc 3 723 19
	ldr	r3, .L186
	ldrb	r3, [r3, #1056]	@ zero_extendqisi2
	.loc 3 723 8
	cmp	r3, #0
	beq	.L185
	.loc 3 725 20
	nop
.L184:
	.loc 3 725 21 discriminator 1
	bl	nrf_log_frontend_dequeue
	mov	r3, r0
	.loc 3 725 20 discriminator 1
	cmp	r3, #0
	bne	.L184
.L185:
	.loc 3 727 1
	nop
	add	sp, sp, #52
.LCFI83:
	@ sp needed
	ldr	pc, [sp], #4
.L187:
	.align	2
.L186:
	.word	m_log_data
	.word	m_log_data+12
.LFE233:
	.size	nrf_log_frontend_hexdump, .-nrf_log_frontend_hexdump
	.section	.text.buffer_is_empty,"ax",%progbits
	.align	1
	.global	buffer_is_empty
	.syntax unified
	.thumb
	.thumb_func
	.fpu fpv4-sp-d16
	.type	buffer_is_empty, %function
buffer_is_empty:
.LFB234:
	.loc 3 731 1
	@ args = 0, pretend = 0, frame = 0
	@ frame_needed = 0, uses_anonymous_args = 0
	@ link register save eliminated.
	.loc 3 732 23
	ldr	r3, .L190
	ldr	r2, [r3, #4]
	.loc 3 732 44
	ldr	r3, .L190
	ldr	r3, [r3]
	.loc 3 732 31
	cmp	r2, r3
	ite	eq
	moveq	r3, #1
	movne	r3, #0
	uxtb	r3, r3
	.loc 3 733 1
	mov	r0, r3
	bx	lr
.L191:
	.align	2
.L190:
	.word	m_log_data
.LFE234:
	.size	buffer_is_empty, .-buffer_is_empty
	.section .rodata
	.align	2
.LC2:
	.ascii	"Backends flushed\000"
	.section	.text.nrf_log_frontend_dequeue,"ax",%progbits
	.align	1
	.global	nrf_log_frontend_dequeue
	.syntax unified
	.thumb
	.thumb_func
	.fpu fpv4-sp-d16
	.type	nrf_log_frontend_dequeue, %function
nrf_log_frontend_dequeue:
.LFB235:
	.loc 3 736 1
	@ args = 0, pretend = 0, frame = 96
	@ frame_needed = 0, uses_anonymous_args = 0
	push	{lr}
.LCFI84:
	sub	sp, sp, #100
.LCFI85:
	.loc 3 738 9
	bl	buffer_is_empty
	mov	r3, r0
	.loc 3 738 8
	cmp	r3, #0
	beq	.L193
	.loc 3 740 15
	movs	r3, #0
	b	.L226
.L193:
	.loc 3 742 28
	ldr	r3, .L228
	movs	r2, #0
	str	r2, [r3, #1048]
.LBB28:
.LBB29:
	.file 4 "../../../../../../components/toolchain/cmsis/include/cmsis_gcc.h"
	.loc 4 429 3
	.syntax unified
@ 429 "../../../../../../components/toolchain/cmsis/include/cmsis_gcc.h" 1
	dsb 0xF
@ 0 "" 2
	.loc 4 430 1
	.thumb
	.syntax unified
	nop
.LBE29:
.LBE28:
	.loc 3 745 33
	ldr	r3, .L228
	ldr	r3, [r3, #4]
	.loc 3 745 14
	str	r3, [sp, #16]
	.loc 3 746 14
	ldr	r3, .L228
	ldr	r3, [r3, #8]
	str	r3, [sp, #64]
	.loc 3 747 81
	ldr	r2, [sp, #16]
	ldr	r3, [sp, #64]
	ands	r3, r3, r2
	.loc 3 747 24
	adds	r3, r3, #2
	lsls	r3, r3, #2
	ldr	r2, .L228
	add	r3, r3, r2
	adds	r3, r3, #4
	str	r3, [sp, #72]
	.loc 3 749 20
	movs	r3, #0
	str	r3, [sp, #92]
	.loc 3 750 14
	movs	r3, #0
	str	r3, [sp, #88]
	.loc 3 751 14
	movs	r3, #0
	str	r3, [sp, #60]
.L199:
	.loc 3 755 13
	add	r3, sp, #16
	mov	r1, r3
	ldr	r0, [sp, #72]
	bl	invalid_packets_pushed_str_omit
	mov	r3, r0
	.loc 3 755 12
	cmp	r3, #0
	beq	.L227
	.loc 3 758 37
	ldr	r3, .L228
	ldr	r2, [r3]
	.loc 3 758 24
	ldr	r3, [sp, #16]
	.loc 3 758 16
	cmp	r2, r3
	bhi	.L196
	.loc 3 760 47
	ldr	r3, .L228
	ldr	r3, [r3]
	.loc 3 760 35
	ldr	r2, .L228
	str	r3, [r2, #4]
	.loc 3 761 23
	movs	r3, #0
	b	.L226
.L196:
	.loc 3 764 70
	ldr	r2, [sp, #16]
	ldr	r3, [sp, #64]
	ands	r3, r3, r2
	.loc 3 764 22
	adds	r3, r3, #2
	lsls	r3, r3, #2
	ldr	r2, .L228
	add	r3, r3, r2
	adds	r3, r3, #4
	str	r3, [sp, #72]
	.loc 3 755 12
	b	.L199
.L227:
	.loc 3 768 13
	nop
	.loc 3 773 12
	movs	r3, #0
	str	r3, [sp, #84]
	.loc 3 773 5
	b	.L200
.L201:
	.loc 3 775 59 discriminator 3
	ldr	r3, [sp, #16]
	adds	r2, r3, #1
	str	r2, [sp, #16]
	.loc 3 775 62 discriminator 3
	ldr	r2, [sp, #64]
	ands	r3, r3, r2
	.loc 3 775 29 discriminator 3
	ldr	r2, [sp, #84]
	lsls	r2, r2, #2
	add	r1, sp, #4
	add	r2, r2, r1
	.loc 3 775 52 discriminator 3
	ldr	r1, .L228
	adds	r3, r3, #2
	lsls	r3, r3, #2
	add	r3, r3, r1
	ldr	r3, [r3, #4]
	.loc 3 775 33 discriminator 3
	str	r3, [r2]
	.loc 3 773 81 discriminator 3
	ldr	r3, [sp, #84]
	adds	r3, r3, #1
	str	r3, [sp, #84]
.L200:
	.loc 3 773 5 discriminator 1
	ldr	r3, [sp, #84]
	cmp	r3, #1
	bls	.L201
	.loc 3 778 34
	ldrb	r3, [sp, #4]	@ zero_extendqisi2
	and	r3, r3, #3
	uxtb	r3, r3
	.loc 3 778 8
	cmp	r3, #2
	bne	.L202
.LBB30:
	.loc 3 780 53
	ldrh	r3, [sp, #6]	@ movhi
	ubfx	r3, r3, #6, #10
	uxth	r3, r3
	.loc 3 780 18
	str	r3, [sp, #52]
	.loc 3 781 50
	ldrh	r3, [sp, #6]	@ movhi
	ubfx	r3, r3, #6, #10
	uxth	r3, r3
	.loc 3 781 97
	cmp	r3, #80
	it	cs
	movcs	r3, #80
	uxth	r3, r3
	.loc 3 781 18
	str	r3, [sp, #48]
	.loc 3 782 33
	ldr	r3, [sp, #48]
	ubfx	r3, r3, #0, #10
	uxth	r2, r3
	ldrh	r3, [sp, #6]	@ movhi
	bfi	r3, r2, #6, #10
	strh	r3, [sp, #6]	@ movhi
	.loc 3 783 18
	ldr	r3, [sp, #48]
	adds	r3, r3, #8
	str	r3, [sp, #44]
	.loc 3 784 39
	ldrb	r3, [sp, #4]
	ubfx	r3, r3, #3, #3
	uxtb	r3, r3
	.loc 3 784 18
	str	r3, [sp, #60]
	.loc 3 785 21
	ldr	r1, [sp, #44]
	ldr	r0, .L228+4
	bl	nrf_memobj_alloc
	str	r0, [sp, #92]
	.loc 3 787 12
	ldr	r3, [sp, #92]
	cmp	r3, #0
	beq	.L203
.LBB31:
	.loc 3 789 13
	ldr	r0, [sp, #92]
	bl	nrf_memobj_get
	.loc 3 790 13
	add	r1, sp, #4
	ldr	r3, [sp, #88]
	movs	r2, #8
	ldr	r0, [sp, #92]
	bl	nrf_memobj_write
	.loc 3 791 27
	ldr	r3, [sp, #88]
	adds	r3, r3, #8
	str	r3, [sp, #88]
	.loc 3 793 60
	ldr	r3, [sp, #16]
	mvns	r2, r3
	ldr	r3, [sp, #64]
	ands	r3, r3, r2
	adds	r3, r3, #1
	.loc 3 793 22
	lsls	r3, r3, #2
	str	r3, [sp, #40]
	.loc 3 794 16
	ldr	r2, [sp, #48]
	ldr	r3, [sp, #40]
	cmp	r2, r3
	bls	.L204
.LBB32:
	.loc 3 797 79
	ldr	r3, [sp, #40]
	cmp	r3, #0
	beq	.L205
	.loc 3 797 71 discriminator 1
	ldr	r2, [sp, #16]
	ldr	r3, [sp, #64]
	ands	r3, r3, r2
	.loc 3 797 79 discriminator 1
	adds	r3, r3, #2
	lsls	r3, r3, #2
	ldr	r2, .L228
	add	r3, r3, r2
	adds	r3, r3, #4
	b	.L206
.L205:
	.loc 3 797 79 is_stmt 0 discriminator 2
	ldr	r3, .L228+8
.L206:
	.loc 3 796 27 is_stmt 1
	str	r3, [sp, #32]
	.loc 3 799 25
	ldr	r3, [sp, #40]
	cmp	r3, #0
	beq	.L207
	.loc 3 799 25 is_stmt 0 discriminator 1
	ldr	r3, [sp, #40]
	uxtb	r3, r3
	b	.L208
.L207:
	.loc 3 799 25 discriminator 2
	ldr	r3, [sp, #48]
	uxtb	r3, r3
.L208:
	.loc 3 799 25 discriminator 4
	strb	r3, [sp, #31]
	.loc 3 801 67 is_stmt 1 discriminator 4
	ldr	r3, [sp, #40]
	cmp	r3, #0
	beq	.L209
	.loc 3 801 67 is_stmt 0 discriminator 1
	ldr	r3, .L228+8
	b	.L210
.L209:
	.loc 3 801 67 discriminator 2
	movs	r3, #0
.L210:
	.loc 3 800 27 is_stmt 1
	str	r3, [sp, #24]
	.loc 3 802 25
	ldr	r3, [sp, #40]
	cmp	r3, #0
	beq	.L211
	.loc 3 802 50 discriminator 1
	ldr	r3, [sp, #48]
	uxtb	r2, r3
	ldr	r3, [sp, #40]
	uxtb	r3, r3
	.loc 3 802 25 discriminator 1
	subs	r3, r2, r3
	uxtb	r3, r3
	b	.L212
.L211:
	.loc 3 802 25 is_stmt 0 discriminator 2
	movs	r3, #0
.L212:
	.loc 3 802 25 discriminator 4
	strb	r3, [sp, #23]
	.loc 3 804 17 is_stmt 1 discriminator 4
	ldrb	r2, [sp, #31]	@ zero_extendqisi2
	ldr	r3, [sp, #88]
	ldr	r1, [sp, #32]
	ldr	r0, [sp, #92]
	bl	nrf_memobj_write
	.loc 3 805 31 discriminator 4
	ldrb	r3, [sp, #31]	@ zero_extendqisi2
	ldr	r2, [sp, #88]
	add	r3, r3, r2
	str	r3, [sp, #88]
	.loc 3 806 20 discriminator 4
	ldr	r3, [sp, #24]
	cmp	r3, #0
	beq	.L213
	.loc 3 808 21
	ldrb	r2, [sp, #23]	@ zero_extendqisi2
	ldr	r3, [sp, #88]
	ldr	r1, [sp, #24]
	ldr	r0, [sp, #92]
	bl	nrf_memobj_write
	b	.L213
.L204:
.LBE32:
.LBB33:
	.loc 3 813 73
	ldr	r2, [sp, #16]
	ldr	r3, [sp, #64]
	ands	r3, r3, r2
	.loc 3 813 27
	adds	r3, r3, #2
	lsls	r3, r3, #2
	ldr	r2, .L228
	add	r3, r3, r2
	adds	r3, r3, #4
	str	r3, [sp, #36]
	.loc 3 814 17
	ldr	r3, [sp, #88]
	ldr	r2, [sp, #48]
	ldr	r1, [sp, #36]
	ldr	r0, [sp, #92]
	bl	nrf_memobj_write
.L213:
.LBE33:
	.loc 3 816 47
	ldr	r3, [sp, #52]
	adds	r3, r3, #3
	.loc 3 816 52
	lsrs	r2, r3, #2
	.loc 3 816 20
	ldr	r3, [sp, #16]
	add	r3, r3, r2
	str	r3, [sp, #16]
	b	.L203
.L202:
.LBE31:
.LBE30:
	.loc 3 819 39
	ldrb	r3, [sp, #4]	@ zero_extendqisi2
	and	r3, r3, #3
	uxtb	r3, r3
	.loc 3 819 13
	cmp	r3, #1
	bne	.L203
.LBB34:
	.loc 3 821 50
	ldrh	r3, [sp, #4]	@ movhi
	ubfx	r3, r3, #6, #4
	uxtb	r3, r3
	.loc 3 821 90
	cmp	r3, #6
	it	cs
	movcs	r3, #6
	uxtb	r2, r3
	.loc 3 821 31
	ldrh	r3, [sp, #4]	@ movhi
	bfi	r3, r2, #6, #4
	strh	r3, [sp, #4]	@ movhi
	.loc 3 822 110
	ldrh	r3, [sp, #4]	@ movhi
	ubfx	r3, r3, #6, #4
	uxtb	r3, r3
	.loc 3 822 18
	adds	r3, r3, #2
	str	r3, [sp, #56]
	.loc 3 823 35
	ldrb	r3, [sp, #4]
	ubfx	r3, r3, #3, #3
	uxtb	r3, r3
	.loc 3 823 18
	str	r3, [sp, #60]
	.loc 3 825 21
	ldr	r3, [sp, #56]
	lsls	r3, r3, #2
	mov	r1, r3
	ldr	r0, .L228+4
	bl	nrf_memobj_alloc
	str	r0, [sp, #92]
	.loc 3 827 12
	ldr	r3, [sp, #92]
	cmp	r3, #0
	beq	.L203
	.loc 3 829 13
	ldr	r0, [sp, #92]
	bl	nrf_memobj_get
	.loc 3 830 13
	add	r1, sp, #4
	ldr	r3, [sp, #88]
	movs	r2, #8
	ldr	r0, [sp, #92]
	bl	nrf_memobj_write
	.loc 3 831 27
	ldr	r3, [sp, #88]
	adds	r3, r3, #8
	str	r3, [sp, #88]
	.loc 3 833 20
	movs	r3, #0
	str	r3, [sp, #84]
	.loc 3 833 13
	b	.L214
.L229:
	.align	2
.L228:
	.word	m_log_data
	.word	log_mempool
	.word	m_log_data+12
.L215:
	.loc 3 835 70 discriminator 3
	ldr	r3, [sp, #16]
	adds	r2, r3, #1
	str	r2, [sp, #16]
	.loc 3 835 73 discriminator 3
	ldr	r2, [sp, #64]
	ands	r3, r3, r2
	.loc 3 835 45 discriminator 3
	adds	r3, r3, #2
	lsls	r3, r3, #2
	ldr	r2, .L230
	add	r3, r3, r2
	adds	r1, r3, #4
	.loc 3 835 17 discriminator 3
	ldr	r3, [sp, #88]
	movs	r2, #4
	ldr	r0, [sp, #92]
	bl	nrf_memobj_write
	.loc 3 837 31 discriminator 3
	ldr	r3, [sp, #88]
	adds	r3, r3, #4
	str	r3, [sp, #88]
	.loc 3 833 53 discriminator 3
	ldr	r3, [sp, #84]
	adds	r3, r3, #1
	str	r3, [sp, #84]
.L214:
	.loc 3 833 44 discriminator 1
	ldrh	r3, [sp, #4]	@ movhi
	ubfx	r3, r3, #6, #4
	uxtb	r3, r3
	mov	r2, r3
	.loc 3 833 13 discriminator 1
	ldr	r3, [sp, #84]
	cmp	r3, r2
	bcc	.L215
.L203:
.LBE34:
	.loc 3 846 8
	ldr	r3, [sp, #92]
	cmp	r3, #0
	beq	.L216
.LBB35:
	.loc 3 848 29
	ldr	r3, .L230
	ldr	r3, [r3, #1040]
	str	r3, [sp, #80]
	.loc 3 849 28
	ldr	r3, .L230
	ldr	r3, [r3, #1048]
	.loc 3 849 12
	cmp	r3, #0
	beq	.L219
	.loc 3 853 13
	ldr	r0, [sp, #92]
	bl	nrf_memobj_put
	b	.L218
.L222:
.LBB36:
	.loc 3 859 21
	movs	r3, #0
	strb	r3, [sp, #79]
	.loc 3 860 21
	ldr	r0, [sp, #80]
	bl	nrf_log_backend_is_enabled
	mov	r3, r0
	.loc 3 860 20
	cmp	r3, #0
	beq	.L220
	.loc 3 880 40
	movs	r3, #1
	strb	r3, [sp, #79]
.L220:
	.loc 3 883 20
	ldrb	r3, [sp, #79]	@ zero_extendqisi2
	cmp	r3, #0
	beq	.L221
	.loc 3 885 21
	ldr	r1, [sp, #92]
	ldr	r0, [sp, #80]
	bl	nrf_log_backend_put
.L221:
	.loc 3 887 27
	ldr	r3, [sp, #80]
	ldr	r3, [r3, #4]
	str	r3, [sp, #80]
.L219:
.LBE36:
	.loc 3 857 19
	ldr	r3, [sp, #80]
	cmp	r3, #0
	bne	.L222
	.loc 3 890 13
	ldr	r0, [sp, #92]
	bl	nrf_memobj_put
.LBB37:
	.loc 3 898 27
	movs	r3, #0
	strb	r3, [sp, #3]
	.loc 3 898 44
	add	r3, sp, #3
	mov	r0, r3
	bl	app_util_critical_region_enter
	.loc 3 899 31
	ldr	r3, .L230
	ldr	r3, [r3, #1048]
	.loc 3 899 20
	cmp	r3, #0
	bne	.L223
	.loc 3 901 39
	ldr	r3, [sp, #16]
	ldr	r2, .L230
	str	r3, [r2, #4]
.L223:
	.loc 3 903 17
	ldrb	r3, [sp, #3]	@ zero_extendqisi2
	mov	r0, r3
	bl	app_util_critical_region_exit
.LBE37:
	b	.L218
.L216:
.LBE35:
.LBB38:
	.loc 3 914 29
	ldr	r3, .L230
	ldr	r3, [r3, #1040]
	str	r3, [sp, #68]
	.loc 3 916 15
	b	.L224
.L225:
	.loc 3 918 13
	ldr	r0, [sp, #68]
	bl	nrf_log_backend_flush
	.loc 3 919 23
	ldr	r3, [sp, #68]
	ldr	r3, [r3, #4]
	str	r3, [sp, #68]
.L224:
	.loc 3 916 15
	ldr	r3, [sp, #68]
	cmp	r3, #0
	bne	.L225
	.loc 3 921 230 discriminator 2
	ldr	r3, .L230+4
	ldrh	r3, [r3]
	.loc 3 921 241 discriminator 2
	lsls	r3, r3, #16
	.loc 3 921 197 discriminator 2
	orr	r3, r3, #2
	.loc 3 921 146 discriminator 2
	ldr	r1, .L230+8
	mov	r0, r3
	bl	nrf_log_frontend_std_0
.L218:
.LBE38:
	.loc 3 924 12
	bl	buffer_is_empty
	mov	r3, r0
	.loc 3 924 37
	eor	r3, r3, #1
	uxtb	r3, r3
.L226:
	.loc 3 925 1 discriminator 2
	mov	r0, r3
	add	sp, sp, #100
.LCFI86:
	@ sp needed
	ldr	pc, [sp], #4
.L231:
	.align	2
.L230:
	.word	m_log_data
	.word	m_nrf_log_app_logs_data_dynamic
	.word	.LC2
.LFE235:
	.size	nrf_log_frontend_dequeue, .-nrf_log_frontend_dequeue
	.section	.text.backend_id_assign,"ax",%progbits
	.align	1
	.syntax unified
	.thumb
	.thumb_func
	.fpu fpv4-sp-d16
	.type	backend_id_assign, %function
backend_id_assign:
.LFB236:
	.loc 3 928 1
	@ args = 0, pretend = 0, frame = 16
	@ frame_needed = 0, uses_anonymous_args = 0
	push	{lr}
.LCFI87:
	sub	sp, sp, #20
.LCFI88:
	.loc 3 932 23
	movs	r3, #0
	str	r3, [sp, #12]
	.loc 3 932 5
	b	.L233
.L240:
	.loc 3 934 19
	ldr	r3, .L241
	ldr	r3, [r3, #1040]
	str	r3, [sp, #8]
	.loc 3 935 22
	movs	r3, #1
	strb	r3, [sp, #7]
	.loc 3 936 15
	b	.L234
.L237:
	.loc 3 938 17
	ldr	r0, [sp, #8]
	bl	nrf_log_backend_id_get
	mov	r3, r0
	mov	r2, r3
	.loc 3 938 16
	ldr	r3, [sp, #12]
	cmp	r3, r2
	bne	.L235
	.loc 3 940 30
	movs	r3, #0
	strb	r3, [sp, #7]
	.loc 3 941 17
	b	.L236
.L235:
	.loc 3 943 23
	ldr	r3, [sp, #8]
	ldr	r3, [r3, #4]
	str	r3, [sp, #8]
.L234:
	.loc 3 936 15
	ldr	r3, [sp, #8]
	cmp	r3, #0
	bne	.L237
.L236:
	.loc 3 945 12
	ldrb	r3, [sp, #7]	@ zero_extendqisi2
	cmp	r3, #0
	beq	.L238
	.loc 3 947 20
	ldr	r3, [sp, #12]
	b	.L239
.L238:
	.loc 3 932 63 discriminator 2
	ldr	r3, [sp, #12]
	adds	r3, r3, #1
	str	r3, [sp, #12]
.L233:
	.loc 3 932 5 discriminator 1
	ldr	r3, [sp, #12]
	cmp	r3, #9
	ble	.L240
	.loc 3 950 12
	mov	r3, #-1
.L239:
	.loc 3 951 1
	mov	r0, r3
	add	sp, sp, #20
.LCFI89:
	@ sp needed
	ldr	pc, [sp], #4
.L242:
	.align	2
.L241:
	.word	m_log_data
.LFE236:
	.size	backend_id_assign, .-backend_id_assign
	.section	.text.nrf_log_backend_add,"ax",%progbits
	.align	1
	.global	nrf_log_backend_add
	.syntax unified
	.thumb
	.thumb_func
	.fpu fpv4-sp-d16
	.type	nrf_log_backend_add, %function
nrf_log_backend_add:
.LFB237:
	.loc 3 954 1
	@ args = 0, pretend = 0, frame = 16
	@ frame_needed = 0, uses_anonymous_args = 0
	push	{lr}
.LCFI90:
	sub	sp, sp, #20
.LCFI91:
	str	r0, [sp, #4]
	mov	r3, r1
	strb	r3, [sp, #3]
	.loc 3 955 18
	bl	backend_id_assign
	str	r0, [sp, #12]
	.loc 3 956 8
	ldr	r3, [sp, #12]
	cmp	r3, #-1
	bne	.L244
	.loc 3 958 16
	ldr	r3, [sp, #12]
	b	.L245
.L244:
	.loc 3 961 5
	ldr	r3, [sp, #12]
	uxtb	r3, r3
	mov	r1, r3
	ldr	r0, [sp, #4]
	bl	nrf_log_backend_id_set
	.loc 3 963 19
	ldr	r3, .L248
	ldr	r3, [r3, #1040]
	.loc 3 963 8
	cmp	r3, #0
	bne	.L246
	.loc 3 965 34
	ldr	r2, .L248
	ldr	r3, [sp, #4]
	str	r3, [r2, #1040]
	.loc 3 966 26
	ldr	r3, [sp, #4]
	movs	r2, #0
	str	r2, [r3, #4]
	b	.L247
.L246:
	.loc 3 970 39
	ldr	r3, .L248
	ldr	r3, [r3, #1040]
	.loc 3 970 54
	ldr	r2, [r3, #4]
	.loc 3 970 27
	ldr	r3, [sp, #4]
	str	r2, [r3, #4]
	.loc 3 971 19
	ldr	r3, .L248
	ldr	r3, [r3, #1040]
	.loc 3 971 43
	ldr	r2, [sp, #4]
	str	r2, [r3, #4]
.L247:
	.loc 3 985 12
	ldr	r3, [sp, #12]
.L245:
	.loc 3 986 1
	mov	r0, r3
	add	sp, sp, #20
.LCFI92:
	@ sp needed
	ldr	pc, [sp], #4
.L249:
	.align	2
.L248:
	.word	m_log_data
.LFE237:
	.size	nrf_log_backend_add, .-nrf_log_backend_add
	.section	.text.nrf_log_backend_remove,"ax",%progbits
	.align	1
	.global	nrf_log_backend_remove
	.syntax unified
	.thumb
	.thumb_func
	.fpu fpv4-sp-d16
	.type	nrf_log_backend_remove, %function
nrf_log_backend_remove:
.LFB238:
	.loc 3 989 1
	@ args = 0, pretend = 0, frame = 16
	@ frame_needed = 0, uses_anonymous_args = 0
	@ link register save eliminated.
	sub	sp, sp, #16
.LCFI93:
	str	r0, [sp, #4]
	.loc 3 990 25
	ldr	r3, .L256
	ldr	r3, [r3, #1040]
	str	r3, [sp, #12]
	.loc 3 991 25
	movs	r3, #0
	str	r3, [sp, #8]
	.loc 3 992 11
	b	.L251
.L252:
	.loc 3 994 16
	ldr	r3, [sp, #12]
	str	r3, [sp, #8]
	.loc 3 995 16
	ldr	r3, [sp, #12]
	ldr	r3, [r3, #4]
	str	r3, [sp, #12]
.L251:
	.loc 3 992 11
	ldr	r2, [sp, #12]
	ldr	r3, [sp, #4]
	cmp	r2, r3
	bne	.L252
	.loc 3 998 8
	ldr	r3, [sp, #8]
	cmp	r3, #0
	beq	.L253
	.loc 3 1000 35
	ldr	r3, [sp, #4]
	ldr	r2, [r3, #4]
	.loc 3 1000 24
	ldr	r3, [sp, #8]
	str	r2, [r3, #4]
	.loc 3 1006 1
	b	.L255
.L253:
	.loc 3 1004 35
	ldr	r3, .L256
	movs	r2, #0
	str	r2, [r3, #1040]
.L255:
	.loc 3 1006 1
	nop
	add	sp, sp, #16
.LCFI94:
	@ sp needed
	bx	lr
.L257:
	.align	2
.L256:
	.word	m_log_data
.LFE238:
	.size	nrf_log_backend_remove, .-nrf_log_backend_remove
	.section	.text.nrf_log_panic,"ax",%progbits
	.align	1
	.global	nrf_log_panic
	.syntax unified
	.thumb
	.thumb_func
	.fpu fpv4-sp-d16
	.type	nrf_log_panic, %function
nrf_log_panic:
.LFB239:
	.loc 3 1009 1
	@ args = 0, pretend = 0, frame = 8
	@ frame_needed = 0, uses_anonymous_args = 0
	push	{lr}
.LCFI95:
	sub	sp, sp, #12
.LCFI96:
	.loc 3 1010 25
	ldr	r3, .L261
	ldr	r3, [r3, #1040]
	str	r3, [sp, #4]
	.loc 3 1011 26
	ldr	r3, .L261
	movs	r2, #1
	strb	r2, [r3, #1056]
	.loc 3 1012 11
	b	.L259
.L260:
	.loc 3 1014 9
	ldr	r0, [sp, #4]
	bl	nrf_log_backend_enable
	.loc 3 1015 9
	ldr	r0, [sp, #4]
	bl	nrf_log_backend_panic_set
	.loc 3 1016 19
	ldr	r3, [sp, #4]
	ldr	r3, [r3, #4]
	str	r3, [sp, #4]
.L259:
	.loc 3 1012 11
	ldr	r3, [sp, #4]
	cmp	r3, #0
	bne	.L260
	.loc 3 1018 1
	nop
	nop
	add	sp, sp, #12
.LCFI97:
	@ sp needed
	ldr	pc, [sp], #4
.L262:
	.align	2
.L261:
	.word	m_log_data
.LFE239:
	.size	nrf_log_panic, .-nrf_log_panic
	.section	.debug_frame,"",%progbits
.Lframe0:
	.4byte	.LECIE0-.LSCIE0
.LSCIE0:
	.4byte	0xffffffff
	.byte	0x3
	.ascii	"\000"
	.uleb128 0x1
	.sleb128 -4
	.uleb128 0xe
	.byte	0xc
	.uleb128 0xd
	.uleb128 0
	.align	2
.LECIE0:
.LSFDE0:
	.4byte	.LEFDE0-.LASFDE0
.LASFDE0:
	.4byte	.Lframe0
	.4byte	.LFB142
	.4byte	.LFE142-.LFB142
	.align	2
.LEFDE0:
.LSFDE2:
	.4byte	.LEFDE2-.LASFDE2
.LASFDE2:
	.4byte	.Lframe0
	.4byte	.LFB143
	.4byte	.LFE143-.LFB143
	.align	2
.LEFDE2:
.LSFDE4:
	.4byte	.LEFDE4-.LASFDE4
.LASFDE4:
	.4byte	.Lframe0
	.4byte	.LFB144
	.4byte	.LFE144-.LFB144
	.align	2
.LEFDE4:
.LSFDE6:
	.4byte	.LEFDE6-.LASFDE6
.LASFDE6:
	.4byte	.Lframe0
	.4byte	.LFB145
	.4byte	.LFE145-.LFB145
	.align	2
.LEFDE6:
.LSFDE8:
	.4byte	.LEFDE8-.LASFDE8
.LASFDE8:
	.4byte	.Lframe0
	.4byte	.LFB146
	.4byte	.LFE146-.LFB146
	.align	2
.LEFDE8:
.LSFDE10:
	.4byte	.LEFDE10-.LASFDE10
.LASFDE10:
	.4byte	.Lframe0
	.4byte	.LFB147
	.4byte	.LFE147-.LFB147
	.align	2
.LEFDE10:
.LSFDE12:
	.4byte	.LEFDE12-.LASFDE12
.LASFDE12:
	.4byte	.Lframe0
	.4byte	.LFB148
	.4byte	.LFE148-.LFB148
	.align	2
.LEFDE12:
.LSFDE14:
	.4byte	.LEFDE14-.LASFDE14
.LASFDE14:
	.4byte	.Lframe0
	.4byte	.LFB149
	.4byte	.LFE149-.LFB149
	.align	2
.LEFDE14:
.LSFDE16:
	.4byte	.LEFDE16-.LASFDE16
.LASFDE16:
	.4byte	.Lframe0
	.4byte	.LFB150
	.4byte	.LFE150-.LFB150
	.align	2
.LEFDE16:
.LSFDE18:
	.4byte	.LEFDE18-.LASFDE18
.LASFDE18:
	.4byte	.Lframe0
	.4byte	.LFB151
	.4byte	.LFE151-.LFB151
	.align	2
.LEFDE18:
.LSFDE20:
	.4byte	.LEFDE20-.LASFDE20
.LASFDE20:
	.4byte	.Lframe0
	.4byte	.LFB152
	.4byte	.LFE152-.LFB152
	.align	2
.LEFDE20:
.LSFDE22:
	.4byte	.LEFDE22-.LASFDE22
.LASFDE22:
	.4byte	.Lframe0
	.4byte	.LFB153
	.4byte	.LFE153-.LFB153
	.align	2
.LEFDE22:
.LSFDE24:
	.4byte	.LEFDE24-.LASFDE24
.LASFDE24:
	.4byte	.Lframe0
	.4byte	.LFB154
	.4byte	.LFE154-.LFB154
	.align	2
.LEFDE24:
.LSFDE26:
	.4byte	.LEFDE26-.LASFDE26
.LASFDE26:
	.4byte	.Lframe0
	.4byte	.LFB155
	.4byte	.LFE155-.LFB155
	.align	2
.LEFDE26:
.LSFDE28:
	.4byte	.LEFDE28-.LASFDE28
.LASFDE28:
	.4byte	.Lframe0
	.4byte	.LFB156
	.4byte	.LFE156-.LFB156
	.align	2
.LEFDE28:
.LSFDE30:
	.4byte	.LEFDE30-.LASFDE30
.LASFDE30:
	.4byte	.Lframe0
	.4byte	.LFB157
	.4byte	.LFE157-.LFB157
	.align	2
.LEFDE30:
.LSFDE32:
	.4byte	.LEFDE32-.LASFDE32
.LASFDE32:
	.4byte	.Lframe0
	.4byte	.LFB158
	.4byte	.LFE158-.LFB158
	.align	2
.LEFDE32:
.LSFDE34:
	.4byte	.LEFDE34-.LASFDE34
.LASFDE34:
	.4byte	.Lframe0
	.4byte	.LFB159
	.4byte	.LFE159-.LFB159
	.align	2
.LEFDE34:
.LSFDE36:
	.4byte	.LEFDE36-.LASFDE36
.LASFDE36:
	.4byte	.Lframe0
	.4byte	.LFB160
	.4byte	.LFE160-.LFB160
	.align	2
.LEFDE36:
.LSFDE38:
	.4byte	.LEFDE38-.LASFDE38
.LASFDE38:
	.4byte	.Lframe0
	.4byte	.LFB161
	.4byte	.LFE161-.LFB161
	.align	2
.LEFDE38:
.LSFDE40:
	.4byte	.LEFDE40-.LASFDE40
.LASFDE40:
	.4byte	.Lframe0
	.4byte	.LFB162
	.4byte	.LFE162-.LFB162
	.align	2
.LEFDE40:
.LSFDE42:
	.4byte	.LEFDE42-.LASFDE42
.LASFDE42:
	.4byte	.Lframe0
	.4byte	.LFB163
	.4byte	.LFE163-.LFB163
	.align	2
.LEFDE42:
.LSFDE44:
	.4byte	.LEFDE44-.LASFDE44
.LASFDE44:
	.4byte	.Lframe0
	.4byte	.LFB164
	.4byte	.LFE164-.LFB164
	.align	2
.LEFDE44:
.LSFDE46:
	.4byte	.LEFDE46-.LASFDE46
.LASFDE46:
	.4byte	.Lframe0
	.4byte	.LFB165
	.4byte	.LFE165-.LFB165
	.align	2
.LEFDE46:
.LSFDE48:
	.4byte	.LEFDE48-.LASFDE48
.LASFDE48:
	.4byte	.Lframe0
	.4byte	.LFB166
	.4byte	.LFE166-.LFB166
	.align	2
.LEFDE48:
.LSFDE50:
	.4byte	.LEFDE50-.LASFDE50
.LASFDE50:
	.4byte	.Lframe0
	.4byte	.LFB167
	.4byte	.LFE167-.LFB167
	.align	2
.LEFDE50:
.LSFDE52:
	.4byte	.LEFDE52-.LASFDE52
.LASFDE52:
	.4byte	.Lframe0
	.4byte	.LFB168
	.4byte	.LFE168-.LFB168
	.align	2
.LEFDE52:
.LSFDE54:
	.4byte	.LEFDE54-.LASFDE54
.LASFDE54:
	.4byte	.Lframe0
	.4byte	.LFB169
	.4byte	.LFE169-.LFB169
	.align	2
.LEFDE54:
.LSFDE56:
	.4byte	.LEFDE56-.LASFDE56
.LASFDE56:
	.4byte	.Lframe0
	.4byte	.LFB170
	.4byte	.LFE170-.LFB170
	.align	2
.LEFDE56:
.LSFDE58:
	.4byte	.LEFDE58-.LASFDE58
.LASFDE58:
	.4byte	.Lframe0
	.4byte	.LFB171
	.4byte	.LFE171-.LFB171
	.align	2
.LEFDE58:
.LSFDE60:
	.4byte	.LEFDE60-.LASFDE60
.LASFDE60:
	.4byte	.Lframe0
	.4byte	.LFB172
	.4byte	.LFE172-.LFB172
	.align	2
.LEFDE60:
.LSFDE62:
	.4byte	.LEFDE62-.LASFDE62
.LASFDE62:
	.4byte	.Lframe0
	.4byte	.LFB173
	.4byte	.LFE173-.LFB173
	.align	2
.LEFDE62:
.LSFDE64:
	.4byte	.LEFDE64-.LASFDE64
.LASFDE64:
	.4byte	.Lframe0
	.4byte	.LFB174
	.4byte	.LFE174-.LFB174
	.align	2
.LEFDE64:
.LSFDE66:
	.4byte	.LEFDE66-.LASFDE66
.LASFDE66:
	.4byte	.Lframe0
	.4byte	.LFB175
	.4byte	.LFE175-.LFB175
	.align	2
.LEFDE66:
.LSFDE68:
	.4byte	.LEFDE68-.LASFDE68
.LASFDE68:
	.4byte	.Lframe0
	.4byte	.LFB176
	.4byte	.LFE176-.LFB176
	.align	2
.LEFDE68:
.LSFDE70:
	.4byte	.LEFDE70-.LASFDE70
.LASFDE70:
	.4byte	.Lframe0
	.4byte	.LFB177
	.4byte	.LFE177-.LFB177
	.align	2
.LEFDE70:
.LSFDE72:
	.4byte	.LEFDE72-.LASFDE72
.LASFDE72:
	.4byte	.Lframe0
	.4byte	.LFB178
	.4byte	.LFE178-.LFB178
	.align	2
.LEFDE72:
.LSFDE74:
	.4byte	.LEFDE74-.LASFDE74
.LASFDE74:
	.4byte	.Lframe0
	.4byte	.LFB179
	.4byte	.LFE179-.LFB179
	.align	2
.LEFDE74:
.LSFDE76:
	.4byte	.LEFDE76-.LASFDE76
.LASFDE76:
	.4byte	.Lframe0
	.4byte	.LFB180
	.4byte	.LFE180-.LFB180
	.align	2
.LEFDE76:
.LSFDE78:
	.4byte	.LEFDE78-.LASFDE78
.LASFDE78:
	.4byte	.Lframe0
	.4byte	.LFB181
	.4byte	.LFE181-.LFB181
	.align	2
.LEFDE78:
.LSFDE80:
	.4byte	.LEFDE80-.LASFDE80
.LASFDE80:
	.4byte	.Lframe0
	.4byte	.LFB182
	.4byte	.LFE182-.LFB182
	.align	2
.LEFDE80:
.LSFDE82:
	.4byte	.LEFDE82-.LASFDE82
.LASFDE82:
	.4byte	.Lframe0
	.4byte	.LFB183
	.4byte	.LFE183-.LFB183
	.align	2
.LEFDE82:
.LSFDE84:
	.4byte	.LEFDE84-.LASFDE84
.LASFDE84:
	.4byte	.Lframe0
	.4byte	.LFB184
	.4byte	.LFE184-.LFB184
	.align	2
.LEFDE84:
.LSFDE86:
	.4byte	.LEFDE86-.LASFDE86
.LASFDE86:
	.4byte	.Lframe0
	.4byte	.LFB201
	.4byte	.LFE201-.LFB201
	.byte	0x4
	.4byte	.LCFI0-.LFB201
	.byte	0xe
	.uleb128 0x4
	.byte	0x8e
	.uleb128 0x1
	.byte	0x4
	.4byte	.LCFI1-.LCFI0
	.byte	0xe
	.uleb128 0x10
	.byte	0x4
	.4byte	.LCFI2-.LCFI1
	.byte	0xe
	.uleb128 0x4
	.align	2
.LEFDE86:
.LSFDE88:
	.4byte	.LEFDE88-.LASFDE88
.LASFDE88:
	.4byte	.Lframe0
	.4byte	.LFB202
	.4byte	.LFE202-.LFB202
	.byte	0x4
	.4byte	.LCFI3-.LFB202
	.byte	0xe
	.uleb128 0x4
	.byte	0x8e
	.uleb128 0x1
	.byte	0x4
	.4byte	.LCFI4-.LCFI3
	.byte	0xe
	.uleb128 0x10
	.byte	0x4
	.4byte	.LCFI5-.LCFI4
	.byte	0xe
	.uleb128 0x4
	.align	2
.LEFDE88:
.LSFDE90:
	.4byte	.LEFDE90-.LASFDE90
.LASFDE90:
	.4byte	.Lframe0
	.4byte	.LFB203
	.4byte	.LFE203-.LFB203
	.byte	0x4
	.4byte	.LCFI6-.LFB203
	.byte	0xe
	.uleb128 0x4
	.byte	0x8e
	.uleb128 0x1
	.byte	0x4
	.4byte	.LCFI7-.LCFI6
	.byte	0xe
	.uleb128 0x10
	.byte	0x4
	.4byte	.LCFI8-.LCFI7
	.byte	0xe
	.uleb128 0x4
	.align	2
.LEFDE90:
.LSFDE92:
	.4byte	.LEFDE92-.LASFDE92
.LASFDE92:
	.4byte	.Lframe0
	.4byte	.LFB204
	.4byte	.LFE204-.LFB204
	.byte	0x4
	.4byte	.LCFI9-.LFB204
	.byte	0xe
	.uleb128 0x8
	.byte	0x4
	.4byte	.LCFI10-.LCFI9
	.byte	0xe
	.uleb128 0
	.align	2
.LEFDE92:
.LSFDE94:
	.4byte	.LEFDE94-.LASFDE94
.LASFDE94:
	.4byte	.Lframe0
	.4byte	.LFB205
	.4byte	.LFE205-.LFB205
	.byte	0x4
	.4byte	.LCFI11-.LFB205
	.byte	0xe
	.uleb128 0x8
	.byte	0x4
	.4byte	.LCFI12-.LCFI11
	.byte	0xe
	.uleb128 0
	.align	2
.LEFDE94:
.LSFDE96:
	.4byte	.LEFDE96-.LASFDE96
.LASFDE96:
	.4byte	.Lframe0
	.4byte	.LFB206
	.4byte	.LFE206-.LFB206
	.byte	0x4
	.4byte	.LCFI13-.LFB206
	.byte	0xe
	.uleb128 0x8
	.byte	0x4
	.4byte	.LCFI14-.LCFI13
	.byte	0xe
	.uleb128 0
	.align	2
.LEFDE96:
.LSFDE98:
	.4byte	.LEFDE98-.LASFDE98
.LASFDE98:
	.4byte	.Lframe0
	.4byte	.LFB208
	.4byte	.LFE208-.LFB208
	.byte	0x4
	.4byte	.LCFI15-.LFB208
	.byte	0xe
	.uleb128 0x8
	.byte	0x4
	.4byte	.LCFI16-.LCFI15
	.byte	0xe
	.uleb128 0
	.align	2
.LEFDE98:
.LSFDE100:
	.4byte	.LEFDE100-.LASFDE100
.LASFDE100:
	.4byte	.Lframe0
	.4byte	.LFB209
	.4byte	.LFE209-.LFB209
	.byte	0x4
	.4byte	.LCFI17-.LFB209
	.byte	0xe
	.uleb128 0x4
	.byte	0x8e
	.uleb128 0x1
	.byte	0x4
	.4byte	.LCFI18-.LCFI17
	.byte	0xe
	.uleb128 0x20
	.byte	0x4
	.4byte	.LCFI19-.LCFI18
	.byte	0xe
	.uleb128 0x4
	.align	2
.LEFDE100:
.LSFDE102:
	.4byte	.LEFDE102-.LASFDE102
.LASFDE102:
	.4byte	.Lframe0
	.4byte	.LFB210
	.4byte	.LFE210-.LFB210
	.align	2
.LEFDE102:
.LSFDE104:
	.4byte	.LEFDE104-.LASFDE104
.LASFDE104:
	.4byte	.Lframe0
	.4byte	.LFB211
	.4byte	.LFE211-.LFB211
	.byte	0x4
	.4byte	.LCFI20-.LFB211
	.byte	0xe
	.uleb128 0x4
	.byte	0x8e
	.uleb128 0x1
	.byte	0x4
	.4byte	.LCFI21-.LCFI20
	.byte	0xe
	.uleb128 0x20
	.byte	0x4
	.4byte	.LCFI22-.LCFI21
	.byte	0xe
	.uleb128 0x4
	.align	2
.LEFDE104:
.LSFDE106:
	.4byte	.LEFDE106-.LASFDE106
.LASFDE106:
	.4byte	.Lframe0
	.4byte	.LFB212
	.4byte	.LFE212-.LFB212
	.byte	0x4
	.4byte	.LCFI23-.LFB212
	.byte	0xe
	.uleb128 0x4
	.byte	0x8e
	.uleb128 0x1
	.byte	0x4
	.4byte	.LCFI24-.LCFI23
	.byte	0xe
	.uleb128 0x18
	.byte	0x4
	.4byte	.LCFI25-.LCFI24
	.byte	0xe
	.uleb128 0x4
	.align	2
.LEFDE106:
.LSFDE108:
	.4byte	.LEFDE108-.LASFDE108
.LASFDE108:
	.4byte	.Lframe0
	.4byte	.LFB213
	.4byte	.LFE213-.LFB213
	.byte	0x4
	.4byte	.LCFI26-.LFB213
	.byte	0xe
	.uleb128 0x10
	.byte	0x4
	.4byte	.LCFI27-.LCFI26
	.byte	0xe
	.uleb128 0
	.align	2
.LEFDE108:
.LSFDE110:
	.4byte	.LEFDE110-.LASFDE110
.LASFDE110:
	.4byte	.Lframe0
	.4byte	.LFB214
	.4byte	.LFE214-.LFB214
	.byte	0x4
	.4byte	.LCFI28-.LFB214
	.byte	0xe
	.uleb128 0x18
	.byte	0x4
	.4byte	.LCFI29-.LCFI28
	.byte	0xe
	.uleb128 0
	.align	2
.LEFDE110:
.LSFDE112:
	.4byte	.LEFDE112-.LASFDE112
.LASFDE112:
	.4byte	.Lframe0
	.4byte	.LFB215
	.4byte	.LFE215-.LFB215
	.byte	0x4
	.4byte	.LCFI30-.LFB215
	.byte	0xe
	.uleb128 0x10
	.byte	0x4
	.4byte	.LCFI31-.LCFI30
	.byte	0xe
	.uleb128 0
	.align	2
.LEFDE112:
.LSFDE114:
	.4byte	.LEFDE114-.LASFDE114
.LASFDE114:
	.4byte	.Lframe0
	.4byte	.LFB216
	.4byte	.LFE216-.LFB216
	.byte	0x4
	.4byte	.LCFI32-.LFB216
	.byte	0xe
	.uleb128 0x10
	.byte	0x4
	.4byte	.LCFI33-.LCFI32
	.byte	0xe
	.uleb128 0
	.align	2
.LEFDE114:
.LSFDE116:
	.4byte	.LEFDE116-.LASFDE116
.LASFDE116:
	.4byte	.Lframe0
	.4byte	.LFB217
	.4byte	.LFE217-.LFB217
	.byte	0x4
	.4byte	.LCFI34-.LFB217
	.byte	0xe
	.uleb128 0x4
	.byte	0x8e
	.uleb128 0x1
	.byte	0x4
	.4byte	.LCFI35-.LCFI34
	.byte	0xe
	.uleb128 0x20
	.byte	0x4
	.4byte	.LCFI36-.LCFI35
	.byte	0xe
	.uleb128 0x4
	.align	2
.LEFDE116:
.LSFDE118:
	.4byte	.LEFDE118-.LASFDE118
.LASFDE118:
	.4byte	.Lframe0
	.4byte	.LFB218
	.4byte	.LFE218-.LFB218
	.byte	0x4
	.4byte	.LCFI37-.LFB218
	.byte	0xe
	.uleb128 0x10
	.byte	0x4
	.4byte	.LCFI38-.LCFI37
	.byte	0xe
	.uleb128 0
	.align	2
.LEFDE118:
.LSFDE120:
	.4byte	.LEFDE120-.LASFDE120
.LASFDE120:
	.4byte	.Lframe0
	.4byte	.LFB219
	.4byte	.LFE219-.LFB219
	.byte	0x4
	.4byte	.LCFI39-.LFB219
	.byte	0xe
	.uleb128 0x4
	.byte	0x8e
	.uleb128 0x1
	.byte	0x4
	.4byte	.LCFI40-.LCFI39
	.byte	0xe
	.uleb128 0x30
	.byte	0x4
	.4byte	.LCFI41-.LCFI40
	.byte	0xe
	.uleb128 0x4
	.align	2
.LEFDE120:
.LSFDE122:
	.4byte	.LEFDE122-.LASFDE122
.LASFDE122:
	.4byte	.Lframe0
	.4byte	.LFB220
	.4byte	.LFE220-.LFB220
	.byte	0x4
	.4byte	.LCFI42-.LFB220
	.byte	0xe
	.uleb128 0x4
	.byte	0x8e
	.uleb128 0x1
	.byte	0x4
	.4byte	.LCFI43-.LCFI42
	.byte	0xe
	.uleb128 0x18
	.byte	0x4
	.4byte	.LCFI44-.LCFI43
	.byte	0xe
	.uleb128 0x4
	.align	2
.LEFDE122:
.LSFDE124:
	.4byte	.LEFDE124-.LASFDE124
.LASFDE124:
	.4byte	.Lframe0
	.4byte	.LFB221
	.4byte	.LFE221-.LFB221
	.byte	0x4
	.4byte	.LCFI45-.LFB221
	.byte	0xe
	.uleb128 0x4
	.byte	0x8e
	.uleb128 0x1
	.byte	0x4
	.4byte	.LCFI46-.LCFI45
	.byte	0xe
	.uleb128 0x28
	.byte	0x4
	.4byte	.LCFI47-.LCFI46
	.byte	0xe
	.uleb128 0x4
	.align	2
.LEFDE124:
.LSFDE126:
	.4byte	.LEFDE126-.LASFDE126
.LASFDE126:
	.4byte	.Lframe0
	.4byte	.LFB222
	.4byte	.LFE222-.LFB222
	.byte	0x4
	.4byte	.LCFI48-.LFB222
	.byte	0xe
	.uleb128 0x4
	.byte	0x8e
	.uleb128 0x1
	.byte	0x4
	.4byte	.LCFI49-.LCFI48
	.byte	0xe
	.uleb128 0x38
	.byte	0x4
	.4byte	.LCFI50-.LCFI49
	.byte	0xe
	.uleb128 0x4
	.align	2
.LEFDE126:
.LSFDE128:
	.4byte	.LEFDE128-.LASFDE128
.LASFDE128:
	.4byte	.Lframe0
	.4byte	.LFB223
	.4byte	.LFE223-.LFB223
	.byte	0x4
	.4byte	.LCFI51-.LFB223
	.byte	0xe
	.uleb128 0x4
	.byte	0x8e
	.uleb128 0x1
	.byte	0x4
	.4byte	.LCFI52-.LCFI51
	.byte	0xe
	.uleb128 0x38
	.byte	0x4
	.4byte	.LCFI53-.LCFI52
	.byte	0xe
	.uleb128 0x4
	.align	2
.LEFDE128:
.LSFDE130:
	.4byte	.LEFDE130-.LASFDE130
.LASFDE130:
	.4byte	.Lframe0
	.4byte	.LFB224
	.4byte	.LFE224-.LFB224
	.byte	0x4
	.4byte	.LCFI54-.LFB224
	.byte	0xe
	.uleb128 0x4
	.byte	0x8e
	.uleb128 0x1
	.byte	0x4
	.4byte	.LCFI55-.LCFI54
	.byte	0xe
	.uleb128 0x30
	.byte	0x4
	.4byte	.LCFI56-.LCFI55
	.byte	0xe
	.uleb128 0x4
	.align	2
.LEFDE130:
.LSFDE132:
	.4byte	.LEFDE132-.LASFDE132
.LASFDE132:
	.4byte	.Lframe0
	.4byte	.LFB225
	.4byte	.LFE225-.LFB225
	.byte	0x4
	.4byte	.LCFI57-.LFB225
	.byte	0xe
	.uleb128 0x4
	.byte	0x8e
	.uleb128 0x1
	.byte	0x4
	.4byte	.LCFI58-.LCFI57
	.byte	0xe
	.uleb128 0x30
	.byte	0x4
	.4byte	.LCFI59-.LCFI58
	.byte	0xe
	.uleb128 0x4
	.align	2
.LEFDE132:
.LSFDE134:
	.4byte	.LEFDE134-.LASFDE134
.LASFDE134:
	.4byte	.Lframe0
	.4byte	.LFB226
	.4byte	.LFE226-.LFB226
	.byte	0x4
	.4byte	.LCFI60-.LFB226
	.byte	0xe
	.uleb128 0x4
	.byte	0x8e
	.uleb128 0x1
	.byte	0x4
	.4byte	.LCFI61-.LCFI60
	.byte	0xe
	.uleb128 0x10
	.byte	0x4
	.4byte	.LCFI62-.LCFI61
	.byte	0xe
	.uleb128 0x4
	.align	2
.LEFDE134:
.LSFDE136:
	.4byte	.LEFDE136-.LASFDE136
.LASFDE136:
	.4byte	.Lframe0
	.4byte	.LFB227
	.4byte	.LFE227-.LFB227
	.byte	0x4
	.4byte	.LCFI63-.LFB227
	.byte	0xe
	.uleb128 0x4
	.byte	0x8e
	.uleb128 0x1
	.byte	0x4
	.4byte	.LCFI64-.LCFI63
	.byte	0xe
	.uleb128 0x20
	.byte	0x4
	.4byte	.LCFI65-.LCFI64
	.byte	0xe
	.uleb128 0x4
	.align	2
.LEFDE136:
.LSFDE138:
	.4byte	.LEFDE138-.LASFDE138
.LASFDE138:
	.4byte	.Lframe0
	.4byte	.LFB228
	.4byte	.LFE228-.LFB228
	.byte	0x4
	.4byte	.LCFI66-.LFB228
	.byte	0xe
	.uleb128 0x4
	.byte	0x8e
	.uleb128 0x1
	.byte	0x4
	.4byte	.LCFI67-.LCFI66
	.byte	0xe
	.uleb128 0x20
	.byte	0x4
	.4byte	.LCFI68-.LCFI67
	.byte	0xe
	.uleb128 0x4
	.align	2
.LEFDE138:
.LSFDE140:
	.4byte	.LEFDE140-.LASFDE140
.LASFDE140:
	.4byte	.Lframe0
	.4byte	.LFB229
	.4byte	.LFE229-.LFB229
	.byte	0x4
	.4byte	.LCFI69-.LFB229
	.byte	0xe
	.uleb128 0x4
	.byte	0x8e
	.uleb128 0x1
	.byte	0x4
	.4byte	.LCFI70-.LCFI69
	.byte	0xe
	.uleb128 0x28
	.byte	0x4
	.4byte	.LCFI71-.LCFI70
	.byte	0xe
	.uleb128 0x4
	.align	2
.LEFDE140:
.LSFDE142:
	.4byte	.LEFDE142-.LASFDE142
.LASFDE142:
	.4byte	.Lframe0
	.4byte	.LFB230
	.4byte	.LFE230-.LFB230
	.byte	0x4
	.4byte	.LCFI72-.LFB230
	.byte	0xe
	.uleb128 0x4
	.byte	0x8e
	.uleb128 0x1
	.byte	0x4
	.4byte	.LCFI73-.LCFI72
	.byte	0xe
	.uleb128 0x28
	.byte	0x4
	.4byte	.LCFI74-.LCFI73
	.byte	0xe
	.uleb128 0x4
	.align	2
.LEFDE142:
.LSFDE144:
	.4byte	.LEFDE144-.LASFDE144
.LASFDE144:
	.4byte	.Lframe0
	.4byte	.LFB231
	.4byte	.LFE231-.LFB231
	.byte	0x4
	.4byte	.LCFI75-.LFB231
	.byte	0xe
	.uleb128 0x4
	.byte	0x8e
	.uleb128 0x1
	.byte	0x4
	.4byte	.LCFI76-.LCFI75
	.byte	0xe
	.uleb128 0x30
	.byte	0x4
	.4byte	.LCFI77-.LCFI76
	.byte	0xe
	.uleb128 0x4
	.align	2
.LEFDE144:
.LSFDE146:
	.4byte	.LEFDE146-.LASFDE146
.LASFDE146:
	.4byte	.Lframe0
	.4byte	.LFB232
	.4byte	.LFE232-.LFB232
	.byte	0x4
	.4byte	.LCFI78-.LFB232
	.byte	0xe
	.uleb128 0x4
	.byte	0x8e
	.uleb128 0x1
	.byte	0x4
	.4byte	.LCFI79-.LCFI78
	.byte	0xe
	.uleb128 0x30
	.byte	0x4
	.4byte	.LCFI80-.LCFI79
	.byte	0xe
	.uleb128 0x4
	.align	2
.LEFDE146:
.LSFDE148:
	.4byte	.LEFDE148-.LASFDE148
.LASFDE148:
	.4byte	.Lframe0
	.4byte	.LFB233
	.4byte	.LFE233-.LFB233
	.byte	0x4
	.4byte	.LCFI81-.LFB233
	.byte	0xe
	.uleb128 0x4
	.byte	0x8e
	.uleb128 0x1
	.byte	0x4
	.4byte	.LCFI82-.LCFI81
	.byte	0xe
	.uleb128 0x38
	.byte	0x4
	.4byte	.LCFI83-.LCFI82
	.byte	0xe
	.uleb128 0x4
	.align	2
.LEFDE148:
.LSFDE150:
	.4byte	.LEFDE150-.LASFDE150
.LASFDE150:
	.4byte	.Lframe0
	.4byte	.LFB234
	.4byte	.LFE234-.LFB234
	.align	2
.LEFDE150:
.LSFDE152:
	.4byte	.LEFDE152-.LASFDE152
.LASFDE152:
	.4byte	.Lframe0
	.4byte	.LFB235
	.4byte	.LFE235-.LFB235
	.byte	0x4
	.4byte	.LCFI84-.LFB235
	.byte	0xe
	.uleb128 0x4
	.byte	0x8e
	.uleb128 0x1
	.byte	0x4
	.4byte	.LCFI85-.LCFI84
	.byte	0xe
	.uleb128 0x68
	.byte	0x4
	.4byte	.LCFI86-.LCFI85
	.byte	0xe
	.uleb128 0x4
	.align	2
.LEFDE152:
.LSFDE154:
	.4byte	.LEFDE154-.LASFDE154
.LASFDE154:
	.4byte	.Lframe0
	.4byte	.LFB236
	.4byte	.LFE236-.LFB236
	.byte	0x4
	.4byte	.LCFI87-.LFB236
	.byte	0xe
	.uleb128 0x4
	.byte	0x8e
	.uleb128 0x1
	.byte	0x4
	.4byte	.LCFI88-.LCFI87
	.byte	0xe
	.uleb128 0x18
	.byte	0x4
	.4byte	.LCFI89-.LCFI88
	.byte	0xe
	.uleb128 0x4
	.align	2
.LEFDE154:
.LSFDE156:
	.4byte	.LEFDE156-.LASFDE156
.LASFDE156:
	.4byte	.Lframe0
	.4byte	.LFB237
	.4byte	.LFE237-.LFB237
	.byte	0x4
	.4byte	.LCFI90-.LFB237
	.byte	0xe
	.uleb128 0x4
	.byte	0x8e
	.uleb128 0x1
	.byte	0x4
	.4byte	.LCFI91-.LCFI90
	.byte	0xe
	.uleb128 0x18
	.byte	0x4
	.4byte	.LCFI92-.LCFI91
	.byte	0xe
	.uleb128 0x4
	.align	2
.LEFDE156:
.LSFDE158:
	.4byte	.LEFDE158-.LASFDE158
.LASFDE158:
	.4byte	.Lframe0
	.4byte	.LFB238
	.4byte	.LFE238-.LFB238
	.byte	0x4
	.4byte	.LCFI93-.LFB238
	.byte	0xe
	.uleb128 0x10
	.byte	0x4
	.4byte	.LCFI94-.LCFI93
	.byte	0xe
	.uleb128 0
	.align	2
.LEFDE158:
.LSFDE160:
	.4byte	.LEFDE160-.LASFDE160
.LASFDE160:
	.4byte	.Lframe0
	.4byte	.LFB239
	.4byte	.LFE239-.LFB239
	.byte	0x4
	.4byte	.LCFI95-.LFB239
	.byte	0xe
	.uleb128 0x4
	.byte	0x8e
	.uleb128 0x1
	.byte	0x4
	.4byte	.LCFI96-.LCFI95
	.byte	0xe
	.uleb128 0x10
	.byte	0x4
	.4byte	.LCFI97-.LCFI96
	.byte	0xe
	.uleb128 0x4
	.align	2
.LEFDE160:
	.text
.Letext0:
	.file 5 "C:/Program Files (x86)/SEGGER/SEGGER Embedded Studio for ARM 4.50/include/stdint.h"
	.file 6 "../../../../../../components/libraries/experimental_log/nrf_log_ctrl.h"
	.file 7 "../../../../../../components/libraries/atomic/nrf_atomic.h"