	.cpu cortex-m4
	.eabi_attribute 27, 1
	.eabi_attribute 28, 1
	.eabi_attribute 20, 1
	.eabi_attribute 21, 1
	.eabi_attribute 23, 3
	.eabi_attribute 24, 1
	.eabi_attribute 25, 1
	.eabi_attribute 26, 1
	.eabi_attribute 30, 6
	.eabi_attribute 34, 1
	.eabi_attribute 18, 4
	.file	"nrf_atfifo.c"
	.text
.Ltext0:
	.section	.text.nrf_atfifo_wspace_req,"ax",%progbits
	.align	1
	.syntax unified
	.thumb
	.thumb_func
	.fpu fpv4-sp-d16
	.type	nrf_atfifo_wspace_req, %function
nrf_atfifo_wspace_req:
.LFB142:
	.file 1 "C:\\nRF5_SDK_15.0.0_a53641a\\components\\libraries\\atomic_fifo\\nrf_atfifo_internal.h"
	.loc 1 353 1
	@ args = 0, pretend = 0, frame = 24
	@ frame_needed = 0, uses_anonymous_args = 0
	@ link register save eliminated.
	sub	sp, sp, #24
.LCFI0:
	str	r0, [sp, #4]
	str	r1, [sp]
	.loc 1 359 5
	ldr	r3, [sp, #4]
	.syntax unified
@ 359 "C:\nRF5_SDK_15.0.0_a53641a\components\libraries\atomic_fifo\nrf_atfifo_internal.h" 1
	1:                                                             
   ldrex r1, [r3, #4]              
   uxth r2, r1                               
                                                               
   ldrh  r0, [r3, #14]             
   add   r2, r0                                  
   ldrh  r0, [r3, #12]              
   cmp   r2, r0                                  
   it    hs                                                    
   subhs r2, r2, r0                     
                                                               
   ldrh  r0, [r3, #8]               
   cmp   r2, r0                                  
   ittt  eq                                                    
   clrexeq                                                     
   moveq r3, #0                                  
   beq.n 2f                                                    
                                                               
   pkhbt r2, r2, r1                 
                                                               
   strex r0, r2, [r3, #4]     
   cmp   r0, #0                                           
   bne.n 1b                                                    
                                                               
   mov r3, #1                                     
2:                                                             

@ 0 "" 2
	.thumb
	.syntax unified
	strb	r3, [sp, #15]
	str	r0, [sp, #20]
	str	r1, [sp, #8]
	str	r2, [sp, #16]
	.loc 1 403 21
	ldr	r2, [sp, #8]
	ldr	r3, [sp]
	str	r2, [r3]
	.loc 1 406 12
	ldrb	r3, [sp, #15]
	uxtb	r3, r3
	.loc 1 407 1
	mov	r0, r3
	add	sp, sp, #24
.LCFI1:
	@ sp needed
	bx	lr
.LFE142:
	.size	nrf_atfifo_wspace_req, .-nrf_atfifo_wspace_req
	.section	.text.nrf_atfifo_wspace_close,"ax",%progbits
	.align	1
	.syntax unified
	.thumb
	.thumb_func
	.fpu fpv4-sp-d16
	.type	nrf_atfifo_wspace_close, %function
nrf_atfifo_wspace_close:
.LFB143:
	.loc 1 411 1
	@ args = 0, pretend = 0, frame = 16
	@ frame_needed = 0, uses_anonymous_args = 0
	@ link register save eliminated.
	sub	sp, sp, #16
.LCFI2:
	str	r0, [sp, #4]
	.loc 1 415 5
	ldr	r1, [sp, #4]
	.syntax unified
@ 415 "C:\nRF5_SDK_15.0.0_a53641a\components\libraries\atomic_fifo\nrf_atfifo_internal.h" 1
	1:                                                         
   ldrex r3, [r1, #4]          
   pkhbt r3,r3, r3, lsl #16     
                                                           
   strex r2, r3, [r1, #4] 
   cmp   r2, #0                                       
   bne.n 1b                                                

@ 0 "" 2
	.thumb
	.syntax unified
	str	r2, [sp, #12]
	str	r3, [sp, #8]
	.loc 1 435 1
	nop
	add	sp, sp, #16
.LCFI3:
	@ sp needed
	bx	lr
.LFE143:
	.size	nrf_atfifo_wspace_close, .-nrf_atfifo_wspace_close
	.section	.text.nrf_atfifo_rspace_req,"ax",%progbits
	.align	1
	.syntax unified
	.thumb
	.thumb_func
	.fpu fpv4-sp-d16
	.type	nrf_atfifo_rspace_req, %function
nrf_atfifo_rspace_req:
.LFB144:
	.loc 1 439 1
	@ args = 0, pretend = 0, frame = 24
	@ frame_needed = 0, uses_anonymous_args = 0
	@ link register save eliminated.
	sub	sp, sp, #24
.LCFI4:
	str	r0, [sp, #4]
	str	r1, [sp]
	.loc 1 445 5
	ldr	r3, [sp, #4]
	.syntax unified
@ 445 "C:\nRF5_SDK_15.0.0_a53641a\components\libraries\atomic_fifo\nrf_atfifo_internal.h" 1
	1:                                                         
   ldrex r1, [r3, #8]          
   uxth r2, r1, ror #16                  
                                                           
   ldrh  r0, [r3, #6]           
   cmp   r2, r0                              
   ittt  eq                                                
   clrexeq                                                 
   moveq r3, #0                              
   beq.n   2f                                              
                                                           
   ldrh  r0, [r3, #14]         
   add   r2, r0                              
   ldrh  r0, [r3, #12]          
   cmp   r2, r0                              
   it    hs                                                
   subhs r2, r2, r0                 
                                                           
   pkhbt r2, r1, r2, lsl #16    
                                                           
   strex r0, r2, [r3, #8] 
   cmp   r0, #0                                       
   bne.n 1b                                                
                                                           
   mov r3, #1                                 
2:                                                         

@ 0 "" 2
	.thumb
	.syntax unified
	strb	r3, [sp, #15]
	str	r0, [sp, #20]
	str	r1, [sp, #8]
	str	r2, [sp, #16]
	.loc 1 489 21
	ldr	r2, [sp, #8]
	ldr	r3, [sp]
	str	r2, [r3]
	.loc 1 492 12
	ldrb	r3, [sp, #15]
	uxtb	r3, r3
	.loc 1 493 1
	mov	r0, r3
	add	sp, sp, #24
.LCFI5:
	@ sp needed
	bx	lr
.LFE144:
	.size	nrf_atfifo_rspace_req, .-nrf_atfifo_rspace_req
	.section	.text.nrf_atfifo_rspace_close,"ax",%progbits
	.align	1
	.syntax unified
	.thumb
	.thumb_func
	.fpu fpv4-sp-d16
	.type	nrf_atfifo_rspace_close, %function
nrf_atfifo_rspace_close:
.LFB145:
	.loc 1 497 1
	@ args = 0, pretend = 0, frame = 16
	@ frame_needed = 0, uses_anonymous_args = 0
	@ link register save eliminated.
	sub	sp, sp, #16
.LCFI6:
	str	r0, [sp, #4]
	.loc 1 501 5
	ldr	r1, [sp, #4]
	.syntax unified
@ 501 "C:\nRF5_SDK_15.0.0_a53641a\components\libraries\atomic_fifo\nrf_atfifo_internal.h" 1
	1:                                                         
   ldrex r3, [r1, #8]          
   pkhtb r3,r3, r3, asr #16     
                                                           
   strex r2, r3, [r1, #8] 
   cmp   r2, #0                                       
   bne.n 1b                                                

@ 0 "" 2
	.thumb
	.syntax unified
	str	r2, [sp, #12]
	str	r3, [sp, #8]
	.loc 1 521 1
	nop
	add	sp, sp, #16
.LCFI7:
	@ sp needed
	bx	lr
.LFE145:
	.size	nrf_atfifo_rspace_close, .-nrf_atfifo_rspace_close
	.section	.text.nrf_atfifo_space_clear,"ax",%progbits
	.align	1
	.syntax unified
	.thumb
	.thumb_func
	.fpu fpv4-sp-d16
	.type	nrf_atfifo_space_clear, %function
nrf_atfifo_space_clear:
.LFB146:
	.loc 1 525 1
	@ args = 0, pretend = 0, frame = 24
	@ frame_needed = 0, uses_anonymous_args = 0
	@ link register save eliminated.
	sub	sp, sp, #24
.LCFI8:
	str	r0, [sp, #4]
	.loc 1 530 5
	ldr	r3, [sp, #4]
	.syntax unified
@ 530 "C:\nRF5_SDK_15.0.0_a53641a\components\libraries\atomic_fifo\nrf_atfifo_internal.h" 1
	1:                                                               
   ldrex   r1, [r3, #8]              
   ldrh    r2, [r3, #6]           
   cmp     r1, r1, ror #16                     
                                                                 
   mov     r0, #0                                  
                                                                 
   itett   ne                                                    
   uxthne  r1, r1                              
   orreq   r2, r2, r2, lsl #16        
   orrne   r2, r1, r2, lsl #16        
                                                                 
   bne.n   2f                                                    
                                                                 
   ldr     r1, [r3, #4]              
   cmp     r1, r1, ror #16                     
   it      eq                                                    
   moveq   r0, #1                                   
                                                                 
2:                                                               
   strex   r1, r2, [r3, #8] 
   cmp     r1, #0                                       
   bne.n     1b                                                  

@ 0 "" 2
	.thumb
	.syntax unified
	strb	r0, [sp, #15]
	str	r1, [sp, #20]
	str	r2, [sp, #16]
	.loc 1 570 12
	ldrb	r3, [sp, #15]
	uxtb	r3, r3
	.loc 1 571 1
	mov	r0, r3
	add	sp, sp, #24
.LCFI9:
	@ sp needed
	bx	lr
.LFE146:
	.size	nrf_atfifo_space_clear, .-nrf_atfifo_space_clear
	.section	.text.nrf_atfifo_init,"ax",%progbits
	.align	1
	.global	nrf_atfifo_init
	.syntax unified
	.thumb
	.thumb_func
	.fpu fpv4-sp-d16
	.type	nrf_atfifo_init, %function
nrf_atfifo_init:
.LFB147:
	.file 2 "C:\\nRF5_SDK_15.0.0_a53641a\\components\\libraries\\atomic_fifo\\nrf_atfifo.c"
	.loc 2 63 1
	@ args = 0, pretend = 0, frame = 16
	@ frame_needed = 0, uses_anonymous_args = 0
	@ link register save eliminated.
	sub	sp, sp, #16
.LCFI10:
	str	r0, [sp, #12]
	str	r1, [sp, #8]
	mov	r1, r2
	mov	r2, r3
	mov	r3, r1	@ movhi
	strh	r3, [sp, #6]	@ movhi
	mov	r3, r2	@ movhi
	strh	r3, [sp, #4]	@ movhi
	.loc 2 64 8
	ldr	r3, [sp, #8]
	cmp	r3, #0
	bne	.L10
	.loc 2 67 16
	movs	r3, #14
	b	.L11
.L10:
	.loc 2 69 11
	ldrh	r3, [sp, #6]
	ldrh	r2, [sp, #4]
	udiv	r1, r3, r2
	mul	r2, r2, r1
	subs	r3, r3, r2
	uxth	r3, r3
	.loc 2 69 8
	cmp	r3, #0
	beq	.L12
	.loc 2 72 16
	movs	r3, #9
	b	.L11
.L12:
	.loc 2 75 19
	ldr	r3, [sp, #12]
	ldr	r2, [sp, #8]
	str	r2, [r3]
	.loc 2 76 22
	ldr	r3, [sp, #12]
	movs	r2, #0
	str	r2, [r3, #4]
	.loc 2 77 22
	ldr	r3, [sp, #12]
	movs	r2, #0
	str	r2, [r3, #8]
	.loc 2 78 22
	ldr	r3, [sp, #12]
	ldrh	r2, [sp, #6]	@ movhi
	strh	r2, [r3, #12]	@ movhi
	.loc 2 79 23
	ldr	r3, [sp, #12]
	ldrh	r2, [sp, #4]	@ movhi
	strh	r2, [r3, #14]	@ movhi
	.loc 2 82 12
	movs	r3, #0
.L11:
	.loc 2 83 1
	mov	r0, r3
	add	sp, sp, #16
.LCFI11:
	@ sp needed
	bx	lr
.LFE147:
	.size	nrf_atfifo_init, .-nrf_atfifo_init
	.section	.text.nrf_atfifo_clear,"ax",%progbits
	.align	1
	.global	nrf_atfifo_clear
	.syntax unified
	.thumb
	.thumb_func
	.fpu fpv4-sp-d16
	.type	nrf_atfifo_clear, %function
nrf_atfifo_clear:
.LFB148:
	.loc 2 87 1
	@ args = 0, pretend = 0, frame = 16
	@ frame_needed = 0, uses_anonymous_args = 0
	push	{lr}
.LCFI12:
	sub	sp, sp, #20
.LCFI13:
	str	r0, [sp, #4]
	.loc 2 88 20
	ldr	r0, [sp, #4]
	bl	nrf_atfifo_space_clear
	mov	r3, r0
	strb	r3, [sp, #15]
	.loc 2 90 35
	ldrb	r3, [sp, #15]	@ zero_extendqisi2
	cmp	r3, #0
	beq	.L14
	.loc 2 90 35 is_stmt 0 discriminator 1
	movs	r3, #0
	b	.L16
.L14:
	.loc 2 90 35 discriminator 2
	movs	r3, #17
.L16:
	.loc 2 91 1 is_stmt 1 discriminator 5
	mov	r0, r3
	add	sp, sp, #20
.LCFI14:
	@ sp needed
	ldr	pc, [sp], #4
.LFE148:
	.size	nrf_atfifo_clear, .-nrf_atfifo_clear
	.section	.text.nrf_atfifo_alloc_put,"ax",%progbits
	.align	1
	.global	nrf_atfifo_alloc_put
	.syntax unified
	.thumb
	.thumb_func
	.fpu fpv4-sp-d16
	.type	nrf_atfifo_alloc_put, %function
nrf_atfifo_alloc_put:
.LFB149:
	.loc 2 95 1
	@ args = 0, pretend = 0, frame = 32
	@ frame_needed = 0, uses_anonymous_args = 0
	push	{lr}
.LCFI15:
	sub	sp, sp, #36
.LCFI16:
	str	r0, [sp, #12]
	str	r1, [sp, #8]
	str	r2, [sp, #4]
	str	r3, [sp]
	.loc 2 98 21
	add	r3, sp, #20
	mov	r1, r3
	ldr	r0, [sp, #12]
	bl	nrf_atfifo_item_alloc
	str	r0, [sp, #24]
	.loc 2 99 8
	ldr	r3, [sp, #24]
	cmp	r3, #0
	bne	.L18
	.loc 2 102 16
	movs	r3, #4
	b	.L21
.L18:
	.loc 2 105 5
	ldr	r2, [sp, #4]
	ldr	r1, [sp, #8]
	ldr	r0, [sp, #24]
	bl	memcpy
	.loc 2 107 15
	add	r3, sp, #20
	mov	r1, r3
	ldr	r0, [sp, #12]
	bl	nrf_atfifo_item_put
	mov	r3, r0
	strb	r3, [sp, #31]
	.loc 2 108 8
	ldr	r3, [sp]
	cmp	r3, #0
	beq	.L20
	.loc 2 110 20
	ldr	r3, [sp]
	ldrb	r2, [sp, #31]
	strb	r2, [r3]
.L20:
	.loc 2 113 12
	movs	r3, #0
.L21:
	.loc 2 114 1 discriminator 1
	mov	r0, r3
	add	sp, sp, #36
.LCFI17:
	@ sp needed
	ldr	pc, [sp], #4
.LFE149:
	.size	nrf_atfifo_alloc_put, .-nrf_atfifo_alloc_put
	.section	.text.nrf_atfifo_item_alloc,"ax",%progbits
	.align	1
	.global	nrf_atfifo_item_alloc
	.syntax unified
	.thumb
	.thumb_func
	.fpu fpv4-sp-d16
	.type	nrf_atfifo_item_alloc, %function
nrf_atfifo_item_alloc:
.LFB150:
	.loc 2 118 1
	@ args = 0, pretend = 0, frame = 16
	@ frame_needed = 0, uses_anonymous_args = 0
	push	{lr}
.LCFI18:
	sub	sp, sp, #20
.LCFI19:
	str	r0, [sp, #4]
	str	r1, [sp]
	.loc 2 119 9
	ldr	r3, [sp]
	mov	r1, r3
	ldr	r0, [sp, #4]
	bl	nrf_atfifo_wspace_req
	mov	r3, r0
	.loc 2 119 8
	cmp	r3, #0
	beq	.L23
.LBB2:
	.loc 2 121 43
	ldr	r3, [sp, #4]
	ldr	r3, [r3]
	.loc 2 121 79
	ldr	r2, [sp]
	ldrh	r2, [r2]
	.loc 2 121 16
	add	r3, r3, r2
	str	r3, [sp, #12]
	.loc 2 123 16
	ldr	r3, [sp, #12]
	b	.L24
.L23:
.LBE2:
	.loc 2 126 11
	movs	r3, #0
.L24:
	.loc 2 127 1
	mov	r0, r3
	add	sp, sp, #20
.LCFI20:
	@ sp needed
	ldr	pc, [sp], #4
.LFE150:
	.size	nrf_atfifo_item_alloc, .-nrf_atfifo_item_alloc
	.section	.text.nrf_atfifo_item_put,"ax",%progbits
	.align	1
	.global	nrf_atfifo_item_put
	.syntax unified
	.thumb
	.thumb_func
	.fpu fpv4-sp-d16
	.type	nrf_atfifo_item_put, %function
nrf_atfifo_item_put:
.LFB151:
	.loc 2 131 1
	@ args = 0, pretend = 0, frame = 8
	@ frame_needed = 0, uses_anonymous_args = 0
	push	{lr}
.LCFI21:
	sub	sp, sp, #12
.LCFI22:
	str	r0, [sp, #4]
	str	r1, [sp]
	.loc 2 132 34
	ldr	r3, [sp]
	ldrh	r2, [r3]
	.loc 2 132 67
	ldr	r3, [sp]
	ldrh	r3, [r3, #2]
	.loc 2 132 8
	cmp	r2, r3
	bne	.L26
	.loc 2 135 9
	ldr	r0, [sp, #4]
	bl	nrf_atfifo_wspace_close
	.loc 2 136 15
	movs	r3, #1
	b	.L27
.L26:
	.loc 2 139 11
	movs	r3, #0
.L27:
	.loc 2 140 1
	mov	r0, r3
	add	sp, sp, #12
.LCFI23:
	@ sp needed
	ldr	pc, [sp], #4
.LFE151:
	.size	nrf_atfifo_item_put, .-nrf_atfifo_item_put
	.section	.text.nrf_atfifo_get_free,"ax",%progbits
	.align	1
	.global	nrf_atfifo_get_free
	.syntax unified
	.thumb
	.thumb_func
	.fpu fpv4-sp-d16
	.type	nrf_atfifo_get_free, %function
nrf_atfifo_get_free:
.LFB152:
	.loc 2 144 1
	@ args = 0, pretend = 0, frame = 32
	@ frame_needed = 0, uses_anonymous_args = 0
	push	{lr}
.LCFI24:
	sub	sp, sp, #36
.LCFI25:
	str	r0, [sp, #12]
	str	r1, [sp, #8]
	str	r2, [sp, #4]
	str	r3, [sp]
	.loc 2 147 24
	add	r3, sp, #20
	mov	r1, r3
	ldr	r0, [sp, #12]
	bl	nrf_atfifo_item_get
	str	r0, [sp, #24]
	.loc 2 148 8
	ldr	r3, [sp, #24]
	cmp	r3, #0
	bne	.L29
	.loc 2 151 16
	movs	r3, #5
	b	.L32
.L29:
	.loc 2 154 5
	ldr	r2, [sp, #4]
	ldr	r1, [sp, #24]
	ldr	r0, [sp, #8]
	bl	memcpy
	.loc 2 156 16
	add	r3, sp, #20
	mov	r1, r3
	ldr	r0, [sp, #12]
	bl	nrf_atfifo_item_free
	mov	r3, r0
	strb	r3, [sp, #31]
	.loc 2 157 8
	ldr	r3, [sp]
	cmp	r3, #0
	beq	.L31
	.loc 2 159 21
	ldr	r3, [sp]
	ldrb	r2, [sp, #31]
	strb	r2, [r3]
.L31:
	.loc 2 162 12
	movs	r3, #0
.L32:
	.loc 2 163 1 discriminator 1
	mov	r0, r3
	add	sp, sp, #36
.LCFI26:
	@ sp needed
	ldr	pc, [sp], #4
.LFE152:
	.size	nrf_atfifo_get_free, .-nrf_atfifo_get_free
	.section	.text.nrf_atfifo_item_get,"ax",%progbits
	.align	1
	.global	nrf_atfifo_item_get
	.syntax unified
	.thumb
	.thumb_func
	.fpu fpv4-sp-d16
	.type	nrf_atfifo_item_get, %function
nrf_atfifo_item_get:
.LFB153:
	.loc 2 167 1
	@ args = 0, pretend = 0, frame = 16
	@ frame_needed = 0, uses_anonymous_args = 0
	push	{lr}
.LCFI27:
	sub	sp, sp, #20
.LCFI28:
	str	r0, [sp, #4]
	str	r1, [sp]
	.loc 2 168 9
	ldr	r3, [sp]
	mov	r1, r3
	ldr	r0, [sp, #4]
	bl	nrf_atfifo_rspace_req
	mov	r3, r0
	.loc 2 168 8
	cmp	r3, #0
	beq	.L34
.LBB3:
	.loc 2 170 43
	ldr	r3, [sp, #4]
	ldr	r3, [r3]
	.loc 2 170 79
	ldr	r2, [sp]
	ldrh	r2, [r2, #2]
	.loc 2 170 16
	add	r3, r3, r2
	str	r3, [sp, #12]
	.loc 2 172 16
	ldr	r3, [sp, #12]
	b	.L35
.L34:
.LBE3:
	.loc 2 175 11
	movs	r3, #0
.L35:
	.loc 2 176 1
	mov	r0, r3
	add	sp, sp, #20
.LCFI29:
	@ sp needed
	ldr	pc, [sp], #4
.LFE153:
	.size	nrf_atfifo_item_get, .-nrf_atfifo_item_get
	.section	.text.nrf_atfifo_item_free,"ax",%progbits
	.align	1
	.global	nrf_atfifo_item_free
	.syntax unified
	.thumb
	.thumb_func
	.fpu fpv4-sp-d16
	.type	nrf_atfifo_item_free, %function
nrf_atfifo_item_free:
.LFB154:
	.loc 2 180 1
	@ args = 0, pretend = 0, frame = 8
	@ frame_needed = 0, uses_anonymous_args = 0
	push	{lr}
.LCFI30:
	sub	sp, sp, #12
.LCFI31:
	str	r0, [sp, #4]
	str	r1, [sp]
	.loc 2 181 34
	ldr	r3, [sp]
	ldrh	r2, [r3]
	.loc 2 181 67
	ldr	r3, [sp]
	ldrh	r3, [r3, #2]
	.loc 2 181 8
	cmp	r2, r3
	bne	.L37
	.loc 2 184 9
	ldr	r0, [sp, #4]
	bl	nrf_atfifo_rspace_close
	.loc 2 185 15
	movs	r3, #1
	b	.L38
.L37:
	.loc 2 188 11
	movs	r3, #0
.L38:
	.loc 2 189 1
	mov	r0, r3
	add	sp, sp, #12
.LCFI32:
	@ sp needed
	ldr	pc, [sp], #4
.LFE154:
	.size	nrf_atfifo_item_free, .-nrf_atfifo_item_free
	.section	.debug_frame,"",%progbits
.Lframe0:
	.4byte	.LECIE0-.LSCIE0
.LSCIE0:
	.4byte	0xffffffff
	.byte	0x3
	.ascii	"\000"
	.uleb128 0x1
	.sleb128 -4
	.uleb128 0xe
	.byte	0xc
	.uleb128 0xd
	.uleb128 0
	.align	2
.LECIE0:
.LSFDE0:
	.4byte	.LEFDE0-.LASFDE0
.LASFDE0:
	.4byte	.Lframe0
	.4byte	.LFB142
	.4byte	.LFE142-.LFB142
	.byte	0x4
	.4byte	.LCFI0-.LFB142
	.byte	0xe
	.uleb128 0x18
	.byte	0x4
	.4byte	.LCFI1-.LCFI0
	.byte	0xe
	.uleb128 0
	.align	2
.LEFDE0:
.LSFDE2:
	.4byte	.LEFDE2-.LASFDE2
.LASFDE2:
	.4byte	.Lframe0
	.4byte	.LFB143
	.4byte	.LFE143-.LFB143
	.byte	0x4
	.4byte	.LCFI2-.LFB143
	.byte	0xe
	.uleb128 0x10
	.byte	0x4
	.4byte	.LCFI3-.LCFI2
	.byte	0xe
	.uleb128 0
	.align	2
.LEFDE2:
.LSFDE4:
	.4byte	.LEFDE4-.LASFDE4
.LASFDE4:
	.4byte	.Lframe0
	.4byte	.LFB144
	.4byte	.LFE144-.LFB144
	.byte	0x4
	.4byte	.LCFI4-.LFB144
	.byte	0xe
	.uleb128 0x18
	.byte	0x4
	.4byte	.LCFI5-.LCFI4
	.byte	0xe
	.uleb128 0
	.align	2
.LEFDE4:
.LSFDE6:
	.4byte	.LEFDE6-.LASFDE6
.LASFDE6:
	.4byte	.Lframe0
	.4byte	.LFB145
	.4byte	.LFE145-.LFB145
	.byte	0x4
	.4byte	.LCFI6-.LFB145
	.byte	0xe
	.uleb128 0x10
	.byte	0x4
	.4byte	.LCFI7-.LCFI6
	.byte	0xe
	.uleb128 0
	.align	2
.LEFDE6:
.LSFDE8:
	.4byte	.LEFDE8-.LASFDE8
.LASFDE8:
	.4byte	.Lframe0
	.4byte	.LFB146
	.4byte	.LFE146-.LFB146
	.byte	0x4
	.4byte	.LCFI8-.LFB146
	.byte	0xe
	.uleb128 0x18
	.byte	0x4
	.4byte	.LCFI9-.LCFI8
	.byte	0xe
	.uleb128 0
	.align	2
.LEFDE8:
.LSFDE10:
	.4byte	.LEFDE10-.LASFDE10
.LASFDE10:
	.4byte	.Lframe0
	.4byte	.LFB147
	.4byte	.LFE147-.LFB147
	.byte	0x4
	.4byte	.LCFI10-.LFB147
	.byte	0xe
	.uleb128 0x10
	.byte	0x4
	.4byte	.LCFI11-.LCFI10
	.byte	0xe
	.uleb128 0
	.align	2
.LEFDE10:
.LSFDE12:
	.4byte	.LEFDE12-.LASFDE12
.LASFDE12:
	.4byte	.Lframe0
	.4byte	.LFB148
	.4byte	.LFE148-.LFB148
	.byte	0x4
	.4byte	.LCFI12-.LFB148
	.byte	0xe
	.uleb128 0x4
	.byte	0x8e
	.uleb128 0x1
	.byte	0x4
	.4byte	.LCFI13-.LCFI12
	.byte	0xe
	.uleb128 0x18
	.byte	0x4
	.4byte	.LCFI14-.LCFI13
	.byte	0xe
	.uleb128 0x4
	.align	2
.LEFDE12:
.LSFDE14:
	.4byte	.LEFDE14-.LASFDE14
.LASFDE14:
	.4byte	.Lframe0
	.4byte	.LFB149
	.4byte	.LFE149-.LFB149
	.byte	0x4
	.4byte	.LCFI15-.LFB149
	.byte	0xe
	.uleb128 0x4
	.byte	0x8e
	.uleb128 0x1
	.byte	0x4
	.4byte	.LCFI16-.LCFI15
	.byte	0xe
	.uleb128 0x28
	.byte	0x4
	.4byte	.LCFI17-.LCFI16
	.byte	0xe
	.uleb128 0x4
	.align	2
.LEFDE14:
.LSFDE16:
	.4byte	.LEFDE16-.LASFDE16
.LASFDE16:
	.4byte	.Lframe0
	.4byte	.LFB150
	.4byte	.LFE150-.LFB150
	.byte	0x4
	.4byte	.LCFI18-.LFB150
	.byte	0xe
	.uleb128 0x4
	.byte	0x8e
	.uleb128 0x1
	.byte	0x4
	.4byte	.LCFI19-.LCFI18
	.byte	0xe
	.uleb128 0x18
	.byte	0x4
	.4byte	.LCFI20-.LCFI19
	.byte	0xe
	.uleb128 0x4
	.align	2
.LEFDE16:
.LSFDE18:
	.4byte	.LEFDE18-.LASFDE18
.LASFDE18:
	.4byte	.Lframe0
	.4byte	.LFB151
	.4byte	.LFE151-.LFB151
	.byte	0x4
	.4byte	.LCFI21-.LFB151
	.byte	0xe
	.uleb128 0x4
	.byte	0x8e
	.uleb128 0x1
	.byte	0x4
	.4byte	.LCFI22-.LCFI21
	.byte	0xe
	.uleb128 0x10
	.byte	0x4
	.4byte	.LCFI23-.LCFI22
	.byte	0xe
	.uleb128 0x4
	.align	2
.LEFDE18:
.LSFDE20:
	.4byte	.LEFDE20-.LASFDE20
.LASFDE20:
	.4byte	.Lframe0
	.4byte	.LFB152
	.4byte	.LFE152-.LFB152
	.byte	0x4
	.4byte	.LCFI24-.LFB152
	.byte	0xe
	.uleb128 0x4
	.byte	0x8e
	.uleb128 0x1
	.byte	0x4
	.4byte	.LCFI25-.LCFI24
	.byte	0xe
	.uleb128 0x28
	.byte	0x4
	.4byte	.LCFI26-.LCFI25
	.byte	0xe
	.uleb128 0x4
	.align	2
.LEFDE20:
.LSFDE22:
	.4byte	.LEFDE22-.LASFDE22
.LASFDE22:
	.4byte	.Lframe0
	.4byte	.LFB153
	.4byte	.LFE153-.LFB153
	.byte	0x4
	.4byte	.LCFI27-.LFB153
	.byte	0xe
	.uleb128 0x4
	.byte	0x8e
	.uleb128 0x1
	.byte	0x4
	.4byte	.LCFI28-.LCFI27
	.byte	0xe
	.uleb128 0x18
	.byte	0x4
	.4byte	.LCFI29-.LCFI28
	.byte	0xe
	.uleb128 0x4
	.align	2
.LEFDE22:
.LSFDE24:
	.4byte	.LEFDE24-.LASFDE24
.LASFDE24:
	.4byte	.Lframe0
	.4byte	.LFB154
	.4byte	.LFE154-.LFB154
	.byte	0x4
	.4byte	.LCFI30-.LFB154
	.byte	0xe
	.uleb128 0x4
	.byte	0x8e
	.uleb128 0x1
	.byte	0x4
	.4byte	.LCFI31-.LCFI30
	.byte	0xe
	.uleb128 0x10
	.byte	0x4
	.4byte	.LCFI32-.LCFI31
	.byte	0xe
	.uleb128 0x4
	.align	2
.LEFDE24:
	.text
.Letext0:
	.file 3 "C:\\nRF5_SDK_15.0.0_a53641a\\components\\libraries\\atomic_fifo\\nrf_atfifo.h"