	.cpu cortex-m4
	.eabi_attribute 27, 1
	.eabi_attribute 28, 1
	.eabi_attribute 20, 1
	.eabi_attribute 21, 1
	.eabi_attribute 23, 3
	.eabi_attribute 24, 1
	.eabi_attribute 25, 1
	.eabi_attribute 26, 1
	.eabi_attribute 30, 6
	.eabi_attribute 34, 1
	.eabi_attribute 18, 4
	.file	"nrfx_gpiote.c"
	.text
.Ltext0:
	.section	.text.NVIC_EnableIRQ,"ax",%progbits
	.align	1
	.syntax unified
	.thumb
	.thumb_func
	.fpu fpv4-sp-d16
	.type	NVIC_EnableIRQ, %function
NVIC_EnableIRQ:
.LFB108:
	.file 1 "../../../../../../components/toolchain/cmsis/include/core_cm4.h"
	.loc 1 1627 1
	@ args = 0, pretend = 0, frame = 8
	@ frame_needed = 0, uses_anonymous_args = 0
	@ link register save eliminated.
	sub	sp, sp, #8
.LCFI0:
	mov	r3, r0
	strb	r3, [sp, #7]
	.loc 1 1628 137
	ldrb	r3, [sp, #7]	@ zero_extendqisi2
	and	r2, r3, #31
	.loc 1 1628 47
	ldr	r1, .L2
	.loc 1 1628 56
	ldrsb	r3, [sp, #7]
	.loc 1 1628 81
	lsrs	r3, r3, #5
	.loc 1 1628 107
	movs	r0, #1
	lsl	r2, r0, r2
	.loc 1 1628 90
	str	r2, [r1, r3, lsl #2]
	.loc 1 1629 1
	nop
	add	sp, sp, #8
.LCFI1:
	@ sp needed
	bx	lr
.L3:
	.align	2
.L2:
	.word	-536813312
.LFE108:
	.size	NVIC_EnableIRQ, .-NVIC_EnableIRQ
	.section	.text.NVIC_ClearPendingIRQ,"ax",%progbits
	.align	1
	.syntax unified
	.thumb
	.thumb_func
	.fpu fpv4-sp-d16
	.type	NVIC_ClearPendingIRQ, %function
NVIC_ClearPendingIRQ:
.LFB112:
	.loc 1 1673 1
	@ args = 0, pretend = 0, frame = 8
	@ frame_needed = 0, uses_anonymous_args = 0
	@ link register save eliminated.
	sub	sp, sp, #8
.LCFI2:
	mov	r3, r0
	strb	r3, [sp, #7]
	.loc 1 1674 137
	ldrb	r3, [sp, #7]	@ zero_extendqisi2
	and	r2, r3, #31
	.loc 1 1674 47
	ldr	r1, .L5
	.loc 1 1674 56
	ldrsb	r3, [sp, #7]
	.loc 1 1674 81
	lsrs	r3, r3, #5
	.loc 1 1674 107
	movs	r0, #1
	lsl	r2, r0, r2
	.loc 1 1674 90
	adds	r3, r3, #96
	str	r2, [r1, r3, lsl #2]
	.loc 1 1675 1
	nop
	add	sp, sp, #8
.LCFI3:
	@ sp needed
	bx	lr
.L6:
	.align	2
.L5:
	.word	-536813312
.LFE112:
	.size	NVIC_ClearPendingIRQ, .-NVIC_ClearPendingIRQ
	.section	.text.NVIC_SetPriority,"ax",%progbits
	.align	1
	.syntax unified
	.thumb
	.thumb_func
	.fpu fpv4-sp-d16
	.type	NVIC_SetPriority, %function
NVIC_SetPriority:
.LFB114:
	.loc 1 1699 1
	@ args = 0, pretend = 0, frame = 8
	@ frame_needed = 0, uses_anonymous_args = 0
	@ link register save eliminated.
	sub	sp, sp, #8
.LCFI4:
	mov	r3, r0
	str	r1, [sp]
	strb	r3, [sp, #7]
	.loc 1 1700 6
	ldrsb	r3, [sp, #7]
	cmp	r3, #0
	bge	.L8
	.loc 1 1702 97
	ldr	r3, [sp]
	uxtb	r2, r3
	.loc 1 1702 48
	ldr	r1, .L11
	.loc 1 1702 81
	ldrb	r3, [sp, #7]	@ zero_extendqisi2
	and	r3, r3, #15
	.loc 1 1702 89
	subs	r3, r3, #4
	.loc 1 1702 97
	lsls	r2, r2, #5
	uxtb	r2, r2
	.loc 1 1702 95
	add	r3, r3, r1
	strb	r2, [r3, #24]
	.loc 1 1708 1
	b	.L10
.L8:
	.loc 1 1706 83
	ldr	r3, [sp]
	uxtb	r2, r3
	.loc 1 1706 49
	ldr	r1, .L11+4
	.loc 1 1706 55
	ldrsb	r3, [sp, #7]
	.loc 1 1706 83
	lsls	r2, r2, #5
	uxtb	r2, r2
	.loc 1 1706 81
	add	r3, r3, r1
	strb	r2, [r3, #768]
.L10:
	.loc 1 1708 1
	nop
	add	sp, sp, #8
.LCFI5:
	@ sp needed
	bx	lr
.L12:
	.align	2
.L11:
	.word	-536810240
	.word	-536813312
.LFE114:
	.size	NVIC_SetPriority, .-NVIC_SetPriority
	.section	.text._NRFX_IRQ_PRIORITY_SET,"ax",%progbits
	.align	1
	.syntax unified
	.thumb
	.thumb_func
	.fpu fpv4-sp-d16
	.type	_NRFX_IRQ_PRIORITY_SET, %function
_NRFX_IRQ_PRIORITY_SET:
.LFB146:
	.file 2 "../../../../../../integration/nrfx/nrfx_glue.h"
	.loc 2 106 1
	@ args = 0, pretend = 0, frame = 8
	@ frame_needed = 0, uses_anonymous_args = 0
	push	{lr}
.LCFI6:
	sub	sp, sp, #12
.LCFI7:
	mov	r3, r0
	mov	r2, r1
	strb	r3, [sp, #7]
	mov	r3, r2
	strb	r3, [sp, #6]
	.loc 2 108 5
	ldrb	r2, [sp, #6]	@ zero_extendqisi2
	ldrsb	r3, [sp, #7]
	mov	r1, r2
	mov	r0, r3
	bl	NVIC_SetPriority
	.loc 2 109 1
	nop
	add	sp, sp, #12
.LCFI8:
	@ sp needed
	ldr	pc, [sp], #4
.LFE146:
	.size	_NRFX_IRQ_PRIORITY_SET, .-_NRFX_IRQ_PRIORITY_SET
	.section	.text._NRFX_IRQ_ENABLE,"ax",%progbits
	.align	1
	.syntax unified
	.thumb
	.thumb_func
	.fpu fpv4-sp-d16
	.type	_NRFX_IRQ_ENABLE, %function
_NRFX_IRQ_ENABLE:
.LFB147:
	.loc 2 118 1
	@ args = 0, pretend = 0, frame = 8
	@ frame_needed = 0, uses_anonymous_args = 0
	push	{lr}
.LCFI9:
	sub	sp, sp, #12
.LCFI10:
	mov	r3, r0
	strb	r3, [sp, #7]
	.loc 2 119 5
	ldrsb	r3, [sp, #7]
	mov	r0, r3
	bl	NVIC_ClearPendingIRQ
	.loc 2 120 5
	ldrsb	r3, [sp, #7]
	mov	r0, r3
	bl	NVIC_EnableIRQ
	.loc 2 121 1
	nop
	add	sp, sp, #12
.LCFI11:
	@ sp needed
	ldr	pc, [sp], #4
.LFE147:
	.size	_NRFX_IRQ_ENABLE, .-_NRFX_IRQ_ENABLE
	.section	.text.sd_mutex_new,"ax",%progbits
	.align	1
	.syntax unified
	.thumb
	.thumb_func
	.fpu fpv4-sp-d16
	.type	sd_mutex_new, %function
sd_mutex_new:
.LFB153:
	.file 3 "../../../../../../components/softdevice/s132/headers/nrf_soc.h"
	.loc 3 393 101
	@ Naked Function: prologue and epilogue provided by programmer.
	@ args = 0, pretend = 0, frame = 0
	@ frame_needed = 0, uses_anonymous_args = 0
	.loc 3 393 103
	.syntax unified
@ 393 "../../../../../../components/softdevice/s132/headers/nrf_soc.h" 1
	svc #44
bx r14
@ 0 "" 2
	.loc 3 393 2
	.thumb
	.syntax unified
	nop
	mov	r0, r3
.LFE153:
	.size	sd_mutex_new, .-sd_mutex_new
	.section	.text.sd_mutex_acquire,"ax",%progbits
	.align	1
	.syntax unified
	.thumb
	.thumb_func
	.fpu fpv4-sp-d16
	.type	sd_mutex_acquire, %function
sd_mutex_acquire:
.LFB154:
	.loc 3 402 105
	@ Naked Function: prologue and epilogue provided by programmer.
	@ args = 0, pretend = 0, frame = 0
	@ frame_needed = 0, uses_anonymous_args = 0
	.loc 3 402 107
	.syntax unified
@ 402 "../../../../../../components/softdevice/s132/headers/nrf_soc.h" 1
	svc #45
bx r14
@ 0 "" 2
	.loc 3 402 2
	.thumb
	.syntax unified
	nop
	mov	r0, r3
.LFE154:
	.size	sd_mutex_acquire, .-sd_mutex_acquire
	.section	.text.sd_mutex_release,"ax",%progbits
	.align	1
	.syntax unified
	.thumb
	.thumb_func
	.fpu fpv4-sp-d16
	.type	sd_mutex_release, %function
sd_mutex_release:
.LFB155:
	.loc 3 410 105
	@ Naked Function: prologue and epilogue provided by programmer.
	@ args = 0, pretend = 0, frame = 0
	@ frame_needed = 0, uses_anonymous_args = 0
	.loc 3 410 107
	.syntax unified
@ 410 "../../../../../../components/softdevice/s132/headers/nrf_soc.h" 1
	svc #46
bx r14
@ 0 "" 2
	.loc 3 410 2
	.thumb
	.syntax unified
	nop
	mov	r0, r3
.LFE155:
	.size	sd_mutex_release, .-sd_mutex_release
	.section	.text.sd_rand_application_pool_capacity_get,"ax",%progbits
	.align	1
	.syntax unified
	.thumb
	.thumb_func
	.fpu fpv4-sp-d16
	.type	sd_rand_application_pool_capacity_get, %function
sd_rand_application_pool_capacity_get:
.LFB156:
	.loc 3 418 130
	@ Naked Function: prologue and epilogue provided by programmer.
	@ args = 0, pretend = 0, frame = 0
	@ frame_needed = 0, uses_anonymous_args = 0
	.loc 3 418 132
	.syntax unified
@ 418 "../../../../../../components/softdevice/s132/headers/nrf_soc.h" 1
	svc #47
bx r14
@ 0 "" 2
	.loc 3 418 2
	.thumb
	.syntax unified
	nop
	mov	r0, r3
.LFE156:
	.size	sd_rand_application_pool_capacity_get, .-sd_rand_application_pool_capacity_get
	.section	.text.sd_rand_application_bytes_available_get,"ax",%progbits
	.align	1
	.syntax unified
	.thumb
	.thumb_func
	.fpu fpv4-sp-d16
	.type	sd_rand_application_bytes_available_get, %function
sd_rand_application_bytes_available_get:
.LFB157:
	.loc 3 426 134
	@ Naked Function: prologue and epilogue provided by programmer.
	@ args = 0, pretend = 0, frame = 0
	@ frame_needed = 0, uses_anonymous_args = 0
	.loc 3 426 136
	.syntax unified
@ 426 "../../../../../../components/softdevice/s132/headers/nrf_soc.h" 1
	svc #48
bx r14
@ 0 "" 2
	.loc 3 426 2
	.thumb
	.syntax unified
	nop
	mov	r0, r3
.LFE157:
	.size	sd_rand_application_bytes_available_get, .-sd_rand_application_bytes_available_get
	.section	.text.sd_rand_application_vector_get,"ax",%progbits
	.align	1
	.syntax unified
	.thumb
	.thumb_func
	.fpu fpv4-sp-d16
	.type	sd_rand_application_vector_get, %function
sd_rand_application_vector_get:
.LFB158:
	.loc 3 436 130
	@ Naked Function: prologue and epilogue provided by programmer.
	@ args = 0, pretend = 0, frame = 0
	@ frame_needed = 0, uses_anonymous_args = 0
	.loc 3 436 132
	.syntax unified
@ 436 "../../../../../../components/softdevice/s132/headers/nrf_soc.h" 1
	svc #49
bx r14
@ 0 "" 2
	.loc 3 436 2
	.thumb
	.syntax unified
	nop
	mov	r0, r3
.LFE158:
	.size	sd_rand_application_vector_get, .-sd_rand_application_vector_get
	.section	.text.sd_power_reset_reason_get,"ax",%progbits
	.align	1
	.syntax unified
	.thumb
	.thumb_func
	.fpu fpv4-sp-d16
	.type	sd_power_reset_reason_get, %function
sd_power_reset_reason_get:
.LFB159:
	.loc 3 444 118
	@ Naked Function: prologue and epilogue provided by programmer.
	@ args = 0, pretend = 0, frame = 0
	@ frame_needed = 0, uses_anonymous_args = 0
	.loc 3 444 120
	.syntax unified
@ 444 "../../../../../../components/softdevice/s132/headers/nrf_soc.h" 1
	svc #52
bx r14
@ 0 "" 2
	.loc 3 444 2
	.thumb
	.syntax unified
	nop
	mov	r0, r3
.LFE159:
	.size	sd_power_reset_reason_get, .-sd_power_reset_reason_get
	.section	.text.sd_power_reset_reason_clr,"ax",%progbits
	.align	1
	.syntax unified
	.thumb
	.thumb_func
	.fpu fpv4-sp-d16
	.type	sd_power_reset_reason_clr, %function
sd_power_reset_reason_clr:
.LFB160:
	.loc 3 452 122
	@ Naked Function: prologue and epilogue provided by programmer.
	@ args = 0, pretend = 0, frame = 0
	@ frame_needed = 0, uses_anonymous_args = 0
	.loc 3 452 124
	.syntax unified
@ 452 "../../../../../../components/softdevice/s132/headers/nrf_soc.h" 1
	svc #53
bx r14
@ 0 "" 2
	.loc 3 452 2
	.thumb
	.syntax unified
	nop
	mov	r0, r3
.LFE160:
	.size	sd_power_reset_reason_clr, .-sd_power_reset_reason_clr
	.section	.text.sd_power_mode_set,"ax",%progbits
	.align	1
	.syntax unified
	.thumb
	.thumb_func
	.fpu fpv4-sp-d16
	.type	sd_power_mode_set, %function
sd_power_mode_set:
.LFB161:
	.loc 3 461 103
	@ Naked Function: prologue and epilogue provided by programmer.
	@ args = 0, pretend = 0, frame = 0
	@ frame_needed = 0, uses_anonymous_args = 0
	.loc 3 461 105
	.syntax unified
@ 461 "../../../../../../components/softdevice/s132/headers/nrf_soc.h" 1
	svc #50
bx r14
@ 0 "" 2
	.loc 3 461 2
	.thumb
	.syntax unified
	nop
	mov	r0, r3
.LFE161:
	.size	sd_power_mode_set, .-sd_power_mode_set
	.section	.text.sd_power_system_off,"ax",%progbits
	.align	1
	.syntax unified
	.thumb
	.thumb_func
	.fpu fpv4-sp-d16
	.type	sd_power_system_off, %function
sd_power_system_off:
.LFB162:
	.loc 3 467 91
	@ Naked Function: prologue and epilogue provided by programmer.
	@ args = 0, pretend = 0, frame = 0
	@ frame_needed = 0, uses_anonymous_args = 0
	.loc 3 467 93
	.syntax unified
@ 467 "../../../../../../components/softdevice/s132/headers/nrf_soc.h" 1
	svc #51
bx r14
@ 0 "" 2
	.loc 3 467 2
	.thumb
	.syntax unified
	nop
	mov	r0, r3
.LFE162:
	.size	sd_power_system_off, .-sd_power_system_off
	.section	.text.sd_power_pof_enable,"ax",%progbits
	.align	1
	.syntax unified
	.thumb
	.thumb_func
	.fpu fpv4-sp-d16
	.type	sd_power_pof_enable, %function
sd_power_pof_enable:
.LFB163:
	.loc 3 478 105
	@ Naked Function: prologue and epilogue provided by programmer.
	@ args = 0, pretend = 0, frame = 0
	@ frame_needed = 0, uses_anonymous_args = 0
	.loc 3 478 107
	.syntax unified
@ 478 "../../../../../../components/softdevice/s132/headers/nrf_soc.h" 1
	svc #54
bx r14
@ 0 "" 2
	.loc 3 478 2
	.thumb
	.syntax unified
	nop
	mov	r0, r3
.LFE163:
	.size	sd_power_pof_enable, .-sd_power_pof_enable
	.section	.text.sd_power_pof_threshold_set,"ax",%progbits
	.align	1
	.syntax unified
	.thumb
	.thumb_func
	.fpu fpv4-sp-d16
	.type	sd_power_pof_threshold_set, %function
sd_power_pof_threshold_set:
.LFB164:
	.loc 3 489 111
	@ Naked Function: prologue and epilogue provided by programmer.
	@ args = 0, pretend = 0, frame = 0
	@ frame_needed = 0, uses_anonymous_args = 0
	.loc 3 489 113
	.syntax unified
@ 489 "../../../../../../components/softdevice/s132/headers/nrf_soc.h" 1
	svc #55
bx r14
@ 0 "" 2
	.loc 3 489 2
	.thumb
	.syntax unified
	nop
	mov	r0, r3
.LFE164:
	.size	sd_power_pof_threshold_set, .-sd_power_pof_threshold_set
	.section	.text.sd_power_ram_power_set,"ax",%progbits
	.align	1
	.syntax unified
	.thumb
	.thumb_func
	.fpu fpv4-sp-d16
	.type	sd_power_ram_power_set, %function
sd_power_ram_power_set:
.LFB165:
	.loc 3 499 126
	@ Naked Function: prologue and epilogue provided by programmer.
	@ args = 0, pretend = 0, frame = 0
	@ frame_needed = 0, uses_anonymous_args = 0
	.loc 3 499 128
	.syntax unified
@ 499 "../../../../../../components/softdevice/s132/headers/nrf_soc.h" 1
	svc #57
bx r14
@ 0 "" 2
	.loc 3 499 2
	.thumb
	.syntax unified
	nop
	mov	r0, r3
.LFE165:
	.size	sd_power_ram_power_set, .-sd_power_ram_power_set
	.section	.text.sd_power_ram_power_clr,"ax",%progbits
	.align	1
	.syntax unified
	.thumb
	.thumb_func
	.fpu fpv4-sp-d16
	.type	sd_power_ram_power_clr, %function
sd_power_ram_power_clr:
.LFB166:
	.loc 3 508 126
	@ Naked Function: prologue and epilogue provided by programmer.
	@ args = 0, pretend = 0, frame = 0
	@ frame_needed = 0, uses_anonymous_args = 0
	.loc 3 508 128
	.syntax unified
@ 508 "../../../../../../components/softdevice/s132/headers/nrf_soc.h" 1
	svc #58
bx r14
@ 0 "" 2
	.loc 3 508 2
	.thumb
	.syntax unified
	nop
	mov	r0, r3
.LFE166:
	.size	sd_power_ram_power_clr, .-sd_power_ram_power_clr
	.section	.text.sd_power_ram_power_get,"ax",%progbits
	.align	1
	.syntax unified
	.thumb
	.thumb_func
	.fpu fpv4-sp-d16
	.type	sd_power_ram_power_get, %function
sd_power_ram_power_get:
.LFB167:
	.loc 3 517 127
	@ Naked Function: prologue and epilogue provided by programmer.
	@ args = 0, pretend = 0, frame = 0
	@ frame_needed = 0, uses_anonymous_args = 0
	.loc 3 517 129
	.syntax unified
@ 517 "../../../../../../components/softdevice/s132/headers/nrf_soc.h" 1
	svc #59
bx r14
@ 0 "" 2
	.loc 3 517 2
	.thumb
	.syntax unified
	nop
	mov	r0, r3
.LFE167:
	.size	sd_power_ram_power_get, .-sd_power_ram_power_get
	.section	.text.sd_power_gpregret_set,"ax",%progbits
	.align	1
	.syntax unified
	.thumb
	.thumb_func
	.fpu fpv4-sp-d16
	.type	sd_power_gpregret_set, %function
sd_power_gpregret_set:
.LFB168:
	.loc 3 526 132
	@ Naked Function: prologue and epilogue provided by programmer.
	@ args = 0, pretend = 0, frame = 0
	@ frame_needed = 0, uses_anonymous_args = 0
	.loc 3 526 134
	.syntax unified
@ 526 "../../../../../../components/softdevice/s132/headers/nrf_soc.h" 1
	svc #60
bx r14
@ 0 "" 2
	.loc 3 526 2
	.thumb
	.syntax unified
	nop
	mov	r0, r3
.LFE168:
	.size	sd_power_gpregret_set, .-sd_power_gpregret_set
	.section	.text.sd_power_gpregret_clr,"ax",%progbits
	.align	1
	.syntax unified
	.thumb
	.thumb_func
	.fpu fpv4-sp-d16
	.type	sd_power_gpregret_clr, %function
sd_power_gpregret_clr:
.LFB169:
	.loc 3 535 132
	@ Naked Function: prologue and epilogue provided by programmer.
	@ args = 0, pretend = 0, frame = 0
	@ frame_needed = 0, uses_anonymous_args = 0
	.loc 3 535 134
	.syntax unified
@ 535 "../../../../../../components/softdevice/s132/headers/nrf_soc.h" 1
	svc #61
bx r14
@ 0 "" 2
	.loc 3 535 2
	.thumb
	.syntax unified
	nop
	mov	r0, r3
.LFE169:
	.size	sd_power_gpregret_clr, .-sd_power_gpregret_clr
	.section	.text.sd_power_gpregret_get,"ax",%progbits
	.align	1
	.syntax unified
	.thumb
	.thumb_func
	.fpu fpv4-sp-d16
	.type	sd_power_gpregret_get, %function
sd_power_gpregret_get:
.LFB170:
	.loc 3 544 131
	@ Naked Function: prologue and epilogue provided by programmer.
	@ args = 0, pretend = 0, frame = 0
	@ frame_needed = 0, uses_anonymous_args = 0
	.loc 3 544 133
	.syntax unified
@ 544 "../../../../../../components/softdevice/s132/headers/nrf_soc.h" 1
	svc #62
bx r14
@ 0 "" 2
	.loc 3 544 2
	.thumb
	.syntax unified
	nop
	mov	r0, r3
.LFE170:
	.size	sd_power_gpregret_get, .-sd_power_gpregret_get
	.section	.text.sd_power_dcdc_mode_set,"ax",%progbits
	.align	1
	.syntax unified
	.thumb
	.thumb_func
	.fpu fpv4-sp-d16
	.type	sd_power_dcdc_mode_set, %function
sd_power_dcdc_mode_set:
.LFB171:
	.loc 3 553 107
	@ Naked Function: prologue and epilogue provided by programmer.
	@ args = 0, pretend = 0, frame = 0
	@ frame_needed = 0, uses_anonymous_args = 0
	.loc 3 553 109
	.syntax unified
@ 553 "../../../../../../components/softdevice/s132/headers/nrf_soc.h" 1
	svc #63
bx r14
@ 0 "" 2
	.loc 3 553 2
	.thumb
	.syntax unified
	nop
	mov	r0, r3
.LFE171:
	.size	sd_power_dcdc_mode_set, .-sd_power_dcdc_mode_set
	.section	.text.sd_clock_hfclk_request,"ax",%progbits
	.align	1
	.syntax unified
	.thumb
	.thumb_func
	.fpu fpv4-sp-d16
	.type	sd_clock_hfclk_request, %function
sd_clock_hfclk_request:
.LFB172:
	.loc 3 566 94
	@ Naked Function: prologue and epilogue provided by programmer.
	@ args = 0, pretend = 0, frame = 0
	@ frame_needed = 0, uses_anonymous_args = 0
	.loc 3 566 96
	.syntax unified
@ 566 "../../../../../../components/softdevice/s132/headers/nrf_soc.h" 1
	svc #66
bx r14
@ 0 "" 2
	.loc 3 566 2
	.thumb
	.syntax unified
	nop
	mov	r0, r3
.LFE172:
	.size	sd_clock_hfclk_request, .-sd_clock_hfclk_request
	.section	.text.sd_clock_hfclk_release,"ax",%progbits
	.align	1
	.syntax unified
	.thumb
	.thumb_func
	.fpu fpv4-sp-d16
	.type	sd_clock_hfclk_release, %function
sd_clock_hfclk_release:
.LFB173:
	.loc 3 577 94
	@ Naked Function: prologue and epilogue provided by programmer.
	@ args = 0, pretend = 0, frame = 0
	@ frame_needed = 0, uses_anonymous_args = 0
	.loc 3 577 96
	.syntax unified
@ 577 "../../../../../../components/softdevice/s132/headers/nrf_soc.h" 1
	svc #67
bx r14
@ 0 "" 2
	.loc 3 577 2
	.thumb
	.syntax unified
	nop
	mov	r0, r3
.LFE173:
	.size	sd_clock_hfclk_release, .-sd_clock_hfclk_release
	.section	.text.sd_clock_hfclk_is_running,"ax",%progbits
	.align	1
	.syntax unified
	.thumb
	.thumb_func
	.fpu fpv4-sp-d16
	.type	sd_clock_hfclk_is_running, %function
sd_clock_hfclk_is_running:
.LFB174:
	.loc 3 588 116
	@ Naked Function: prologue and epilogue provided by programmer.
	@ args = 0, pretend = 0, frame = 0
	@ frame_needed = 0, uses_anonymous_args = 0
	.loc 3 588 118
	.syntax unified
@ 588 "../../../../../../components/softdevice/s132/headers/nrf_soc.h" 1
	svc #68
bx r14
@ 0 "" 2
	.loc 3 588 2
	.thumb
	.syntax unified
	nop
	mov	r0, r3
.LFE174:
	.size	sd_clock_hfclk_is_running, .-sd_clock_hfclk_is_running
	.section	.text.sd_app_evt_wait,"ax",%progbits
	.align	1
	.syntax unified
	.thumb
	.thumb_func
	.fpu fpv4-sp-d16
	.type	sd_app_evt_wait, %function
sd_app_evt_wait:
.LFB175:
	.loc 3 616 87
	@ Naked Function: prologue and epilogue provided by programmer.
	@ args = 0, pretend = 0, frame = 0
	@ frame_needed = 0, uses_anonymous_args = 0
	.loc 3 616 89
	.syntax unified
@ 616 "../../../../../../components/softdevice/s132/headers/nrf_soc.h" 1
	svc #65
bx r14
@ 0 "" 2
	.loc 3 616 2
	.thumb
	.syntax unified
	nop
	mov	r0, r3
.LFE175:
	.size	sd_app_evt_wait, .-sd_app_evt_wait
	.section	.text.sd_ppi_channel_enable_get,"ax",%progbits
	.align	1
	.syntax unified
	.thumb
	.thumb_func
	.fpu fpv4-sp-d16
	.type	sd_ppi_channel_enable_get, %function
sd_ppi_channel_enable_get:
.LFB176:
	.loc 3 624 120
	@ Naked Function: prologue and epilogue provided by programmer.
	@ args = 0, pretend = 0, frame = 0
	@ frame_needed = 0, uses_anonymous_args = 0
	.loc 3 624 122
	.syntax unified
@ 624 "../../../../../../components/softdevice/s132/headers/nrf_soc.h" 1
	svc #32
bx r14
@ 0 "" 2
	.loc 3 624 2
	.thumb
	.syntax unified
	nop
	mov	r0, r3
.LFE176:
	.size	sd_ppi_channel_enable_get, .-sd_ppi_channel_enable_get
	.section	.text.sd_ppi_channel_enable_set,"ax",%progbits
	.align	1
	.syntax unified
	.thumb
	.thumb_func
	.fpu fpv4-sp-d16
	.type	sd_ppi_channel_enable_set, %function
sd_ppi_channel_enable_set:
.LFB177:
	.loc 3 632 124
	@ Naked Function: prologue and epilogue provided by programmer.
	@ args = 0, pretend = 0, frame = 0
	@ frame_needed = 0, uses_anonymous_args = 0
	.loc 3 632 126
	.syntax unified
@ 632 "../../../../../../components/softdevice/s132/headers/nrf_soc.h" 1
	svc #33
bx r14
@ 0 "" 2
	.loc 3 632 2
	.thumb
	.syntax unified
	nop
	mov	r0, r3
.LFE177:
	.size	sd_ppi_channel_enable_set, .-sd_ppi_channel_enable_set
	.section	.text.sd_ppi_channel_enable_clr,"ax",%progbits
	.align	1
	.syntax unified
	.thumb
	.thumb_func
	.fpu fpv4-sp-d16
	.type	sd_ppi_channel_enable_clr, %function
sd_ppi_channel_enable_clr:
.LFB178:
	.loc 3 640 124
	@ Naked Function: prologue and epilogue provided by programmer.
	@ args = 0, pretend = 0, frame = 0
	@ frame_needed = 0, uses_anonymous_args = 0
	.loc 3 640 126
	.syntax unified
@ 640 "../../../../../../components/softdevice/s132/headers/nrf_soc.h" 1
	svc #34
bx r14
@ 0 "" 2
	.loc 3 640 2
	.thumb
	.syntax unified
	nop
	mov	r0, r3
.LFE178:
	.size	sd_ppi_channel_enable_clr, .-sd_ppi_channel_enable_clr
	.section	.text.sd_ppi_channel_assign,"ax",%progbits
	.align	1
	.syntax unified
	.thumb
	.thumb_func
	.fpu fpv4-sp-d16
	.type	sd_ppi_channel_assign, %function
sd_ppi_channel_assign:
.LFB179:
	.loc 3 651 181
	@ Naked Function: prologue and epilogue provided by programmer.
	@ args = 0, pretend = 0, frame = 0
	@ frame_needed = 0, uses_anonymous_args = 0
	.loc 3 651 183
	.syntax unified
@ 651 "../../../../../../components/softdevice/s132/headers/nrf_soc.h" 1
	svc #35
bx r14
@ 0 "" 2
	.loc 3 651 2
	.thumb
	.syntax unified
	nop
	mov	r0, r3
.LFE179:
	.size	sd_ppi_channel_assign, .-sd_ppi_channel_assign
	.section	.text.sd_ppi_group_task_enable,"ax",%progbits
	.align	1
	.syntax unified
	.thumb
	.thumb_func
	.fpu fpv4-sp-d16
	.type	sd_ppi_group_task_enable, %function
sd_ppi_group_task_enable:
.LFB180:
	.loc 3 660 109
	@ Naked Function: prologue and epilogue provided by programmer.
	@ args = 0, pretend = 0, frame = 0
	@ frame_needed = 0, uses_anonymous_args = 0
	.loc 3 660 111
	.syntax unified
@ 660 "../../../../../../components/softdevice/s132/headers/nrf_soc.h" 1
	svc #36
bx r14
@ 0 "" 2
	.loc 3 660 2
	.thumb
	.syntax unified
	nop
	mov	r0, r3
.LFE180:
	.size	sd_ppi_group_task_enable, .-sd_ppi_group_task_enable
	.section	.text.sd_ppi_group_task_disable,"ax",%progbits
	.align	1
	.syntax unified
	.thumb
	.thumb_func
	.fpu fpv4-sp-d16
	.type	sd_ppi_group_task_disable, %function
sd_ppi_group_task_disable:
.LFB181:
	.loc 3 669 110
	@ Naked Function: prologue and epilogue provided by programmer.
	@ args = 0, pretend = 0, frame = 0
	@ frame_needed = 0, uses_anonymous_args = 0
	.loc 3 669 112
	.syntax unified
@ 669 "../../../../../../components/softdevice/s132/headers/nrf_soc.h" 1
	svc #37
bx r14
@ 0 "" 2
	.loc 3 669 2
	.thumb
	.syntax unified
	nop
	mov	r0, r3
.LFE181:
	.size	sd_ppi_group_task_disable, .-sd_ppi_group_task_disable
	.section	.text.sd_ppi_group_assign,"ax",%progbits
	.align	1
	.syntax unified
	.thumb
	.thumb_func
	.fpu fpv4-sp-d16
	.type	sd_ppi_group_assign, %function
sd_ppi_group_assign:
.LFB182:
	.loc 3 679 126
	@ Naked Function: prologue and epilogue provided by programmer.
	@ args = 0, pretend = 0, frame = 0
	@ frame_needed = 0, uses_anonymous_args = 0
	.loc 3 679 128
	.syntax unified
@ 679 "../../../../../../components/softdevice/s132/headers/nrf_soc.h" 1
	svc #38
bx r14
@ 0 "" 2
	.loc 3 679 2
	.thumb
	.syntax unified
	nop
	mov	r0, r3
.LFE182:
	.size	sd_ppi_group_assign, .-sd_ppi_group_assign
	.section	.text.sd_ppi_group_get,"ax",%progbits
	.align	1
	.syntax unified
	.thumb
	.thumb_func
	.fpu fpv4-sp-d16
	.type	sd_ppi_group_get, %function
sd_ppi_group_get:
.LFB183:
	.loc 3 689 127
	@ Naked Function: prologue and epilogue provided by programmer.
	@ args = 0, pretend = 0, frame = 0
	@ frame_needed = 0, uses_anonymous_args = 0
	.loc 3 689 129
	.syntax unified
@ 689 "../../../../../../components/softdevice/s132/headers/nrf_soc.h" 1
	svc #39
bx r14
@ 0 "" 2
	.loc 3 689 2
	.thumb
	.syntax unified
	nop
	mov	r0, r3
.LFE183:
	.size	sd_ppi_group_get, .-sd_ppi_group_get
	.section	.text.sd_radio_notification_cfg_set,"ax",%progbits
	.align	1
	.syntax unified
	.thumb
	.thumb_func
	.fpu fpv4-sp-d16
	.type	sd_radio_notification_cfg_set, %function
sd_radio_notification_cfg_set:
.LFB184:
	.loc 3 720 127
	@ Naked Function: prologue and epilogue provided by programmer.
	@ args = 0, pretend = 0, frame = 0
	@ frame_needed = 0, uses_anonymous_args = 0
	.loc 3 720 129
	.syntax unified
@ 720 "../../../../../../components/softdevice/s132/headers/nrf_soc.h" 1
	svc #69
bx r14
@ 0 "" 2
	.loc 3 720 2
	.thumb
	.syntax unified
	nop
	mov	r0, r3
.LFE184:
	.size	sd_radio_notification_cfg_set, .-sd_radio_notification_cfg_set
	.section	.text.sd_ecb_block_encrypt,"ax",%progbits
	.align	1
	.syntax unified
	.thumb
	.thumb_func
	.fpu fpv4-sp-d16
	.type	sd_ecb_block_encrypt, %function
sd_ecb_block_encrypt:
.LFB185:
	.loc 3 736 119
	@ Naked Function: prologue and epilogue provided by programmer.
	@ args = 0, pretend = 0, frame = 0
	@ frame_needed = 0, uses_anonymous_args = 0
	.loc 3 736 121
	.syntax unified
@ 736 "../../../../../../components/softdevice/s132/headers/nrf_soc.h" 1
	svc #70
bx r14
@ 0 "" 2
	.loc 3 736 2
	.thumb
	.syntax unified
	nop
	mov	r0, r3
.LFE185:
	.size	sd_ecb_block_encrypt, .-sd_ecb_block_encrypt
	.section	.text.sd_ecb_blocks_encrypt,"ax",%progbits
	.align	1
	.syntax unified
	.thumb
	.thumb_func
	.fpu fpv4-sp-d16
	.type	sd_ecb_blocks_encrypt, %function
sd_ecb_blocks_encrypt:
.LFB186:
	.loc 3 753 150
	@ Naked Function: prologue and epilogue provided by programmer.
	@ args = 0, pretend = 0, frame = 0
	@ frame_needed = 0, uses_anonymous_args = 0
	.loc 3 753 152
	.syntax unified
@ 753 "../../../../../../components/softdevice/s132/headers/nrf_soc.h" 1
	svc #71
bx r14
@ 0 "" 2
	.loc 3 753 2
	.thumb
	.syntax unified
	nop
	mov	r0, r3
.LFE186:
	.size	sd_ecb_blocks_encrypt, .-sd_ecb_blocks_encrypt
	.section	.text.sd_evt_get,"ax",%progbits
	.align	1
	.syntax unified
	.thumb
	.thumb_func
	.fpu fpv4-sp-d16
	.type	sd_evt_get, %function
sd_evt_get:
.LFB187:
	.loc 3 764 97
	@ Naked Function: prologue and epilogue provided by programmer.
	@ args = 0, pretend = 0, frame = 0
	@ frame_needed = 0, uses_anonymous_args = 0
	.loc 3 764 99
	.syntax unified
@ 764 "../../../../../../components/softdevice/s132/headers/nrf_soc.h" 1
	svc #75
bx r14
@ 0 "" 2
	.loc 3 764 2
	.thumb
	.syntax unified
	nop
	mov	r0, r3
.LFE187:
	.size	sd_evt_get, .-sd_evt_get
	.section	.text.sd_temp_get,"ax",%progbits
	.align	1
	.syntax unified
	.thumb
	.thumb_func
	.fpu fpv4-sp-d16
	.type	sd_temp_get, %function
sd_temp_get:
.LFB188:
	.loc 3 775 95
	@ Naked Function: prologue and epilogue provided by programmer.
	@ args = 0, pretend = 0, frame = 0
	@ frame_needed = 0, uses_anonymous_args = 0
	.loc 3 775 97
	.syntax unified
@ 775 "../../../../../../components/softdevice/s132/headers/nrf_soc.h" 1
	svc #76
bx r14
@ 0 "" 2
	.loc 3 775 2
	.thumb
	.syntax unified
	nop
	mov	r0, r3
.LFE188:
	.size	sd_temp_get, .-sd_temp_get
	.section	.text.sd_flash_write,"ax",%progbits
	.align	1
	.syntax unified
	.thumb
	.thumb_func
	.fpu fpv4-sp-d16
	.type	sd_flash_write, %function
sd_flash_write:
.LFB189:
	.loc 3 812 137
	@ Naked Function: prologue and epilogue provided by programmer.
	@ args = 0, pretend = 0, frame = 0
	@ frame_needed = 0, uses_anonymous_args = 0
	.loc 3 812 139
	.syntax unified
@ 812 "../../../../../../components/softdevice/s132/headers/nrf_soc.h" 1
	svc #41
bx r14
@ 0 "" 2
	.loc 3 812 2
	.thumb
	.syntax unified
	nop
	mov	r0, r3
.LFE189:
	.size	sd_flash_write, .-sd_flash_write
	.section	.text.sd_flash_page_erase,"ax",%progbits
	.align	1
	.syntax unified
	.thumb
	.thumb_func
	.fpu fpv4-sp-d16
	.type	sd_flash_page_erase, %function
sd_flash_page_erase:
.LFB190:
	.loc 3 844 107
	@ Naked Function: prologue and epilogue provided by programmer.
	@ args = 0, pretend = 0, frame = 0
	@ frame_needed = 0, uses_anonymous_args = 0
	.loc 3 844 109
	.syntax unified
@ 844 "../../../../../../components/softdevice/s132/headers/nrf_soc.h" 1
	svc #40
bx r14
@ 0 "" 2
	.loc 3 844 2
	.thumb
	.syntax unified
	nop
	mov	r0, r3
.LFE190:
	.size	sd_flash_page_erase, .-sd_flash_page_erase
	.section	.text.sd_flash_protect,"ax",%progbits
	.align	1
	.syntax unified
	.thumb
	.thumb_func
	.fpu fpv4-sp-d16
	.type	sd_flash_protect, %function
sd_flash_protect:
.LFB191:
	.loc 3 867 166
	@ Naked Function: prologue and epilogue provided by programmer.
	@ args = 0, pretend = 0, frame = 0
	@ frame_needed = 0, uses_anonymous_args = 0
	.loc 3 867 168
	.syntax unified
@ 867 "../../../../../../components/softdevice/s132/headers/nrf_soc.h" 1
	svc #42
bx r14
@ 0 "" 2
	.loc 3 867 2
	.thumb
	.syntax unified
	nop
	mov	r0, r3
.LFE191:
	.size	sd_flash_protect, .-sd_flash_protect
	.section	.text.sd_radio_session_open,"ax",%progbits
	.align	1
	.syntax unified
	.thumb
	.thumb_func
	.fpu fpv4-sp-d16
	.type	sd_radio_session_open, %function
sd_radio_session_open:
.LFB192:
	.loc 3 889 140
	@ Naked Function: prologue and epilogue provided by programmer.
	@ args = 0, pretend = 0, frame = 0
	@ frame_needed = 0, uses_anonymous_args = 0
	.loc 3 889 142
	.syntax unified
@ 889 "../../../../../../components/softdevice/s132/headers/nrf_soc.h" 1
	svc #72
bx r14
@ 0 "" 2
	.loc 3 889 2
	.thumb
	.syntax unified
	nop
	mov	r0, r3
.LFE192:
	.size	sd_radio_session_open, .-sd_radio_session_open
	.section	.text.sd_radio_session_close,"ax",%progbits
	.align	1
	.syntax unified
	.thumb
	.thumb_func
	.fpu fpv4-sp-d16
	.type	sd_radio_session_close, %function
sd_radio_session_close:
.LFB193:
	.loc 3 902 94
	@ Naked Function: prologue and epilogue provided by programmer.
	@ args = 0, pretend = 0, frame = 0
	@ frame_needed = 0, uses_anonymous_args = 0
	.loc 3 902 96
	.syntax unified
@ 902 "../../../../../../components/softdevice/s132/headers/nrf_soc.h" 1
	svc #73
bx r14
@ 0 "" 2
	.loc 3 902 2
	.thumb
	.syntax unified
	nop
	mov	r0, r3
.LFE193:
	.size	sd_radio_session_close, .-sd_radio_session_close
	.section	.text.sd_radio_request,"ax",%progbits
	.align	1
	.syntax unified
	.thumb
	.thumb_func
	.fpu fpv4-sp-d16
	.type	sd_radio_request, %function
sd_radio_request:
.LFB194:
	.loc 3 934 121
	@ Naked Function: prologue and epilogue provided by programmer.
	@ args = 0, pretend = 0, frame = 0
	@ frame_needed = 0, uses_anonymous_args = 0
	.loc 3 934 123
	.syntax unified
@ 934 "../../../../../../components/softdevice/s132/headers/nrf_soc.h" 1
	svc #74
bx r14
@ 0 "" 2
	.loc 3 934 2
	.thumb
	.syntax unified
	nop
	mov	r0, r3
.LFE194:
	.size	sd_radio_request, .-sd_radio_request
	.section	.text.sd_protected_register_write,"ax",%progbits
	.align	1
	.syntax unified
	.thumb
	.thumb_func
	.fpu fpv4-sp-d16
	.type	sd_protected_register_write, %function
sd_protected_register_write:
.LFB195:
	.loc 3 955 141
	@ Naked Function: prologue and epilogue provided by programmer.
	@ args = 0, pretend = 0, frame = 0
	@ frame_needed = 0, uses_anonymous_args = 0
	.loc 3 955 143
	.syntax unified
@ 955 "../../../../../../components/softdevice/s132/headers/nrf_soc.h" 1
	svc #43
bx r14
@ 0 "" 2
	.loc 3 955 2
	.thumb
	.syntax unified
	nop
	mov	r0, r3
.LFE195:
	.size	sd_protected_register_write, .-sd_protected_register_write
	.section	.text.nrf_gpiote_task_set,"ax",%progbits
	.align	1
	.syntax unified
	.thumb
	.thumb_func
	.fpu fpv4-sp-d16
	.type	nrf_gpiote_task_set, %function
nrf_gpiote_task_set:
.LFB211:
	.file 4 "../../../../../../modules/nrfx/hal/nrf_gpiote.h"
	.loc 4 306 1
	@ args = 0, pretend = 0, frame = 8
	@ frame_needed = 0, uses_anonymous_args = 0
	@ link register save eliminated.
	sub	sp, sp, #8
.LCFI12:
	mov	r3, r0
	strb	r3, [sp, #7]
	.loc 4 307 73
	ldrb	r3, [sp, #7]	@ zero_extendqisi2
	add	r3, r3, #1073741824
	add	r3, r3, #24576
	.loc 4 307 6
	mov	r2, r3
	.loc 4 307 81
	movs	r3, #1
	str	r3, [r2]
	.loc 4 308 1
	nop
	add	sp, sp, #8
.LCFI13:
	@ sp needed
	bx	lr
.LFE211:
	.size	nrf_gpiote_task_set, .-nrf_gpiote_task_set
	.section	.text.nrf_gpiote_task_addr_get,"ax",%progbits
	.align	1
	.syntax unified
	.thumb
	.thumb_func
	.fpu fpv4-sp-d16
	.type	nrf_gpiote_task_addr_get, %function
nrf_gpiote_task_addr_get:
.LFB212:
	.loc 4 311 1
	@ args = 0, pretend = 0, frame = 8
	@ frame_needed = 0, uses_anonymous_args = 0
	@ link register save eliminated.
	sub	sp, sp, #8
.LCFI14:
	mov	r3, r0
	strb	r3, [sp, #7]
	.loc 4 312 58
	ldrb	r3, [sp, #7]	@ zero_extendqisi2
	add	r3, r3, #1073741824
	add	r3, r3, #24576
	.loc 4 313 1
	mov	r0, r3
	add	sp, sp, #8
.LCFI15:
	@ sp needed
	bx	lr
.LFE212:
	.size	nrf_gpiote_task_addr_get, .-nrf_gpiote_task_addr_get
	.section	.text.nrf_gpiote_event_is_set,"ax",%progbits
	.align	1
	.syntax unified
	.thumb
	.thumb_func
	.fpu fpv4-sp-d16
	.type	nrf_gpiote_event_is_set, %function
nrf_gpiote_event_is_set:
.LFB213:
	.loc 4 316 1
	@ args = 0, pretend = 0, frame = 8
	@ frame_needed = 0, uses_anonymous_args = 0
	push	{lr}
.LCFI16:
	sub	sp, sp, #12
.LCFI17:
	mov	r3, r0
	strh	r3, [sp, #6]	@ movhi
	.loc 4 317 26
	ldrh	r3, [sp, #6]
	mov	r0, r3
	bl	nrf_gpiote_event_addr_get
	mov	r3, r0
	.loc 4 317 13
	ldr	r3, [r3]
	.loc 4 317 75
	cmp	r3, #1
	ite	eq
	moveq	r3, #1
	movne	r3, #0
	uxtb	r3, r3
	.loc 4 318 1
	mov	r0, r3
	add	sp, sp, #12
.LCFI18:
	@ sp needed
	ldr	pc, [sp], #4
.LFE213:
	.size	nrf_gpiote_event_is_set, .-nrf_gpiote_event_is_set
	.section	.text.nrf_gpiote_event_clear,"ax",%progbits
	.align	1
	.syntax unified
	.thumb
	.thumb_func
	.fpu fpv4-sp-d16
	.type	nrf_gpiote_event_clear, %function
nrf_gpiote_event_clear:
.LFB214:
	.loc 4 321 1
	@ args = 0, pretend = 0, frame = 16
	@ frame_needed = 0, uses_anonymous_args = 0
	push	{lr}
.LCFI19:
	sub	sp, sp, #20
.LCFI20:
	mov	r3, r0
	strh	r3, [sp, #6]	@ movhi
	.loc 4 322 18
	ldrh	r3, [sp, #6]
	mov	r0, r3
	bl	nrf_gpiote_event_addr_get
	mov	r3, r0
	.loc 4 322 6
	mov	r2, r3
	.loc 4 322 51
	movs	r3, #0
	str	r3, [r2]
	.loc 4 324 54
	ldrh	r3, [sp, #6]
	mov	r0, r3
	bl	nrf_gpiote_event_addr_get
	mov	r3, r0
	.loc 4 324 31
	ldr	r3, [r3]
	.loc 4 324 23
	str	r3, [sp, #12]
	.loc 4 325 5
	ldr	r3, [sp, #12]
	.loc 4 327 1
	nop
	add	sp, sp, #20
.LCFI21:
	@ sp needed
	ldr	pc, [sp], #4
.LFE214:
	.size	nrf_gpiote_event_clear, .-nrf_gpiote_event_clear
	.section	.text.nrf_gpiote_event_addr_get,"ax",%progbits
	.align	1
	.syntax unified
	.thumb
	.thumb_func
	.fpu fpv4-sp-d16
	.type	nrf_gpiote_event_addr_get, %function
nrf_gpiote_event_addr_get:
.LFB215:
	.loc 4 330 1
	@ args = 0, pretend = 0, frame = 8
	@ frame_needed = 0, uses_anonymous_args = 0
	@ link register save eliminated.
	sub	sp, sp, #8
.LCFI22:
	mov	r3, r0
	strh	r3, [sp, #6]	@ movhi
	.loc 4 331 58
	ldrh	r3, [sp, #6]
	add	r3, r3, #1073741824
	add	r3, r3, #24576
	.loc 4 332 1
	mov	r0, r3
	add	sp, sp, #8
.LCFI23:
	@ sp needed
	bx	lr
.LFE215:
	.size	nrf_gpiote_event_addr_get, .-nrf_gpiote_event_addr_get
	.section	.text.nrf_gpiote_int_enable,"ax",%progbits
	.align	1
	.syntax unified
	.thumb
	.thumb_func
	.fpu fpv4-sp-d16
	.type	nrf_gpiote_int_enable, %function
nrf_gpiote_int_enable:
.LFB216:
	.loc 4 335 1
	@ args = 0, pretend = 0, frame = 8
	@ frame_needed = 0, uses_anonymous_args = 0
	@ link register save eliminated.
	sub	sp, sp, #8
.LCFI24:
	str	r0, [sp, #4]
	.loc 4 336 39
	ldr	r2, .L67
	.loc 4 336 50
	ldr	r3, [sp, #4]
	str	r3, [r2, #772]
	.loc 4 337 1
	nop
	add	sp, sp, #8
.LCFI25:
	@ sp needed
	bx	lr
.L68:
	.align	2
.L67:
	.word	1073766400
.LFE216:
	.size	nrf_gpiote_int_enable, .-nrf_gpiote_int_enable
	.section	.text.nrf_gpiote_int_disable,"ax",%progbits
	.align	1
	.syntax unified
	.thumb
	.thumb_func
	.fpu fpv4-sp-d16
	.type	nrf_gpiote_int_disable, %function
nrf_gpiote_int_disable:
.LFB217:
	.loc 4 340 1
	@ args = 0, pretend = 0, frame = 8
	@ frame_needed = 0, uses_anonymous_args = 0
	@ link register save eliminated.
	sub	sp, sp, #8
.LCFI26:
	str	r0, [sp, #4]
	.loc 4 341 39
	ldr	r2, .L70
	.loc 4 341 50
	ldr	r3, [sp, #4]
	str	r3, [r2, #776]
	.loc 4 342 1
	nop
	add	sp, sp, #8
.LCFI27:
	@ sp needed
	bx	lr
.L71:
	.align	2
.L70:
	.word	1073766400
.LFE217:
	.size	nrf_gpiote_int_disable, .-nrf_gpiote_int_disable
	.section	.text.nrf_gpiote_int_is_enabled,"ax",%progbits
	.align	1
	.syntax unified
	.thumb
	.thumb_func
	.fpu fpv4-sp-d16
	.type	nrf_gpiote_int_is_enabled, %function
nrf_gpiote_int_is_enabled:
.LFB218:
	.loc 4 345 1
	@ args = 0, pretend = 0, frame = 8
	@ frame_needed = 0, uses_anonymous_args = 0
	@ link register save eliminated.
	sub	sp, sp, #8
.LCFI28:
	str	r0, [sp, #4]
	.loc 4 346 47
	ldr	r3, .L74
	ldr	r2, [r3, #772]
	.loc 4 346 58
	ldr	r3, [sp, #4]
	ands	r3, r3, r2
	.loc 4 347 1
	mov	r0, r3
	add	sp, sp, #8
.LCFI29:
	@ sp needed
	bx	lr
.L75:
	.align	2
.L74:
	.word	1073766400
.LFE218:
	.size	nrf_gpiote_int_is_enabled, .-nrf_gpiote_int_is_enabled
	.section	.text.nrf_gpiote_event_enable,"ax",%progbits
	.align	1
	.syntax unified
	.thumb
	.thumb_func
	.fpu fpv4-sp-d16
	.type	nrf_gpiote_event_enable, %function
nrf_gpiote_event_enable:
.LFB219:
	.loc 4 350 1
	@ args = 0, pretend = 0, frame = 8
	@ frame_needed = 0, uses_anonymous_args = 0
	@ link register save eliminated.
	sub	sp, sp, #8
.LCFI30:
	str	r0, [sp, #4]
	.loc 4 351 52
	ldr	r2, .L77
	ldr	r3, [sp, #4]
	add	r3, r3, #324
	ldr	r3, [r2, r3, lsl #2]
	ldr	r1, .L77
	orr	r2, r3, #1
	ldr	r3, [sp, #4]
	add	r3, r3, #324
	str	r2, [r1, r3, lsl #2]
	.loc 4 352 1
	nop
	add	sp, sp, #8
.LCFI31:
	@ sp needed
	bx	lr
.L78:
	.align	2
.L77:
	.word	1073766400
.LFE219:
	.size	nrf_gpiote_event_enable, .-nrf_gpiote_event_enable
	.section	.text.nrf_gpiote_event_disable,"ax",%progbits
	.align	1
	.syntax unified
	.thumb
	.thumb_func
	.fpu fpv4-sp-d16
	.type	nrf_gpiote_event_disable, %function
nrf_gpiote_event_disable:
.LFB220:
	.loc 4 355 1
	@ args = 0, pretend = 0, frame = 8
	@ frame_needed = 0, uses_anonymous_args = 0
	@ link register save eliminated.
	sub	sp, sp, #8
.LCFI32:
	str	r0, [sp, #4]
	.loc 4 356 52
	ldr	r2, .L80
	ldr	r3, [sp, #4]
	add	r3, r3, #324
	ldr	r3, [r2, r3, lsl #2]
	ldr	r1, .L80
	bic	r2, r3, #1
	ldr	r3, [sp, #4]
	add	r3, r3, #324
	str	r2, [r1, r3, lsl #2]
	.loc 4 357 1
	nop
	add	sp, sp, #8
.LCFI33:
	@ sp needed
	bx	lr
.L81:
	.align	2
.L80:
	.word	1073766400
.LFE220:
	.size	nrf_gpiote_event_disable, .-nrf_gpiote_event_disable
	.section	.text.nrf_gpiote_event_configure,"ax",%progbits
	.align	1
	.syntax unified
	.thumb
	.thumb_func
	.fpu fpv4-sp-d16
	.type	nrf_gpiote_event_configure, %function
nrf_gpiote_event_configure:
.LFB221:
	.loc 4 360 1
	@ args = 0, pretend = 0, frame = 16
	@ frame_needed = 0, uses_anonymous_args = 0
	@ link register save eliminated.
	sub	sp, sp, #16
.LCFI34:
	str	r0, [sp, #12]
	str	r1, [sp, #8]
	mov	r3, r2
	strb	r3, [sp, #7]
	.loc 4 361 51
	ldr	r2, .L83
	ldr	r3, [sp, #12]
	add	r3, r3, #324
	ldr	r3, [r2, r3, lsl #2]
	ldr	r1, .L83
	bic	r3, r3, #203776
	bic	r3, r3, #768
	ldr	r2, [sp, #12]
	add	r2, r2, #324
	str	r3, [r1, r2, lsl #2]
	.loc 4 362 51
	ldr	r2, .L83
	ldr	r3, [sp, #12]
	add	r3, r3, #324
	ldr	r2, [r2, r3, lsl #2]
	.loc 4 362 60
	ldr	r3, [sp, #8]
	lsls	r3, r3, #8
	.loc 4 362 70
	and	r1, r3, #7936
	.loc 4 363 42
	ldrb	r3, [sp, #7]	@ zero_extendqisi2
	lsls	r3, r3, #16
	.loc 4 363 53
	and	r3, r3, #196608
	.loc 4 362 91
	orrs	r3, r3, r1
	.loc 4 362 51
	ldr	r1, .L83
	orrs	r2, r2, r3
	ldr	r3, [sp, #12]
	add	r3, r3, #324
	str	r2, [r1, r3, lsl #2]
	.loc 4 364 1
	nop
	add	sp, sp, #16
.LCFI35:
	@ sp needed
	bx	lr
.L84:
	.align	2
.L83:
	.word	1073766400
.LFE221:
	.size	nrf_gpiote_event_configure, .-nrf_gpiote_event_configure
	.section	.text.nrf_gpiote_event_pin_get,"ax",%progbits
	.align	1
	.syntax unified
	.thumb
	.thumb_func
	.fpu fpv4-sp-d16
	.type	nrf_gpiote_event_pin_get, %function
nrf_gpiote_event_pin_get:
.LFB222:
	.loc 4 367 1
	@ args = 0, pretend = 0, frame = 8
	@ frame_needed = 0, uses_anonymous_args = 0
	@ link register save eliminated.
	sub	sp, sp, #8
.LCFI36:
	str	r0, [sp, #4]
	.loc 4 368 48
	ldr	r2, .L87
	.loc 4 368 56
	ldr	r3, [sp, #4]
	add	r3, r3, #324
	ldr	r3, [r2, r3, lsl #2]
	.loc 4 368 83
	lsrs	r3, r3, #8
	and	r3, r3, #31
	.loc 4 369 1
	mov	r0, r3
	add	sp, sp, #8
.LCFI37:
	@ sp needed
	bx	lr
.L88:
	.align	2
.L87:
	.word	1073766400
.LFE222:
	.size	nrf_gpiote_event_pin_get, .-nrf_gpiote_event_pin_get
	.section	.text.nrf_gpiote_event_polarity_get,"ax",%progbits
	.align	1
	.syntax unified
	.thumb
	.thumb_func
	.fpu fpv4-sp-d16
	.type	nrf_gpiote_event_polarity_get, %function
nrf_gpiote_event_polarity_get:
.LFB223:
	.loc 4 372 1
	@ args = 0, pretend = 0, frame = 8
	@ frame_needed = 0, uses_anonymous_args = 0
	@ link register save eliminated.
	sub	sp, sp, #8
.LCFI38:
	str	r0, [sp, #4]
	.loc 4 373 71
	ldr	r2, .L91
	.loc 4 373 79
	ldr	r3, [sp, #4]
	add	r3, r3, #324
	ldr	r3, [r2, r3, lsl #2]
	.loc 4 373 106
	lsrs	r3, r3, #16
	and	r3, r3, #3
	.loc 4 373 12
	uxtb	r3, r3
	.loc 4 374 1
	mov	r0, r3
	add	sp, sp, #8
.LCFI39:
	@ sp needed
	bx	lr
.L92:
	.align	2
.L91:
	.word	1073766400
.LFE223:
	.size	nrf_gpiote_event_polarity_get, .-nrf_gpiote_event_polarity_get
	.section	.text.nrf_gpiote_task_enable,"ax",%progbits
	.align	1
	.syntax unified
	.thumb
	.thumb_func
	.fpu fpv4-sp-d16
	.type	nrf_gpiote_task_enable, %function
nrf_gpiote_task_enable:
.LFB224:
	.loc 4 377 1
	@ args = 0, pretend = 0, frame = 16
	@ frame_needed = 0, uses_anonymous_args = 0
	@ link register save eliminated.
	sub	sp, sp, #16
.LCFI40:
	str	r0, [sp, #4]
	.loc 4 378 63
	ldr	r2, .L94
	.loc 4 378 71
	ldr	r3, [sp, #4]
	add	r3, r3, #324
	ldr	r3, [r2, r3, lsl #2]
	.loc 4 378 14
	orr	r3, r3, #3
	str	r3, [sp, #12]
	.loc 4 389 39
	ldr	r1, .L94
	.loc 4 389 53
	ldr	r3, [sp, #4]
	add	r3, r3, #324
	ldr	r2, [sp, #12]
	str	r2, [r1, r3, lsl #2]
	.loc 4 390 1
	nop
	add	sp, sp, #16
.LCFI41:
	@ sp needed
	bx	lr
.L95:
	.align	2
.L94:
	.word	1073766400
.LFE224:
	.size	nrf_gpiote_task_enable, .-nrf_gpiote_task_enable
	.section	.text.nrf_gpiote_task_disable,"ax",%progbits
	.align	1
	.syntax unified
	.thumb
	.thumb_func
	.fpu fpv4-sp-d16
	.type	nrf_gpiote_task_disable, %function
nrf_gpiote_task_disable:
.LFB225:
	.loc 4 393 1
	@ args = 0, pretend = 0, frame = 8
	@ frame_needed = 0, uses_anonymous_args = 0
	@ link register save eliminated.
	sub	sp, sp, #8
.LCFI42:
	str	r0, [sp, #4]
	.loc 4 394 53
	ldr	r2, .L97
	ldr	r3, [sp, #4]
	add	r3, r3, #324
	ldr	r3, [r2, r3, lsl #2]
	ldr	r1, .L97
	bic	r2, r3, #3
	ldr	r3, [sp, #4]
	add	r3, r3, #324
	str	r2, [r1, r3, lsl #2]
	.loc 4 395 1
	nop
	add	sp, sp, #8
.LCFI43:
	@ sp needed
	bx	lr
.L98:
	.align	2
.L97:
	.word	1073766400
.LFE225:
	.size	nrf_gpiote_task_disable, .-nrf_gpiote_task_disable
	.section	.text.nrf_gpiote_task_configure,"ax",%progbits
	.align	1
	.syntax unified
	.thumb
	.thumb_func
	.fpu fpv4-sp-d16
	.type	nrf_gpiote_task_configure, %function
nrf_gpiote_task_configure:
.LFB226:
	.loc 4 400 1
	@ args = 0, pretend = 0, frame = 16
	@ frame_needed = 0, uses_anonymous_args = 0
	@ link register save eliminated.
	sub	sp, sp, #16
.LCFI44:
	str	r0, [sp, #12]
	str	r1, [sp, #8]
	mov	r1, r2
	mov	r2, r3
	mov	r3, r1
	strb	r3, [sp, #7]
	mov	r3, r2
	strb	r3, [sp, #6]
	.loc 4 401 51
	ldr	r2, .L100
	ldr	r3, [sp, #12]
	add	r3, r3, #324
	ldr	r3, [r2, r3, lsl #2]
	ldr	r1, .L100
	bic	r3, r3, #1245184
	bic	r3, r3, #7936
	ldr	r2, [sp, #12]
	add	r2, r2, #324
	str	r3, [r1, r2, lsl #2]
	.loc 4 405 51
	ldr	r2, .L100
	ldr	r3, [sp, #12]
	add	r3, r3, #324
	ldr	r2, [r2, r3, lsl #2]
	.loc 4 405 60
	ldr	r3, [sp, #8]
	lsls	r3, r3, #8
	.loc 4 405 70
	and	r1, r3, #7936
	.loc 4 406 41
	ldrb	r3, [sp, #7]	@ zero_extendqisi2
	lsls	r3, r3, #16
	.loc 4 406 52
	and	r3, r3, #196608
	.loc 4 405 91
	orrs	r1, r1, r3
	.loc 4 407 41
	ldrb	r3, [sp, #6]	@ zero_extendqisi2
	lsls	r3, r3, #20
	.loc 4 407 52
	and	r3, r3, #1048576
	.loc 4 406 73
	orrs	r3, r3, r1
	.loc 4 405 51
	ldr	r1, .L100
	orrs	r2, r2, r3
	ldr	r3, [sp, #12]
	add	r3, r3, #324
	str	r2, [r1, r3, lsl #2]
	.loc 4 408 1
	nop
	add	sp, sp, #16
.LCFI45:
	@ sp needed
	bx	lr
.L101:
	.align	2
.L100:
	.word	1073766400
.LFE226:
	.size	nrf_gpiote_task_configure, .-nrf_gpiote_task_configure
	.section	.text.nrf_gpiote_task_force,"ax",%progbits
	.align	1
	.syntax unified
	.thumb
	.thumb_func
	.fpu fpv4-sp-d16
	.type	nrf_gpiote_task_force, %function
nrf_gpiote_task_force:
.LFB227:
	.loc 4 411 1
	@ args = 0, pretend = 0, frame = 8
	@ frame_needed = 0, uses_anonymous_args = 0
	@ link register save eliminated.
	sub	sp, sp, #8
.LCFI46:
	str	r0, [sp, #4]
	mov	r3, r1
	strb	r3, [sp, #3]
	.loc 4 412 90
	ldr	r2, .L103
	.loc 4 412 98
	ldr	r3, [sp, #4]
	add	r3, r3, #324
	ldr	r3, [r2, r3, lsl #2]
	.loc 4 412 104
	bic	r2, r3, #1048576
	.loc 4 413 44
	ldrb	r3, [sp, #3]	@ zero_extendqisi2
	lsls	r3, r3, #20
	.loc 4 413 55
	and	r3, r3, #1048576
	.loc 4 412 39
	ldr	r1, .L103
	.loc 4 413 31
	orrs	r2, r2, r3
	.loc 4 412 53
	ldr	r3, [sp, #4]
	add	r3, r3, #324
	str	r2, [r1, r3, lsl #2]
	.loc 4 414 1
	nop
	add	sp, sp, #8
.LCFI47:
	@ sp needed
	bx	lr
.L104:
	.align	2
.L103:
	.word	1073766400
.LFE227:
	.size	nrf_gpiote_task_force, .-nrf_gpiote_task_force
	.section	.text.nrf_gpiote_te_default,"ax",%progbits
	.align	1
	.syntax unified
	.thumb
	.thumb_func
	.fpu fpv4-sp-d16
	.type	nrf_gpiote_te_default, %function
nrf_gpiote_te_default:
.LFB228:
	.loc 4 417 1
	@ args = 0, pretend = 0, frame = 8
	@ frame_needed = 0, uses_anonymous_args = 0
	@ link register save eliminated.
	sub	sp, sp, #8
.LCFI48:
	str	r0, [sp, #4]
	.loc 4 418 39
	ldr	r2, .L106
	.loc 4 418 53
	ldr	r3, [sp, #4]
	add	r3, r3, #324
	movs	r1, #0
	str	r1, [r2, r3, lsl #2]
	.loc 4 419 1
	nop
	add	sp, sp, #8
.LCFI49:
	@ sp needed
	bx	lr
.L107:
	.align	2
.L106:
	.word	1073766400
.LFE228:
	.size	nrf_gpiote_te_default, .-nrf_gpiote_te_default
	.section	.text.nrf_gpio_pin_port_decode,"ax",%progbits
	.align	1
	.syntax unified
	.thumb
	.thumb_func
	.fpu fpv4-sp-d16
	.type	nrf_gpio_pin_port_decode, %function
nrf_gpio_pin_port_decode:
.LFB229:
	.file 5 "../../../../../../modules/nrfx/hal/nrf_gpio.h"
	.loc 5 454 1
	@ args = 0, pretend = 0, frame = 8
	@ frame_needed = 0, uses_anonymous_args = 0
	@ link register save eliminated.
	sub	sp, sp, #8
.LCFI50:
	str	r0, [sp, #4]
	.loc 5 458 12
	mov	r3, #1342177280
	.loc 5 470 1
	mov	r0, r3
	add	sp, sp, #8
.LCFI51:
	@ sp needed
	bx	lr
.LFE229:
	.size	nrf_gpio_pin_port_decode, .-nrf_gpio_pin_port_decode
	.section	.text.nrf_gpio_cfg,"ax",%progbits
	.align	1
	.syntax unified
	.thumb
	.thumb_func
	.fpu fpv4-sp-d16
	.type	nrf_gpio_cfg, %function
nrf_gpio_cfg:
.LFB232:
	.loc 5 502 1
	@ args = 8, pretend = 0, frame = 16
	@ frame_needed = 0, uses_anonymous_args = 0
	push	{lr}
.LCFI52:
	sub	sp, sp, #20
.LCFI53:
	str	r0, [sp, #4]
	mov	r0, r1
	mov	r1, r2
	mov	r2, r3
	mov	r3, r0
	strb	r3, [sp, #3]
	mov	r3, r1
	strb	r3, [sp, #2]
	mov	r3, r2
	strb	r3, [sp, #1]
	.loc 5 503 27
	add	r3, sp, #4
	mov	r0, r3
	bl	nrf_gpio_pin_port_decode
	str	r0, [sp, #12]
	.loc 5 505 47
	ldrb	r2, [sp, #3]	@ zero_extendqisi2
	.loc 5 506 35
	ldrb	r3, [sp, #2]	@ zero_extendqisi2
	.loc 5 506 51
	lsls	r3, r3, #1
	.loc 5 506 32
	orrs	r2, r2, r3
	.loc 5 507 35
	ldrb	r3, [sp, #1]	@ zero_extendqisi2
	.loc 5 507 50
	lsls	r3, r3, #2
	.loc 5 507 32
	orrs	r2, r2, r3
	.loc 5 508 35
	ldrb	r3, [sp, #24]	@ zero_extendqisi2
	.loc 5 508 51
	lsls	r3, r3, #8
	.loc 5 508 32
	orr	r1, r2, r3
	.loc 5 509 35
	ldrb	r3, [sp, #28]	@ zero_extendqisi2
	.loc 5 509 51
	lsls	r3, r3, #16
	.loc 5 505 17
	ldr	r2, [sp, #4]
	.loc 5 509 32
	orrs	r1, r1, r3
	.loc 5 505 30
	ldr	r3, [sp, #12]
	add	r2, r2, #448
	str	r1, [r3, r2, lsl #2]
	.loc 5 510 1
	nop
	add	sp, sp, #20
.LCFI54:
	@ sp needed
	ldr	pc, [sp], #4
.LFE232:
	.size	nrf_gpio_cfg, .-nrf_gpio_cfg
	.section	.text.nrf_gpio_cfg_output,"ax",%progbits
	.align	1
	.syntax unified
	.thumb
	.thumb_func
	.fpu fpv4-sp-d16
	.type	nrf_gpio_cfg_output, %function
nrf_gpio_cfg_output:
.LFB233:
	.loc 5 514 1
	@ args = 0, pretend = 0, frame = 8
	@ frame_needed = 0, uses_anonymous_args = 0
	push	{lr}
.LCFI55:
	sub	sp, sp, #20
.LCFI56:
	str	r0, [sp, #12]
	.loc 5 515 5
	movs	r3, #0
	str	r3, [sp, #4]
	movs	r3, #0
	str	r3, [sp]
	movs	r3, #0
	movs	r2, #1
	movs	r1, #1
	ldr	r0, [sp, #12]
	bl	nrf_gpio_cfg
	.loc 5 522 1
	nop
	add	sp, sp, #20
.LCFI57:
	@ sp needed
	ldr	pc, [sp], #4
.LFE233:
	.size	nrf_gpio_cfg_output, .-nrf_gpio_cfg_output
	.section	.text.nrf_gpio_cfg_input,"ax",%progbits
	.align	1
	.syntax unified
	.thumb
	.thumb_func
	.fpu fpv4-sp-d16
	.type	nrf_gpio_cfg_input, %function
nrf_gpio_cfg_input:
.LFB234:
	.loc 5 526 1
	@ args = 0, pretend = 0, frame = 8
	@ frame_needed = 0, uses_anonymous_args = 0
	push	{lr}
.LCFI58:
	sub	sp, sp, #20
.LCFI59:
	str	r0, [sp, #12]
	mov	r3, r1
	strb	r3, [sp, #11]
	.loc 5 527 5
	ldrb	r3, [sp, #11]	@ zero_extendqisi2
	movs	r2, #0
	str	r2, [sp, #4]
	movs	r2, #0
	str	r2, [sp]
	movs	r2, #0
	movs	r1, #0
	ldr	r0, [sp, #12]
	bl	nrf_gpio_cfg
	.loc 5 534 1
	nop
	add	sp, sp, #20
.LCFI60:
	@ sp needed
	ldr	pc, [sp], #4
.LFE234:
	.size	nrf_gpio_cfg_input, .-nrf_gpio_cfg_input
	.section	.text.nrf_gpio_cfg_default,"ax",%progbits
	.align	1
	.syntax unified
	.thumb
	.thumb_func
	.fpu fpv4-sp-d16
	.type	nrf_gpio_cfg_default, %function
nrf_gpio_cfg_default:
.LFB235:
	.loc 5 538 1
	@ args = 0, pretend = 0, frame = 8
	@ frame_needed = 0, uses_anonymous_args = 0
	push	{lr}
.LCFI61:
	sub	sp, sp, #20
.LCFI62:
	str	r0, [sp, #12]
	.loc 5 539 5
	movs	r3, #0
	str	r3, [sp, #4]
	movs	r3, #0
	str	r3, [sp]
	movs	r3, #0
	movs	r2, #1
	movs	r1, #0
	ldr	r0, [sp, #12]
	bl	nrf_gpio_cfg
	.loc 5 546 1
	nop
	add	sp, sp, #20
.LCFI63:
	@ sp needed
	ldr	pc, [sp], #4
.LFE235:
	.size	nrf_gpio_cfg_default, .-nrf_gpio_cfg_default
	.section	.text.nrf_gpio_cfg_watcher,"ax",%progbits
	.align	1
	.syntax unified
	.thumb
	.thumb_func
	.fpu fpv4-sp-d16
	.type	nrf_gpio_cfg_watcher, %function
nrf_gpio_cfg_watcher:
.LFB236:
	.loc 5 550 1
	@ args = 0, pretend = 0, frame = 16
	@ frame_needed = 0, uses_anonymous_args = 0
	push	{lr}
.LCFI64:
	sub	sp, sp, #20
.LCFI65:
	str	r0, [sp, #4]
	.loc 5 551 27
	add	r3, sp, #4
	mov	r0, r3
	bl	nrf_gpio_pin_port_decode
	str	r0, [sp, #12]
	.loc 5 553 45
	ldr	r2, [sp, #4]
	.loc 5 553 32
	ldr	r3, [sp, #12]
	add	r2, r2, #448
	ldr	r3, [r3, r2, lsl #2]
	.loc 5 553 14
	bic	r3, r3, #2
	str	r3, [sp, #8]
	.loc 5 555 17
	ldr	r2, [sp, #4]
	.loc 5 555 30
	ldr	r3, [sp, #12]
	add	r2, r2, #448
	ldr	r1, [sp, #8]
	str	r1, [r3, r2, lsl #2]
	.loc 5 556 1
	nop
	add	sp, sp, #20
.LCFI66:
	@ sp needed
	ldr	pc, [sp], #4
.LFE236:
	.size	nrf_gpio_cfg_watcher, .-nrf_gpio_cfg_watcher
	.section	.text.nrf_gpio_cfg_sense_set,"ax",%progbits
	.align	1
	.syntax unified
	.thumb
	.thumb_func
	.fpu fpv4-sp-d16
	.type	nrf_gpio_cfg_sense_set, %function
nrf_gpio_cfg_sense_set:
.LFB239:
	.loc 5 584 1
	@ args = 0, pretend = 0, frame = 16
	@ frame_needed = 0, uses_anonymous_args = 0
	push	{lr}
.LCFI67:
	sub	sp, sp, #20
.LCFI68:
	str	r0, [sp, #4]
	mov	r3, r1
	strb	r3, [sp, #3]
	.loc 5 585 27
	add	r3, sp, #4
	mov	r0, r3
	bl	nrf_gpio_pin_port_decode
	str	r0, [sp, #12]
	.loc 5 588 30
	ldr	r2, [sp, #4]
	ldr	r3, [sp, #12]
	add	r2, r2, #448
	ldr	r3, [r3, r2, lsl #2]
	ldr	r2, [sp, #4]
	bic	r1, r3, #196608
	ldr	r3, [sp, #12]
	add	r2, r2, #448
	str	r1, [r3, r2, lsl #2]
	.loc 5 589 30
	ldr	r2, [sp, #4]
	ldr	r3, [sp, #12]
	add	r2, r2, #448
	ldr	r3, [r3, r2, lsl #2]
	.loc 5 589 47
	ldrb	r2, [sp, #3]	@ zero_extendqisi2
	lsls	r2, r2, #16
	mov	r1, r2
	.loc 5 589 30
	ldr	r2, [sp, #4]
	orrs	r1, r1, r3
	ldr	r3, [sp, #12]
	add	r2, r2, #448
	str	r1, [r3, r2, lsl #2]
	.loc 5 590 1
	nop
	add	sp, sp, #20
.LCFI69:
	@ sp needed
	ldr	pc, [sp], #4
.LFE239:
	.size	nrf_gpio_cfg_sense_set, .-nrf_gpio_cfg_sense_set
	.section	.text.nrf_gpio_pin_set,"ax",%progbits
	.align	1
	.syntax unified
	.thumb
	.thumb_func
	.fpu fpv4-sp-d16
	.type	nrf_gpio_pin_set, %function
nrf_gpio_pin_set:
.LFB241:
	.loc 5 614 1
	@ args = 0, pretend = 0, frame = 16
	@ frame_needed = 0, uses_anonymous_args = 0
	push	{lr}
.LCFI70:
	sub	sp, sp, #20
.LCFI71:
	str	r0, [sp, #4]
	.loc 5 615 27
	add	r3, sp, #4
	mov	r0, r3
	bl	nrf_gpio_pin_port_decode
	str	r0, [sp, #12]
	.loc 5 617 5
	ldr	r3, [sp, #4]
	.loc 5 617 36
	movs	r2, #1
	lsl	r3, r2, r3
	.loc 5 617 5
	mov	r1, r3
	ldr	r0, [sp, #12]
	bl	nrf_gpio_port_out_set
	.loc 5 618 1
	nop
	add	sp, sp, #20
.LCFI72:
	@ sp needed
	ldr	pc, [sp], #4
.LFE241:
	.size	nrf_gpio_pin_set, .-nrf_gpio_pin_set
	.section	.text.nrf_gpio_pin_clear,"ax",%progbits
	.align	1
	.syntax unified
	.thumb
	.thumb_func
	.fpu fpv4-sp-d16
	.type	nrf_gpio_pin_clear, %function
nrf_gpio_pin_clear:
.LFB242:
	.loc 5 622 1
	@ args = 0, pretend = 0, frame = 16
	@ frame_needed = 0, uses_anonymous_args = 0
	push	{lr}
.LCFI73:
	sub	sp, sp, #20
.LCFI74:
	str	r0, [sp, #4]
	.loc 5 623 27
	add	r3, sp, #4
	mov	r0, r3
	bl	nrf_gpio_pin_port_decode
	str	r0, [sp, #12]
	.loc 5 625 5
	ldr	r3, [sp, #4]
	.loc 5 625 38
	movs	r2, #1
	lsl	r3, r2, r3
	.loc 5 625 5
	mov	r1, r3
	ldr	r0, [sp, #12]
	bl	nrf_gpio_port_out_clear
	.loc 5 626 1
	nop
	add	sp, sp, #20
.LCFI75:
	@ sp needed
	ldr	pc, [sp], #4
.LFE242:
	.size	nrf_gpio_pin_clear, .-nrf_gpio_pin_clear
	.section	.text.nrf_gpio_pin_toggle,"ax",%progbits
	.align	1
	.syntax unified
	.thumb
	.thumb_func
	.fpu fpv4-sp-d16
	.type	nrf_gpio_pin_toggle, %function
nrf_gpio_pin_toggle:
.LFB243:
	.loc 5 630 1
	@ args = 0, pretend = 0, frame = 16
	@ frame_needed = 0, uses_anonymous_args = 0
	push	{lr}
.LCFI76:
	sub	sp, sp, #20
.LCFI77:
	str	r0, [sp, #4]
	.loc 5 631 27
	add	r3, sp, #4
	mov	r0, r3
	bl	nrf_gpio_pin_port_decode
	str	r0, [sp, #12]
	.loc 5 632 14
	ldr	r3, [sp, #12]
	ldr	r3, [r3, #1284]
	str	r3, [sp, #8]
	.loc 5 634 20
	ldr	r3, [sp, #8]
	mvns	r2, r3
	.loc 5 634 39
	ldr	r3, [sp, #4]
	movs	r1, #1
	lsl	r3, r1, r3
	.loc 5 634 32
	ands	r2, r2, r3
	.loc 5 634 17
	ldr	r3, [sp, #12]
	str	r2, [r3, #1288]
	.loc 5 635 38
	ldr	r3, [sp, #4]
	movs	r2, #1
	lsls	r2, r2, r3
	.loc 5 635 31
	ldr	r3, [sp, #8]
	ands	r2, r2, r3
	.loc 5 635 17
	ldr	r3, [sp, #12]
	str	r2, [r3, #1292]
	.loc 5 636 1
	nop
	add	sp, sp, #20
.LCFI78:
	@ sp needed
	ldr	pc, [sp], #4
.LFE243:
	.size	nrf_gpio_pin_toggle, .-nrf_gpio_pin_toggle
	.section	.text.nrf_gpio_pin_read,"ax",%progbits
	.align	1
	.syntax unified
	.thumb
	.thumb_func
	.fpu fpv4-sp-d16
	.type	nrf_gpio_pin_read, %function
nrf_gpio_pin_read:
.LFB245:
	.loc 5 653 1
	@ args = 0, pretend = 0, frame = 16
	@ frame_needed = 0, uses_anonymous_args = 0
	push	{lr}
.LCFI79:
	sub	sp, sp, #20
.LCFI80:
	str	r0, [sp, #4]
	.loc 5 654 27
	add	r3, sp, #4
	mov	r0, r3
	bl	nrf_gpio_pin_port_decode
	str	r0, [sp, #12]
	.loc 5 656 14
	ldr	r0, [sp, #12]
	bl	nrf_gpio_port_in_read
	mov	r2, r0
	.loc 5 656 41
	ldr	r3, [sp, #4]
	lsr	r3, r2, r3
	.loc 5 656 56
	and	r3, r3, #1
	.loc 5 657 1
	mov	r0, r3
	add	sp, sp, #20
.LCFI81:
	@ sp needed
	ldr	pc, [sp], #4
.LFE245:
	.size	nrf_gpio_pin_read, .-nrf_gpio_pin_read
	.section	.text.nrf_gpio_pin_sense_get,"ax",%progbits
	.align	1
	.syntax unified
	.thumb
	.thumb_func
	.fpu fpv4-sp-d16
	.type	nrf_gpio_pin_sense_get, %function
nrf_gpio_pin_sense_get:
.LFB247:
	.loc 5 669 1
	@ args = 0, pretend = 0, frame = 16
	@ frame_needed = 0, uses_anonymous_args = 0
	push	{lr}
.LCFI82:
	sub	sp, sp, #20
.LCFI83:
	str	r0, [sp, #4]
	.loc 5 670 27
	add	r3, sp, #4
	mov	r0, r3
	bl	nrf_gpio_pin_port_decode
	str	r0, [sp, #12]
	.loc 5 672 48
	ldr	r2, [sp, #4]
	ldr	r3, [sp, #12]
	add	r2, r2, #448
	ldr	r3, [r3, r2, lsl #2]
	.loc 5 673 55
	lsrs	r3, r3, #16
	and	r3, r3, #3
	.loc 5 672 12
	uxtb	r3, r3
	.loc 5 674 1
	mov	r0, r3
	add	sp, sp, #20
.LCFI84:
	@ sp needed
	ldr	pc, [sp], #4
.LFE247:
	.size	nrf_gpio_pin_sense_get, .-nrf_gpio_pin_sense_get
	.section	.text.nrf_gpio_port_in_read,"ax",%progbits
	.align	1
	.syntax unified
	.thumb
	.thumb_func
	.fpu fpv4-sp-d16
	.type	nrf_gpio_port_in_read, %function
nrf_gpio_port_in_read:
.LFB252:
	.loc 5 702 1
	@ args = 0, pretend = 0, frame = 8
	@ frame_needed = 0, uses_anonymous_args = 0
	@ link register save eliminated.
	sub	sp, sp, #8
.LCFI85:
	str	r0, [sp, #4]
	.loc 5 703 17
	ldr	r3, [sp, #4]
	ldr	r3, [r3, #1296]
	.loc 5 704 1
	mov	r0, r3
	add	sp, sp, #8
.LCFI86:
	@ sp needed
	bx	lr
.LFE252:
	.size	nrf_gpio_port_in_read, .-nrf_gpio_port_in_read
	.section	.text.nrf_gpio_port_out_set,"ax",%progbits
	.align	1
	.syntax unified
	.thumb
	.thumb_func
	.fpu fpv4-sp-d16
	.type	nrf_gpio_port_out_set, %function
nrf_gpio_port_out_set:
.LFB255:
	.loc 5 720 1
	@ args = 0, pretend = 0, frame = 8
	@ frame_needed = 0, uses_anonymous_args = 0
	@ link register save eliminated.
	sub	sp, sp, #8
.LCFI87:
	str	r0, [sp, #4]
	str	r1, [sp]
	.loc 5 721 19
	ldr	r3, [sp, #4]
	ldr	r2, [sp]
	str	r2, [r3, #1288]
	.loc 5 722 1
	nop
	add	sp, sp, #8
.LCFI88:
	@ sp needed
	bx	lr
.LFE255:
	.size	nrf_gpio_port_out_set, .-nrf_gpio_port_out_set
	.section	.text.nrf_gpio_port_out_clear,"ax",%progbits
	.align	1
	.syntax unified
	.thumb
	.thumb_func
	.fpu fpv4-sp-d16
	.type	nrf_gpio_port_out_clear, %function
nrf_gpio_port_out_clear:
.LFB256:
	.loc 5 726 1
	@ args = 0, pretend = 0, frame = 8
	@ frame_needed = 0, uses_anonymous_args = 0
	@ link register save eliminated.
	sub	sp, sp, #8
.LCFI89:
	str	r0, [sp, #4]
	str	r1, [sp]
	.loc 5 727 19
	ldr	r3, [sp, #4]
	ldr	r2, [sp]
	str	r2, [r3, #1292]
	.loc 5 728 1
	nop
	add	sp, sp, #8
.LCFI90:
	@ sp needed
	bx	lr
.LFE256:
	.size	nrf_gpio_port_out_clear, .-nrf_gpio_port_out_clear
	.section	.text.nrf_gpio_ports_read,"ax",%progbits
	.align	1
	.syntax unified
	.thumb
	.thumb_func
	.fpu fpv4-sp-d16
	.type	nrf_gpio_ports_read, %function
nrf_gpio_ports_read:
.LFB257:
	.loc 5 732 1
	@ args = 0, pretend = 0, frame = 24
	@ frame_needed = 0, uses_anonymous_args = 0
	push	{lr}
.LCFI91:
	sub	sp, sp, #28
.LCFI92:
	str	r0, [sp, #12]
	str	r1, [sp, #8]
	str	r2, [sp, #4]
	.loc 5 733 21
	mov	r3, #1342177280
	str	r3, [sp, #16]
	.loc 5 738 12
	ldr	r3, [sp, #12]
	str	r3, [sp, #20]
	.loc 5 738 5
	b	.L128
.L129:
	.loc 5 740 51 discriminator 3
	ldr	r3, [sp, #20]
	lsls	r3, r3, #2
	add	r2, sp, #24
	add	r3, r3, r2
	ldr	r3, [r3, #-8]
	.loc 5 740 20 discriminator 3
	mov	r0, r3
	bl	nrf_gpio_port_in_read
	mov	r2, r0
	.loc 5 740 18 discriminator 3
	ldr	r3, [sp, #4]
	str	r2, [r3]
	.loc 5 741 16 discriminator 3
	ldr	r3, [sp, #4]
	adds	r3, r3, #4
	str	r3, [sp, #4]
	.loc 5 738 54 discriminator 3
	ldr	r3, [sp, #20]
	adds	r3, r3, #1
	str	r3, [sp, #20]
.L128:
	.loc 5 738 42 discriminator 1
	ldr	r2, [sp, #12]
	ldr	r3, [sp, #8]
	add	r3, r3, r2
	.loc 5 738 5 discriminator 1
	ldr	r2, [sp, #20]
	cmp	r2, r3
	bcc	.L129
	.loc 5 743 1
	nop
	nop
	add	sp, sp, #28
.LCFI93:
	@ sp needed
	ldr	pc, [sp], #4
.LFE257:
	.size	nrf_gpio_ports_read, .-nrf_gpio_ports_read
	.section	.text.nrf_bitmask_bit_is_set,"ax",%progbits
	.align	1
	.syntax unified
	.thumb
	.thumb_func
	.fpu fpv4-sp-d16
	.type	nrf_bitmask_bit_is_set, %function
nrf_bitmask_bit_is_set:
.LFB261:
	.file 6 "../../../../../../components/libraries/util/nrf_bitmask.h"
	.loc 6 62 1
	@ args = 0, pretend = 0, frame = 16
	@ frame_needed = 0, uses_anonymous_args = 0
	@ link register save eliminated.
	sub	sp, sp, #16
.LCFI94:
	str	r0, [sp, #4]
	str	r1, [sp]
	.loc 6 63 21
	ldr	r3, [sp]
	str	r3, [sp, #12]
	.loc 6 64 14
	ldr	r3, [sp, #4]
	lsrs	r3, r3, #3
	str	r3, [sp, #8]
	.loc 6 65 9
	ldr	r3, [sp, #4]
	and	r3, r3, #7
	str	r3, [sp, #4]
	.loc 6 66 15
	movs	r2, #1
	ldr	r3, [sp, #4]
	lsl	r3, r2, r3
	.loc 6 66 32
	ldr	r1, [sp, #12]
	ldr	r2, [sp, #8]
	add	r2, r2, r1
	ldrb	r2, [r2]	@ zero_extendqisi2
	.loc 6 66 23
	ands	r3, r3, r2
	.loc 6 67 1
	mov	r0, r3
	add	sp, sp, #16
.LCFI95:
	@ sp needed
	bx	lr
.LFE261:
	.size	nrf_bitmask_bit_is_set, .-nrf_bitmask_bit_is_set
	.section	.text.nrf_bitmask_bit_set,"ax",%progbits
	.align	1
	.syntax unified
	.thumb
	.thumb_func
	.fpu fpv4-sp-d16
	.type	nrf_bitmask_bit_set, %function
nrf_bitmask_bit_set:
.LFB262:
	.loc 6 76 1
	@ args = 0, pretend = 0, frame = 16
	@ frame_needed = 0, uses_anonymous_args = 0
	@ link register save eliminated.
	sub	sp, sp, #16
.LCFI96:
	str	r0, [sp, #4]
	str	r1, [sp]
	.loc 6 77 15
	ldr	r3, [sp]
	str	r3, [sp, #12]
	.loc 6 78 14
	ldr	r3, [sp, #4]
	lsrs	r3, r3, #3
	str	r3, [sp, #8]
	.loc 6 79 9
	ldr	r3, [sp, #4]
	and	r3, r3, #7
	str	r3, [sp, #4]
	.loc 6 80 23
	ldr	r2, [sp, #12]
	ldr	r3, [sp, #8]
	add	r3, r3, r2
	ldrb	r3, [r3]	@ zero_extendqisi2
	sxtb	r2, r3
	.loc 6 80 29
	movs	r1, #1
	ldr	r3, [sp, #4]
	lsl	r3, r1, r3
	.loc 6 80 23
	sxtb	r3, r3
	orrs	r3, r3, r2
	sxtb	r1, r3
	ldr	r2, [sp, #12]
	ldr	r3, [sp, #8]
	add	r3, r3, r2
	uxtb	r2, r1
	strb	r2, [r3]
	.loc 6 81 1
	nop
	add	sp, sp, #16
.LCFI97:
	@ sp needed
	bx	lr
.LFE262:
	.size	nrf_bitmask_bit_set, .-nrf_bitmask_bit_set
	.section	.text.nrf_bitmask_bit_clear,"ax",%progbits
	.align	1
	.syntax unified
	.thumb
	.thumb_func
	.fpu fpv4-sp-d16
	.type	nrf_bitmask_bit_clear, %function
nrf_bitmask_bit_clear:
.LFB263:
	.loc 6 90 1
	@ args = 0, pretend = 0, frame = 16
	@ frame_needed = 0, uses_anonymous_args = 0
	@ link register save eliminated.
	sub	sp, sp, #16
.LCFI98:
	str	r0, [sp, #4]
	str	r1, [sp]
	.loc 6 91 15
	ldr	r3, [sp]
	str	r3, [sp, #12]
	.loc 6 92 14
	ldr	r3, [sp, #4]
	lsrs	r3, r3, #3
	str	r3, [sp, #8]
	.loc 6 93 9
	ldr	r3, [sp, #4]
	and	r3, r3, #7
	str	r3, [sp, #4]
	.loc 6 94 23
	ldr	r2, [sp, #12]
	ldr	r3, [sp, #8]
	add	r3, r3, r2
	ldrb	r3, [r3]	@ zero_extendqisi2
	sxtb	r2, r3
	.loc 6 94 30
	movs	r1, #1
	ldr	r3, [sp, #4]
	lsl	r3, r1, r3
	.loc 6 94 23
	sxtb	r3, r3
	mvns	r3, r3
	sxtb	r3, r3
	ands	r3, r3, r2
	sxtb	r1, r3
	ldr	r2, [sp, #12]
	ldr	r3, [sp, #8]
	add	r3, r3, r2
	uxtb	r2, r1
	strb	r2, [r3]
	.loc 6 95 1
	nop
	add	sp, sp, #16
.LCFI99:
	@ sp needed
	bx	lr
.LFE263:
	.size	nrf_bitmask_bit_clear, .-nrf_bitmask_bit_clear
	.global	m_nrf_log_GPIOTE_logs_data_const
	.section .rodata
	.align	2
.LC0:
	.ascii	"GPIOTE\000"
	.section	.log_const_data_GPIOTE,"a"
	.align	2
	.type	m_nrf_log_GPIOTE_logs_data_const, %object
	.size	m_nrf_log_GPIOTE_logs_data_const, 8
m_nrf_log_GPIOTE_logs_data_const:
	.word	.LC0
	.byte	0
	.byte	0
	.byte	0
	.byte	0
	.global	m_nrf_log_GPIOTE_logs_data_dynamic
	.section	.log_dynamic_data_GPIOTE,"aw"
	.align	2
	.type	m_nrf_log_GPIOTE_logs_data_dynamic, %object
	.size	m_nrf_log_GPIOTE_logs_data_dynamic, 4
m_nrf_log_GPIOTE_logs_data_dynamic:
	.space	4
	.section	.bss.m_cb,"aw",%nobits
	.align	2
	.type	m_cb, %object
	.size	m_cb, 92
m_cb:
	.space	92
	.section	.text.pin_in_use,"ax",%progbits
	.align	1
	.syntax unified
	.thumb
	.thumb_func
	.fpu fpv4-sp-d16
	.type	pin_in_use, %function
pin_in_use:
.LFB266:
	.file 7 "C:\\nRF5_SDK_15.0.0_a53641a\\modules\\nrfx\\drivers\\src\\nrfx_gpiote.c"
	.loc 7 110 1
	@ args = 0, pretend = 0, frame = 8
	@ frame_needed = 0, uses_anonymous_args = 0
	@ link register save eliminated.
	sub	sp, sp, #8
.LCFI100:
	str	r0, [sp, #4]
	.loc 7 111 33
	ldr	r2, .L136
	ldr	r3, [sp, #4]
	add	r3, r3, r2
	adds	r3, r3, #48
	ldrsb	r3, [r3]
	.loc 7 111 39
	cmp	r3, #-1
	ite	ne
	movne	r3, #1
	moveq	r3, #0
	uxtb	r3, r3
	.loc 7 112 1
	mov	r0, r3
	add	sp, sp, #8
.LCFI101:
	@ sp needed
	bx	lr
.L137:
	.align	2
.L136:
	.word	m_cb
.LFE266:
	.size	pin_in_use, .-pin_in_use
	.section	.text.pin_in_use_as_non_task_out,"ax",%progbits
	.align	1
	.syntax unified
	.thumb
	.thumb_func
	.fpu fpv4-sp-d16
	.type	pin_in_use_as_non_task_out, %function
pin_in_use_as_non_task_out:
.LFB267:
	.loc 7 116 1
	@ args = 0, pretend = 0, frame = 8
	@ frame_needed = 0, uses_anonymous_args = 0
	@ link register save eliminated.
	sub	sp, sp, #8
.LCFI102:
	str	r0, [sp, #4]
	.loc 7 117 33
	ldr	r2, .L140
	ldr	r3, [sp, #4]
	add	r3, r3, r2
	adds	r3, r3, #48
	ldrsb	r3, [r3]
	.loc 7 117 39
	cmn	r3, #2
	ite	eq
	moveq	r3, #1
	movne	r3, #0
	uxtb	r3, r3
	.loc 7 118 1
	mov	r0, r3
	add	sp, sp, #8
.LCFI103:
	@ sp needed
	bx	lr
.L141:
	.align	2
.L140:
	.word	m_cb
.LFE267:
	.size	pin_in_use_as_non_task_out, .-pin_in_use_as_non_task_out
	.section	.text.pin_in_use_by_te,"ax",%progbits
	.align	1
	.syntax unified
	.thumb
	.thumb_func
	.fpu fpv4-sp-d16
	.type	pin_in_use_by_te, %function
pin_in_use_by_te:
.LFB268:
	.loc 7 122 1
	@ args = 0, pretend = 0, frame = 8
	@ frame_needed = 0, uses_anonymous_args = 0
	@ link register save eliminated.
	sub	sp, sp, #8
.LCFI104:
	str	r0, [sp, #4]
	.loc 7 123 33
	ldr	r2, .L146
	ldr	r3, [sp, #4]
	add	r3, r3, r2
	adds	r3, r3, #48
	ldrsb	r3, [r3]
	.loc 7 124 17
	cmp	r3, #0
	blt	.L143
	.loc 7 123 67 discriminator 1
	ldr	r2, .L146
	ldr	r3, [sp, #4]
	add	r3, r3, r2
	adds	r3, r3, #48
	ldrsb	r3, [r3]
	.loc 7 124 17 discriminator 1
	cmp	r3, #7
	bgt	.L143
	.loc 7 124 17 is_stmt 0 discriminator 3
	movs	r3, #1
	b	.L144
.L143:
	.loc 7 124 17 discriminator 4
	movs	r3, #0
.L144:
	.loc 7 124 17 discriminator 6
	and	r3, r3, #1
	uxtb	r3, r3
	.loc 7 125 1 is_stmt 1 discriminator 6
	mov	r0, r3
	add	sp, sp, #8
.LCFI105:
	@ sp needed
	bx	lr
.L147:
	.align	2
.L146:
	.word	m_cb
.LFE268:
	.size	pin_in_use_by_te, .-pin_in_use_by_te
	.section	.text.pin_in_use_by_port,"ax",%progbits
	.align	1
	.syntax unified
	.thumb
	.thumb_func
	.fpu fpv4-sp-d16
	.type	pin_in_use_by_port, %function
pin_in_use_by_port:
.LFB269:
	.loc 7 129 1
	@ args = 0, pretend = 0, frame = 8
	@ frame_needed = 0, uses_anonymous_args = 0
	@ link register save eliminated.
	sub	sp, sp, #8
.LCFI106:
	str	r0, [sp, #4]
	.loc 7 130 33
	ldr	r2, .L150
	ldr	r3, [sp, #4]
	add	r3, r3, r2
	adds	r3, r3, #48
	ldrsb	r3, [r3]
	.loc 7 130 39
	cmp	r3, #7
	ite	gt
	movgt	r3, #1
	movle	r3, #0
	uxtb	r3, r3
	.loc 7 131 1
	mov	r0, r3
	add	sp, sp, #8
.LCFI107:
	@ sp needed
	bx	lr
.L151:
	.align	2
.L150:
	.word	m_cb
.LFE269:
	.size	pin_in_use_by_port, .-pin_in_use_by_port
	.section	.text.pin_in_use_by_gpiote,"ax",%progbits
	.align	1
	.syntax unified
	.thumb
	.thumb_func
	.fpu fpv4-sp-d16
	.type	pin_in_use_by_gpiote, %function
pin_in_use_by_gpiote:
.LFB270:
	.loc 7 135 1
	@ args = 0, pretend = 0, frame = 8
	@ frame_needed = 0, uses_anonymous_args = 0
	@ link register save eliminated.
	sub	sp, sp, #8
.LCFI108:
	str	r0, [sp, #4]
	.loc 7 136 33
	ldr	r2, .L154
	ldr	r3, [sp, #4]
	add	r3, r3, r2
	adds	r3, r3, #48
	ldrsb	r3, [r3]
	.loc 7 136 39
	mvns	r3, r3
	uxtb	r3, r3
	lsrs	r3, r3, #7
	uxtb	r3, r3
	.loc 7 137 1
	mov	r0, r3
	add	sp, sp, #8
.LCFI109:
	@ sp needed
	bx	lr
.L155:
	.align	2
.L154:
	.word	m_cb
.LFE270:
	.size	pin_in_use_by_gpiote, .-pin_in_use_by_gpiote
	.section	.text.pin_in_use_by_te_set,"ax",%progbits
	.align	1
	.syntax unified
	.thumb
	.thumb_func
	.fpu fpv4-sp-d16
	.type	pin_in_use_by_te_set, %function
pin_in_use_by_te_set:
.LFB271:
	.loc 7 144 1
	@ args = 0, pretend = 0, frame = 16
	@ frame_needed = 0, uses_anonymous_args = 0
	@ link register save eliminated.
	sub	sp, sp, #16
.LCFI110:
	str	r0, [sp, #12]
	str	r1, [sp, #8]
	str	r2, [sp, #4]
	strb	r3, [sp, #3]
	.loc 7 145 31
	ldr	r3, [sp, #8]
	sxtb	r1, r3
	ldr	r2, .L159
	ldr	r3, [sp, #12]
	add	r3, r3, r2
	adds	r3, r3, #48
	mov	r2, r1
	strb	r2, [r3]
	.loc 7 146 31
	ldr	r1, .L159
	ldr	r3, [sp, #8]
	ldr	r2, [sp, #4]
	str	r2, [r1, r3, lsl #2]
	.loc 7 147 9
	ldrb	r3, [sp, #3]
	eor	r3, r3, #1
	uxtb	r3, r3
	.loc 7 147 8
	cmp	r3, #0
	beq	.L158
	.loc 7 149 44
	ldr	r3, [sp, #8]
	subs	r3, r3, #8
	.loc 7 149 51
	ldr	r2, [sp, #12]
	sxtb	r1, r2
	.loc 7 149 49
	ldr	r2, .L159
	add	r3, r3, r2
	mov	r2, r1
	strb	r2, [r3, #80]
.L158:
	.loc 7 151 1
	nop
	add	sp, sp, #16
.LCFI111:
	@ sp needed
	bx	lr
.L160:
	.align	2
.L159:
	.word	m_cb
.LFE271:
	.size	pin_in_use_by_te_set, .-pin_in_use_by_te_set
	.section	.text.pin_in_use_set,"ax",%progbits
	.align	1
	.syntax unified
	.thumb
	.thumb_func
	.fpu fpv4-sp-d16
	.type	pin_in_use_set, %function
pin_in_use_set:
.LFB272:
	.loc 7 155 1
	@ args = 0, pretend = 0, frame = 8
	@ frame_needed = 0, uses_anonymous_args = 0
	@ link register save eliminated.
	sub	sp, sp, #8
.LCFI112:
	str	r0, [sp, #4]
	.loc 7 156 31
	ldr	r2, .L162
	ldr	r3, [sp, #4]
	add	r3, r3, r2
	adds	r3, r3, #48
	movs	r2, #254
	strb	r2, [r3]
	.loc 7 157 1
	nop
	add	sp, sp, #8
.LCFI113:
	@ sp needed
	bx	lr
.L163:
	.align	2
.L162:
	.word	m_cb
.LFE272:
	.size	pin_in_use_set, .-pin_in_use_set
	.section	.text.pin_in_use_clear,"ax",%progbits
	.align	1
	.syntax unified
	.thumb
	.thumb_func
	.fpu fpv4-sp-d16
	.type	pin_in_use_clear, %function
pin_in_use_clear:
.LFB273:
	.loc 7 161 1
	@ args = 0, pretend = 0, frame = 8
	@ frame_needed = 0, uses_anonymous_args = 0
	@ link register save eliminated.
	sub	sp, sp, #8
.LCFI114:
	str	r0, [sp, #4]
	.loc 7 162 31
	ldr	r2, .L165
	ldr	r3, [sp, #4]
	add	r3, r3, r2
	adds	r3, r3, #48
	movs	r2, #255
	strb	r2, [r3]
	.loc 7 163 1
	nop
	add	sp, sp, #8
.LCFI115:
	@ sp needed
	bx	lr
.L166:
	.align	2
.L165:
	.word	m_cb
.LFE273:
	.size	pin_in_use_clear, .-pin_in_use_clear
	.section	.text.pin_configured_set,"ax",%progbits
	.align	1
	.syntax unified
	.thumb
	.thumb_func
	.fpu fpv4-sp-d16
	.type	pin_configured_set, %function
pin_configured_set:
.LFB274:
	.loc 7 167 1
	@ args = 0, pretend = 0, frame = 8
	@ frame_needed = 0, uses_anonymous_args = 0
	push	{lr}
.LCFI116:
	sub	sp, sp, #12
.LCFI117:
	str	r0, [sp, #4]
	.loc 7 168 5
	ldr	r1, .L168
	ldr	r0, [sp, #4]
	bl	nrf_bitmask_bit_set
	.loc 7 169 1
	nop
	add	sp, sp, #12
.LCFI118:
	@ sp needed
	ldr	pc, [sp], #4
.L169:
	.align	2
.L168:
	.word	m_cb+84
.LFE274:
	.size	pin_configured_set, .-pin_configured_set
	.section	.text.pin_configured_clear,"ax",%progbits
	.align	1
	.syntax unified
	.thumb
	.thumb_func
	.fpu fpv4-sp-d16
	.type	pin_configured_clear, %function
pin_configured_clear:
.LFB275:
	.loc 7 172 1
	@ args = 0, pretend = 0, frame = 8
	@ frame_needed = 0, uses_anonymous_args = 0
	push	{lr}
.LCFI119:
	sub	sp, sp, #12
.LCFI120:
	str	r0, [sp, #4]
	.loc 7 173 5
	ldr	r1, .L171
	ldr	r0, [sp, #4]
	bl	nrf_bitmask_bit_clear
	.loc 7 174 1
	nop
	add	sp, sp, #12
.LCFI121:
	@ sp needed
	ldr	pc, [sp], #4
.L172:
	.align	2
.L171:
	.word	m_cb+84
.LFE275:
	.size	pin_configured_clear, .-pin_configured_clear
	.section	.text.pin_configured_check,"ax",%progbits
	.align	1
	.syntax unified
	.thumb
	.thumb_func
	.fpu fpv4-sp-d16
	.type	pin_configured_check, %function
pin_configured_check:
.LFB276:
	.loc 7 177 1
	@ args = 0, pretend = 0, frame = 8
	@ frame_needed = 0, uses_anonymous_args = 0
	push	{lr}
.LCFI122:
	sub	sp, sp, #12
.LCFI123:
	str	r0, [sp, #4]
	.loc 7 178 17
	ldr	r1, .L175
	ldr	r0, [sp, #4]
	bl	nrf_bitmask_bit_is_set
	mov	r3, r0
	.loc 7 178 14
	cmp	r3, #0
	ite	ne
	movne	r3, #1
	moveq	r3, #0
	uxtb	r3, r3
	.loc 7 179 1
	mov	r0, r3
	add	sp, sp, #12
.LCFI124:
	@ sp needed
	ldr	pc, [sp], #4
.L176:
	.align	2
.L175:
	.word	m_cb+84
.LFE276:
	.size	pin_configured_check, .-pin_configured_check
	.section	.text.channel_port_get,"ax",%progbits
	.align	1
	.syntax unified
	.thumb
	.thumb_func
	.fpu fpv4-sp-d16
	.type	channel_port_get, %function
channel_port_get:
.LFB277:
	.loc 7 182 1
	@ args = 0, pretend = 0, frame = 8
	@ frame_needed = 0, uses_anonymous_args = 0
	@ link register save eliminated.
	sub	sp, sp, #8
.LCFI125:
	str	r0, [sp, #4]
	.loc 7 183 32
	ldr	r2, .L179
	ldr	r3, [sp, #4]
	add	r3, r3, r2
	adds	r3, r3, #48
	ldrsb	r3, [r3]
	.loc 7 184 1
	mov	r0, r3
	add	sp, sp, #8
.LCFI126:
	@ sp needed
	bx	lr
.L180:
	.align	2
.L179:
	.word	m_cb
.LFE277:
	.size	channel_port_get, .-channel_port_get
	.section	.text.channel_handler_get,"ax",%progbits
	.align	1
	.syntax unified
	.thumb
	.thumb_func
	.fpu fpv4-sp-d16
	.type	channel_handler_get, %function
channel_handler_get:
.LFB278:
	.loc 7 188 1
	@ args = 0, pretend = 0, frame = 8
	@ frame_needed = 0, uses_anonymous_args = 0
	@ link register save eliminated.
	sub	sp, sp, #8
.LCFI127:
	str	r0, [sp, #4]
	.loc 7 189 25
	ldr	r2, .L183
	ldr	r3, [sp, #4]
	ldr	r3, [r2, r3, lsl #2]
	.loc 7 190 1
	mov	r0, r3
	add	sp, sp, #8
.LCFI128:
	@ sp needed
	bx	lr
.L184:
	.align	2
.L183:
	.word	m_cb
.LFE278:
	.size	channel_handler_get, .-channel_handler_get
	.section	.text.channel_port_alloc,"ax",%progbits
	.align	1
	.syntax unified
	.thumb
	.thumb_func
	.fpu fpv4-sp-d16
	.type	channel_port_alloc, %function
channel_port_alloc:
.LFB279:
	.loc 7 194 1
	@ args = 0, pretend = 0, frame = 32
	@ frame_needed = 0, uses_anonymous_args = 0
	push	{lr}
.LCFI129:
	sub	sp, sp, #36
.LCFI130:
	str	r0, [sp, #12]
	str	r1, [sp, #8]
	mov	r3, r2
	strb	r3, [sp, #7]
	.loc 7 195 12
	movs	r3, #255
	strb	r3, [sp, #31]
	.loc 7 198 38
	ldrb	r3, [sp, #7]	@ zero_extendqisi2
	cmp	r3, #0
	beq	.L186
	.loc 7 198 38 is_stmt 0 discriminator 1
	movs	r3, #0
	b	.L187
.L186:
	.loc 7 198 38 discriminator 2
	movs	r3, #8
.L187:
	.loc 7 198 14 is_stmt 1 discriminator 4
	str	r3, [sp, #20]
	.loc 7 200 21 discriminator 4
	ldrb	r3, [sp, #7]	@ zero_extendqisi2
	cmp	r3, #0
	beq	.L188
	.loc 7 200 21 is_stmt 0 discriminator 1
	movs	r3, #8
	b	.L189
.L188:
	.loc 7 200 21 discriminator 2
	movs	r3, #12
.L189:
	.loc 7 199 14 is_stmt 1
	str	r3, [sp, #16]
	.loc 7 204 12
	ldr	r3, [sp, #20]
	str	r3, [sp, #24]
	.loc 7 204 5
	b	.L190
.L193:
	.loc 7 206 26
	ldr	r2, .L195
	ldr	r3, [sp, #24]
	ldr	r3, [r2, r3, lsl #2]
	.loc 7 206 12
	cmp	r3, #-1
	bne	.L191
	.loc 7 208 13
	ldrb	r3, [sp, #7]	@ zero_extendqisi2
	ldr	r2, [sp, #8]
	ldr	r1, [sp, #24]
	ldr	r0, [sp, #12]
	bl	pin_in_use_by_te_set
	.loc 7 209 24
	ldr	r3, [sp, #24]
	strb	r3, [sp, #31]
	.loc 7 210 13
	b	.L192
.L191:
	.loc 7 204 39 discriminator 2
	ldr	r3, [sp, #24]
	adds	r3, r3, #1
	str	r3, [sp, #24]
.L190:
	.loc 7 204 5 discriminator 1
	ldr	r2, [sp, #24]
	ldr	r3, [sp, #16]
	cmp	r2, r3
	bcc	.L193
.L192:
	.loc 7 214 12
	ldrsb	r3, [sp, #31]
	.loc 7 215 1
	mov	r0, r3
	add	sp, sp, #36
.LCFI131:
	@ sp needed
	ldr	pc, [sp], #4
.L196:
	.align	2
.L195:
	.word	m_cb
.LFE279:
	.size	channel_port_alloc, .-channel_port_alloc
	.section	.text.channel_free,"ax",%progbits
	.align	1
	.syntax unified
	.thumb
	.thumb_func
	.fpu fpv4-sp-d16
	.type	channel_free, %function
channel_free:
.LFB280:
	.loc 7 219 1
	@ args = 0, pretend = 0, frame = 8
	@ frame_needed = 0, uses_anonymous_args = 0
	@ link register save eliminated.
	sub	sp, sp, #8
.LCFI132:
	mov	r3, r0
	strb	r3, [sp, #7]
	.loc 7 220 18
	ldrb	r3, [sp, #7]	@ zero_extendqisi2
	.loc 7 220 31
	ldr	r2, .L200
	mov	r1, #-1
	str	r1, [r2, r3, lsl #2]
	.loc 7 221 8
	ldrb	r3, [sp, #7]	@ zero_extendqisi2
	cmp	r3, #7
	bls	.L199
	.loc 7 223 44
	ldrb	r3, [sp, #7]	@ zero_extendqisi2
	subs	r3, r3, #8
	.loc 7 223 49
	ldr	r2, .L200
	add	r3, r3, r2
	movs	r2, #255
	strb	r2, [r3, #80]
.L199:
	.loc 7 225 1
	nop
	add	sp, sp, #8
.LCFI133:
	@ sp needed
	bx	lr
.L201:
	.align	2
.L200:
	.word	m_cb
.LFE280:
	.size	channel_free, .-channel_free
	.section	.text.nrfx_gpiote_init,"ax",%progbits
	.align	1
	.global	nrfx_gpiote_init
	.syntax unified
	.thumb
	.thumb_func
	.fpu fpv4-sp-d16
	.type	nrfx_gpiote_init, %function
nrfx_gpiote_init:
.LFB281:
	.loc 7 229 1
	@ args = 0, pretend = 0, frame = 8
	@ frame_needed = 0, uses_anonymous_args = 0
	push	{lr}
.LCFI134:
	sub	sp, sp, #12
.LCFI135:
	.loc 7 232 13
	ldr	r3, .L209
	ldrb	r3, [r3, #88]	@ zero_extendqisi2
	.loc 7 232 8
	cmp	r3, #0
	beq	.L203
	.loc 7 234 18
	movs	r3, #8
	str	r3, [sp]
	.loc 7 238 16
	ldr	r3, [sp]
	b	.L204
.L203:
	.loc 7 243 12
	movs	r3, #0
	strb	r3, [sp, #7]
	.loc 7 243 5
	b	.L205
.L206:
	.loc 7 245 9 discriminator 3
	ldrb	r3, [sp, #7]	@ zero_extendqisi2
	mov	r0, r3
	bl	pin_in_use_clear
	.loc 7 243 28 discriminator 3
	ldrb	r3, [sp, #7]	@ zero_extendqisi2
	adds	r3, r3, #1
	strb	r3, [sp, #7]
.L205:
	.loc 7 243 5 discriminator 1
	ldrb	r3, [sp, #7]	@ zero_extendqisi2
	cmp	r3, #31
	bls	.L206
	.loc 7 248 12
	movs	r3, #0
	strb	r3, [sp, #7]
	.loc 7 248 5
	b	.L207
.L208:
	.loc 7 250 9 discriminator 3
	ldrb	r3, [sp, #7]	@ zero_extendqisi2
	mov	r0, r3
	bl	channel_free
	.loc 7 248 31 discriminator 3
	ldrb	r3, [sp, #7]	@ zero_extendqisi2
	adds	r3, r3, #1
	strb	r3, [sp, #7]
.L207:
	.loc 7 248 5 discriminator 1
	ldrb	r3, [sp, #7]	@ zero_extendqisi2
	cmp	r3, #11
	bls	.L208
	.loc 7 253 5
	movs	r2, #4
	movs	r1, #0
	ldr	r0, .L209+4
	bl	memset
	.loc 7 255 5
	movs	r1, #7
	movs	r0, #6
	bl	_NRFX_IRQ_PRIORITY_SET
	.loc 7 256 5
	movs	r0, #6
	bl	_NRFX_IRQ_ENABLE
	.loc 7 257 5
	mov	r0, #380
	bl	nrf_gpiote_event_clear
	.loc 7 258 5
	mov	r0, #-2147483648
	bl	nrf_gpiote_int_enable
	.loc 7 259 16
	ldr	r3, .L209
	movs	r2, #1
	strb	r2, [r3, #88]
	.loc 7 261 14
	movs	r3, #0
	str	r3, [sp]
	.loc 7 263 12
	ldr	r3, [sp]
.L204:
	.loc 7 264 1
	mov	r0, r3
	add	sp, sp, #12
.LCFI136:
	@ sp needed
	ldr	pc, [sp], #4
.L210:
	.align	2
.L209:
	.word	m_cb
	.word	m_cb+84
.LFE281:
	.size	nrfx_gpiote_init, .-nrfx_gpiote_init
	.section	.text.nrfx_gpiote_is_init,"ax",%progbits
	.align	1
	.global	nrfx_gpiote_is_init
	.syntax unified
	.thumb
	.thumb_func
	.fpu fpv4-sp-d16
	.type	nrfx_gpiote_is_init, %function
nrfx_gpiote_is_init:
.LFB282:
	.loc 7 268 1
	@ args = 0, pretend = 0, frame = 0
	@ frame_needed = 0, uses_anonymous_args = 0
	@ link register save eliminated.
	.loc 7 269 17
	ldr	r3, .L213
	ldrb	r3, [r3, #88]	@ zero_extendqisi2
	.loc 7 269 63
	cmp	r3, #0
	ite	ne
	movne	r3, #1
	moveq	r3, #0
	uxtb	r3, r3
	.loc 7 270 1
	mov	r0, r3
	bx	lr
.L214:
	.align	2
.L213:
	.word	m_cb
.LFE282:
	.size	nrfx_gpiote_is_init, .-nrfx_gpiote_is_init
	.section	.text.nrfx_gpiote_uninit,"ax",%progbits
	.align	1
	.global	nrfx_gpiote_uninit
	.syntax unified
	.thumb
	.thumb_func
	.fpu fpv4-sp-d16
	.type	nrfx_gpiote_uninit, %function
nrfx_gpiote_uninit:
.LFB283:
	.loc 7 274 1
	@ args = 0, pretend = 0, frame = 8
	@ frame_needed = 0, uses_anonymous_args = 0
	push	{lr}
.LCFI137:
	sub	sp, sp, #12
.LCFI138:
	.loc 7 279 12
	movs	r3, #0
	str	r3, [sp, #4]
	.loc 7 279 5
	b	.L216
.L219:
	.loc 7 281 13
	ldr	r0, [sp, #4]
	bl	pin_in_use_as_non_task_out
	mov	r3, r0
	.loc 7 281 12
	cmp	r3, #0
	beq	.L217
	.loc 7 283 13
	ldr	r0, [sp, #4]
	bl	nrfx_gpiote_out_uninit
	b	.L218
.L217:
	.loc 7 285 19
	ldr	r0, [sp, #4]
	bl	pin_in_use_by_gpiote
	mov	r3, r0
	.loc 7 285 17
	cmp	r3, #0
	beq	.L218
	.loc 7 290 13
	ldr	r0, [sp, #4]
	bl	nrfx_gpiote_in_uninit
.L218:
	.loc 7 279 28 discriminator 2
	ldr	r3, [sp, #4]
	adds	r3, r3, #1
	str	r3, [sp, #4]
.L216:
	.loc 7 279 5 discriminator 1
	ldr	r3, [sp, #4]
	cmp	r3, #31
	bls	.L219
	.loc 7 293 16
	ldr	r3, .L220
	movs	r2, #0
	strb	r2, [r3, #88]
	.loc 7 295 1
	nop
	add	sp, sp, #12
.LCFI139:
	@ sp needed
	ldr	pc, [sp], #4
.L221:
	.align	2
.L220:
	.word	m_cb
.LFE283:
	.size	nrfx_gpiote_uninit, .-nrfx_gpiote_uninit
	.section	.text.nrfx_gpiote_out_init,"ax",%progbits
	.align	1
	.global	nrfx_gpiote_out_init
	.syntax unified
	.thumb
	.thumb_func
	.fpu fpv4-sp-d16
	.type	nrfx_gpiote_out_init, %function
nrfx_gpiote_out_init:
.LFB284:
	.loc 7 300 1
	@ args = 0, pretend = 0, frame = 16
	@ frame_needed = 0, uses_anonymous_args = 0
	push	{lr}
.LCFI140:
	sub	sp, sp, #20
.LCFI141:
	str	r0, [sp, #4]
	str	r1, [sp]
	.loc 7 305 16
	movs	r3, #0
	str	r3, [sp, #12]
	.loc 7 307 9
	ldr	r0, [sp, #4]
	bl	pin_in_use
	mov	r3, r0
	.loc 7 307 8
	cmp	r3, #0
	beq	.L223
	.loc 7 309 18
	movs	r3, #8
	str	r3, [sp, #12]
	b	.L224
.L223:
	.loc 7 313 21
	ldr	r3, [sp]
	ldrb	r3, [r3, #2]	@ zero_extendqisi2
	.loc 7 313 12
	cmp	r3, #0
	beq	.L225
.LBB2:
	.loc 7 315 30
	movs	r2, #1
	movs	r1, #0
	ldr	r0, [sp, #4]
	bl	channel_port_alloc
	mov	r3, r0
	strb	r3, [sp, #11]
	.loc 7 317 16
	ldrsb	r3, [sp, #11]
	cmp	r3, #-1
	beq	.L226
	.loc 7 319 17
	ldrsb	r0, [sp, #11]
	ldr	r3, [sp]
	ldrb	r2, [r3]	@ zero_extendqisi2
	ldr	r3, [sp]
	ldrb	r3, [r3, #1]	@ zero_extendqisi2
	ldr	r1, [sp, #4]
	bl	nrf_gpiote_task_configure
	b	.L227
.L226:
	.loc 7 326 26
	movs	r3, #4
	str	r3, [sp, #12]
	b	.L227
.L225:
.LBE2:
	.loc 7 331 13
	ldr	r0, [sp, #4]
	bl	pin_in_use_set
.L227:
	.loc 7 334 12
	ldr	r3, [sp, #12]
	cmp	r3, #0
	bne	.L224
	.loc 7 336 25
	ldr	r3, [sp]
	ldrb	r3, [r3, #1]	@ zero_extendqisi2
	.loc 7 336 16
	cmp	r3, #1
	bne	.L228
	.loc 7 338 17
	ldr	r0, [sp, #4]
	bl	nrf_gpio_pin_set
	b	.L229
.L228:
	.loc 7 342 17
	ldr	r0, [sp, #4]
	bl	nrf_gpio_pin_clear
.L229:
	.loc 7 345 13
	ldr	r0, [sp, #4]
	bl	nrf_gpio_cfg_output
	.loc 7 346 13
	ldr	r0, [sp, #4]
	bl	pin_configured_set
.L224:
	.loc 7 351 12
	ldr	r3, [sp, #12]
	.loc 7 352 1
	mov	r0, r3
	add	sp, sp, #20
.LCFI142:
	@ sp needed
	ldr	pc, [sp], #4
.LFE284:
	.size	nrfx_gpiote_out_init, .-nrfx_gpiote_out_init
	.section	.text.nrfx_gpiote_out_uninit,"ax",%progbits
	.align	1
	.global	nrfx_gpiote_out_uninit
	.syntax unified
	.thumb
	.thumb_func
	.fpu fpv4-sp-d16
	.type	nrfx_gpiote_out_uninit, %function
nrfx_gpiote_out_uninit:
.LFB285:
	.loc 7 356 1
	@ args = 0, pretend = 0, frame = 8
	@ frame_needed = 0, uses_anonymous_args = 0
	push	{lr}
.LCFI143:
	sub	sp, sp, #12
.LCFI144:
	str	r0, [sp, #4]
	.loc 7 360 9
	ldr	r0, [sp, #4]
	bl	pin_in_use_by_te
	mov	r3, r0
	.loc 7 360 8
	cmp	r3, #0
	beq	.L232
	.loc 7 362 31
	ldr	r0, [sp, #4]
	bl	channel_port_get
	mov	r3, r0
	.loc 7 362 9
	uxtb	r3, r3
	mov	r0, r3
	bl	channel_free
	.loc 7 363 41
	ldr	r0, [sp, #4]
	bl	channel_port_get
	mov	r3, r0
	.loc 7 363 9
	mov	r0, r3
	bl	nrf_gpiote_te_default
.L232:
	.loc 7 365 5
	ldr	r0, [sp, #4]
	bl	pin_in_use_clear
	.loc 7 367 9
	ldr	r0, [sp, #4]
	bl	pin_configured_check
	mov	r3, r0
	.loc 7 367 8
	cmp	r3, #0
	beq	.L234
	.loc 7 369 9
	ldr	r0, [sp, #4]
	bl	nrf_gpio_cfg_default
	.loc 7 370 9
	ldr	r0, [sp, #4]
	bl	pin_configured_clear
.L234:
	.loc 7 372 1
	nop
	add	sp, sp, #12
.LCFI145:
	@ sp needed
	ldr	pc, [sp], #4
.LFE285:
	.size	nrfx_gpiote_out_uninit, .-nrfx_gpiote_out_uninit
	.section	.text.nrfx_gpiote_out_set,"ax",%progbits
	.align	1
	.global	nrfx_gpiote_out_set
	.syntax unified
	.thumb
	.thumb_func
	.fpu fpv4-sp-d16
	.type	nrfx_gpiote_out_set, %function
nrfx_gpiote_out_set:
.LFB286:
	.loc 7 376 1
	@ args = 0, pretend = 0, frame = 8
	@ frame_needed = 0, uses_anonymous_args = 0
	push	{lr}
.LCFI146:
	sub	sp, sp, #12
.LCFI147:
	str	r0, [sp, #4]
	.loc 7 381 5
	ldr	r0, [sp, #4]
	bl	nrf_gpio_pin_set
	.loc 7 382 1
	nop
	add	sp, sp, #12
.LCFI148:
	@ sp needed
	ldr	pc, [sp], #4
.LFE286:
	.size	nrfx_gpiote_out_set, .-nrfx_gpiote_out_set
	.section	.text.nrfx_gpiote_out_clear,"ax",%progbits
	.align	1
	.global	nrfx_gpiote_out_clear
	.syntax unified
	.thumb
	.thumb_func
	.fpu fpv4-sp-d16
	.type	nrfx_gpiote_out_clear, %function
nrfx_gpiote_out_clear:
.LFB287:
	.loc 7 386 1
	@ args = 0, pretend = 0, frame = 8
	@ frame_needed = 0, uses_anonymous_args = 0
	push	{lr}
.LCFI149:
	sub	sp, sp, #12
.LCFI150:
	str	r0, [sp, #4]
	.loc 7 391 5
	ldr	r0, [sp, #4]
	bl	nrf_gpio_pin_clear
	.loc 7 392 1
	nop
	add	sp, sp, #12
.LCFI151:
	@ sp needed
	ldr	pc, [sp], #4
.LFE287:
	.size	nrfx_gpiote_out_clear, .-nrfx_gpiote_out_clear
	.section	.text.nrfx_gpiote_out_toggle,"ax",%progbits
	.align	1
	.global	nrfx_gpiote_out_toggle
	.syntax unified
	.thumb
	.thumb_func
	.fpu fpv4-sp-d16
	.type	nrfx_gpiote_out_toggle, %function
nrfx_gpiote_out_toggle:
.LFB288:
	.loc 7 396 1
	@ args = 0, pretend = 0, frame = 8
	@ frame_needed = 0, uses_anonymous_args = 0
	push	{lr}
.LCFI152:
	sub	sp, sp, #12
.LCFI153:
	str	r0, [sp, #4]
	.loc 7 401 5
	ldr	r0, [sp, #4]
	bl	nrf_gpio_pin_toggle
	.loc 7 402 1
	nop
	add	sp, sp, #12
.LCFI154:
	@ sp needed
	ldr	pc, [sp], #4
.LFE288:
	.size	nrfx_gpiote_out_toggle, .-nrfx_gpiote_out_toggle
	.section	.text.nrfx_gpiote_out_task_enable,"ax",%progbits
	.align	1
	.global	nrfx_gpiote_out_task_enable
	.syntax unified
	.thumb
	.thumb_func
	.fpu fpv4-sp-d16
	.type	nrfx_gpiote_out_task_enable, %function
nrfx_gpiote_out_task_enable:
.LFB289:
	.loc 7 406 1
	@ args = 0, pretend = 0, frame = 8
	@ frame_needed = 0, uses_anonymous_args = 0
	push	{lr}
.LCFI155:
	sub	sp, sp, #12
.LCFI156:
	str	r0, [sp, #4]
	.loc 7 411 58
	ldr	r2, .L239
	ldr	r3, [sp, #4]
	add	r3, r3, r2
	adds	r3, r3, #48
	ldrsb	r3, [r3]
	.loc 7 411 5
	mov	r0, r3
	bl	nrf_gpiote_task_enable
	.loc 7 412 1
	nop
	add	sp, sp, #12
.LCFI157:
	@ sp needed
	ldr	pc, [sp], #4
.L240:
	.align	2
.L239:
	.word	m_cb
.LFE289:
	.size	nrfx_gpiote_out_task_enable, .-nrfx_gpiote_out_task_enable
	.section	.text.nrfx_gpiote_out_task_disable,"ax",%progbits
	.align	1
	.global	nrfx_gpiote_out_task_disable
	.syntax unified
	.thumb
	.thumb_func
	.fpu fpv4-sp-d16
	.type	nrfx_gpiote_out_task_disable, %function
nrfx_gpiote_out_task_disable:
.LFB290:
	.loc 7 416 1
	@ args = 0, pretend = 0, frame = 8
	@ frame_needed = 0, uses_anonymous_args = 0
	push	{lr}
.LCFI158:
	sub	sp, sp, #12
.LCFI159:
	str	r0, [sp, #4]
	.loc 7 421 59
	ldr	r2, .L242
	ldr	r3, [sp, #4]
	add	r3, r3, r2
	adds	r3, r3, #48
	ldrsb	r3, [r3]
	.loc 7 421 5
	mov	r0, r3
	bl	nrf_gpiote_task_disable
	.loc 7 422 1
	nop
	add	sp, sp, #12
.LCFI160:
	@ sp needed
	ldr	pc, [sp], #4
.L243:
	.align	2
.L242:
	.word	m_cb
.LFE290:
	.size	nrfx_gpiote_out_task_disable, .-nrfx_gpiote_out_task_disable
	.section	.text.nrfx_gpiote_out_task_addr_get,"ax",%progbits
	.align	1
	.global	nrfx_gpiote_out_task_addr_get
	.syntax unified
	.thumb
	.thumb_func
	.fpu fpv4-sp-d16
	.type	nrfx_gpiote_out_task_addr_get, %function
nrfx_gpiote_out_task_addr_get:
.LFB291:
	.loc 7 426 1
	@ args = 0, pretend = 0, frame = 16
	@ frame_needed = 0, uses_anonymous_args = 0
	push	{lr}
.LCFI161:
	sub	sp, sp, #20
.LCFI162:
	str	r0, [sp, #4]
	.loc 7 430 118
	ldr	r0, [sp, #4]
	bl	channel_port_get
	mov	r3, r0
	.loc 7 430 31
	uxtb	r3, r3
	.loc 7 430 24
	lsls	r3, r3, #2
	strb	r3, [sp, #15]
	.loc 7 431 12
	ldrb	r3, [sp, #15]	@ zero_extendqisi2
	mov	r0, r3
	bl	nrf_gpiote_task_addr_get
	mov	r3, r0
	.loc 7 432 1
	mov	r0, r3
	add	sp, sp, #20
.LCFI163:
	@ sp needed
	ldr	pc, [sp], #4
.LFE291:
	.size	nrfx_gpiote_out_task_addr_get, .-nrfx_gpiote_out_task_addr_get
	.section	.text.nrfx_gpiote_set_task_addr_get,"ax",%progbits
	.align	1
	.global	nrfx_gpiote_set_task_addr_get
	.syntax unified
	.thumb
	.thumb_func
	.fpu fpv4-sp-d16
	.type	nrfx_gpiote_set_task_addr_get, %function
nrfx_gpiote_set_task_addr_get:
.LFB292:
	.loc 7 437 1
	@ args = 0, pretend = 0, frame = 16
	@ frame_needed = 0, uses_anonymous_args = 0
	push	{lr}
.LCFI164:
	sub	sp, sp, #20
.LCFI165:
	str	r0, [sp, #4]
	.loc 7 441 118
	ldr	r0, [sp, #4]
	bl	channel_port_get
	mov	r3, r0
	.loc 7 441 85
	uxtb	r3, r3
	adds	r3, r3, #12
	uxtb	r3, r3
	.loc 7 441 24
	lsls	r3, r3, #2
	strb	r3, [sp, #15]
	.loc 7 442 12
	ldrb	r3, [sp, #15]	@ zero_extendqisi2
	mov	r0, r3
	bl	nrf_gpiote_task_addr_get
	mov	r3, r0
	.loc 7 443 1
	mov	r0, r3
	add	sp, sp, #20
.LCFI166:
	@ sp needed
	ldr	pc, [sp], #4
.LFE292:
	.size	nrfx_gpiote_set_task_addr_get, .-nrfx_gpiote_set_task_addr_get
	.section	.text.nrfx_gpiote_clr_task_addr_get,"ax",%progbits
	.align	1
	.global	nrfx_gpiote_clr_task_addr_get
	.syntax unified
	.thumb
	.thumb_func
	.fpu fpv4-sp-d16
	.type	nrfx_gpiote_clr_task_addr_get, %function
nrfx_gpiote_clr_task_addr_get:
.LFB293:
	.loc 7 450 1
	@ args = 0, pretend = 0, frame = 16
	@ frame_needed = 0, uses_anonymous_args = 0
	push	{lr}
.LCFI167:
	sub	sp, sp, #20
.LCFI168:
	str	r0, [sp, #4]
	.loc 7 454 118
	ldr	r0, [sp, #4]
	bl	channel_port_get
	mov	r3, r0
	.loc 7 454 85
	uxtb	r3, r3
	adds	r3, r3, #24
	uxtb	r3, r3
	.loc 7 454 24
	lsls	r3, r3, #2
	strb	r3, [sp, #15]
	.loc 7 455 12
	ldrb	r3, [sp, #15]	@ zero_extendqisi2
	mov	r0, r3
	bl	nrf_gpiote_task_addr_get
	mov	r3, r0
	.loc 7 456 1
	mov	r0, r3
	add	sp, sp, #20
.LCFI169:
	@ sp needed
	ldr	pc, [sp], #4
.LFE293:
	.size	nrfx_gpiote_clr_task_addr_get, .-nrfx_gpiote_clr_task_addr_get
	.section	.text.nrfx_gpiote_out_task_force,"ax",%progbits
	.align	1
	.global	nrfx_gpiote_out_task_force
	.syntax unified
	.thumb
	.thumb_func
	.fpu fpv4-sp-d16
	.type	nrfx_gpiote_out_task_force, %function
nrfx_gpiote_out_task_force:
.LFB294:
	.loc 7 462 1
	@ args = 0, pretend = 0, frame = 16
	@ frame_needed = 0, uses_anonymous_args = 0
	push	{lr}
.LCFI170:
	sub	sp, sp, #20
.LCFI171:
	str	r0, [sp, #4]
	mov	r3, r1
	strb	r3, [sp, #3]
	.loc 7 468 47
	ldrb	r3, [sp, #3]	@ zero_extendqisi2
	cmp	r3, #0
	ite	ne
	movne	r3, #1
	moveq	r3, #0
	uxtb	r3, r3
	.loc 7 467 26
	strb	r3, [sp, #15]
	.loc 7 469 57
	ldr	r2, .L251
	ldr	r3, [sp, #4]
	add	r3, r3, r2
	adds	r3, r3, #48
	ldrsb	r3, [r3]
	.loc 7 469 5
	mov	r2, r3
	ldrb	r3, [sp, #15]	@ zero_extendqisi2
	mov	r1, r3
	mov	r0, r2
	bl	nrf_gpiote_task_force
	.loc 7 470 1
	nop
	add	sp, sp, #20
.LCFI172:
	@ sp needed
	ldr	pc, [sp], #4
.L252:
	.align	2
.L251:
	.word	m_cb
.LFE294:
	.size	nrfx_gpiote_out_task_force, .-nrfx_gpiote_out_task_force
	.section	.text.nrfx_gpiote_out_task_trigger,"ax",%progbits
	.align	1
	.global	nrfx_gpiote_out_task_trigger
	.syntax unified
	.thumb
	.thumb_func
	.fpu fpv4-sp-d16
	.type	nrfx_gpiote_out_task_trigger, %function
nrfx_gpiote_out_task_trigger:
.LFB295:
	.loc 7 474 1
	@ args = 0, pretend = 0, frame = 16
	@ frame_needed = 0, uses_anonymous_args = 0
	push	{lr}
.LCFI173:
	sub	sp, sp, #20
.LCFI174:
	str	r0, [sp, #4]
	.loc 7 479 118
	ldr	r0, [sp, #4]
	bl	channel_port_get
	mov	r3, r0
	.loc 7 479 31
	uxtb	r3, r3
	.loc 7 479 24
	lsls	r3, r3, #2
	strb	r3, [sp, #15]
	.loc 7 480 5
	ldrb	r3, [sp, #15]	@ zero_extendqisi2
	mov	r0, r3
	bl	nrf_gpiote_task_set
	.loc 7 481 1
	nop
	add	sp, sp, #20
.LCFI175:
	@ sp needed
	ldr	pc, [sp], #4
.LFE295:
	.size	nrfx_gpiote_out_task_trigger, .-nrfx_gpiote_out_task_trigger
	.section	.text.nrfx_gpiote_set_task_trigger,"ax",%progbits
	.align	1
	.global	nrfx_gpiote_set_task_trigger
	.syntax unified
	.thumb
	.thumb_func
	.fpu fpv4-sp-d16
	.type	nrfx_gpiote_set_task_trigger, %function
nrfx_gpiote_set_task_trigger:
.LFB296:
	.loc 7 486 1
	@ args = 0, pretend = 0, frame = 16
	@ frame_needed = 0, uses_anonymous_args = 0
	push	{lr}
.LCFI176:
	sub	sp, sp, #20
.LCFI177:
	str	r0, [sp, #4]
	.loc 7 491 118
	ldr	r0, [sp, #4]
	bl	channel_port_get
	mov	r3, r0
	.loc 7 491 85
	uxtb	r3, r3
	adds	r3, r3, #12
	uxtb	r3, r3
	.loc 7 491 24
	lsls	r3, r3, #2
	strb	r3, [sp, #15]
	.loc 7 492 5
	ldrb	r3, [sp, #15]	@ zero_extendqisi2
	mov	r0, r3
	bl	nrf_gpiote_task_set
	.loc 7 493 1
	nop
	add	sp, sp, #20
.LCFI178:
	@ sp needed
	ldr	pc, [sp], #4
.LFE296:
	.size	nrfx_gpiote_set_task_trigger, .-nrfx_gpiote_set_task_trigger
	.section	.text.nrfx_gpiote_clr_task_trigger,"ax",%progbits
	.align	1
	.global	nrfx_gpiote_clr_task_trigger
	.syntax unified
	.thumb
	.thumb_func
	.fpu fpv4-sp-d16
	.type	nrfx_gpiote_clr_task_trigger, %function
nrfx_gpiote_clr_task_trigger:
.LFB297:
	.loc 7 500 1
	@ args = 0, pretend = 0, frame = 16
	@ frame_needed = 0, uses_anonymous_args = 0
	push	{lr}
.LCFI179:
	sub	sp, sp, #20
.LCFI180:
	str	r0, [sp, #4]
	.loc 7 505 118
	ldr	r0, [sp, #4]
	bl	channel_port_get
	mov	r3, r0
	.loc 7 505 85
	uxtb	r3, r3
	adds	r3, r3, #24
	uxtb	r3, r3
	.loc 7 505 24
	lsls	r3, r3, #2
	strb	r3, [sp, #15]
	.loc 7 506 5
	ldrb	r3, [sp, #15]	@ zero_extendqisi2
	mov	r0, r3
	bl	nrf_gpiote_task_set
	.loc 7 507 1
	nop
	add	sp, sp, #20
.LCFI181:
	@ sp needed
	ldr	pc, [sp], #4
.LFE297:
	.size	nrfx_gpiote_clr_task_trigger, .-nrfx_gpiote_clr_task_trigger
	.section	.text.nrfx_gpiote_in_init,"ax",%progbits
	.align	1
	.global	nrfx_gpiote_in_init
	.syntax unified
	.thumb
	.thumb_func
	.fpu fpv4-sp-d16
	.type	nrfx_gpiote_in_init, %function
nrfx_gpiote_in_init:
.LFB298:
	.loc 7 515 1
	@ args = 0, pretend = 0, frame = 24
	@ frame_needed = 0, uses_anonymous_args = 0
	push	{lr}
.LCFI182:
	sub	sp, sp, #28
.LCFI183:
	str	r0, [sp, #12]
	str	r1, [sp, #8]
	str	r2, [sp, #4]
	.loc 7 517 16
	movs	r3, #0
	str	r3, [sp, #20]
	.loc 7 520 9
	ldr	r0, [sp, #12]
	bl	pin_in_use_by_gpiote
	mov	r3, r0
	.loc 7 520 8
	cmp	r3, #0
	beq	.L257
	.loc 7 522 18
	movs	r3, #8
	str	r3, [sp, #20]
	b	.L258
.L257:
.LBB3:
	.loc 7 526 26
	ldr	r3, [sp, #8]
	ldrb	r3, [r3, #2]
	ubfx	r3, r3, #1, #1
	uxtb	r3, r3
	mov	r2, r3
	ldr	r1, [sp, #4]
	ldr	r0, [sp, #12]
	bl	channel_port_alloc
	mov	r3, r0
	strb	r3, [sp, #19]
	.loc 7 527 12
	ldrsb	r3, [sp, #19]
	cmp	r3, #-1
	beq	.L259
	.loc 7 529 26
	ldr	r3, [sp, #8]
	ldrb	r3, [r3, #2]
	ubfx	r3, r3, #2, #1
	uxtb	r3, r3
	.loc 7 529 17
	eor	r3, r3, #1
	uxtb	r3, r3
	.loc 7 529 16
	cmp	r3, #0
	beq	.L260
	.loc 7 531 21
	ldr	r3, [sp, #8]
	ldrb	r3, [r3, #2]	@ zero_extendqisi2
	and	r3, r3, #1
	uxtb	r3, r3
	.loc 7 531 20
	cmp	r3, #0
	beq	.L261
	.loc 7 533 21
	ldr	r0, [sp, #12]
	bl	nrf_gpio_cfg_watcher
	b	.L262
.L261:
	.loc 7 537 21
	ldr	r3, [sp, #8]
	ldrb	r3, [r3, #1]	@ zero_extendqisi2
	mov	r1, r3
	ldr	r0, [sp, #12]
	bl	nrf_gpio_cfg_input
.L262:
	.loc 7 539 17
	ldr	r0, [sp, #12]
	bl	pin_configured_set
.L260:
	.loc 7 542 17
	ldr	r3, [sp, #8]
	ldrb	r3, [r3, #2]	@ zero_extendqisi2
	and	r3, r3, #2
	uxtb	r3, r3
	.loc 7 542 16
	cmp	r3, #0
	beq	.L263
	.loc 7 544 17
	ldrsb	r0, [sp, #19]
	ldr	r3, [sp, #8]
	ldrb	r3, [r3]	@ zero_extendqisi2
	mov	r2, r3
	ldr	r1, [sp, #12]
	bl	nrf_gpiote_event_configure
	b	.L258
.L263:
	.loc 7 549 44
	ldrsb	r3, [sp, #19]
	subs	r3, r3, #8
	ldr	r2, .L265
	add	r3, r3, r2
	ldrsb	r1, [r3, #80]
	.loc 7 549 56
	ldr	r3, [sp, #8]
	ldrb	r3, [r3]	@ zero_extendqisi2
	.loc 7 549 65
	lsls	r3, r3, #6
	.loc 7 549 44
	sxtb	r2, r3
	ldrsb	r3, [sp, #19]
	subs	r3, r3, #8
	orrs	r2, r2, r1
	sxtb	r1, r2
	ldr	r2, .L265
	add	r3, r3, r2
	mov	r2, r1
	strb	r2, [r3, #80]
	b	.L258
.L259:
	.loc 7 554 22
	movs	r3, #4
	str	r3, [sp, #20]
.L258:
.LBE3:
	.loc 7 559 12
	ldr	r3, [sp, #20]
	.loc 7 560 1
	mov	r0, r3
	add	sp, sp, #28
.LCFI184:
	@ sp needed
	ldr	pc, [sp], #4
.L266:
	.align	2
.L265:
	.word	m_cb
.LFE298:
	.size	nrfx_gpiote_in_init, .-nrfx_gpiote_in_init
	.section	.text.nrfx_gpiote_in_event_enable,"ax",%progbits
	.align	1
	.global	nrfx_gpiote_in_event_enable
	.syntax unified
	.thumb
	.thumb_func
	.fpu fpv4-sp-d16
	.type	nrfx_gpiote_in_event_enable, %function
nrfx_gpiote_in_event_enable:
.LFB299:
	.loc 7 563 1
	@ args = 0, pretend = 0, frame = 32
	@ frame_needed = 0, uses_anonymous_args = 0
	push	{lr}
.LCFI185:
	sub	sp, sp, #36
.LCFI186:
	str	r0, [sp, #4]
	mov	r3, r1
	strb	r3, [sp, #3]
	.loc 7 566 9
	ldr	r0, [sp, #4]
	bl	pin_in_use_by_port
	mov	r3, r0
	.loc 7 566 8
	cmp	r3, #0
	beq	.L268
.LBB4:
	.loc 7 569 37
	ldr	r0, [sp, #4]
	bl	channel_port_get
	mov	r3, r0
	.loc 7 569 59
	subs	r3, r3, #8
	.loc 7 569 36
	ldr	r2, .L277
	add	r3, r3, r2
	ldrsb	r3, [r3, #80]
	.loc 7 568 17
	strb	r3, [sp, #15]
	.loc 7 570 31
	ldrb	r3, [sp, #15]	@ zero_extendqisi2
	lsrs	r3, r3, #6
	strb	r3, [sp, #14]
	.loc 7 573 12
	ldrb	r3, [sp, #14]	@ zero_extendqisi2
	cmp	r3, #3
	bne	.L269
	.loc 7 576 22
	ldr	r0, [sp, #4]
	bl	nrf_gpio_pin_read
	mov	r3, r0
	.loc 7 577 44
	cmp	r3, #0
	beq	.L270
	.loc 7 577 44 is_stmt 0 discriminator 1
	movs	r3, #3
	b	.L271
.L270:
	.loc 7 577 44 discriminator 2
	movs	r3, #2
.L271:
	.loc 7 576 19 is_stmt 1
	strb	r3, [sp, #31]
	b	.L272
.L269:
	.loc 7 582 45
	ldrb	r3, [sp, #14]	@ zero_extendqisi2
	cmp	r3, #1
	bne	.L273
	.loc 7 582 45 is_stmt 0 discriminator 1
	movs	r3, #2
	b	.L274
.L273:
	.loc 7 582 45 discriminator 2
	movs	r3, #3
.L274:
	.loc 7 581 19 is_stmt 1
	strb	r3, [sp, #31]
.L272:
	.loc 7 584 9
	ldrb	r3, [sp, #31]	@ zero_extendqisi2
	mov	r1, r3
	ldr	r0, [sp, #4]
	bl	nrf_gpio_cfg_sense_set
.LBE4:
	.loc 7 604 1
	b	.L276
.L268:
	.loc 7 586 14
	ldr	r0, [sp, #4]
	bl	pin_in_use_by_te
	mov	r3, r0
	.loc 7 586 13
	cmp	r3, #0
	beq	.L276
.LBB5:
	.loc 7 588 36
	ldr	r0, [sp, #4]
	bl	channel_port_get
	mov	r3, r0
	.loc 7 588 17
	str	r3, [sp, #24]
	.loc 7 589 92
	ldr	r3, [sp, #24]
	uxth	r3, r3
	adds	r3, r3, #64
	uxth	r3, r3
	.loc 7 589 29
	lsls	r3, r3, #2
	strh	r3, [sp, #22]	@ movhi
	.loc 7 591 9
	ldr	r3, [sp, #24]
	mov	r0, r3
	bl	nrf_gpiote_event_enable
	.loc 7 593 9
	ldrh	r3, [sp, #22]
	mov	r0, r3
	bl	nrf_gpiote_event_clear
	.loc 7 594 12
	ldrb	r3, [sp, #3]	@ zero_extendqisi2
	cmp	r3, #0
	beq	.L276
.LBB6:
	.loc 7 596 79
	ldr	r0, [sp, #4]
	bl	channel_port_get
	mov	r3, r0
	.loc 7 596 49
	mov	r0, r3
	bl	channel_handler_get
	str	r0, [sp, #16]
	.loc 7 598 16
	ldr	r3, [sp, #16]
	cmp	r3, #0
	beq	.L276
	.loc 7 600 41
	movs	r2, #1
	ldr	r3, [sp, #24]
	lsl	r3, r2, r3
	.loc 7 600 17
	mov	r0, r3
	bl	nrf_gpiote_int_enable
.L276:
.LBE6:
.LBE5:
	.loc 7 604 1
	nop
	add	sp, sp, #36
.LCFI187:
	@ sp needed
	ldr	pc, [sp], #4
.L278:
	.align	2
.L277:
	.word	m_cb
.LFE299:
	.size	nrfx_gpiote_in_event_enable, .-nrfx_gpiote_in_event_enable
	.section	.text.nrfx_gpiote_in_event_disable,"ax",%progbits
	.align	1
	.global	nrfx_gpiote_in_event_disable
	.syntax unified
	.thumb
	.thumb_func
	.fpu fpv4-sp-d16
	.type	nrfx_gpiote_in_event_disable, %function
nrfx_gpiote_in_event_disable:
.LFB300:
	.loc 7 608 1
	@ args = 0, pretend = 0, frame = 16
	@ frame_needed = 0, uses_anonymous_args = 0
	push	{lr}
.LCFI188:
	sub	sp, sp, #20
.LCFI189:
	str	r0, [sp, #4]
	.loc 7 611 9
	ldr	r0, [sp, #4]
	bl	pin_in_use_by_port
	mov	r3, r0
	.loc 7 611 8
	cmp	r3, #0
	beq	.L280
	.loc 7 613 9
	movs	r1, #0
	ldr	r0, [sp, #4]
	bl	nrf_gpio_cfg_sense_set
	.loc 7 621 1
	b	.L282
.L280:
	.loc 7 615 14
	ldr	r0, [sp, #4]
	bl	pin_in_use_by_te
	mov	r3, r0
	.loc 7 615 13
	cmp	r3, #0
	beq	.L282
.LBB7:
	.loc 7 617 36
	ldr	r0, [sp, #4]
	bl	channel_port_get
	mov	r3, r0
	.loc 7 617 17
	str	r3, [sp, #12]
	.loc 7 618 9
	ldr	r3, [sp, #12]
	mov	r0, r3
	bl	nrf_gpiote_event_disable
	.loc 7 619 34
	movs	r2, #1
	ldr	r3, [sp, #12]
	lsl	r3, r2, r3
	.loc 7 619 9
	mov	r0, r3
	bl	nrf_gpiote_int_disable
.L282:
.LBE7:
	.loc 7 621 1
	nop
	add	sp, sp, #20
.LCFI190:
	@ sp needed
	ldr	pc, [sp], #4
.LFE300:
	.size	nrfx_gpiote_in_event_disable, .-nrfx_gpiote_in_event_disable
	.section	.text.nrfx_gpiote_in_uninit,"ax",%progbits
	.align	1
	.global	nrfx_gpiote_in_uninit
	.syntax unified
	.thumb
	.thumb_func
	.fpu fpv4-sp-d16
	.type	nrfx_gpiote_in_uninit, %function
nrfx_gpiote_in_uninit:
.LFB301:
	.loc 7 625 1
	@ args = 0, pretend = 0, frame = 8
	@ frame_needed = 0, uses_anonymous_args = 0
	push	{lr}
.LCFI191:
	sub	sp, sp, #12
.LCFI192:
	str	r0, [sp, #4]
	.loc 7 628 5
	ldr	r0, [sp, #4]
	bl	nrfx_gpiote_in_event_disable
	.loc 7 629 9
	ldr	r0, [sp, #4]
	bl	pin_in_use_by_te
	mov	r3, r0
	.loc 7 629 8
	cmp	r3, #0
	beq	.L284
	.loc 7 631 41
	ldr	r0, [sp, #4]
	bl	channel_port_get
	mov	r3, r0
	.loc 7 631 9
	mov	r0, r3
	bl	nrf_gpiote_te_default
.L284:
	.loc 7 633 9
	ldr	r0, [sp, #4]
	bl	pin_configured_check
	mov	r3, r0
	.loc 7 633 8
	cmp	r3, #0
	beq	.L285
	.loc 7 635 9
	ldr	r0, [sp, #4]
	bl	nrf_gpio_cfg_default
	.loc 7 636 9
	ldr	r0, [sp, #4]
	bl	pin_configured_clear
.L285:
	.loc 7 638 27
	ldr	r0, [sp, #4]
	bl	channel_port_get
	mov	r3, r0
	.loc 7 638 5
	uxtb	r3, r3
	mov	r0, r3
	bl	channel_free
	.loc 7 639 5
	ldr	r0, [sp, #4]
	bl	pin_in_use_clear
	.loc 7 640 1
	nop
	add	sp, sp, #12
.LCFI193:
	@ sp needed
	ldr	pc, [sp], #4
.LFE301:
	.size	nrfx_gpiote_in_uninit, .-nrfx_gpiote_in_uninit
	.section	.text.nrfx_gpiote_in_is_set,"ax",%progbits
	.align	1
	.global	nrfx_gpiote_in_is_set
	.syntax unified
	.thumb
	.thumb_func
	.fpu fpv4-sp-d16
	.type	nrfx_gpiote_in_is_set, %function
nrfx_gpiote_in_is_set:
.LFB302:
	.loc 7 644 1
	@ args = 0, pretend = 0, frame = 8
	@ frame_needed = 0, uses_anonymous_args = 0
	push	{lr}
.LCFI194:
	sub	sp, sp, #12
.LCFI195:
	str	r0, [sp, #4]
	.loc 7 646 12
	ldr	r0, [sp, #4]
	bl	nrf_gpio_pin_read
	mov	r3, r0
	.loc 7 646 41
	cmp	r3, #0
	ite	ne
	movne	r3, #1
	moveq	r3, #0
	uxtb	r3, r3
	.loc 7 647 1
	mov	r0, r3
	add	sp, sp, #12
.LCFI196:
	@ sp needed
	ldr	pc, [sp], #4
.LFE302:
	.size	nrfx_gpiote_in_is_set, .-nrfx_gpiote_in_is_set
	.section	.text.nrfx_gpiote_in_event_addr_get,"ax",%progbits
	.align	1
	.global	nrfx_gpiote_in_event_addr_get
	.syntax unified
	.thumb
	.thumb_func
	.fpu fpv4-sp-d16
	.type	nrfx_gpiote_in_event_addr_get, %function
nrfx_gpiote_in_event_addr_get:
.LFB303:
	.loc 7 651 1
	@ args = 0, pretend = 0, frame = 16
	@ frame_needed = 0, uses_anonymous_args = 0
	push	{lr}
.LCFI197:
	sub	sp, sp, #20
.LCFI198:
	str	r0, [sp, #4]
	.loc 7 655 25
	mov	r3, #380
	strh	r3, [sp, #14]	@ movhi
	.loc 7 657 9
	ldr	r0, [sp, #4]
	bl	pin_in_use_by_te
	mov	r3, r0
	.loc 7 657 8
	cmp	r3, #0
	beq	.L289
	.loc 7 659 105
	ldr	r0, [sp, #4]
	bl	channel_port_get
	mov	r3, r0
	.loc 7 659 72
	uxth	r3, r3
	adds	r3, r3, #64
	uxth	r3, r3
	.loc 7 659 15
	lsls	r3, r3, #2
	strh	r3, [sp, #14]	@ movhi
.L289:
	.loc 7 661 12
	ldrh	r3, [sp, #14]
	mov	r0, r3
	bl	nrf_gpiote_event_addr_get
	mov	r3, r0
	.loc 7 662 1
	mov	r0, r3
	add	sp, sp, #20
.LCFI199:
	@ sp needed
	ldr	pc, [sp], #4
.LFE303:
	.size	nrfx_gpiote_in_event_addr_get, .-nrfx_gpiote_in_event_addr_get
	.section	.text.GPIOTE_IRQHandler,"ax",%progbits
	.align	1
	.global	GPIOTE_IRQHandler
	.syntax unified
	.thumb
	.thumb_func
	.fpu fpv4-sp-d16
	.type	GPIOTE_IRQHandler, %function
GPIOTE_IRQHandler:
.LFB304:
	.loc 7 666 1
	@ args = 0, pretend = 0, frame = 80
	@ frame_needed = 0, uses_anonymous_args = 0
	push	{lr}
.LCFI200:
	sub	sp, sp, #84
.LCFI201:
	.loc 7 667 14
	movs	r3, #0
	str	r3, [sp, #64]
	.loc 7 668 14
	movs	r3, #0
	str	r3, [sp, #12]
	.loc 7 672 25
	mov	r3, #256
	strh	r3, [sp, #76]	@ movhi
	.loc 7 673 14
	movs	r3, #1
	str	r3, [sp, #72]
	.loc 7 675 12
	movs	r3, #0
	str	r3, [sp, #60]
	.loc 7 675 5
	b	.L292
.L294:
	.loc 7 677 13
	ldrh	r3, [sp, #76]
	mov	r0, r3
	bl	nrf_gpiote_event_is_set
	mov	r3, r0
	.loc 7 677 12
	cmp	r3, #0
	beq	.L293
	.loc 7 677 47 discriminator 1
	ldr	r0, [sp, #72]
	bl	nrf_gpiote_int_is_enabled
	mov	r3, r0
	.loc 7 677 44 discriminator 1
	cmp	r3, #0
	beq	.L293
	.loc 7 679 13
	ldrh	r3, [sp, #76]
	mov	r0, r3
	bl	nrf_gpiote_event_clear
	.loc 7 680 20
	ldr	r2, [sp, #64]
	ldr	r3, [sp, #72]
	orrs	r3, r3, r2
	str	r3, [sp, #64]
.L293:
	.loc 7 682 14 discriminator 2
	ldr	r3, [sp, #72]
	lsls	r3, r3, #1
	str	r3, [sp, #72]
	.loc 7 685 15 discriminator 2
	ldrh	r3, [sp, #76]	@ movhi
	adds	r3, r3, #4
	strh	r3, [sp, #76]	@ movhi
	.loc 7 675 25 discriminator 2
	ldr	r3, [sp, #60]
	adds	r3, r3, #1
	str	r3, [sp, #60]
.L292:
	.loc 7 675 5 discriminator 1
	ldr	r3, [sp, #60]
	cmp	r3, #7
	bls	.L294
	.loc 7 690 9
	mov	r0, #380
	bl	nrf_gpiote_event_is_set
	mov	r3, r0
	.loc 7 690 8
	cmp	r3, #0
	beq	.L295
	.loc 7 692 9
	mov	r0, #380
	bl	nrf_gpiote_event_clear
	.loc 7 693 16
	ldr	r3, [sp, #64]
	orr	r3, r3, #-2147483648
	str	r3, [sp, #64]
	.loc 7 694 9
	add	r3, sp, #12
	mov	r2, r3
	movs	r1, #1
	movs	r0, #0
	bl	nrf_gpio_ports_read
.L295:
	.loc 7 698 16
	ldr	r3, [sp, #64]
	uxtb	r3, r3
	.loc 7 698 8
	cmp	r3, #0
	beq	.L296
	.loc 7 700 14
	movs	r3, #1
	str	r3, [sp, #72]
	.loc 7 702 16
	movs	r3, #0
	str	r3, [sp, #60]
	.loc 7 702 9
	b	.L297
.L299:
	.loc 7 704 22
	ldr	r2, [sp, #72]
	ldr	r3, [sp, #64]
	ands	r3, r3, r2
	.loc 7 704 16
	cmp	r3, #0
	beq	.L298
.LBB8:
	.loc 7 706 41
	ldr	r0, [sp, #60]
	bl	nrf_gpiote_event_pin_get
	str	r0, [sp, #52]
	.loc 7 708 50
	ldr	r0, [sp, #60]
	bl	nrf_gpiote_event_polarity_get
	mov	r3, r0
	strb	r3, [sp, #51]
	.loc 7 709 53
	ldr	r0, [sp, #60]
	bl	channel_handler_get
	str	r0, [sp, #44]
	.loc 7 711 20
	ldr	r3, [sp, #44]
	cmp	r3, #0
	beq	.L298
	.loc 7 713 21
	ldrb	r2, [sp, #51]	@ zero_extendqisi2
	ldr	r3, [sp, #44]
	mov	r1, r2
	ldr	r0, [sp, #52]
	blx	r3
.LVL0:
.L298:
.LBE8:
	.loc 7 716 18 discriminator 2
	ldr	r3, [sp, #72]
	lsls	r3, r3, #1
	str	r3, [sp, #72]
	.loc 7 702 29 discriminator 2
	ldr	r3, [sp, #60]
	adds	r3, r3, #1
	str	r3, [sp, #60]
.L297:
	.loc 7 702 9 discriminator 1
	ldr	r3, [sp, #60]
	cmp	r3, #7
	bls	.L299
.L296:
	.loc 7 720 9
	ldr	r3, [sp, #64]
	.loc 7 720 8
	cmp	r3, #0
	bge	.L323
.LBB9:
	.loc 7 724 17
	movs	r3, #0
	strb	r3, [sp, #79]
	.loc 7 725 18
	movs	r3, #0
	str	r3, [sp, #8]
	.loc 7 729 23
	movs	r3, #0
	str	r3, [sp, #68]
	.loc 7 729 9
	b	.L301
.L302:
	.loc 7 731 37 discriminator 3
	ldr	r3, [sp, #68]
	lsls	r3, r3, #2
	add	r2, sp, #80
	add	r3, r3, r2
	mov	r2, #-1
	str	r2, [r3, #-76]
	.loc 7 729 50 discriminator 3
	ldr	r3, [sp, #68]
	adds	r3, r3, #1
	str	r3, [sp, #68]
.L301:
	.loc 7 729 9 discriminator 1
	ldr	r3, [sp, #68]
	cmp	r3, #0
	beq	.L302
.L322:
	.loc 7 736 20
	movs	r3, #0
	strb	r3, [sp, #79]
	.loc 7 738 20
	movs	r3, #0
	str	r3, [sp, #60]
	.loc 7 738 13
	b	.L303
.L312:
.LBB10:
	.loc 7 740 73
	ldr	r2, .L324
	ldr	r3, [sp, #60]
	add	r3, r3, r2
	adds	r3, r3, #80
	ldrsb	r3, [r3]
	.loc 7 740 25
	strb	r3, [sp, #43]
	.loc 7 741 56
	ldrb	r3, [sp, #43]	@ zero_extendqisi2
	.loc 7 741 35
	bic	r3, r3, #192
	str	r3, [sp, #36]
	.loc 7 743 45
	ldr	r2, .L324
	ldr	r3, [sp, #60]
	add	r3, r3, r2
	adds	r3, r3, #80
	ldrsb	r3, [r3]
	.loc 7 743 20
	cmp	r3, #-1
	beq	.L304
	.loc 7 744 24
	add	r3, sp, #4
	mov	r1, r3
	ldr	r0, [sp, #36]
	bl	nrf_bitmask_bit_is_set
	mov	r3, r0
	.loc 7 744 21
	cmp	r3, #0
	beq	.L304
.LBB11:
	.loc 7 746 43
	ldrb	r3, [sp, #43]	@ zero_extendqisi2
	lsrs	r3, r3, #6
	strb	r3, [sp, #35]
	.loc 7 750 55
	ldr	r0, [sp, #36]
	bl	channel_port_get
	mov	r3, r0
	.loc 7 750 25
	mov	r0, r3
	bl	channel_handler_get
	str	r0, [sp, #28]
	.loc 7 751 24
	ldr	r3, [sp, #28]
	cmp	r3, #0
	bne	.L305
	.loc 7 751 33 discriminator 1
	ldrb	r3, [sp, #35]	@ zero_extendqisi2
	cmp	r3, #3
	bne	.L304
.L305:
.LBB12:
	.loc 7 753 28
	ldrb	r3, [sp, #35]	@ zero_extendqisi2
	cmp	r3, #3
	bne	.L306
	.loc 7 755 29
	add	r3, sp, #8
	mov	r1, r3
	ldr	r0, [sp, #36]
	bl	nrf_bitmask_bit_set
.L306:
	.loc 7 757 54
	ldr	r0, [sp, #36]
	bl	nrf_gpio_pin_sense_get
	mov	r3, r0
	strb	r3, [sp, #27]
	.loc 7 758 46
	add	r3, sp, #12
	mov	r1, r3
	ldr	r0, [sp, #36]
	bl	nrf_bitmask_bit_is_set
	str	r0, [sp, #20]
	.loc 7 759 28
	ldr	r3, [sp, #20]
	cmp	r3, #0
	beq	.L307
	.loc 7 759 40 discriminator 1
	ldrb	r3, [sp, #27]	@ zero_extendqisi2
	cmp	r3, #2
	beq	.L308
.L307:
	.loc 7 759 79 discriminator 3
	ldr	r3, [sp, #20]
	cmp	r3, #0
	bne	.L304
	.loc 7 760 41
	ldrb	r3, [sp, #27]	@ zero_extendqisi2
	cmp	r3, #3
	bne	.L304
.L308:
	.loc 7 763 32
	ldrb	r3, [sp, #35]	@ zero_extendqisi2
	cmp	r3, #3
	bne	.L309
.LBB13:
	.loc 7 767 60
	ldrb	r3, [sp, #27]	@ zero_extendqisi2
	cmp	r3, #2
	bne	.L310
	.loc 7 767 60 is_stmt 0 discriminator 1
	movs	r3, #3
	b	.L311
.L310:
	.loc 7 767 60 discriminator 2
	movs	r3, #2
.L311:
	.loc 7 765 54 is_stmt 1
	strb	r3, [sp, #19]
	.loc 7 769 33
	ldrb	r3, [sp, #19]	@ zero_extendqisi2
	mov	r1, r3
	ldr	r0, [sp, #36]
	bl	nrf_gpio_cfg_sense_set
	.loc 7 770 33
	ldrb	r3, [sp, #79]
	adds	r3, r3, #1
	strb	r3, [sp, #79]
.L309:
.LBE13:
	.loc 7 773 32
	ldr	r3, [sp, #28]
	cmp	r3, #0
	beq	.L304
	.loc 7 775 33
	ldrb	r2, [sp, #35]	@ zero_extendqisi2
	ldr	r3, [sp, #28]
	mov	r1, r2
	ldr	r0, [sp, #36]
	blx	r3
.LVL1:
.L304:
.LBE12:
.LBE11:
.LBE10:
	.loc 7 738 33 discriminator 2
	ldr	r3, [sp, #60]
	adds	r3, r3, #1
	str	r3, [sp, #60]
.L303:
	.loc 7 738 13 discriminator 1
	ldr	r3, [sp, #60]
	cmp	r3, #3
	bls	.L312
	.loc 7 782 16
	ldrb	r3, [sp, #79]	@ zero_extendqisi2
	cmp	r3, #0
	beq	.L313
.LBB14:
	.loc 7 791 25
	movs	r3, #1
	strb	r3, [sp, #59]
	.loc 7 792 17
	mov	r3, sp
	mov	r2, r3
	movs	r1, #1
	movs	r0, #0
	bl	nrf_gpio_ports_read
	.loc 7 795 31
	movs	r3, #0
	str	r3, [sp, #68]
	.loc 7 795 17
	b	.L314
.L317:
	.loc 7 797 34
	ldr	r3, [sp, #68]
	lsls	r3, r3, #2
	add	r2, sp, #80
	add	r3, r3, r2
	ldr	r2, [r3, #-80]
	.loc 7 797 53
	ldr	r3, [sp, #68]
	lsls	r3, r3, #2
	add	r1, sp, #80
	add	r3, r3, r1
	ldr	r3, [r3, #-68]
	.loc 7 797 24
	cmp	r2, r3
	beq	.L315
	.loc 7 799 41
	movs	r3, #0
	strb	r3, [sp, #59]
	.loc 7 800 25
	b	.L316
.L315:
	.loc 7 795 58 discriminator 2
	ldr	r3, [sp, #68]
	adds	r3, r3, #1
	str	r3, [sp, #68]
.L314:
	.loc 7 795 17 discriminator 1
	ldr	r3, [sp, #68]
	cmp	r3, #0
	beq	.L317
.L316:
	.loc 7 804 20
	ldrb	r3, [sp, #59]	@ zero_extendqisi2
	cmp	r3, #0
	beq	.L318
	.loc 7 807 28
	movs	r3, #0
	strb	r3, [sp, #79]
	b	.L313
.L318:
	.loc 7 812 35
	movs	r3, #0
	str	r3, [sp, #68]
	.loc 7 812 21
	b	.L320
.L321:
	.loc 7 814 52 discriminator 3
	ldr	r3, [sp, #68]
	lsls	r3, r3, #2
	add	r2, sp, #80
	add	r3, r3, r2
	ldr	r2, [r3, #-80]
	.loc 7 814 41 discriminator 3
	ldr	r3, [sp, #68]
	lsls	r3, r3, #2
	add	r1, sp, #80
	add	r3, r3, r1
	str	r2, [r3, #-68]
	.loc 7 815 62 discriminator 3
	ldr	r3, [sp, #68]
	lsls	r3, r3, #2
	add	r2, sp, #80
	add	r3, r3, r2
	ldr	r2, [r3, #-72]
	.loc 7 815 49 discriminator 3
	ldr	r3, [sp, #68]
	lsls	r3, r3, #2
	add	r1, sp, #80
	add	r3, r3, r1
	str	r2, [r3, #-76]
	.loc 7 812 62 discriminator 3
	ldr	r3, [sp, #68]
	adds	r3, r3, #1
	str	r3, [sp, #68]
.L320:
	.loc 7 812 21 discriminator 1
	ldr	r3, [sp, #68]
	cmp	r3, #0
	beq	.L321
.L313:
.LBE14:
	.loc 7 820 9
	ldrb	r3, [sp, #79]	@ zero_extendqisi2
	cmp	r3, #0
	bne	.L322
.L323:
.LBE9:
	.loc 7 822 1
	nop
	add	sp, sp, #84
.LCFI202:
	@ sp needed
	ldr	pc, [sp], #4
.L325:
	.align	2
.L324:
	.word	m_cb
.LFE304:
	.size	GPIOTE_IRQHandler, .-GPIOTE_IRQHandler
	.section	.debug_frame,"",%progbits
.Lframe0:
	.4byte	.LECIE0-.LSCIE0
.LSCIE0:
	.4byte	0xffffffff
	.byte	0x3
	.ascii	"\000"
	.uleb128 0x1
	.sleb128 -4
	.uleb128 0xe
	.byte	0xc
	.uleb128 0xd
	.uleb128 0
	.align	2
.LECIE0:
.LSFDE0:
	.4byte	.LEFDE0-.LASFDE0
.LASFDE0:
	.4byte	.Lframe0
	.4byte	.LFB108
	.4byte	.LFE108-.LFB108
	.byte	0x4
	.4byte	.LCFI0-.LFB108
	.byte	0xe
	.uleb128 0x8
	.byte	0x4
	.4byte	.LCFI1-.LCFI0
	.byte	0xe
	.uleb128 0
	.align	2
.LEFDE0:
.LSFDE2:
	.4byte	.LEFDE2-.LASFDE2
.LASFDE2:
	.4byte	.Lframe0
	.4byte	.LFB112
	.4byte	.LFE112-.LFB112
	.byte	0x4
	.4byte	.LCFI2-.LFB112
	.byte	0xe
	.uleb128 0x8
	.byte	0x4
	.4byte	.LCFI3-.LCFI2
	.byte	0xe
	.uleb128 0
	.align	2
.LEFDE2:
.LSFDE4:
	.4byte	.LEFDE4-.LASFDE4
.LASFDE4:
	.4byte	.Lframe0
	.4byte	.LFB114
	.4byte	.LFE114-.LFB114
	.byte	0x4
	.4byte	.LCFI4-.LFB114
	.byte	0xe
	.uleb128 0x8
	.byte	0x4
	.4byte	.LCFI5-.LCFI4
	.byte	0xe
	.uleb128 0
	.align	2
.LEFDE4:
.LSFDE6:
	.4byte	.LEFDE6-.LASFDE6
.LASFDE6:
	.4byte	.Lframe0
	.4byte	.LFB146
	.4byte	.LFE146-.LFB146
	.byte	0x4
	.4byte	.LCFI6-.LFB146
	.byte	0xe
	.uleb128 0x4
	.byte	0x8e
	.uleb128 0x1
	.byte	0x4
	.4byte	.LCFI7-.LCFI6
	.byte	0xe
	.uleb128 0x10
	.byte	0x4
	.4byte	.LCFI8-.LCFI7
	.byte	0xe
	.uleb128 0x4
	.align	2
.LEFDE6:
.LSFDE8:
	.4byte	.LEFDE8-.LASFDE8
.LASFDE8:
	.4byte	.Lframe0
	.4byte	.LFB147
	.4byte	.LFE147-.LFB147
	.byte	0x4
	.4byte	.LCFI9-.LFB147
	.byte	0xe
	.uleb128 0x4
	.byte	0x8e
	.uleb128 0x1
	.byte	0x4
	.4byte	.LCFI10-.LCFI9
	.byte	0xe
	.uleb128 0x10
	.byte	0x4
	.4byte	.LCFI11-.LCFI10
	.byte	0xe
	.uleb128 0x4
	.align	2
.LEFDE8:
.LSFDE10:
	.4byte	.LEFDE10-.LASFDE10
.LASFDE10:
	.4byte	.Lframe0
	.4byte	.LFB153
	.4byte	.LFE153-.LFB153
	.align	2
.LEFDE10:
.LSFDE12:
	.4byte	.LEFDE12-.LASFDE12
.LASFDE12:
	.4byte	.Lframe0
	.4byte	.LFB154
	.4byte	.LFE154-.LFB154
	.align	2
.LEFDE12:
.LSFDE14:
	.4byte	.LEFDE14-.LASFDE14
.LASFDE14:
	.4byte	.Lframe0
	.4byte	.LFB155
	.4byte	.LFE155-.LFB155
	.align	2
.LEFDE14:
.LSFDE16:
	.4byte	.LEFDE16-.LASFDE16
.LASFDE16:
	.4byte	.Lframe0
	.4byte	.LFB156
	.4byte	.LFE156-.LFB156
	.align	2
.LEFDE16:
.LSFDE18:
	.4byte	.LEFDE18-.LASFDE18
.LASFDE18:
	.4byte	.Lframe0
	.4byte	.LFB157
	.4byte	.LFE157-.LFB157
	.align	2
.LEFDE18:
.LSFDE20:
	.4byte	.LEFDE20-.LASFDE20
.LASFDE20:
	.4byte	.Lframe0
	.4byte	.LFB158
	.4byte	.LFE158-.LFB158
	.align	2
.LEFDE20:
.LSFDE22:
	.4byte	.LEFDE22-.LASFDE22
.LASFDE22:
	.4byte	.Lframe0
	.4byte	.LFB159
	.4byte	.LFE159-.LFB159
	.align	2
.LEFDE22:
.LSFDE24:
	.4byte	.LEFDE24-.LASFDE24
.LASFDE24:
	.4byte	.Lframe0
	.4byte	.LFB160
	.4byte	.LFE160-.LFB160
	.align	2
.LEFDE24:
.LSFDE26:
	.4byte	.LEFDE26-.LASFDE26
.LASFDE26:
	.4byte	.Lframe0
	.4byte	.LFB161
	.4byte	.LFE161-.LFB161
	.align	2
.LEFDE26:
.LSFDE28:
	.4byte	.LEFDE28-.LASFDE28
.LASFDE28:
	.4byte	.Lframe0
	.4byte	.LFB162
	.4byte	.LFE162-.LFB162
	.align	2
.LEFDE28:
.LSFDE30:
	.4byte	.LEFDE30-.LASFDE30
.LASFDE30:
	.4byte	.Lframe0
	.4byte	.LFB163
	.4byte	.LFE163-.LFB163
	.align	2
.LEFDE30:
.LSFDE32:
	.4byte	.LEFDE32-.LASFDE32
.LASFDE32:
	.4byte	.Lframe0
	.4byte	.LFB164
	.4byte	.LFE164-.LFB164
	.align	2
.LEFDE32:
.LSFDE34:
	.4byte	.LEFDE34-.LASFDE34
.LASFDE34:
	.4byte	.Lframe0
	.4byte	.LFB165
	.4byte	.LFE165-.LFB165
	.align	2
.LEFDE34:
.LSFDE36:
	.4byte	.LEFDE36-.LASFDE36
.LASFDE36:
	.4byte	.Lframe0
	.4byte	.LFB166
	.4byte	.LFE166-.LFB166
	.align	2
.LEFDE36:
.LSFDE38:
	.4byte	.LEFDE38-.LASFDE38
.LASFDE38:
	.4byte	.Lframe0
	.4byte	.LFB167
	.4byte	.LFE167-.LFB167
	.align	2
.LEFDE38:
.LSFDE40:
	.4byte	.LEFDE40-.LASFDE40
.LASFDE40:
	.4byte	.Lframe0
	.4byte	.LFB168
	.4byte	.LFE168-.LFB168
	.align	2
.LEFDE40:
.LSFDE42:
	.4byte	.LEFDE42-.LASFDE42
.LASFDE42:
	.4byte	.Lframe0
	.4byte	.LFB169
	.4byte	.LFE169-.LFB169
	.align	2
.LEFDE42:
.LSFDE44:
	.4byte	.LEFDE44-.LASFDE44
.LASFDE44:
	.4byte	.Lframe0
	.4byte	.LFB170
	.4byte	.LFE170-.LFB170
	.align	2
.LEFDE44:
.LSFDE46:
	.4byte	.LEFDE46-.LASFDE46
.LASFDE46:
	.4byte	.Lframe0
	.4byte	.LFB171
	.4byte	.LFE171-.LFB171
	.align	2
.LEFDE46:
.LSFDE48:
	.4byte	.LEFDE48-.LASFDE48
.LASFDE48:
	.4byte	.Lframe0
	.4byte	.LFB172
	.4byte	.LFE172-.LFB172
	.align	2
.LEFDE48:
.LSFDE50:
	.4byte	.LEFDE50-.LASFDE50
.LASFDE50:
	.4byte	.Lframe0
	.4byte	.LFB173
	.4byte	.LFE173-.LFB173
	.align	2
.LEFDE50:
.LSFDE52:
	.4byte	.LEFDE52-.LASFDE52
.LASFDE52:
	.4byte	.Lframe0
	.4byte	.LFB174
	.4byte	.LFE174-.LFB174
	.align	2
.LEFDE52:
.LSFDE54:
	.4byte	.LEFDE54-.LASFDE54
.LASFDE54:
	.4byte	.Lframe0
	.4byte	.LFB175
	.4byte	.LFE175-.LFB175
	.align	2
.LEFDE54:
.LSFDE56:
	.4byte	.LEFDE56-.LASFDE56
.LASFDE56:
	.4byte	.Lframe0
	.4byte	.LFB176
	.4byte	.LFE176-.LFB176
	.align	2
.LEFDE56:
.LSFDE58:
	.4byte	.LEFDE58-.LASFDE58
.LASFDE58:
	.4byte	.Lframe0
	.4byte	.LFB177
	.4byte	.LFE177-.LFB177
	.align	2
.LEFDE58:
.LSFDE60:
	.4byte	.LEFDE60-.LASFDE60
.LASFDE60:
	.4byte	.Lframe0
	.4byte	.LFB178
	.4byte	.LFE178-.LFB178
	.align	2
.LEFDE60:
.LSFDE62:
	.4byte	.LEFDE62-.LASFDE62
.LASFDE62:
	.4byte	.Lframe0
	.4byte	.LFB179
	.4byte	.LFE179-.LFB179
	.align	2
.LEFDE62:
.LSFDE64:
	.4byte	.LEFDE64-.LASFDE64
.LASFDE64:
	.4byte	.Lframe0
	.4byte	.LFB180
	.4byte	.LFE180-.LFB180
	.align	2
.LEFDE64:
.LSFDE66:
	.4byte	.LEFDE66-.LASFDE66
.LASFDE66:
	.4byte	.Lframe0
	.4byte	.LFB181
	.4byte	.LFE181-.LFB181
	.align	2
.LEFDE66:
.LSFDE68:
	.4byte	.LEFDE68-.LASFDE68
.LASFDE68:
	.4byte	.Lframe0
	.4byte	.LFB182
	.4byte	.LFE182-.LFB182
	.align	2
.LEFDE68:
.LSFDE70:
	.4byte	.LEFDE70-.LASFDE70
.LASFDE70:
	.4byte	.Lframe0
	.4byte	.LFB183
	.4byte	.LFE183-.LFB183
	.align	2
.LEFDE70:
.LSFDE72:
	.4byte	.LEFDE72-.LASFDE72
.LASFDE72:
	.4byte	.Lframe0
	.4byte	.LFB184
	.4byte	.LFE184-.LFB184
	.align	2
.LEFDE72:
.LSFDE74:
	.4byte	.LEFDE74-.LASFDE74
.LASFDE74:
	.4byte	.Lframe0
	.4byte	.LFB185
	.4byte	.LFE185-.LFB185
	.align	2
.LEFDE74:
.LSFDE76:
	.4byte	.LEFDE76-.LASFDE76
.LASFDE76:
	.4byte	.Lframe0
	.4byte	.LFB186
	.4byte	.LFE186-.LFB186
	.align	2
.LEFDE76:
.LSFDE78:
	.4byte	.LEFDE78-.LASFDE78
.LASFDE78:
	.4byte	.Lframe0
	.4byte	.LFB187
	.4byte	.LFE187-.LFB187
	.align	2
.LEFDE78:
.LSFDE80:
	.4byte	.LEFDE80-.LASFDE80
.LASFDE80:
	.4byte	.Lframe0
	.4byte	.LFB188
	.4byte	.LFE188-.LFB188
	.align	2
.LEFDE80:
.LSFDE82:
	.4byte	.LEFDE82-.LASFDE82
.LASFDE82:
	.4byte	.Lframe0
	.4byte	.LFB189
	.4byte	.LFE189-.LFB189
	.align	2
.LEFDE82:
.LSFDE84:
	.4byte	.LEFDE84-.LASFDE84
.LASFDE84:
	.4byte	.Lframe0
	.4byte	.LFB190
	.4byte	.LFE190-.LFB190
	.align	2
.LEFDE84:
.LSFDE86:
	.4byte	.LEFDE86-.LASFDE86
.LASFDE86:
	.4byte	.Lframe0
	.4byte	.LFB191
	.4byte	.LFE191-.LFB191
	.align	2
.LEFDE86:
.LSFDE88:
	.4byte	.LEFDE88-.LASFDE88
.LASFDE88:
	.4byte	.Lframe0
	.4byte	.LFB192
	.4byte	.LFE192-.LFB192
	.align	2
.LEFDE88:
.LSFDE90:
	.4byte	.LEFDE90-.LASFDE90
.LASFDE90:
	.4byte	.Lframe0
	.4byte	.LFB193
	.4byte	.LFE193-.LFB193
	.align	2
.LEFDE90:
.LSFDE92:
	.4byte	.LEFDE92-.LASFDE92
.LASFDE92:
	.4byte	.Lframe0
	.4byte	.LFB194
	.4byte	.LFE194-.LFB194
	.align	2
.LEFDE92:
.LSFDE94:
	.4byte	.LEFDE94-.LASFDE94
.LASFDE94:
	.4byte	.Lframe0
	.4byte	.LFB195
	.4byte	.LFE195-.LFB195
	.align	2
.LEFDE94:
.LSFDE96:
	.4byte	.LEFDE96-.LASFDE96
.LASFDE96:
	.4byte	.Lframe0
	.4byte	.LFB211
	.4byte	.LFE211-.LFB211
	.byte	0x4
	.4byte	.LCFI12-.LFB211
	.byte	0xe
	.uleb128 0x8
	.byte	0x4
	.4byte	.LCFI13-.LCFI12
	.byte	0xe
	.uleb128 0
	.align	2
.LEFDE96:
.LSFDE98:
	.4byte	.LEFDE98-.LASFDE98
.LASFDE98:
	.4byte	.Lframe0
	.4byte	.LFB212
	.4byte	.LFE212-.LFB212
	.byte	0x4
	.4byte	.LCFI14-.LFB212
	.byte	0xe
	.uleb128 0x8
	.byte	0x4
	.4byte	.LCFI15-.LCFI14
	.byte	0xe
	.uleb128 0
	.align	2
.LEFDE98:
.LSFDE100:
	.4byte	.LEFDE100-.LASFDE100
.LASFDE100:
	.4byte	.Lframe0
	.4byte	.LFB213
	.4byte	.LFE213-.LFB213
	.byte	0x4
	.4byte	.LCFI16-.LFB213
	.byte	0xe
	.uleb128 0x4
	.byte	0x8e
	.uleb128 0x1
	.byte	0x4
	.4byte	.LCFI17-.LCFI16
	.byte	0xe
	.uleb128 0x10
	.byte	0x4
	.4byte	.LCFI18-.LCFI17
	.byte	0xe
	.uleb128 0x4
	.align	2
.LEFDE100:
.LSFDE102:
	.4byte	.LEFDE102-.LASFDE102
.LASFDE102:
	.4byte	.Lframe0
	.4byte	.LFB214
	.4byte	.LFE214-.LFB214
	.byte	0x4
	.4byte	.LCFI19-.LFB214
	.byte	0xe
	.uleb128 0x4
	.byte	0x8e
	.uleb128 0x1
	.byte	0x4
	.4byte	.LCFI20-.LCFI19
	.byte	0xe
	.uleb128 0x18
	.byte	0x4
	.4byte	.LCFI21-.LCFI20
	.byte	0xe
	.uleb128 0x4
	.align	2
.LEFDE102:
.LSFDE104:
	.4byte	.LEFDE104-.LASFDE104
.LASFDE104:
	.4byte	.Lframe0
	.4byte	.LFB215
	.4byte	.LFE215-.LFB215
	.byte	0x4
	.4byte	.LCFI22-.LFB215
	.byte	0xe
	.uleb128 0x8
	.byte	0x4
	.4byte	.LCFI23-.LCFI22
	.byte	0xe
	.uleb128 0
	.align	2
.LEFDE104:
.LSFDE106:
	.4byte	.LEFDE106-.LASFDE106
.LASFDE106:
	.4byte	.Lframe0
	.4byte	.LFB216
	.4byte	.LFE216-.LFB216
	.byte	0x4
	.4byte	.LCFI24-.LFB216
	.byte	0xe
	.uleb128 0x8
	.byte	0x4
	.4byte	.LCFI25-.LCFI24
	.byte	0xe
	.uleb128 0
	.align	2
.LEFDE106:
.LSFDE108:
	.4byte	.LEFDE108-.LASFDE108
.LASFDE108:
	.4byte	.Lframe0
	.4byte	.LFB217
	.4byte	.LFE217-.LFB217
	.byte	0x4
	.4byte	.LCFI26-.LFB217
	.byte	0xe
	.uleb128 0x8
	.byte	0x4
	.4byte	.LCFI27-.LCFI26
	.byte	0xe
	.uleb128 0
	.align	2
.LEFDE108:
.LSFDE110:
	.4byte	.LEFDE110-.LASFDE110
.LASFDE110:
	.4byte	.Lframe0
	.4byte	.LFB218
	.4byte	.LFE218-.LFB218
	.byte	0x4
	.4byte	.LCFI28-.LFB218
	.byte	0xe
	.uleb128 0x8
	.byte	0x4
	.4byte	.LCFI29-.LCFI28
	.byte	0xe
	.uleb128 0
	.align	2
.LEFDE110:
.LSFDE112:
	.4byte	.LEFDE112-.LASFDE112
.LASFDE112:
	.4byte	.Lframe0
	.4byte	.LFB219
	.4byte	.LFE219-.LFB219
	.byte	0x4
	.4byte	.LCFI30-.LFB219
	.byte	0xe
	.uleb128 0x8
	.byte	0x4
	.4byte	.LCFI31-.LCFI30
	.byte	0xe
	.uleb128 0
	.align	2
.LEFDE112:
.LSFDE114:
	.4byte	.LEFDE114-.LASFDE114
.LASFDE114:
	.4byte	.Lframe0
	.4byte	.LFB220
	.4byte	.LFE220-.LFB220
	.byte	0x4
	.4byte	.LCFI32-.LFB220
	.byte	0xe
	.uleb128 0x8
	.byte	0x4
	.4byte	.LCFI33-.LCFI32
	.byte	0xe
	.uleb128 0
	.align	2
.LEFDE114:
.LSFDE116:
	.4byte	.LEFDE116-.LASFDE116
.LASFDE116:
	.4byte	.Lframe0
	.4byte	.LFB221
	.4byte	.LFE221-.LFB221
	.byte	0x4
	.4byte	.LCFI34-.LFB221
	.byte	0xe
	.uleb128 0x10
	.byte	0x4
	.4byte	.LCFI35-.LCFI34
	.byte	0xe
	.uleb128 0
	.align	2
.LEFDE116:
.LSFDE118:
	.4byte	.LEFDE118-.LASFDE118
.LASFDE118:
	.4byte	.Lframe0
	.4byte	.LFB222
	.4byte	.LFE222-.LFB222
	.byte	0x4
	.4byte	.LCFI36-.LFB222
	.byte	0xe
	.uleb128 0x8
	.byte	0x4
	.4byte	.LCFI37-.LCFI36
	.byte	0xe
	.uleb128 0
	.align	2
.LEFDE118:
.LSFDE120:
	.4byte	.LEFDE120-.LASFDE120
.LASFDE120:
	.4byte	.Lframe0
	.4byte	.LFB223
	.4byte	.LFE223-.LFB223
	.byte	0x4
	.4byte	.LCFI38-.LFB223
	.byte	0xe
	.uleb128 0x8
	.byte	0x4
	.4byte	.LCFI39-.LCFI38
	.byte	0xe
	.uleb128 0
	.align	2
.LEFDE120:
.LSFDE122:
	.4byte	.LEFDE122-.LASFDE122
.LASFDE122:
	.4byte	.Lframe0
	.4byte	.LFB224
	.4byte	.LFE224-.LFB224
	.byte	0x4
	.4byte	.LCFI40-.LFB224
	.byte	0xe
	.uleb128 0x10
	.byte	0x4
	.4byte	.LCFI41-.LCFI40
	.byte	0xe
	.uleb128 0
	.align	2
.LEFDE122:
.LSFDE124:
	.4byte	.LEFDE124-.LASFDE124
.LASFDE124:
	.4byte	.Lframe0
	.4byte	.LFB225
	.4byte	.LFE225-.LFB225
	.byte	0x4
	.4byte	.LCFI42-.LFB225
	.byte	0xe
	.uleb128 0x8
	.byte	0x4
	.4byte	.LCFI43-.LCFI42
	.byte	0xe
	.uleb128 0
	.align	2
.LEFDE124:
.LSFDE126:
	.4byte	.LEFDE126-.LASFDE126
.LASFDE126:
	.4byte	.Lframe0
	.4byte	.LFB226
	.4byte	.LFE226-.LFB226
	.byte	0x4
	.4byte	.LCFI44-.LFB226
	.byte	0xe
	.uleb128 0x10
	.byte	0x4
	.4byte	.LCFI45-.LCFI44
	.byte	0xe
	.uleb128 0
	.align	2
.LEFDE126:
.LSFDE128:
	.4byte	.LEFDE128-.LASFDE128
.LASFDE128:
	.4byte	.Lframe0
	.4byte	.LFB227
	.4byte	.LFE227-.LFB227
	.byte	0x4
	.4byte	.LCFI46-.LFB227
	.byte	0xe
	.uleb128 0x8
	.byte	0x4
	.4byte	.LCFI47-.LCFI46
	.byte	0xe
	.uleb128 0
	.align	2
.LEFDE128:
.LSFDE130:
	.4byte	.LEFDE130-.LASFDE130
.LASFDE130:
	.4byte	.Lframe0
	.4byte	.LFB228
	.4byte	.LFE228-.LFB228
	.byte	0x4
	.4byte	.LCFI48-.LFB228
	.byte	0xe
	.uleb128 0x8
	.byte	0x4
	.4byte	.LCFI49-.LCFI48
	.byte	0xe
	.uleb128 0
	.align	2
.LEFDE130:
.LSFDE132:
	.4byte	.LEFDE132-.LASFDE132
.LASFDE132:
	.4byte	.Lframe0
	.4byte	.LFB229
	.4byte	.LFE229-.LFB229
	.byte	0x4
	.4byte	.LCFI50-.LFB229
	.byte	0xe
	.uleb128 0x8
	.byte	0x4
	.4byte	.LCFI51-.LCFI50
	.byte	0xe
	.uleb128 0
	.align	2
.LEFDE132:
.LSFDE134:
	.4byte	.LEFDE134-.LASFDE134
.LASFDE134:
	.4byte	.Lframe0
	.4byte	.LFB232
	.4byte	.LFE232-.LFB232
	.byte	0x4
	.4byte	.LCFI52-.LFB232
	.byte	0xe
	.uleb128 0x4
	.byte	0x8e
	.uleb128 0x1
	.byte	0x4
	.4byte	.LCFI53-.LCFI52
	.byte	0xe
	.uleb128 0x18
	.byte	0x4
	.4byte	.LCFI54-.LCFI53
	.byte	0xe
	.uleb128 0x4
	.align	2
.LEFDE134:
.LSFDE136:
	.4byte	.LEFDE136-.LASFDE136
.LASFDE136:
	.4byte	.Lframe0
	.4byte	.LFB233
	.4byte	.LFE233-.LFB233
	.byte	0x4
	.4byte	.LCFI55-.LFB233
	.byte	0xe
	.uleb128 0x4
	.byte	0x8e
	.uleb128 0x1
	.byte	0x4
	.4byte	.LCFI56-.LCFI55
	.byte	0xe
	.uleb128 0x18
	.byte	0x4
	.4byte	.LCFI57-.LCFI56
	.byte	0xe
	.uleb128 0x4
	.align	2
.LEFDE136:
.LSFDE138:
	.4byte	.LEFDE138-.LASFDE138
.LASFDE138:
	.4byte	.Lframe0
	.4byte	.LFB234
	.4byte	.LFE234-.LFB234
	.byte	0x4
	.4byte	.LCFI58-.LFB234
	.byte	0xe
	.uleb128 0x4
	.byte	0x8e
	.uleb128 0x1
	.byte	0x4
	.4byte	.LCFI59-.LCFI58
	.byte	0xe
	.uleb128 0x18
	.byte	0x4
	.4byte	.LCFI60-.LCFI59
	.byte	0xe
	.uleb128 0x4
	.align	2
.LEFDE138:
.LSFDE140:
	.4byte	.LEFDE140-.LASFDE140
.LASFDE140:
	.4byte	.Lframe0
	.4byte	.LFB235
	.4byte	.LFE235-.LFB235
	.byte	0x4
	.4byte	.LCFI61-.LFB235
	.byte	0xe
	.uleb128 0x4
	.byte	0x8e
	.uleb128 0x1
	.byte	0x4
	.4byte	.LCFI62-.LCFI61
	.byte	0xe
	.uleb128 0x18
	.byte	0x4
	.4byte	.LCFI63-.LCFI62
	.byte	0xe
	.uleb128 0x4
	.align	2
.LEFDE140:
.LSFDE142:
	.4byte	.LEFDE142-.LASFDE142
.LASFDE142:
	.4byte	.Lframe0
	.4byte	.LFB236
	.4byte	.LFE236-.LFB236
	.byte	0x4
	.4byte	.LCFI64-.LFB236
	.byte	0xe
	.uleb128 0x4
	.byte	0x8e
	.uleb128 0x1
	.byte	0x4
	.4byte	.LCFI65-.LCFI64
	.byte	0xe
	.uleb128 0x18
	.byte	0x4
	.4byte	.LCFI66-.LCFI65
	.byte	0xe
	.uleb128 0x4
	.align	2
.LEFDE142:
.LSFDE144:
	.4byte	.LEFDE144-.LASFDE144
.LASFDE144:
	.4byte	.Lframe0
	.4byte	.LFB239
	.4byte	.LFE239-.LFB239
	.byte	0x4
	.4byte	.LCFI67-.LFB239
	.byte	0xe
	.uleb128 0x4
	.byte	0x8e
	.uleb128 0x1
	.byte	0x4
	.4byte	.LCFI68-.LCFI67
	.byte	0xe
	.uleb128 0x18
	.byte	0x4
	.4byte	.LCFI69-.LCFI68
	.byte	0xe
	.uleb128 0x4
	.align	2
.LEFDE144:
.LSFDE146:
	.4byte	.LEFDE146-.LASFDE146
.LASFDE146:
	.4byte	.Lframe0
	.4byte	.LFB241
	.4byte	.LFE241-.LFB241
	.byte	0x4
	.4byte	.LCFI70-.LFB241
	.byte	0xe
	.uleb128 0x4
	.byte	0x8e
	.uleb128 0x1
	.byte	0x4
	.4byte	.LCFI71-.LCFI70
	.byte	0xe
	.uleb128 0x18
	.byte	0x4
	.4byte	.LCFI72-.LCFI71
	.byte	0xe
	.uleb128 0x4
	.align	2
.LEFDE146:
.LSFDE148:
	.4byte	.LEFDE148-.LASFDE148
.LASFDE148:
	.4byte	.Lframe0
	.4byte	.LFB242
	.4byte	.LFE242-.LFB242
	.byte	0x4
	.4byte	.LCFI73-.LFB242
	.byte	0xe
	.uleb128 0x4
	.byte	0x8e
	.uleb128 0x1
	.byte	0x4
	.4byte	.LCFI74-.LCFI73
	.byte	0xe
	.uleb128 0x18
	.byte	0x4
	.4byte	.LCFI75-.LCFI74
	.byte	0xe
	.uleb128 0x4
	.align	2
.LEFDE148:
.LSFDE150:
	.4byte	.LEFDE150-.LASFDE150
.LASFDE150:
	.4byte	.Lframe0
	.4byte	.LFB243
	.4byte	.LFE243-.LFB243
	.byte	0x4
	.4byte	.LCFI76-.LFB243
	.byte	0xe
	.uleb128 0x4
	.byte	0x8e
	.uleb128 0x1
	.byte	0x4
	.4byte	.LCFI77-.LCFI76
	.byte	0xe
	.uleb128 0x18
	.byte	0x4
	.4byte	.LCFI78-.LCFI77
	.byte	0xe
	.uleb128 0x4
	.align	2
.LEFDE150:
.LSFDE152:
	.4byte	.LEFDE152-.LASFDE152
.LASFDE152:
	.4byte	.Lframe0
	.4byte	.LFB245
	.4byte	.LFE245-.LFB245
	.byte	0x4
	.4byte	.LCFI79-.LFB245
	.byte	0xe
	.uleb128 0x4
	.byte	0x8e
	.uleb128 0x1
	.byte	0x4
	.4byte	.LCFI80-.LCFI79
	.byte	0xe
	.uleb128 0x18
	.byte	0x4
	.4byte	.LCFI81-.LCFI80
	.byte	0xe
	.uleb128 0x4
	.align	2
.LEFDE152:
.LSFDE154:
	.4byte	.LEFDE154-.LASFDE154
.LASFDE154:
	.4byte	.Lframe0
	.4byte	.LFB247
	.4byte	.LFE247-.LFB247
	.byte	0x4
	.4byte	.LCFI82-.LFB247
	.byte	0xe
	.uleb128 0x4
	.byte	0x8e
	.uleb128 0x1
	.byte	0x4
	.4byte	.LCFI83-.LCFI82
	.byte	0xe
	.uleb128 0x18
	.byte	0x4
	.4byte	.LCFI84-.LCFI83
	.byte	0xe
	.uleb128 0x4
	.align	2
.LEFDE154:
.LSFDE156:
	.4byte	.LEFDE156-.LASFDE156
.LASFDE156:
	.4byte	.Lframe0
	.4byte	.LFB252
	.4byte	.LFE252-.LFB252
	.byte	0x4
	.4byte	.LCFI85-.LFB252
	.byte	0xe
	.uleb128 0x8
	.byte	0x4
	.4byte	.LCFI86-.LCFI85
	.byte	0xe
	.uleb128 0
	.align	2
.LEFDE156:
.LSFDE158:
	.4byte	.LEFDE158-.LASFDE158
.LASFDE158:
	.4byte	.Lframe0
	.4byte	.LFB255
	.4byte	.LFE255-.LFB255
	.byte	0x4
	.4byte	.LCFI87-.LFB255
	.byte	0xe
	.uleb128 0x8
	.byte	0x4
	.4byte	.LCFI88-.LCFI87
	.byte	0xe
	.uleb128 0
	.align	2
.LEFDE158:
.LSFDE160:
	.4byte	.LEFDE160-.LASFDE160
.LASFDE160:
	.4byte	.Lframe0
	.4byte	.LFB256
	.4byte	.LFE256-.LFB256
	.byte	0x4
	.4byte	.LCFI89-.LFB256
	.byte	0xe
	.uleb128 0x8
	.byte	0x4
	.4byte	.LCFI90-.LCFI89
	.byte	0xe
	.uleb128 0
	.align	2
.LEFDE160:
.LSFDE162:
	.4byte	.LEFDE162-.LASFDE162
.LASFDE162:
	.4byte	.Lframe0
	.4byte	.LFB257
	.4byte	.LFE257-.LFB257
	.byte	0x4
	.4byte	.LCFI91-.LFB257
	.byte	0xe
	.uleb128 0x4
	.byte	0x8e
	.uleb128 0x1
	.byte	0x4
	.4byte	.LCFI92-.LCFI91
	.byte	0xe
	.uleb128 0x20
	.byte	0x4
	.4byte	.LCFI93-.LCFI92
	.byte	0xe
	.uleb128 0x4
	.align	2
.LEFDE162:
.LSFDE164:
	.4byte	.LEFDE164-.LASFDE164
.LASFDE164:
	.4byte	.Lframe0
	.4byte	.LFB261
	.4byte	.LFE261-.LFB261
	.byte	0x4
	.4byte	.LCFI94-.LFB261
	.byte	0xe
	.uleb128 0x10
	.byte	0x4
	.4byte	.LCFI95-.LCFI94
	.byte	0xe
	.uleb128 0
	.align	2
.LEFDE164:
.LSFDE166:
	.4byte	.LEFDE166-.LASFDE166
.LASFDE166:
	.4byte	.Lframe0
	.4byte	.LFB262
	.4byte	.LFE262-.LFB262
	.byte	0x4
	.4byte	.LCFI96-.LFB262
	.byte	0xe
	.uleb128 0x10
	.byte	0x4
	.4byte	.LCFI97-.LCFI96
	.byte	0xe
	.uleb128 0
	.align	2
.LEFDE166:
.LSFDE168:
	.4byte	.LEFDE168-.LASFDE168
.LASFDE168:
	.4byte	.Lframe0
	.4byte	.LFB263
	.4byte	.LFE263-.LFB263
	.byte	0x4
	.4byte	.LCFI98-.LFB263
	.byte	0xe
	.uleb128 0x10
	.byte	0x4
	.4byte	.LCFI99-.LCFI98
	.byte	0xe
	.uleb128 0
	.align	2
.LEFDE168:
.LSFDE170:
	.4byte	.LEFDE170-.LASFDE170
.LASFDE170:
	.4byte	.Lframe0
	.4byte	.LFB266
	.4byte	.LFE266-.LFB266
	.byte	0x4
	.4byte	.LCFI100-.LFB266
	.byte	0xe
	.uleb128 0x8
	.byte	0x4
	.4byte	.LCFI101-.LCFI100
	.byte	0xe
	.uleb128 0
	.align	2
.LEFDE170:
.LSFDE172:
	.4byte	.LEFDE172-.LASFDE172
.LASFDE172:
	.4byte	.Lframe0
	.4byte	.LFB267
	.4byte	.LFE267-.LFB267
	.byte	0x4
	.4byte	.LCFI102-.LFB267
	.byte	0xe
	.uleb128 0x8
	.byte	0x4
	.4byte	.LCFI103-.LCFI102
	.byte	0xe
	.uleb128 0
	.align	2
.LEFDE172:
.LSFDE174:
	.4byte	.LEFDE174-.LASFDE174
.LASFDE174:
	.4byte	.Lframe0
	.4byte	.LFB268
	.4byte	.LFE268-.LFB268
	.byte	0x4
	.4byte	.LCFI104-.LFB268
	.byte	0xe
	.uleb128 0x8
	.byte	0x4
	.4byte	.LCFI105-.LCFI104
	.byte	0xe
	.uleb128 0
	.align	2
.LEFDE174:
.LSFDE176:
	.4byte	.LEFDE176-.LASFDE176
.LASFDE176:
	.4byte	.Lframe0
	.4byte	.LFB269
	.4byte	.LFE269-.LFB269
	.byte	0x4
	.4byte	.LCFI106-.LFB269
	.byte	0xe
	.uleb128 0x8
	.byte	0x4
	.4byte	.LCFI107-.LCFI106
	.byte	0xe
	.uleb128 0
	.align	2
.LEFDE176:
.LSFDE178:
	.4byte	.LEFDE178-.LASFDE178
.LASFDE178:
	.4byte	.Lframe0
	.4byte	.LFB270
	.4byte	.LFE270-.LFB270
	.byte	0x4
	.4byte	.LCFI108-.LFB270
	.byte	0xe
	.uleb128 0x8
	.byte	0x4
	.4byte	.LCFI109-.LCFI108
	.byte	0xe
	.uleb128 0
	.align	2
.LEFDE178:
.LSFDE180:
	.4byte	.LEFDE180-.LASFDE180
.LASFDE180:
	.4byte	.Lframe0
	.4byte	.LFB271
	.4byte	.LFE271-.LFB271
	.byte	0x4
	.4byte	.LCFI110-.LFB271
	.byte	0xe
	.uleb128 0x10
	.byte	0x4
	.4byte	.LCFI111-.LCFI110
	.byte	0xe
	.uleb128 0
	.align	2
.LEFDE180:
.LSFDE182:
	.4byte	.LEFDE182-.LASFDE182
.LASFDE182:
	.4byte	.Lframe0
	.4byte	.LFB272
	.4byte	.LFE272-.LFB272
	.byte	0x4
	.4byte	.LCFI112-.LFB272
	.byte	0xe
	.uleb128 0x8
	.byte	0x4
	.4byte	.LCFI113-.LCFI112
	.byte	0xe
	.uleb128 0
	.align	2
.LEFDE182:
.LSFDE184:
	.4byte	.LEFDE184-.LASFDE184
.LASFDE184:
	.4byte	.Lframe0
	.4byte	.LFB273
	.4byte	.LFE273-.LFB273
	.byte	0x4
	.4byte	.LCFI114-.LFB273
	.byte	0xe
	.uleb128 0x8
	.byte	0x4
	.4byte	.LCFI115-.LCFI114
	.byte	0xe
	.uleb128 0
	.align	2
.LEFDE184:
.LSFDE186:
	.4byte	.LEFDE186-.LASFDE186
.LASFDE186:
	.4byte	.Lframe0
	.4byte	.LFB274
	.4byte	.LFE274-.LFB274
	.byte	0x4
	.4byte	.LCFI116-.LFB274
	.byte	0xe
	.uleb128 0x4
	.byte	0x8e
	.uleb128 0x1
	.byte	0x4
	.4byte	.LCFI117-.LCFI116
	.byte	0xe
	.uleb128 0x10
	.byte	0x4
	.4byte	.LCFI118-.LCFI117
	.byte	0xe
	.uleb128 0x4
	.align	2
.LEFDE186:
.LSFDE188:
	.4byte	.LEFDE188-.LASFDE188
.LASFDE188:
	.4byte	.Lframe0
	.4byte	.LFB275
	.4byte	.LFE275-.LFB275
	.byte	0x4
	.4byte	.LCFI119-.LFB275
	.byte	0xe
	.uleb128 0x4
	.byte	0x8e
	.uleb128 0x1
	.byte	0x4
	.4byte	.LCFI120-.LCFI119
	.byte	0xe
	.uleb128 0x10
	.byte	0x4
	.4byte	.LCFI121-.LCFI120
	.byte	0xe
	.uleb128 0x4
	.align	2
.LEFDE188:
.LSFDE190:
	.4byte	.LEFDE190-.LASFDE190
.LASFDE190:
	.4byte	.Lframe0
	.4byte	.LFB276
	.4byte	.LFE276-.LFB276
	.byte	0x4
	.4byte	.LCFI122-.LFB276
	.byte	0xe
	.uleb128 0x4
	.byte	0x8e
	.uleb128 0x1
	.byte	0x4
	.4byte	.LCFI123-.LCFI122
	.byte	0xe
	.uleb128 0x10
	.byte	0x4
	.4byte	.LCFI124-.LCFI123
	.byte	0xe
	.uleb128 0x4
	.align	2
.LEFDE190:
.LSFDE192:
	.4byte	.LEFDE192-.LASFDE192
.LASFDE192:
	.4byte	.Lframe0
	.4byte	.LFB277
	.4byte	.LFE277-.LFB277
	.byte	0x4
	.4byte	.LCFI125-.LFB277
	.byte	0xe
	.uleb128 0x8
	.byte	0x4
	.4byte	.LCFI126-.LCFI125
	.byte	0xe
	.uleb128 0
	.align	2
.LEFDE192:
.LSFDE194:
	.4byte	.LEFDE194-.LASFDE194
.LASFDE194:
	.4byte	.Lframe0
	.4byte	.LFB278
	.4byte	.LFE278-.LFB278
	.byte	0x4
	.4byte	.LCFI127-.LFB278
	.byte	0xe
	.uleb128 0x8
	.byte	0x4
	.4byte	.LCFI128-.LCFI127
	.byte	0xe
	.uleb128 0
	.align	2
.LEFDE194:
.LSFDE196:
	.4byte	.LEFDE196-.LASFDE196
.LASFDE196:
	.4byte	.Lframe0
	.4byte	.LFB279
	.4byte	.LFE279-.LFB279
	.byte	0x4
	.4byte	.LCFI129-.LFB279
	.byte	0xe
	.uleb128 0x4
	.byte	0x8e
	.uleb128 0x1
	.byte	0x4
	.4byte	.LCFI130-.LCFI129
	.byte	0xe
	.uleb128 0x28
	.byte	0x4
	.4byte	.LCFI131-.LCFI130
	.byte	0xe
	.uleb128 0x4
	.align	2
.LEFDE196:
.LSFDE198:
	.4byte	.LEFDE198-.LASFDE198
.LASFDE198:
	.4byte	.Lframe0
	.4byte	.LFB280
	.4byte	.LFE280-.LFB280
	.byte	0x4
	.4byte	.LCFI132-.LFB280
	.byte	0xe
	.uleb128 0x8
	.byte	0x4
	.4byte	.LCFI133-.LCFI132
	.byte	0xe
	.uleb128 0
	.align	2
.LEFDE198:
.LSFDE200:
	.4byte	.LEFDE200-.LASFDE200
.LASFDE200:
	.4byte	.Lframe0
	.4byte	.LFB281
	.4byte	.LFE281-.LFB281
	.byte	0x4
	.4byte	.LCFI134-.LFB281
	.byte	0xe
	.uleb128 0x4
	.byte	0x8e
	.uleb128 0x1
	.byte	0x4
	.4byte	.LCFI135-.LCFI134
	.byte	0xe
	.uleb128 0x10
	.byte	0x4
	.4byte	.LCFI136-.LCFI135
	.byte	0xe
	.uleb128 0x4
	.align	2
.LEFDE200:
.LSFDE202:
	.4byte	.LEFDE202-.LASFDE202
.LASFDE202:
	.4byte	.Lframe0
	.4byte	.LFB282
	.4byte	.LFE282-.LFB282
	.align	2
.LEFDE202:
.LSFDE204:
	.4byte	.LEFDE204-.LASFDE204
.LASFDE204:
	.4byte	.Lframe0
	.4byte	.LFB283
	.4byte	.LFE283-.LFB283
	.byte	0x4
	.4byte	.LCFI137-.LFB283
	.byte	0xe
	.uleb128 0x4
	.byte	0x8e
	.uleb128 0x1
	.byte	0x4
	.4byte	.LCFI138-.LCFI137
	.byte	0xe
	.uleb128 0x10
	.byte	0x4
	.4byte	.LCFI139-.LCFI138
	.byte	0xe
	.uleb128 0x4
	.align	2
.LEFDE204:
.LSFDE206:
	.4byte	.LEFDE206-.LASFDE206
.LASFDE206:
	.4byte	.Lframe0
	.4byte	.LFB284
	.4byte	.LFE284-.LFB284
	.byte	0x4
	.4byte	.LCFI140-.LFB284
	.byte	0xe
	.uleb128 0x4
	.byte	0x8e
	.uleb128 0x1
	.byte	0x4
	.4byte	.LCFI141-.LCFI140
	.byte	0xe
	.uleb128 0x18
	.byte	0x4
	.4byte	.LCFI142-.LCFI141
	.byte	0xe
	.uleb128 0x4
	.align	2
.LEFDE206:
.LSFDE208:
	.4byte	.LEFDE208-.LASFDE208
.LASFDE208:
	.4byte	.Lframe0
	.4byte	.LFB285
	.4byte	.LFE285-.LFB285
	.byte	0x4
	.4byte	.LCFI143-.LFB285
	.byte	0xe
	.uleb128 0x4
	.byte	0x8e
	.uleb128 0x1
	.byte	0x4
	.4byte	.LCFI144-.LCFI143
	.byte	0xe
	.uleb128 0x10
	.byte	0x4
	.4byte	.LCFI145-.LCFI144
	.byte	0xe
	.uleb128 0x4
	.align	2
.LEFDE208:
.LSFDE210:
	.4byte	.LEFDE210-.LASFDE210
.LASFDE210:
	.4byte	.Lframe0
	.4byte	.LFB286
	.4byte	.LFE286-.LFB286
	.byte	0x4
	.4byte	.LCFI146-.LFB286
	.byte	0xe
	.uleb128 0x4
	.byte	0x8e
	.uleb128 0x1
	.byte	0x4
	.4byte	.LCFI147-.LCFI146
	.byte	0xe
	.uleb128 0x10
	.byte	0x4
	.4byte	.LCFI148-.LCFI147
	.byte	0xe
	.uleb128 0x4
	.align	2
.LEFDE210:
.LSFDE212:
	.4byte	.LEFDE212-.LASFDE212
.LASFDE212:
	.4byte	.Lframe0
	.4byte	.LFB287
	.4byte	.LFE287-.LFB287
	.byte	0x4
	.4byte	.LCFI149-.LFB287
	.byte	0xe
	.uleb128 0x4
	.byte	0x8e
	.uleb128 0x1
	.byte	0x4
	.4byte	.LCFI150-.LCFI149
	.byte	0xe
	.uleb128 0x10
	.byte	0x4
	.4byte	.LCFI151-.LCFI150
	.byte	0xe
	.uleb128 0x4
	.align	2
.LEFDE212:
.LSFDE214:
	.4byte	.LEFDE214-.LASFDE214
.LASFDE214:
	.4byte	.Lframe0
	.4byte	.LFB288
	.4byte	.LFE288-.LFB288
	.byte	0x4
	.4byte	.LCFI152-.LFB288
	.byte	0xe
	.uleb128 0x4
	.byte	0x8e
	.uleb128 0x1
	.byte	0x4
	.4byte	.LCFI153-.LCFI152
	.byte	0xe
	.uleb128 0x10
	.byte	0x4
	.4byte	.LCFI154-.LCFI153
	.byte	0xe
	.uleb128 0x4
	.align	2
.LEFDE214:
.LSFDE216:
	.4byte	.LEFDE216-.LASFDE216
.LASFDE216:
	.4byte	.Lframe0
	.4byte	.LFB289
	.4byte	.LFE289-.LFB289
	.byte	0x4
	.4byte	.LCFI155-.LFB289
	.byte	0xe
	.uleb128 0x4
	.byte	0x8e
	.uleb128 0x1
	.byte	0x4
	.4byte	.LCFI156-.LCFI155
	.byte	0xe
	.uleb128 0x10
	.byte	0x4
	.4byte	.LCFI157-.LCFI156
	.byte	0xe
	.uleb128 0x4
	.align	2
.LEFDE216:
.LSFDE218:
	.4byte	.LEFDE218-.LASFDE218
.LASFDE218:
	.4byte	.Lframe0
	.4byte	.LFB290
	.4byte	.LFE290-.LFB290
	.byte	0x4
	.4byte	.LCFI158-.LFB290
	.byte	0xe
	.uleb128 0x4
	.byte	0x8e
	.uleb128 0x1
	.byte	0x4
	.4byte	.LCFI159-.LCFI158
	.byte	0xe
	.uleb128 0x10
	.byte	0x4
	.4byte	.LCFI160-.LCFI159
	.byte	0xe
	.uleb128 0x4
	.align	2
.LEFDE218:
.LSFDE220:
	.4byte	.LEFDE220-.LASFDE220
.LASFDE220:
	.4byte	.Lframe0
	.4byte	.LFB291
	.4byte	.LFE291-.LFB291
	.byte	0x4
	.4byte	.LCFI161-.LFB291
	.byte	0xe
	.uleb128 0x4
	.byte	0x8e
	.uleb128 0x1
	.byte	0x4
	.4byte	.LCFI162-.LCFI161
	.byte	0xe
	.uleb128 0x18
	.byte	0x4
	.4byte	.LCFI163-.LCFI162
	.byte	0xe
	.uleb128 0x4
	.align	2
.LEFDE220:
.LSFDE222:
	.4byte	.LEFDE222-.LASFDE222
.LASFDE222:
	.4byte	.Lframe0
	.4byte	.LFB292
	.4byte	.LFE292-.LFB292
	.byte	0x4
	.4byte	.LCFI164-.LFB292
	.byte	0xe
	.uleb128 0x4
	.byte	0x8e
	.uleb128 0x1
	.byte	0x4
	.4byte	.LCFI165-.LCFI164
	.byte	0xe
	.uleb128 0x18
	.byte	0x4
	.4byte	.LCFI166-.LCFI165
	.byte	0xe
	.uleb128 0x4
	.align	2
.LEFDE222:
.LSFDE224:
	.4byte	.LEFDE224-.LASFDE224
.LASFDE224:
	.4byte	.Lframe0
	.4byte	.LFB293
	.4byte	.LFE293-.LFB293
	.byte	0x4
	.4byte	.LCFI167-.LFB293
	.byte	0xe
	.uleb128 0x4
	.byte	0x8e
	.uleb128 0x1
	.byte	0x4
	.4byte	.LCFI168-.LCFI167
	.byte	0xe
	.uleb128 0x18
	.byte	0x4
	.4byte	.LCFI169-.LCFI168
	.byte	0xe
	.uleb128 0x4
	.align	2
.LEFDE224:
.LSFDE226:
	.4byte	.LEFDE226-.LASFDE226
.LASFDE226:
	.4byte	.Lframe0
	.4byte	.LFB294
	.4byte	.LFE294-.LFB294
	.byte	0x4
	.4byte	.LCFI170-.LFB294
	.byte	0xe
	.uleb128 0x4
	.byte	0x8e
	.uleb128 0x1
	.byte	0x4
	.4byte	.LCFI171-.LCFI170
	.byte	0xe
	.uleb128 0x18
	.byte	0x4
	.4byte	.LCFI172-.LCFI171
	.byte	0xe
	.uleb128 0x4
	.align	2
.LEFDE226:
.LSFDE228:
	.4byte	.LEFDE228-.LASFDE228
.LASFDE228:
	.4byte	.Lframe0
	.4byte	.LFB295
	.4byte	.LFE295-.LFB295
	.byte	0x4
	.4byte	.LCFI173-.LFB295
	.byte	0xe
	.uleb128 0x4
	.byte	0x8e
	.uleb128 0x1
	.byte	0x4
	.4byte	.LCFI174-.LCFI173
	.byte	0xe
	.uleb128 0x18
	.byte	0x4
	.4byte	.LCFI175-.LCFI174
	.byte	0xe
	.uleb128 0x4
	.align	2
.LEFDE228:
.LSFDE230:
	.4byte	.LEFDE230-.LASFDE230
.LASFDE230:
	.4byte	.Lframe0
	.4byte	.LFB296
	.4byte	.LFE296-.LFB296
	.byte	0x4
	.4byte	.LCFI176-.LFB296
	.byte	0xe
	.uleb128 0x4
	.byte	0x8e
	.uleb128 0x1
	.byte	0x4
	.4byte	.LCFI177-.LCFI176
	.byte	0xe
	.uleb128 0x18
	.byte	0x4
	.4byte	.LCFI178-.LCFI177
	.byte	0xe
	.uleb128 0x4
	.align	2
.LEFDE230:
.LSFDE232:
	.4byte	.LEFDE232-.LASFDE232
.LASFDE232:
	.4byte	.Lframe0
	.4byte	.LFB297
	.4byte	.LFE297-.LFB297
	.byte	0x4
	.4byte	.LCFI179-.LFB297
	.byte	0xe
	.uleb128 0x4
	.byte	0x8e
	.uleb128 0x1
	.byte	0x4
	.4byte	.LCFI180-.LCFI179
	.byte	0xe
	.uleb128 0x18
	.byte	0x4
	.4byte	.LCFI181-.LCFI180
	.byte	0xe
	.uleb128 0x4
	.align	2
.LEFDE232:
.LSFDE234:
	.4byte	.LEFDE234-.LASFDE234
.LASFDE234:
	.4byte	.Lframe0
	.4byte	.LFB298
	.4byte	.LFE298-.LFB298
	.byte	0x4
	.4byte	.LCFI182-.LFB298
	.byte	0xe
	.uleb128 0x4
	.byte	0x8e
	.uleb128 0x1
	.byte	0x4
	.4byte	.LCFI183-.LCFI182
	.byte	0xe
	.uleb128 0x20
	.byte	0x4
	.4byte	.LCFI184-.LCFI183
	.byte	0xe
	.uleb128 0x4
	.align	2
.LEFDE234:
.LSFDE236:
	.4byte	.LEFDE236-.LASFDE236
.LASFDE236:
	.4byte	.Lframe0
	.4byte	.LFB299
	.4byte	.LFE299-.LFB299
	.byte	0x4
	.4byte	.LCFI185-.LFB299
	.byte	0xe
	.uleb128 0x4
	.byte	0x8e
	.uleb128 0x1
	.byte	0x4
	.4byte	.LCFI186-.LCFI185
	.byte	0xe
	.uleb128 0x28
	.byte	0x4
	.4byte	.LCFI187-.LCFI186
	.byte	0xe
	.uleb128 0x4
	.align	2
.LEFDE236:
.LSFDE238:
	.4byte	.LEFDE238-.LASFDE238
.LASFDE238:
	.4byte	.Lframe0
	.4byte	.LFB300
	.4byte	.LFE300-.LFB300
	.byte	0x4
	.4byte	.LCFI188-.LFB300
	.byte	0xe
	.uleb128 0x4
	.byte	0x8e
	.uleb128 0x1
	.byte	0x4
	.4byte	.LCFI189-.LCFI188
	.byte	0xe
	.uleb128 0x18
	.byte	0x4
	.4byte	.LCFI190-.LCFI189
	.byte	0xe
	.uleb128 0x4
	.align	2
.LEFDE238:
.LSFDE240:
	.4byte	.LEFDE240-.LASFDE240
.LASFDE240:
	.4byte	.Lframe0
	.4byte	.LFB301
	.4byte	.LFE301-.LFB301
	.byte	0x4
	.4byte	.LCFI191-.LFB301
	.byte	0xe
	.uleb128 0x4
	.byte	0x8e
	.uleb128 0x1
	.byte	0x4
	.4byte	.LCFI192-.LCFI191
	.byte	0xe
	.uleb128 0x10
	.byte	0x4
	.4byte	.LCFI193-.LCFI192
	.byte	0xe
	.uleb128 0x4
	.align	2
.LEFDE240:
.LSFDE242:
	.4byte	.LEFDE242-.LASFDE242
.LASFDE242:
	.4byte	.Lframe0
	.4byte	.LFB302
	.4byte	.LFE302-.LFB302
	.byte	0x4
	.4byte	.LCFI194-.LFB302
	.byte	0xe
	.uleb128 0x4
	.byte	0x8e
	.uleb128 0x1
	.byte	0x4
	.4byte	.LCFI195-.LCFI194
	.byte	0xe
	.uleb128 0x10
	.byte	0x4
	.4byte	.LCFI196-.LCFI195
	.byte	0xe
	.uleb128 0x4
	.align	2
.LEFDE242:
.LSFDE244:
	.4byte	.LEFDE244-.LASFDE244
.LASFDE244:
	.4byte	.Lframe0
	.4byte	.LFB303
	.4byte	.LFE303-.LFB303
	.byte	0x4
	.4byte	.LCFI197-.LFB303
	.byte	0xe
	.uleb128 0x4
	.byte	0x8e
	.uleb128 0x1
	.byte	0x4
	.4byte	.LCFI198-.LCFI197
	.byte	0xe
	.uleb128 0x18
	.byte	0x4
	.4byte	.LCFI199-.LCFI198
	.byte	0xe
	.uleb128 0x4
	.align	2
.LEFDE244:
.LSFDE246:
	.4byte	.LEFDE246-.LASFDE246
.LASFDE246:
	.4byte	.Lframe0
	.4byte	.LFB304
	.4byte	.LFE304-.LFB304
	.byte	0x4
	.4byte	.LCFI200-.LFB304
	.byte	0xe
	.uleb128 0x4
	.byte	0x8e
	.uleb128 0x1
	.byte	0x4
	.4byte	.LCFI201-.LCFI200
	.byte	0xe
	.uleb128 0x58
	.byte	0x4
	.4byte	.LCFI202-.LCFI201
	.byte	0xe
	.uleb128 0x4
	.align	2
.LEFDE246:
	.text
.Letext0:
	.file 8 "../../../../../../modules/nrfx/drivers/nrfx_common.h"
	.file 9 "../../../../../../modules/nrfx/drivers/include/nrfx_gpiote.h"
	.file 10 "C:/Program Files (x86)/SEGGER/SEGGER Embedded Studio for ARM 4.50/include/stdint.h"