	.cpu cortex-m4
	.eabi_attribute 27, 1
	.eabi_attribute 28, 1
	.eabi_attribute 20, 1
	.eabi_attribute 21, 1
	.eabi_attribute 23, 3
	.eabi_attribute 24, 1
	.eabi_attribute 25, 1
	.eabi_attribute 26, 1
	.eabi_attribute 30, 6
	.eabi_attribute 34, 1
	.eabi_attribute 18, 4
	.file	"nrfx_saadc.c"
	.text
.Ltext0:
	.section	.text.NVIC_EnableIRQ,"ax",%progbits
	.align	1
	.syntax unified
	.thumb
	.thumb_func
	.fpu fpv4-sp-d16
	.type	NVIC_EnableIRQ, %function
NVIC_EnableIRQ:
.LFB108:
	.file 1 "../../../../../../components/toolchain/cmsis/include/core_cm4.h"
	.loc 1 1627 1
	@ args = 0, pretend = 0, frame = 8
	@ frame_needed = 0, uses_anonymous_args = 0
	@ link register save eliminated.
	sub	sp, sp, #8
.LCFI0:
	mov	r3, r0
	strb	r3, [sp, #7]
	.loc 1 1628 137
	ldrb	r3, [sp, #7]	@ zero_extendqisi2
	and	r2, r3, #31
	.loc 1 1628 47
	ldr	r1, .L2
	.loc 1 1628 56
	ldrsb	r3, [sp, #7]
	.loc 1 1628 81
	lsrs	r3, r3, #5
	.loc 1 1628 107
	movs	r0, #1
	lsl	r2, r0, r2
	.loc 1 1628 90
	str	r2, [r1, r3, lsl #2]
	.loc 1 1629 1
	nop
	add	sp, sp, #8
.LCFI1:
	@ sp needed
	bx	lr
.L3:
	.align	2
.L2:
	.word	-536813312
.LFE108:
	.size	NVIC_EnableIRQ, .-NVIC_EnableIRQ
	.section	.text.NVIC_DisableIRQ,"ax",%progbits
	.align	1
	.syntax unified
	.thumb
	.thumb_func
	.fpu fpv4-sp-d16
	.type	NVIC_DisableIRQ, %function
NVIC_DisableIRQ:
.LFB109:
	.loc 1 1638 1
	@ args = 0, pretend = 0, frame = 8
	@ frame_needed = 0, uses_anonymous_args = 0
	@ link register save eliminated.
	sub	sp, sp, #8
.LCFI2:
	mov	r3, r0
	strb	r3, [sp, #7]
	.loc 1 1639 137
	ldrb	r3, [sp, #7]	@ zero_extendqisi2
	and	r2, r3, #31
	.loc 1 1639 47
	ldr	r1, .L5
	.loc 1 1639 56
	ldrsb	r3, [sp, #7]
	.loc 1 1639 81
	lsrs	r3, r3, #5
	.loc 1 1639 107
	movs	r0, #1
	lsl	r2, r0, r2
	.loc 1 1639 90
	adds	r3, r3, #32
	str	r2, [r1, r3, lsl #2]
	.loc 1 1640 1
	nop
	add	sp, sp, #8
.LCFI3:
	@ sp needed
	bx	lr
.L6:
	.align	2
.L5:
	.word	-536813312
.LFE109:
	.size	NVIC_DisableIRQ, .-NVIC_DisableIRQ
	.section	.text.NVIC_ClearPendingIRQ,"ax",%progbits
	.align	1
	.syntax unified
	.thumb
	.thumb_func
	.fpu fpv4-sp-d16
	.type	NVIC_ClearPendingIRQ, %function
NVIC_ClearPendingIRQ:
.LFB112:
	.loc 1 1673 1
	@ args = 0, pretend = 0, frame = 8
	@ frame_needed = 0, uses_anonymous_args = 0
	@ link register save eliminated.
	sub	sp, sp, #8
.LCFI4:
	mov	r3, r0
	strb	r3, [sp, #7]
	.loc 1 1674 137
	ldrb	r3, [sp, #7]	@ zero_extendqisi2
	and	r2, r3, #31
	.loc 1 1674 47
	ldr	r1, .L8
	.loc 1 1674 56
	ldrsb	r3, [sp, #7]
	.loc 1 1674 81
	lsrs	r3, r3, #5
	.loc 1 1674 107
	movs	r0, #1
	lsl	r2, r0, r2
	.loc 1 1674 90
	adds	r3, r3, #96
	str	r2, [r1, r3, lsl #2]
	.loc 1 1675 1
	nop
	add	sp, sp, #8
.LCFI5:
	@ sp needed
	bx	lr
.L9:
	.align	2
.L8:
	.word	-536813312
.LFE112:
	.size	NVIC_ClearPendingIRQ, .-NVIC_ClearPendingIRQ
	.section	.text.NVIC_SetPriority,"ax",%progbits
	.align	1
	.syntax unified
	.thumb
	.thumb_func
	.fpu fpv4-sp-d16
	.type	NVIC_SetPriority, %function
NVIC_SetPriority:
.LFB114:
	.loc 1 1699 1
	@ args = 0, pretend = 0, frame = 8
	@ frame_needed = 0, uses_anonymous_args = 0
	@ link register save eliminated.
	sub	sp, sp, #8
.LCFI6:
	mov	r3, r0
	str	r1, [sp]
	strb	r3, [sp, #7]
	.loc 1 1700 6
	ldrsb	r3, [sp, #7]
	cmp	r3, #0
	bge	.L11
	.loc 1 1702 97
	ldr	r3, [sp]
	uxtb	r2, r3
	.loc 1 1702 48
	ldr	r1, .L14
	.loc 1 1702 81
	ldrb	r3, [sp, #7]	@ zero_extendqisi2
	and	r3, r3, #15
	.loc 1 1702 89
	subs	r3, r3, #4
	.loc 1 1702 97
	lsls	r2, r2, #5
	uxtb	r2, r2
	.loc 1 1702 95
	add	r3, r3, r1
	strb	r2, [r3, #24]
	.loc 1 1708 1
	b	.L13
.L11:
	.loc 1 1706 83
	ldr	r3, [sp]
	uxtb	r2, r3
	.loc 1 1706 49
	ldr	r1, .L14+4
	.loc 1 1706 55
	ldrsb	r3, [sp, #7]
	.loc 1 1706 83
	lsls	r2, r2, #5
	uxtb	r2, r2
	.loc 1 1706 81
	add	r3, r3, r1
	strb	r2, [r3, #768]
.L13:
	.loc 1 1708 1
	nop
	add	sp, sp, #8
.LCFI7:
	@ sp needed
	bx	lr
.L15:
	.align	2
.L14:
	.word	-536810240
	.word	-536813312
.LFE114:
	.size	NVIC_SetPriority, .-NVIC_SetPriority
	.section	.text._NRFX_IRQ_PRIORITY_SET,"ax",%progbits
	.align	1
	.syntax unified
	.thumb
	.thumb_func
	.fpu fpv4-sp-d16
	.type	_NRFX_IRQ_PRIORITY_SET, %function
_NRFX_IRQ_PRIORITY_SET:
.LFB146:
	.file 2 "../../../../../../integration/nrfx/nrfx_glue.h"
	.loc 2 106 1
	@ args = 0, pretend = 0, frame = 8
	@ frame_needed = 0, uses_anonymous_args = 0
	push	{lr}
.LCFI8:
	sub	sp, sp, #12
.LCFI9:
	mov	r3, r0
	mov	r2, r1
	strb	r3, [sp, #7]
	mov	r3, r2
	strb	r3, [sp, #6]
	.loc 2 108 5
	ldrb	r2, [sp, #6]	@ zero_extendqisi2
	ldrsb	r3, [sp, #7]
	mov	r1, r2
	mov	r0, r3
	bl	NVIC_SetPriority
	.loc 2 109 1
	nop
	add	sp, sp, #12
.LCFI10:
	@ sp needed
	ldr	pc, [sp], #4
.LFE146:
	.size	_NRFX_IRQ_PRIORITY_SET, .-_NRFX_IRQ_PRIORITY_SET
	.section	.text._NRFX_IRQ_ENABLE,"ax",%progbits
	.align	1
	.syntax unified
	.thumb
	.thumb_func
	.fpu fpv4-sp-d16
	.type	_NRFX_IRQ_ENABLE, %function
_NRFX_IRQ_ENABLE:
.LFB147:
	.loc 2 118 1
	@ args = 0, pretend = 0, frame = 8
	@ frame_needed = 0, uses_anonymous_args = 0
	push	{lr}
.LCFI11:
	sub	sp, sp, #12
.LCFI12:
	mov	r3, r0
	strb	r3, [sp, #7]
	.loc 2 119 5
	ldrsb	r3, [sp, #7]
	mov	r0, r3
	bl	NVIC_ClearPendingIRQ
	.loc 2 120 5
	ldrsb	r3, [sp, #7]
	mov	r0, r3
	bl	NVIC_EnableIRQ
	.loc 2 121 1
	nop
	add	sp, sp, #12
.LCFI13:
	@ sp needed
	ldr	pc, [sp], #4
.LFE147:
	.size	_NRFX_IRQ_ENABLE, .-_NRFX_IRQ_ENABLE
	.section	.text._NRFX_IRQ_DISABLE,"ax",%progbits
	.align	1
	.syntax unified
	.thumb
	.thumb_func
	.fpu fpv4-sp-d16
	.type	_NRFX_IRQ_DISABLE, %function
_NRFX_IRQ_DISABLE:
.LFB149:
	.loc 2 144 1
	@ args = 0, pretend = 0, frame = 8
	@ frame_needed = 0, uses_anonymous_args = 0
	push	{lr}
.LCFI14:
	sub	sp, sp, #12
.LCFI15:
	mov	r3, r0
	strb	r3, [sp, #7]
	.loc 2 145 5
	ldrsb	r3, [sp, #7]
	mov	r0, r3
	bl	NVIC_DisableIRQ
	.loc 2 146 1
	nop
	add	sp, sp, #12
.LCFI16:
	@ sp needed
	ldr	pc, [sp], #4
.LFE149:
	.size	_NRFX_IRQ_DISABLE, .-_NRFX_IRQ_DISABLE
	.section	.text.sd_mutex_new,"ax",%progbits
	.align	1
	.syntax unified
	.thumb
	.thumb_func
	.fpu fpv4-sp-d16
	.type	sd_mutex_new, %function
sd_mutex_new:
.LFB153:
	.file 3 "../../../../../../components/softdevice/s132/headers/nrf_soc.h"
	.loc 3 393 101
	@ Naked Function: prologue and epilogue provided by programmer.
	@ args = 0, pretend = 0, frame = 0
	@ frame_needed = 0, uses_anonymous_args = 0
	.loc 3 393 103
	.syntax unified
@ 393 "../../../../../../components/softdevice/s132/headers/nrf_soc.h" 1
	svc #44
bx r14
@ 0 "" 2
	.loc 3 393 2
	.thumb
	.syntax unified
	nop
	mov	r0, r3
.LFE153:
	.size	sd_mutex_new, .-sd_mutex_new
	.section	.text.sd_mutex_acquire,"ax",%progbits
	.align	1
	.syntax unified
	.thumb
	.thumb_func
	.fpu fpv4-sp-d16
	.type	sd_mutex_acquire, %function
sd_mutex_acquire:
.LFB154:
	.loc 3 402 105
	@ Naked Function: prologue and epilogue provided by programmer.
	@ args = 0, pretend = 0, frame = 0
	@ frame_needed = 0, uses_anonymous_args = 0
	.loc 3 402 107
	.syntax unified
@ 402 "../../../../../../components/softdevice/s132/headers/nrf_soc.h" 1
	svc #45
bx r14
@ 0 "" 2
	.loc 3 402 2
	.thumb
	.syntax unified
	nop
	mov	r0, r3
.LFE154:
	.size	sd_mutex_acquire, .-sd_mutex_acquire
	.section	.text.sd_mutex_release,"ax",%progbits
	.align	1
	.syntax unified
	.thumb
	.thumb_func
	.fpu fpv4-sp-d16
	.type	sd_mutex_release, %function
sd_mutex_release:
.LFB155:
	.loc 3 410 105
	@ Naked Function: prologue and epilogue provided by programmer.
	@ args = 0, pretend = 0, frame = 0
	@ frame_needed = 0, uses_anonymous_args = 0
	.loc 3 410 107
	.syntax unified
@ 410 "../../../../../../components/softdevice/s132/headers/nrf_soc.h" 1
	svc #46
bx r14
@ 0 "" 2
	.loc 3 410 2
	.thumb
	.syntax unified
	nop
	mov	r0, r3
.LFE155:
	.size	sd_mutex_release, .-sd_mutex_release
	.section	.text.sd_rand_application_pool_capacity_get,"ax",%progbits
	.align	1
	.syntax unified
	.thumb
	.thumb_func
	.fpu fpv4-sp-d16
	.type	sd_rand_application_pool_capacity_get, %function
sd_rand_application_pool_capacity_get:
.LFB156:
	.loc 3 418 130
	@ Naked Function: prologue and epilogue provided by programmer.
	@ args = 0, pretend = 0, frame = 0
	@ frame_needed = 0, uses_anonymous_args = 0
	.loc 3 418 132
	.syntax unified
@ 418 "../../../../../../components/softdevice/s132/headers/nrf_soc.h" 1
	svc #47
bx r14
@ 0 "" 2
	.loc 3 418 2
	.thumb
	.syntax unified
	nop
	mov	r0, r3
.LFE156:
	.size	sd_rand_application_pool_capacity_get, .-sd_rand_application_pool_capacity_get
	.section	.text.sd_rand_application_bytes_available_get,"ax",%progbits
	.align	1
	.syntax unified
	.thumb
	.thumb_func
	.fpu fpv4-sp-d16
	.type	sd_rand_application_bytes_available_get, %function
sd_rand_application_bytes_available_get:
.LFB157:
	.loc 3 426 134
	@ Naked Function: prologue and epilogue provided by programmer.
	@ args = 0, pretend = 0, frame = 0
	@ frame_needed = 0, uses_anonymous_args = 0
	.loc 3 426 136
	.syntax unified
@ 426 "../../../../../../components/softdevice/s132/headers/nrf_soc.h" 1
	svc #48
bx r14
@ 0 "" 2
	.loc 3 426 2
	.thumb
	.syntax unified
	nop
	mov	r0, r3
.LFE157:
	.size	sd_rand_application_bytes_available_get, .-sd_rand_application_bytes_available_get
	.section	.text.sd_rand_application_vector_get,"ax",%progbits
	.align	1
	.syntax unified
	.thumb
	.thumb_func
	.fpu fpv4-sp-d16
	.type	sd_rand_application_vector_get, %function
sd_rand_application_vector_get:
.LFB158:
	.loc 3 436 130
	@ Naked Function: prologue and epilogue provided by programmer.
	@ args = 0, pretend = 0, frame = 0
	@ frame_needed = 0, uses_anonymous_args = 0
	.loc 3 436 132
	.syntax unified
@ 436 "../../../../../../components/softdevice/s132/headers/nrf_soc.h" 1
	svc #49
bx r14
@ 0 "" 2
	.loc 3 436 2
	.thumb
	.syntax unified
	nop
	mov	r0, r3
.LFE158:
	.size	sd_rand_application_vector_get, .-sd_rand_application_vector_get
	.section	.text.sd_power_reset_reason_get,"ax",%progbits
	.align	1
	.syntax unified
	.thumb
	.thumb_func
	.fpu fpv4-sp-d16
	.type	sd_power_reset_reason_get, %function
sd_power_reset_reason_get:
.LFB159:
	.loc 3 444 118
	@ Naked Function: prologue and epilogue provided by programmer.
	@ args = 0, pretend = 0, frame = 0
	@ frame_needed = 0, uses_anonymous_args = 0
	.loc 3 444 120
	.syntax unified
@ 444 "../../../../../../components/softdevice/s132/headers/nrf_soc.h" 1
	svc #52
bx r14
@ 0 "" 2
	.loc 3 444 2
	.thumb
	.syntax unified
	nop
	mov	r0, r3
.LFE159:
	.size	sd_power_reset_reason_get, .-sd_power_reset_reason_get
	.section	.text.sd_power_reset_reason_clr,"ax",%progbits
	.align	1
	.syntax unified
	.thumb
	.thumb_func
	.fpu fpv4-sp-d16
	.type	sd_power_reset_reason_clr, %function
sd_power_reset_reason_clr:
.LFB160:
	.loc 3 452 122
	@ Naked Function: prologue and epilogue provided by programmer.
	@ args = 0, pretend = 0, frame = 0
	@ frame_needed = 0, uses_anonymous_args = 0
	.loc 3 452 124
	.syntax unified
@ 452 "../../../../../../components/softdevice/s132/headers/nrf_soc.h" 1
	svc #53
bx r14
@ 0 "" 2
	.loc 3 452 2
	.thumb
	.syntax unified
	nop
	mov	r0, r3
.LFE160:
	.size	sd_power_reset_reason_clr, .-sd_power_reset_reason_clr
	.section	.text.sd_power_mode_set,"ax",%progbits
	.align	1
	.syntax unified
	.thumb
	.thumb_func
	.fpu fpv4-sp-d16
	.type	sd_power_mode_set, %function
sd_power_mode_set:
.LFB161:
	.loc 3 461 103
	@ Naked Function: prologue and epilogue provided by programmer.
	@ args = 0, pretend = 0, frame = 0
	@ frame_needed = 0, uses_anonymous_args = 0
	.loc 3 461 105
	.syntax unified
@ 461 "../../../../../../components/softdevice/s132/headers/nrf_soc.h" 1
	svc #50
bx r14
@ 0 "" 2
	.loc 3 461 2
	.thumb
	.syntax unified
	nop
	mov	r0, r3
.LFE161:
	.size	sd_power_mode_set, .-sd_power_mode_set
	.section	.text.sd_power_system_off,"ax",%progbits
	.align	1
	.syntax unified
	.thumb
	.thumb_func
	.fpu fpv4-sp-d16
	.type	sd_power_system_off, %function
sd_power_system_off:
.LFB162:
	.loc 3 467 91
	@ Naked Function: prologue and epilogue provided by programmer.
	@ args = 0, pretend = 0, frame = 0
	@ frame_needed = 0, uses_anonymous_args = 0
	.loc 3 467 93
	.syntax unified
@ 467 "../../../../../../components/softdevice/s132/headers/nrf_soc.h" 1
	svc #51
bx r14
@ 0 "" 2
	.loc 3 467 2
	.thumb
	.syntax unified
	nop
	mov	r0, r3
.LFE162:
	.size	sd_power_system_off, .-sd_power_system_off
	.section	.text.sd_power_pof_enable,"ax",%progbits
	.align	1
	.syntax unified
	.thumb
	.thumb_func
	.fpu fpv4-sp-d16
	.type	sd_power_pof_enable, %function
sd_power_pof_enable:
.LFB163:
	.loc 3 478 105
	@ Naked Function: prologue and epilogue provided by programmer.
	@ args = 0, pretend = 0, frame = 0
	@ frame_needed = 0, uses_anonymous_args = 0
	.loc 3 478 107
	.syntax unified
@ 478 "../../../../../../components/softdevice/s132/headers/nrf_soc.h" 1
	svc #54
bx r14
@ 0 "" 2
	.loc 3 478 2
	.thumb
	.syntax unified
	nop
	mov	r0, r3
.LFE163:
	.size	sd_power_pof_enable, .-sd_power_pof_enable
	.section	.text.sd_power_pof_threshold_set,"ax",%progbits
	.align	1
	.syntax unified
	.thumb
	.thumb_func
	.fpu fpv4-sp-d16
	.type	sd_power_pof_threshold_set, %function
sd_power_pof_threshold_set:
.LFB164:
	.loc 3 489 111
	@ Naked Function: prologue and epilogue provided by programmer.
	@ args = 0, pretend = 0, frame = 0
	@ frame_needed = 0, uses_anonymous_args = 0
	.loc 3 489 113
	.syntax unified
@ 489 "../../../../../../components/softdevice/s132/headers/nrf_soc.h" 1
	svc #55
bx r14
@ 0 "" 2
	.loc 3 489 2
	.thumb
	.syntax unified
	nop
	mov	r0, r3
.LFE164:
	.size	sd_power_pof_threshold_set, .-sd_power_pof_threshold_set
	.section	.text.sd_power_ram_power_set,"ax",%progbits
	.align	1
	.syntax unified
	.thumb
	.thumb_func
	.fpu fpv4-sp-d16
	.type	sd_power_ram_power_set, %function
sd_power_ram_power_set:
.LFB165:
	.loc 3 499 126
	@ Naked Function: prologue and epilogue provided by programmer.
	@ args = 0, pretend = 0, frame = 0
	@ frame_needed = 0, uses_anonymous_args = 0
	.loc 3 499 128
	.syntax unified
@ 499 "../../../../../../components/softdevice/s132/headers/nrf_soc.h" 1
	svc #57
bx r14
@ 0 "" 2
	.loc 3 499 2
	.thumb
	.syntax unified
	nop
	mov	r0, r3
.LFE165:
	.size	sd_power_ram_power_set, .-sd_power_ram_power_set
	.section	.text.sd_power_ram_power_clr,"ax",%progbits
	.align	1
	.syntax unified
	.thumb
	.thumb_func
	.fpu fpv4-sp-d16
	.type	sd_power_ram_power_clr, %function
sd_power_ram_power_clr:
.LFB166:
	.loc 3 508 126
	@ Naked Function: prologue and epilogue provided by programmer.
	@ args = 0, pretend = 0, frame = 0
	@ frame_needed = 0, uses_anonymous_args = 0
	.loc 3 508 128
	.syntax unified
@ 508 "../../../../../../components/softdevice/s132/headers/nrf_soc.h" 1
	svc #58
bx r14
@ 0 "" 2
	.loc 3 508 2
	.thumb
	.syntax unified
	nop
	mov	r0, r3
.LFE166:
	.size	sd_power_ram_power_clr, .-sd_power_ram_power_clr
	.section	.text.sd_power_ram_power_get,"ax",%progbits
	.align	1
	.syntax unified
	.thumb
	.thumb_func
	.fpu fpv4-sp-d16
	.type	sd_power_ram_power_get, %function
sd_power_ram_power_get:
.LFB167:
	.loc 3 517 127
	@ Naked Function: prologue and epilogue provided by programmer.
	@ args = 0, pretend = 0, frame = 0
	@ frame_needed = 0, uses_anonymous_args = 0
	.loc 3 517 129
	.syntax unified
@ 517 "../../../../../../components/softdevice/s132/headers/nrf_soc.h" 1
	svc #59
bx r14
@ 0 "" 2
	.loc 3 517 2
	.thumb
	.syntax unified
	nop
	mov	r0, r3
.LFE167:
	.size	sd_power_ram_power_get, .-sd_power_ram_power_get
	.section	.text.sd_power_gpregret_set,"ax",%progbits
	.align	1
	.syntax unified
	.thumb
	.thumb_func
	.fpu fpv4-sp-d16
	.type	sd_power_gpregret_set, %function
sd_power_gpregret_set:
.LFB168:
	.loc 3 526 132
	@ Naked Function: prologue and epilogue provided by programmer.
	@ args = 0, pretend = 0, frame = 0
	@ frame_needed = 0, uses_anonymous_args = 0
	.loc 3 526 134
	.syntax unified
@ 526 "../../../../../../components/softdevice/s132/headers/nrf_soc.h" 1
	svc #60
bx r14
@ 0 "" 2
	.loc 3 526 2
	.thumb
	.syntax unified
	nop
	mov	r0, r3
.LFE168:
	.size	sd_power_gpregret_set, .-sd_power_gpregret_set
	.section	.text.sd_power_gpregret_clr,"ax",%progbits
	.align	1
	.syntax unified
	.thumb
	.thumb_func
	.fpu fpv4-sp-d16
	.type	sd_power_gpregret_clr, %function
sd_power_gpregret_clr:
.LFB169:
	.loc 3 535 132
	@ Naked Function: prologue and epilogue provided by programmer.
	@ args = 0, pretend = 0, frame = 0
	@ frame_needed = 0, uses_anonymous_args = 0
	.loc 3 535 134
	.syntax unified
@ 535 "../../../../../../components/softdevice/s132/headers/nrf_soc.h" 1
	svc #61
bx r14
@ 0 "" 2
	.loc 3 535 2
	.thumb
	.syntax unified
	nop
	mov	r0, r3
.LFE169:
	.size	sd_power_gpregret_clr, .-sd_power_gpregret_clr
	.section	.text.sd_power_gpregret_get,"ax",%progbits
	.align	1
	.syntax unified
	.thumb
	.thumb_func
	.fpu fpv4-sp-d16
	.type	sd_power_gpregret_get, %function
sd_power_gpregret_get:
.LFB170:
	.loc 3 544 131
	@ Naked Function: prologue and epilogue provided by programmer.
	@ args = 0, pretend = 0, frame = 0
	@ frame_needed = 0, uses_anonymous_args = 0
	.loc 3 544 133
	.syntax unified
@ 544 "../../../../../../components/softdevice/s132/headers/nrf_soc.h" 1
	svc #62
bx r14
@ 0 "" 2
	.loc 3 544 2
	.thumb
	.syntax unified
	nop
	mov	r0, r3
.LFE170:
	.size	sd_power_gpregret_get, .-sd_power_gpregret_get
	.section	.text.sd_power_dcdc_mode_set,"ax",%progbits
	.align	1
	.syntax unified
	.thumb
	.thumb_func
	.fpu fpv4-sp-d16
	.type	sd_power_dcdc_mode_set, %function
sd_power_dcdc_mode_set:
.LFB171:
	.loc 3 553 107
	@ Naked Function: prologue and epilogue provided by programmer.
	@ args = 0, pretend = 0, frame = 0
	@ frame_needed = 0, uses_anonymous_args = 0
	.loc 3 553 109
	.syntax unified
@ 553 "../../../../../../components/softdevice/s132/headers/nrf_soc.h" 1
	svc #63
bx r14
@ 0 "" 2
	.loc 3 553 2
	.thumb
	.syntax unified
	nop
	mov	r0, r3
.LFE171:
	.size	sd_power_dcdc_mode_set, .-sd_power_dcdc_mode_set
	.section	.text.sd_clock_hfclk_request,"ax",%progbits
	.align	1
	.syntax unified
	.thumb
	.thumb_func
	.fpu fpv4-sp-d16
	.type	sd_clock_hfclk_request, %function
sd_clock_hfclk_request:
.LFB172:
	.loc 3 566 94
	@ Naked Function: prologue and epilogue provided by programmer.
	@ args = 0, pretend = 0, frame = 0
	@ frame_needed = 0, uses_anonymous_args = 0
	.loc 3 566 96
	.syntax unified
@ 566 "../../../../../../components/softdevice/s132/headers/nrf_soc.h" 1
	svc #66
bx r14
@ 0 "" 2
	.loc 3 566 2
	.thumb
	.syntax unified
	nop
	mov	r0, r3
.LFE172:
	.size	sd_clock_hfclk_request, .-sd_clock_hfclk_request
	.section	.text.sd_clock_hfclk_release,"ax",%progbits
	.align	1
	.syntax unified
	.thumb
	.thumb_func
	.fpu fpv4-sp-d16
	.type	sd_clock_hfclk_release, %function
sd_clock_hfclk_release:
.LFB173:
	.loc 3 577 94
	@ Naked Function: prologue and epilogue provided by programmer.
	@ args = 0, pretend = 0, frame = 0
	@ frame_needed = 0, uses_anonymous_args = 0
	.loc 3 577 96
	.syntax unified
@ 577 "../../../../../../components/softdevice/s132/headers/nrf_soc.h" 1
	svc #67
bx r14
@ 0 "" 2
	.loc 3 577 2
	.thumb
	.syntax unified
	nop
	mov	r0, r3
.LFE173:
	.size	sd_clock_hfclk_release, .-sd_clock_hfclk_release
	.section	.text.sd_clock_hfclk_is_running,"ax",%progbits
	.align	1
	.syntax unified
	.thumb
	.thumb_func
	.fpu fpv4-sp-d16
	.type	sd_clock_hfclk_is_running, %function
sd_clock_hfclk_is_running:
.LFB174:
	.loc 3 588 116
	@ Naked Function: prologue and epilogue provided by programmer.
	@ args = 0, pretend = 0, frame = 0
	@ frame_needed = 0, uses_anonymous_args = 0
	.loc 3 588 118
	.syntax unified
@ 588 "../../../../../../components/softdevice/s132/headers/nrf_soc.h" 1
	svc #68
bx r14
@ 0 "" 2
	.loc 3 588 2
	.thumb
	.syntax unified
	nop
	mov	r0, r3
.LFE174:
	.size	sd_clock_hfclk_is_running, .-sd_clock_hfclk_is_running
	.section	.text.sd_app_evt_wait,"ax",%progbits
	.align	1
	.syntax unified
	.thumb
	.thumb_func
	.fpu fpv4-sp-d16
	.type	sd_app_evt_wait, %function
sd_app_evt_wait:
.LFB175:
	.loc 3 616 87
	@ Naked Function: prologue and epilogue provided by programmer.
	@ args = 0, pretend = 0, frame = 0
	@ frame_needed = 0, uses_anonymous_args = 0
	.loc 3 616 89
	.syntax unified
@ 616 "../../../../../../components/softdevice/s132/headers/nrf_soc.h" 1
	svc #65
bx r14
@ 0 "" 2
	.loc 3 616 2
	.thumb
	.syntax unified
	nop
	mov	r0, r3
.LFE175:
	.size	sd_app_evt_wait, .-sd_app_evt_wait
	.section	.text.sd_ppi_channel_enable_get,"ax",%progbits
	.align	1
	.syntax unified
	.thumb
	.thumb_func
	.fpu fpv4-sp-d16
	.type	sd_ppi_channel_enable_get, %function
sd_ppi_channel_enable_get:
.LFB176:
	.loc 3 624 120
	@ Naked Function: prologue and epilogue provided by programmer.
	@ args = 0, pretend = 0, frame = 0
	@ frame_needed = 0, uses_anonymous_args = 0
	.loc 3 624 122
	.syntax unified
@ 624 "../../../../../../components/softdevice/s132/headers/nrf_soc.h" 1
	svc #32
bx r14
@ 0 "" 2
	.loc 3 624 2
	.thumb
	.syntax unified
	nop
	mov	r0, r3
.LFE176:
	.size	sd_ppi_channel_enable_get, .-sd_ppi_channel_enable_get
	.section	.text.sd_ppi_channel_enable_set,"ax",%progbits
	.align	1
	.syntax unified
	.thumb
	.thumb_func
	.fpu fpv4-sp-d16
	.type	sd_ppi_channel_enable_set, %function
sd_ppi_channel_enable_set:
.LFB177:
	.loc 3 632 124
	@ Naked Function: prologue and epilogue provided by programmer.
	@ args = 0, pretend = 0, frame = 0
	@ frame_needed = 0, uses_anonymous_args = 0
	.loc 3 632 126
	.syntax unified
@ 632 "../../../../../../components/softdevice/s132/headers/nrf_soc.h" 1
	svc #33
bx r14
@ 0 "" 2
	.loc 3 632 2
	.thumb
	.syntax unified
	nop
	mov	r0, r3
.LFE177:
	.size	sd_ppi_channel_enable_set, .-sd_ppi_channel_enable_set
	.section	.text.sd_ppi_channel_enable_clr,"ax",%progbits
	.align	1
	.syntax unified
	.thumb
	.thumb_func
	.fpu fpv4-sp-d16
	.type	sd_ppi_channel_enable_clr, %function
sd_ppi_channel_enable_clr:
.LFB178:
	.loc 3 640 124
	@ Naked Function: prologue and epilogue provided by programmer.
	@ args = 0, pretend = 0, frame = 0
	@ frame_needed = 0, uses_anonymous_args = 0
	.loc 3 640 126
	.syntax unified
@ 640 "../../../../../../components/softdevice/s132/headers/nrf_soc.h" 1
	svc #34
bx r14
@ 0 "" 2
	.loc 3 640 2
	.thumb
	.syntax unified
	nop
	mov	r0, r3
.LFE178:
	.size	sd_ppi_channel_enable_clr, .-sd_ppi_channel_enable_clr
	.section	.text.sd_ppi_channel_assign,"ax",%progbits
	.align	1
	.syntax unified
	.thumb
	.thumb_func
	.fpu fpv4-sp-d16
	.type	sd_ppi_channel_assign, %function
sd_ppi_channel_assign:
.LFB179:
	.loc 3 651 181
	@ Naked Function: prologue and epilogue provided by programmer.
	@ args = 0, pretend = 0, frame = 0
	@ frame_needed = 0, uses_anonymous_args = 0
	.loc 3 651 183
	.syntax unified
@ 651 "../../../../../../components/softdevice/s132/headers/nrf_soc.h" 1
	svc #35
bx r14
@ 0 "" 2
	.loc 3 651 2
	.thumb
	.syntax unified
	nop
	mov	r0, r3
.LFE179:
	.size	sd_ppi_channel_assign, .-sd_ppi_channel_assign
	.section	.text.sd_ppi_group_task_enable,"ax",%progbits
	.align	1
	.syntax unified
	.thumb
	.thumb_func
	.fpu fpv4-sp-d16
	.type	sd_ppi_group_task_enable, %function
sd_ppi_group_task_enable:
.LFB180:
	.loc 3 660 109
	@ Naked Function: prologue and epilogue provided by programmer.
	@ args = 0, pretend = 0, frame = 0
	@ frame_needed = 0, uses_anonymous_args = 0
	.loc 3 660 111
	.syntax unified
@ 660 "../../../../../../components/softdevice/s132/headers/nrf_soc.h" 1
	svc #36
bx r14
@ 0 "" 2
	.loc 3 660 2
	.thumb
	.syntax unified
	nop
	mov	r0, r3
.LFE180:
	.size	sd_ppi_group_task_enable, .-sd_ppi_group_task_enable
	.section	.text.sd_ppi_group_task_disable,"ax",%progbits
	.align	1
	.syntax unified
	.thumb
	.thumb_func
	.fpu fpv4-sp-d16
	.type	sd_ppi_group_task_disable, %function
sd_ppi_group_task_disable:
.LFB181:
	.loc 3 669 110
	@ Naked Function: prologue and epilogue provided by programmer.
	@ args = 0, pretend = 0, frame = 0
	@ frame_needed = 0, uses_anonymous_args = 0
	.loc 3 669 112
	.syntax unified
@ 669 "../../../../../../components/softdevice/s132/headers/nrf_soc.h" 1
	svc #37
bx r14
@ 0 "" 2
	.loc 3 669 2
	.thumb
	.syntax unified
	nop
	mov	r0, r3
.LFE181:
	.size	sd_ppi_group_task_disable, .-sd_ppi_group_task_disable
	.section	.text.sd_ppi_group_assign,"ax",%progbits
	.align	1
	.syntax unified
	.thumb
	.thumb_func
	.fpu fpv4-sp-d16
	.type	sd_ppi_group_assign, %function
sd_ppi_group_assign:
.LFB182:
	.loc 3 679 126
	@ Naked Function: prologue and epilogue provided by programmer.
	@ args = 0, pretend = 0, frame = 0
	@ frame_needed = 0, uses_anonymous_args = 0
	.loc 3 679 128
	.syntax unified
@ 679 "../../../../../../components/softdevice/s132/headers/nrf_soc.h" 1
	svc #38
bx r14
@ 0 "" 2
	.loc 3 679 2
	.thumb
	.syntax unified
	nop
	mov	r0, r3
.LFE182:
	.size	sd_ppi_group_assign, .-sd_ppi_group_assign
	.section	.text.sd_ppi_group_get,"ax",%progbits
	.align	1
	.syntax unified
	.thumb
	.thumb_func
	.fpu fpv4-sp-d16
	.type	sd_ppi_group_get, %function
sd_ppi_group_get:
.LFB183:
	.loc 3 689 127
	@ Naked Function: prologue and epilogue provided by programmer.
	@ args = 0, pretend = 0, frame = 0
	@ frame_needed = 0, uses_anonymous_args = 0
	.loc 3 689 129
	.syntax unified
@ 689 "../../../../../../components/softdevice/s132/headers/nrf_soc.h" 1
	svc #39
bx r14
@ 0 "" 2
	.loc 3 689 2
	.thumb
	.syntax unified
	nop
	mov	r0, r3
.LFE183:
	.size	sd_ppi_group_get, .-sd_ppi_group_get
	.section	.text.sd_radio_notification_cfg_set,"ax",%progbits
	.align	1
	.syntax unified
	.thumb
	.thumb_func
	.fpu fpv4-sp-d16
	.type	sd_radio_notification_cfg_set, %function
sd_radio_notification_cfg_set:
.LFB184:
	.loc 3 720 127
	@ Naked Function: prologue and epilogue provided by programmer.
	@ args = 0, pretend = 0, frame = 0
	@ frame_needed = 0, uses_anonymous_args = 0
	.loc 3 720 129
	.syntax unified
@ 720 "../../../../../../components/softdevice/s132/headers/nrf_soc.h" 1
	svc #69
bx r14
@ 0 "" 2
	.loc 3 720 2
	.thumb
	.syntax unified
	nop
	mov	r0, r3
.LFE184:
	.size	sd_radio_notification_cfg_set, .-sd_radio_notification_cfg_set
	.section	.text.sd_ecb_block_encrypt,"ax",%progbits
	.align	1
	.syntax unified
	.thumb
	.thumb_func
	.fpu fpv4-sp-d16
	.type	sd_ecb_block_encrypt, %function
sd_ecb_block_encrypt:
.LFB185:
	.loc 3 736 119
	@ Naked Function: prologue and epilogue provided by programmer.
	@ args = 0, pretend = 0, frame = 0
	@ frame_needed = 0, uses_anonymous_args = 0
	.loc 3 736 121
	.syntax unified
@ 736 "../../../../../../components/softdevice/s132/headers/nrf_soc.h" 1
	svc #70
bx r14
@ 0 "" 2
	.loc 3 736 2
	.thumb
	.syntax unified
	nop
	mov	r0, r3
.LFE185:
	.size	sd_ecb_block_encrypt, .-sd_ecb_block_encrypt
	.section	.text.sd_ecb_blocks_encrypt,"ax",%progbits
	.align	1
	.syntax unified
	.thumb
	.thumb_func
	.fpu fpv4-sp-d16
	.type	sd_ecb_blocks_encrypt, %function
sd_ecb_blocks_encrypt:
.LFB186:
	.loc 3 753 150
	@ Naked Function: prologue and epilogue provided by programmer.
	@ args = 0, pretend = 0, frame = 0
	@ frame_needed = 0, uses_anonymous_args = 0
	.loc 3 753 152
	.syntax unified
@ 753 "../../../../../../components/softdevice/s132/headers/nrf_soc.h" 1
	svc #71
bx r14
@ 0 "" 2
	.loc 3 753 2
	.thumb
	.syntax unified
	nop
	mov	r0, r3
.LFE186:
	.size	sd_ecb_blocks_encrypt, .-sd_ecb_blocks_encrypt
	.section	.text.sd_evt_get,"ax",%progbits
	.align	1
	.syntax unified
	.thumb
	.thumb_func
	.fpu fpv4-sp-d16
	.type	sd_evt_get, %function
sd_evt_get:
.LFB187:
	.loc 3 764 97
	@ Naked Function: prologue and epilogue provided by programmer.
	@ args = 0, pretend = 0, frame = 0
	@ frame_needed = 0, uses_anonymous_args = 0
	.loc 3 764 99
	.syntax unified
@ 764 "../../../../../../components/softdevice/s132/headers/nrf_soc.h" 1
	svc #75
bx r14
@ 0 "" 2
	.loc 3 764 2
	.thumb
	.syntax unified
	nop
	mov	r0, r3
.LFE187:
	.size	sd_evt_get, .-sd_evt_get
	.section	.text.sd_temp_get,"ax",%progbits
	.align	1
	.syntax unified
	.thumb
	.thumb_func
	.fpu fpv4-sp-d16
	.type	sd_temp_get, %function
sd_temp_get:
.LFB188:
	.loc 3 775 95
	@ Naked Function: prologue and epilogue provided by programmer.
	@ args = 0, pretend = 0, frame = 0
	@ frame_needed = 0, uses_anonymous_args = 0
	.loc 3 775 97
	.syntax unified
@ 775 "../../../../../../components/softdevice/s132/headers/nrf_soc.h" 1
	svc #76
bx r14
@ 0 "" 2
	.loc 3 775 2
	.thumb
	.syntax unified
	nop
	mov	r0, r3
.LFE188:
	.size	sd_temp_get, .-sd_temp_get
	.section	.text.sd_flash_write,"ax",%progbits
	.align	1
	.syntax unified
	.thumb
	.thumb_func
	.fpu fpv4-sp-d16
	.type	sd_flash_write, %function
sd_flash_write:
.LFB189:
	.loc 3 812 137
	@ Naked Function: prologue and epilogue provided by programmer.
	@ args = 0, pretend = 0, frame = 0
	@ frame_needed = 0, uses_anonymous_args = 0
	.loc 3 812 139
	.syntax unified
@ 812 "../../../../../../components/softdevice/s132/headers/nrf_soc.h" 1
	svc #41
bx r14
@ 0 "" 2
	.loc 3 812 2
	.thumb
	.syntax unified
	nop
	mov	r0, r3
.LFE189:
	.size	sd_flash_write, .-sd_flash_write
	.section	.text.sd_flash_page_erase,"ax",%progbits
	.align	1
	.syntax unified
	.thumb
	.thumb_func
	.fpu fpv4-sp-d16
	.type	sd_flash_page_erase, %function
sd_flash_page_erase:
.LFB190:
	.loc 3 844 107
	@ Naked Function: prologue and epilogue provided by programmer.
	@ args = 0, pretend = 0, frame = 0
	@ frame_needed = 0, uses_anonymous_args = 0
	.loc 3 844 109
	.syntax unified
@ 844 "../../../../../../components/softdevice/s132/headers/nrf_soc.h" 1
	svc #40
bx r14
@ 0 "" 2
	.loc 3 844 2
	.thumb
	.syntax unified
	nop
	mov	r0, r3
.LFE190:
	.size	sd_flash_page_erase, .-sd_flash_page_erase
	.section	.text.sd_flash_protect,"ax",%progbits
	.align	1
	.syntax unified
	.thumb
	.thumb_func
	.fpu fpv4-sp-d16
	.type	sd_flash_protect, %function
sd_flash_protect:
.LFB191:
	.loc 3 867 166
	@ Naked Function: prologue and epilogue provided by programmer.
	@ args = 0, pretend = 0, frame = 0
	@ frame_needed = 0, uses_anonymous_args = 0
	.loc 3 867 168
	.syntax unified
@ 867 "../../../../../../components/softdevice/s132/headers/nrf_soc.h" 1
	svc #42
bx r14
@ 0 "" 2
	.loc 3 867 2
	.thumb
	.syntax unified
	nop
	mov	r0, r3
.LFE191:
	.size	sd_flash_protect, .-sd_flash_protect
	.section	.text.sd_radio_session_open,"ax",%progbits
	.align	1
	.syntax unified
	.thumb
	.thumb_func
	.fpu fpv4-sp-d16
	.type	sd_radio_session_open, %function
sd_radio_session_open:
.LFB192:
	.loc 3 889 140
	@ Naked Function: prologue and epilogue provided by programmer.
	@ args = 0, pretend = 0, frame = 0
	@ frame_needed = 0, uses_anonymous_args = 0
	.loc 3 889 142
	.syntax unified
@ 889 "../../../../../../components/softdevice/s132/headers/nrf_soc.h" 1
	svc #72
bx r14
@ 0 "" 2
	.loc 3 889 2
	.thumb
	.syntax unified
	nop
	mov	r0, r3
.LFE192:
	.size	sd_radio_session_open, .-sd_radio_session_open
	.section	.text.sd_radio_session_close,"ax",%progbits
	.align	1
	.syntax unified
	.thumb
	.thumb_func
	.fpu fpv4-sp-d16
	.type	sd_radio_session_close, %function
sd_radio_session_close:
.LFB193:
	.loc 3 902 94
	@ Naked Function: prologue and epilogue provided by programmer.
	@ args = 0, pretend = 0, frame = 0
	@ frame_needed = 0, uses_anonymous_args = 0
	.loc 3 902 96
	.syntax unified
@ 902 "../../../../../../components/softdevice/s132/headers/nrf_soc.h" 1
	svc #73
bx r14
@ 0 "" 2
	.loc 3 902 2
	.thumb
	.syntax unified
	nop
	mov	r0, r3
.LFE193:
	.size	sd_radio_session_close, .-sd_radio_session_close
	.section	.text.sd_radio_request,"ax",%progbits
	.align	1
	.syntax unified
	.thumb
	.thumb_func
	.fpu fpv4-sp-d16
	.type	sd_radio_request, %function
sd_radio_request:
.LFB194:
	.loc 3 934 121
	@ Naked Function: prologue and epilogue provided by programmer.
	@ args = 0, pretend = 0, frame = 0
	@ frame_needed = 0, uses_anonymous_args = 0
	.loc 3 934 123
	.syntax unified
@ 934 "../../../../../../components/softdevice/s132/headers/nrf_soc.h" 1
	svc #74
bx r14
@ 0 "" 2
	.loc 3 934 2
	.thumb
	.syntax unified
	nop
	mov	r0, r3
.LFE194:
	.size	sd_radio_request, .-sd_radio_request
	.section	.text.sd_protected_register_write,"ax",%progbits
	.align	1
	.syntax unified
	.thumb
	.thumb_func
	.fpu fpv4-sp-d16
	.type	sd_protected_register_write, %function
sd_protected_register_write:
.LFB195:
	.loc 3 955 141
	@ Naked Function: prologue and epilogue provided by programmer.
	@ args = 0, pretend = 0, frame = 0
	@ frame_needed = 0, uses_anonymous_args = 0
	.loc 3 955 143
	.syntax unified
@ 955 "../../../../../../components/softdevice/s132/headers/nrf_soc.h" 1
	svc #43
bx r14
@ 0 "" 2
	.loc 3 955 2
	.thumb
	.syntax unified
	nop
	mov	r0, r3
.LFE195:
	.size	sd_protected_register_write, .-sd_protected_register_write
	.section	.text.nrfx_coredep_delay_us,"ax",%progbits
	.align	1
	.syntax unified
	.thumb
	.thumb_func
	.fpu fpv4-sp-d16
	.type	nrfx_coredep_delay_us, %function
nrfx_coredep_delay_us:
.LFB210:
	.file 4 "../../../../../../modules/nrfx/soc/nrfx_coredep.h"
	.loc 4 129 1
	@ args = 0, pretend = 0, frame = 16
	@ frame_needed = 0, uses_anonymous_args = 0
	push	{lr}
.LCFI17:
	sub	sp, sp, #20
.LCFI18:
	str	r0, [sp, #4]
	.loc 4 130 8
	ldr	r3, [sp, #4]
	cmp	r3, #0
	beq	.L65
	.loc 4 162 56
	ldr	r3, .L66
	.loc 4 162 82
	orr	r3, r3, #1
	.loc 4 162 24
	str	r3, [sp, #12]
	.loc 4 163 14
	ldr	r3, [sp, #4]
	lsls	r3, r3, #6
	str	r3, [sp, #8]
	.loc 4 164 5
	ldr	r3, [sp, #12]
	ldr	r0, [sp, #8]
	blx	r3
.LVL0:
	b	.L62
.L65:
	.loc 4 132 9
	nop
.L62:
	.loc 4 165 1
	add	sp, sp, #20
.LCFI19:
	@ sp needed
	ldr	pc, [sp], #4
.L67:
	.align	2
.L66:
	.word	delay_bytecode.7993
.LFE210:
	.size	nrfx_coredep_delay_us, .-nrfx_coredep_delay_us
	.section	.text.nrf_saadc_task_trigger,"ax",%progbits
	.align	1
	.syntax unified
	.thumb
	.thumb_func
	.fpu fpv4-sp-d16
	.type	nrf_saadc_task_trigger, %function
nrf_saadc_task_trigger:
.LFB211:
	.file 5 "../../../../../../modules/nrfx/hal/nrf_saadc.h"
	.loc 5 299 1
	@ args = 0, pretend = 0, frame = 8
	@ frame_needed = 0, uses_anonymous_args = 0
	@ link register save eliminated.
	sub	sp, sp, #8
.LCFI20:
	mov	r3, r0
	strb	r3, [sp, #7]
	.loc 5 300 76
	ldrb	r3, [sp, #7]	@ zero_extendqisi2
	.loc 5 300 74
	add	r3, r3, #1073741824
	add	r3, r3, #28672
	.loc 5 300 99
	movs	r2, #1
	str	r2, [r3]
	.loc 5 301 1
	nop
	add	sp, sp, #8
.LCFI21:
	@ sp needed
	bx	lr
.LFE211:
	.size	nrf_saadc_task_trigger, .-nrf_saadc_task_trigger
	.section	.text.nrf_saadc_task_address_get,"ax",%progbits
	.align	1
	.syntax unified
	.thumb
	.thumb_func
	.fpu fpv4-sp-d16
	.type	nrf_saadc_task_address_get, %function
nrf_saadc_task_address_get:
.LFB212:
	.loc 5 312 1
	@ args = 0, pretend = 0, frame = 8
	@ frame_needed = 0, uses_anonymous_args = 0
	@ link register save eliminated.
	sub	sp, sp, #8
.LCFI22:
	mov	r3, r0
	strb	r3, [sp, #7]
	.loc 5 313 70
	ldrb	r3, [sp, #7]	@ zero_extendqisi2
	.loc 5 313 68
	add	r3, r3, #1073741824
	add	r3, r3, #28672
	.loc 5 314 1
	mov	r0, r3
	add	sp, sp, #8
.LCFI23:
	@ sp needed
	bx	lr
.LFE212:
	.size	nrf_saadc_task_address_get, .-nrf_saadc_task_address_get
	.section	.text.nrf_saadc_event_check,"ax",%progbits
	.align	1
	.syntax unified
	.thumb
	.thumb_func
	.fpu fpv4-sp-d16
	.type	nrf_saadc_event_check, %function
nrf_saadc_event_check:
.LFB213:
	.loc 5 325 1
	@ args = 0, pretend = 0, frame = 8
	@ frame_needed = 0, uses_anonymous_args = 0
	@ link register save eliminated.
	sub	sp, sp, #8
.LCFI24:
	mov	r3, r0
	strh	r3, [sp, #6]	@ movhi
	.loc 5 326 87
	ldrh	r3, [sp, #6]
	.loc 5 326 85
	add	r3, r3, #1073741824
	add	r3, r3, #28672
	.loc 5 326 17
	ldr	r3, [r3]
	.loc 5 326 12
	cmp	r3, #0
	ite	ne
	movne	r3, #1
	moveq	r3, #0
	uxtb	r3, r3
	.loc 5 327 1
	mov	r0, r3
	add	sp, sp, #8
.LCFI25:
	@ sp needed
	bx	lr
.LFE213:
	.size	nrf_saadc_event_check, .-nrf_saadc_event_check
	.section	.text.nrf_saadc_event_clear,"ax",%progbits
	.align	1
	.syntax unified
	.thumb
	.thumb_func
	.fpu fpv4-sp-d16
	.type	nrf_saadc_event_clear, %function
nrf_saadc_event_clear:
.LFB214:
	.loc 5 336 1
	@ args = 0, pretend = 0, frame = 16
	@ frame_needed = 0, uses_anonymous_args = 0
	@ link register save eliminated.
	sub	sp, sp, #16
.LCFI26:
	mov	r3, r0
	strh	r3, [sp, #6]	@ movhi
	.loc 5 337 76
	ldrh	r3, [sp, #6]
	.loc 5 337 74
	add	r3, r3, #1073741824
	add	r3, r3, #28672
	.loc 5 337 100
	movs	r2, #0
	str	r2, [r3]
	.loc 5 339 102
	ldrh	r3, [sp, #6]
	.loc 5 339 100
	add	r3, r3, #1073741824
	add	r3, r3, #28672
	.loc 5 339 31
	ldr	r3, [r3]
	.loc 5 339 23
	str	r3, [sp, #12]
	.loc 5 340 5
	ldr	r3, [sp, #12]
	.loc 5 342 1
	nop
	add	sp, sp, #16
.LCFI27:
	@ sp needed
	bx	lr
.LFE214:
	.size	nrf_saadc_event_clear, .-nrf_saadc_event_clear
	.section	.text.nrf_saadc_channel_input_set,"ax",%progbits
	.align	1
	.syntax unified
	.thumb
	.thumb_func
	.fpu fpv4-sp-d16
	.type	nrf_saadc_channel_input_set, %function
nrf_saadc_channel_input_set:
.LFB218:
	.loc 5 413 1
	@ args = 0, pretend = 0, frame = 8
	@ frame_needed = 0, uses_anonymous_args = 0
	@ link register save eliminated.
	sub	sp, sp, #8
.LCFI28:
	mov	r3, r0
	strb	r3, [sp, #7]
	mov	r3, r1
	strb	r3, [sp, #6]
	mov	r3, r2
	strb	r3, [sp, #5]
	.loc 5 414 38
	ldr	r1, .L75
	.loc 5 414 51
	ldrb	r3, [sp, #7]	@ zero_extendqisi2
	.loc 5 414 58
	ldrb	r2, [sp, #5]	@ zero_extendqisi2
	adds	r3, r3, #81
	lsls	r3, r3, #4
	add	r3, r3, r1
	adds	r3, r3, #4
	str	r2, [r3]
	.loc 5 415 38
	ldr	r1, .L75
	.loc 5 415 51
	ldrb	r3, [sp, #7]	@ zero_extendqisi2
	.loc 5 415 58
	ldrb	r2, [sp, #6]	@ zero_extendqisi2
	adds	r3, r3, #81
	lsls	r3, r3, #4
	add	r3, r3, r1
	str	r2, [r3]
	.loc 5 416 1
	nop
	add	sp, sp, #8
.LCFI29:
	@ sp needed
	bx	lr
.L76:
	.align	2
.L75:
	.word	1073770496
.LFE218:
	.size	nrf_saadc_channel_input_set, .-nrf_saadc_channel_input_set
	.section	.text.nrf_saadc_channel_limits_set,"ax",%progbits
	.align	1
	.syntax unified
	.thumb
	.thumb_func
	.fpu fpv4-sp-d16
	.type	nrf_saadc_channel_limits_set, %function
nrf_saadc_channel_limits_set:
.LFB219:
	.loc 5 427 1
	@ args = 0, pretend = 0, frame = 8
	@ frame_needed = 0, uses_anonymous_args = 0
	@ link register save eliminated.
	sub	sp, sp, #8
.LCFI30:
	mov	r3, r0
	strb	r3, [sp, #7]
	mov	r3, r1	@ movhi
	strh	r3, [sp, #4]	@ movhi
	mov	r3, r2	@ movhi
	strh	r3, [sp, #2]	@ movhi
	.loc 5 429 30
	ldrsh	r3, [sp, #4]
	.loc 5 429 40
	uxth	r1, r3
	.loc 5 430 15
	ldrsh	r3, [sp, #2]
	.loc 5 430 31
	lsls	r2, r3, #16
	.loc 5 428 38
	ldr	r0, .L78
	.loc 5 428 51
	ldrb	r3, [sp, #7]	@ zero_extendqisi2
	.loc 5 430 11
	orrs	r2, r2, r1
	.loc 5 428 58
	lsls	r3, r3, #4
	add	r3, r3, r0
	addw	r3, r3, #1308
	str	r2, [r3]
	.loc 5 431 1
	nop
	add	sp, sp, #8
.LCFI31:
	@ sp needed
	bx	lr
.L79:
	.align	2
.L78:
	.word	1073770496
.LFE219:
	.size	nrf_saadc_channel_limits_set, .-nrf_saadc_channel_limits_set
	.section	.text.nrf_saadc_int_enable,"ax",%progbits
	.align	1
	.syntax unified
	.thumb
	.thumb_func
	.fpu fpv4-sp-d16
	.type	nrf_saadc_int_enable, %function
nrf_saadc_int_enable:
.LFB220:
	.loc 5 440 1
	@ args = 0, pretend = 0, frame = 8
	@ frame_needed = 0, uses_anonymous_args = 0
	@ link register save eliminated.
	sub	sp, sp, #8
.LCFI32:
	str	r0, [sp, #4]
	.loc 5 441 38
	ldr	r2, .L81
	.loc 5 441 49
	ldr	r3, [sp, #4]
	str	r3, [r2, #772]
	.loc 5 442 1
	nop
	add	sp, sp, #8
.LCFI33:
	@ sp needed
	bx	lr
.L82:
	.align	2
.L81:
	.word	1073770496
.LFE220:
	.size	nrf_saadc_int_enable, .-nrf_saadc_int_enable
	.section	.text.nrf_saadc_int_disable,"ax",%progbits
	.align	1
	.syntax unified
	.thumb
	.thumb_func
	.fpu fpv4-sp-d16
	.type	nrf_saadc_int_disable, %function
nrf_saadc_int_disable:
.LFB222:
	.loc 5 465 1
	@ args = 0, pretend = 0, frame = 8
	@ frame_needed = 0, uses_anonymous_args = 0
	@ link register save eliminated.
	sub	sp, sp, #8
.LCFI34:
	str	r0, [sp, #4]
	.loc 5 466 38
	ldr	r2, .L84
	.loc 5 466 49
	ldr	r3, [sp, #4]
	str	r3, [r2, #776]
	.loc 5 467 1
	nop
	add	sp, sp, #8
.LCFI35:
	@ sp needed
	bx	lr
.L85:
	.align	2
.L84:
	.word	1073770496
.LFE222:
	.size	nrf_saadc_int_disable, .-nrf_saadc_int_disable
	.section	.text.nrf_saadc_limit_int_get,"ax",%progbits
	.align	1
	.syntax unified
	.thumb
	.thumb_func
	.fpu fpv4-sp-d16
	.type	nrf_saadc_limit_int_get, %function
nrf_saadc_limit_int_get:
.LFB223:
	.loc 5 479 1
	@ args = 0, pretend = 0, frame = 16
	@ frame_needed = 0, uses_anonymous_args = 0
	@ link register save eliminated.
	sub	sp, sp, #16
.LCFI36:
	mov	r3, r0
	mov	r2, r1
	strb	r3, [sp, #7]
	mov	r3, r2
	strb	r3, [sp, #6]
	.loc 5 481 83
	ldrb	r3, [sp, #6]	@ zero_extendqisi2
	cmp	r3, #0
	bne	.L87
	.loc 5 481 83 is_stmt 0 discriminator 1
	movs	r3, #128
	b	.L88
.L87:
	.loc 5 481 83 discriminator 2
	movs	r3, #64
.L88:
	.loc 5 481 14 is_stmt 1 discriminator 4
	str	r3, [sp, #12]
	.loc 5 482 29 discriminator 4
	ldrb	r3, [sp, #7]	@ zero_extendqisi2
	lsls	r3, r3, #1
	.loc 5 482 17 discriminator 4
	ldr	r2, [sp, #12]
	lsl	r3, r2, r3
	.loc 5 483 1 discriminator 4
	mov	r0, r3
	add	sp, sp, #16
.LCFI37:
	@ sp needed
	bx	lr
.LFE223:
	.size	nrf_saadc_limit_int_get, .-nrf_saadc_limit_int_get
	.section	.text.nrf_saadc_enable,"ax",%progbits
	.align	1
	.syntax unified
	.thumb
	.thumb_func
	.fpu fpv4-sp-d16
	.type	nrf_saadc_enable, %function
nrf_saadc_enable:
.LFB225:
	.loc 5 508 1
	@ args = 0, pretend = 0, frame = 0
	@ frame_needed = 0, uses_anonymous_args = 0
	@ link register save eliminated.
	.loc 5 509 38
	ldr	r3, .L91
	.loc 5 509 47
	movs	r2, #1
	str	r2, [r3, #1280]
	.loc 5 510 1
	nop
	bx	lr
.L92:
	.align	2
.L91:
	.word	1073770496
.LFE225:
	.size	nrf_saadc_enable, .-nrf_saadc_enable
	.section	.text.nrf_saadc_disable,"ax",%progbits
	.align	1
	.syntax unified
	.thumb
	.thumb_func
	.fpu fpv4-sp-d16
	.type	nrf_saadc_disable, %function
nrf_saadc_disable:
.LFB226:
	.loc 5 517 1
	@ args = 0, pretend = 0, frame = 0
	@ frame_needed = 0, uses_anonymous_args = 0
	@ link register save eliminated.
	.loc 5 518 38
	ldr	r3, .L94
	.loc 5 518 47
	movs	r2, #0
	str	r2, [r3, #1280]
	.loc 5 519 1
	nop
	bx	lr
.L95:
	.align	2
.L94:
	.word	1073770496
.LFE226:
	.size	nrf_saadc_disable, .-nrf_saadc_disable
	.section	.text.nrf_saadc_buffer_init,"ax",%progbits
	.align	1
	.syntax unified
	.thumb
	.thumb_func
	.fpu fpv4-sp-d16
	.type	nrf_saadc_buffer_init, %function
nrf_saadc_buffer_init:
.LFB228:
	.loc 5 542 1
	@ args = 0, pretend = 0, frame = 8
	@ frame_needed = 0, uses_anonymous_args = 0
	@ link register save eliminated.
	sub	sp, sp, #8
.LCFI38:
	str	r0, [sp, #4]
	str	r1, [sp]
	.loc 5 543 38
	ldr	r2, .L97
	.loc 5 543 53
	ldr	r3, [sp, #4]
	.loc 5 543 51
	str	r3, [r2, #1580]
	.loc 5 544 38
	ldr	r2, .L97
	.loc 5 544 54
	ldr	r3, [sp]
	str	r3, [r2, #1584]
	.loc 5 545 1
	nop
	add	sp, sp, #8
.LCFI39:
	@ sp needed
	bx	lr
.L98:
	.align	2
.L97:
	.word	1073770496
.LFE228:
	.size	nrf_saadc_buffer_init, .-nrf_saadc_buffer_init
	.section	.text.nrf_saadc_resolution_set,"ax",%progbits
	.align	1
	.syntax unified
	.thumb
	.thumb_func
	.fpu fpv4-sp-d16
	.type	nrf_saadc_resolution_set, %function
nrf_saadc_resolution_set:
.LFB230:
	.loc 5 564 1
	@ args = 0, pretend = 0, frame = 8
	@ frame_needed = 0, uses_anonymous_args = 0
	@ link register save eliminated.
	sub	sp, sp, #8
.LCFI40:
	mov	r3, r0
	strb	r3, [sp, #7]
	.loc 5 565 38
	ldr	r2, .L100
	.loc 5 565 51
	ldrb	r3, [sp, #7]	@ zero_extendqisi2
	str	r3, [r2, #1520]
	.loc 5 566 1
	nop
	add	sp, sp, #8
.LCFI41:
	@ sp needed
	bx	lr
.L101:
	.align	2
.L100:
	.word	1073770496
.LFE230:
	.size	nrf_saadc_resolution_set, .-nrf_saadc_resolution_set
	.section	.text.nrf_saadc_oversample_set,"ax",%progbits
	.align	1
	.syntax unified
	.thumb
	.thumb_func
	.fpu fpv4-sp-d16
	.type	nrf_saadc_oversample_set, %function
nrf_saadc_oversample_set:
.LFB231:
	.loc 5 575 1
	@ args = 0, pretend = 0, frame = 8
	@ frame_needed = 0, uses_anonymous_args = 0
	@ link register save eliminated.
	sub	sp, sp, #8
.LCFI42:
	mov	r3, r0
	strb	r3, [sp, #7]
	.loc 5 576 38
	ldr	r2, .L103
	.loc 5 576 51
	ldrb	r3, [sp, #7]	@ zero_extendqisi2
	str	r3, [r2, #1524]
	.loc 5 577 1
	nop
	add	sp, sp, #8
.LCFI43:
	@ sp needed
	bx	lr
.L104:
	.align	2
.L103:
	.word	1073770496
.LFE231:
	.size	nrf_saadc_oversample_set, .-nrf_saadc_oversample_set
	.section	.text.nrf_saadc_channel_init,"ax",%progbits
	.align	1
	.syntax unified
	.thumb
	.thumb_func
	.fpu fpv4-sp-d16
	.type	nrf_saadc_channel_init, %function
nrf_saadc_channel_init:
.LFB233:
	.loc 5 597 1
	@ args = 0, pretend = 0, frame = 8
	@ frame_needed = 0, uses_anonymous_args = 0
	push	{lr}
.LCFI44:
	sub	sp, sp, #12
.LCFI45:
	mov	r3, r0
	str	r1, [sp]
	strb	r3, [sp, #7]
	.loc 5 599 21
	ldr	r3, [sp]
	ldrb	r3, [r3]	@ zero_extendqisi2
	.loc 5 599 44
	and	r2, r3, #3
	.loc 5 600 23
	ldr	r3, [sp]
	ldrb	r3, [r3, #1]	@ zero_extendqisi2
	.loc 5 600 36
	lsls	r3, r3, #4
	.loc 5 600 46
	and	r3, r3, #48
	.loc 5 600 13
	orrs	r2, r2, r3
	.loc 5 601 23
	ldr	r3, [sp]
	ldrb	r3, [r3, #2]	@ zero_extendqisi2
	.loc 5 601 30
	lsls	r3, r3, #8
	.loc 5 601 40
	and	r3, r3, #1792
	.loc 5 601 13
	orrs	r2, r2, r3
	.loc 5 602 23
	ldr	r3, [sp]
	ldrb	r3, [r3, #3]	@ zero_extendqisi2
	.loc 5 602 35
	lsls	r3, r3, #12
	.loc 5 602 46
	and	r3, r3, #4096
	.loc 5 602 13
	orrs	r2, r2, r3
	.loc 5 603 23
	ldr	r3, [sp]
	ldrb	r3, [r3, #4]	@ zero_extendqisi2
	.loc 5 603 34
	lsls	r3, r3, #16
	.loc 5 603 45
	and	r3, r3, #458752
	.loc 5 603 13
	orrs	r2, r2, r3
	.loc 5 604 23
	ldr	r3, [sp]
	ldrb	r3, [r3, #5]	@ zero_extendqisi2
	.loc 5 604 30
	lsls	r3, r3, #20
	.loc 5 604 41
	and	r3, r3, #1048576
	.loc 5 604 13
	orr	r1, r2, r3
	.loc 5 605 23
	ldr	r3, [sp]
	ldrb	r3, [r3, #6]	@ zero_extendqisi2
	.loc 5 605 31
	lsls	r3, r3, #24
	.loc 5 605 42
	and	r2, r3, #16777216
	.loc 5 598 38
	ldr	r0, .L106
	.loc 5 598 51
	ldrb	r3, [sp, #7]	@ zero_extendqisi2
	.loc 5 605 13
	orrs	r2, r2, r1
	.loc 5 598 59
	lsls	r3, r3, #4
	add	r3, r3, r0
	add	r3, r3, #1304
	str	r2, [r3]
	.loc 5 606 5
	ldr	r3, [sp]
	ldrb	r1, [r3, #7]	@ zero_extendqisi2
	ldr	r3, [sp]
	ldrb	r2, [r3, #8]	@ zero_extendqisi2
	ldrb	r3, [sp, #7]	@ zero_extendqisi2
	mov	r0, r3
	bl	nrf_saadc_channel_input_set
	.loc 5 607 1
	nop
	add	sp, sp, #12
.LCFI46:
	@ sp needed
	ldr	pc, [sp], #4
.L107:
	.align	2
.L106:
	.word	1073770496
.LFE233:
	.size	nrf_saadc_channel_init, .-nrf_saadc_channel_init
	.global	m_nrf_log_SAADC_logs_data_const
	.section .rodata
	.align	2
.LC0:
	.ascii	"SAADC\000"
	.section	.log_const_data_SAADC,"a"
	.align	2
	.type	m_nrf_log_SAADC_logs_data_const, %object
	.size	m_nrf_log_SAADC_logs_data_const, 8
m_nrf_log_SAADC_logs_data_const:
	.word	.LC0
	.byte	0
	.byte	0
	.byte	0
	.byte	0
	.global	m_nrf_log_SAADC_logs_data_dynamic
	.section	.log_dynamic_data_SAADC,"aw"
	.align	2
	.type	m_nrf_log_SAADC_logs_data_dynamic, %object
	.size	m_nrf_log_SAADC_logs_data_dynamic, 4
m_nrf_log_SAADC_logs_data_dynamic:
	.space	4
	.section	.bss.m_cb,"aw",%nobits
	.align	2
	.type	m_cb, %object
	.size	m_cb, 48
m_cb:
	.space	48
	.section	.text.SAADC_IRQHandler,"ax",%progbits
	.align	1
	.global	SAADC_IRQHandler
	.syntax unified
	.thumb
	.thumb_func
	.fpu fpv4-sp-d16
	.type	SAADC_IRQHandler, %function
SAADC_IRQHandler:
.LFB234:
	.file 6 "C:\\nRF5_SDK_15.0.0_a53641a\\modules\\nrfx\\drivers\\src\\nrfx_saadc.c"
	.loc 6 103 1
	@ args = 0, pretend = 0, frame = 48
	@ frame_needed = 0, uses_anonymous_args = 0
	push	{lr}
.LCFI47:
	sub	sp, sp, #52
.LCFI48:
	.loc 6 104 9
	mov	r0, #260
	bl	nrf_saadc_event_check
	mov	r3, r0
	.loc 6 104 8
	cmp	r3, #0
	beq	.L109
	.loc 6 106 9
	mov	r0, #260
	bl	nrf_saadc_event_clear
	.loc 6 109 18
	ldr	r3, .L123
	ldrb	r3, [r3, #46]	@ zero_extendqisi2
	.loc 6 109 13
	eor	r3, r3, #1
	uxtb	r3, r3
	.loc 6 109 12
	cmp	r3, #0
	bne	.L110
	.loc 6 109 41 discriminator 1
	ldr	r3, .L123
	ldrb	r3, [r3, #47]	@ zero_extendqisi2
	.loc 6 109 34 discriminator 1
	cmp	r3, #0
	beq	.L109
.L110:
.LBB2:
	.loc 6 112 22
	movs	r3, #0
	strb	r3, [sp, #24]
	.loc 6 113 63
	ldr	r3, .L123
	ldr	r3, [r3, #4]
	.loc 6 113 36
	str	r3, [sp, #28]
	.loc 6 114 38
	ldr	r3, .L123
	ldrh	r3, [r3, #8]	@ movhi
	uxth	r3, r3
	.loc 6 114 32
	strh	r3, [sp, #32]	@ movhi
	.loc 6 116 21
	ldr	r3, .L123
	ldr	r3, [r3, #12]
	.loc 6 116 16
	cmp	r3, #0
	bne	.L111
	.loc 6 118 32
	ldr	r3, .L123
	movs	r2, #0
	strb	r2, [r3, #16]
	b	.L112
.L111:
	.loc 6 122 45
	ldr	r3, .L123
	ldrh	r2, [r3, #24]
	.loc 6 122 39
	ldr	r3, .L123
	strh	r2, [r3, #26]	@ movhi
	.loc 6 123 37
	ldr	r3, .L123
	ldr	r3, [r3, #12]
	.loc 6 123 31
	ldr	r2, .L123
	str	r3, [r2, #4]
	.loc 6 124 40
	ldr	r3, .L123
	ldrh	r2, [r3, #24]
	.loc 6 124 34
	ldr	r3, .L123
	strh	r2, [r3, #8]	@ movhi
	.loc 6 125 41
	ldr	r3, .L123
	movs	r2, #0
	str	r2, [r3, #12]
	.loc 6 126 26
	ldr	r3, .L123
	ldrb	r3, [r3, #46]	@ zero_extendqisi2
	.loc 6 126 21
	eor	r3, r3, #1
	uxtb	r3, r3
	.loc 6 126 20
	cmp	r3, #0
	beq	.L112
	.loc 6 128 21
	movs	r0, #0
	bl	nrf_saadc_task_trigger
.L112:
	.loc 6 131 17
	ldr	r3, .L123
	ldr	r3, [r3]
	.loc 6 131 13
	add	r2, sp, #24
	mov	r0, r2
	blx	r3
.LVL1:
	.loc 6 132 34
	ldr	r3, .L123
	movs	r2, #0
	strb	r2, [r3, #47]
.L109:
.LBE2:
	.loc 6 135 13
	ldr	r3, .L123
	ldrb	r3, [r3, #46]	@ zero_extendqisi2
	.loc 6 135 8
	cmp	r3, #0
	beq	.L113
	.loc 6 135 32 discriminator 1
	mov	r0, #256
	bl	nrf_saadc_event_check
	mov	r3, r0
	.loc 6 135 29 discriminator 1
	cmp	r3, #0
	beq	.L113
	.loc 6 137 9
	mov	r0, #256
	bl	nrf_saadc_event_clear
	.loc 6 140 17
	ldr	r3, .L123
	ldrh	r2, [r3, #26]
	.loc 6 140 41
	ldr	r3, .L123
	ldrb	r3, [r3, #45]	@ zero_extendqisi2
	.loc 6 140 35
	uxth	r3, r3
	.loc 6 140 12
	cmp	r2, r3
	bls	.L114
	.loc 6 143 35
	ldr	r3, .L123
	ldrh	r2, [r3, #26]
	.loc 6 143 42
	ldr	r3, .L123
	ldrb	r3, [r3, #45]	@ zero_extendqisi2
	uxth	r3, r3
	.loc 6 143 35
	subs	r3, r2, r3
	uxth	r2, r3
	ldr	r3, .L123
	strh	r2, [r3, #26]	@ movhi
	.loc 6 144 61
	ldr	r3, .L123
	ldr	r2, [r3, #4]
	.loc 6 144 75
	ldr	r3, .L123
	ldrh	r3, [r3, #8]	@ movhi
	uxth	r3, r3
	mov	r1, r3
	.loc 6 145 75
	ldr	r3, .L123
	ldrh	r3, [r3, #26]
	.loc 6 144 88
	subs	r3, r1, r3
	.loc 6 144 70
	lsls	r3, r3, #1
	.loc 6 144 56
	add	r3, r3, r2
	.loc 6 146 39
	ldr	r2, .L123
	ldrb	r2, [r2, #45]	@ zero_extendqisi2
	.loc 6 144 13
	mov	r1, r2
	mov	r0, r3
	bl	nrf_saadc_buffer_init
	b	.L115
.L114:
	.loc 6 148 23
	ldr	r3, .L123
	ldrh	r2, [r3, #26]
	.loc 6 148 48
	ldr	r3, .L123
	ldrb	r3, [r3, #45]	@ zero_extendqisi2
	.loc 6 148 41
	uxth	r3, r3
	.loc 6 148 17
	cmp	r2, r3
	bne	.L116
	.loc 6 150 23 discriminator 1
	ldr	r3, .L123
	ldr	r3, [r3, #12]
	.loc 6 148 66 discriminator 1
	cmp	r3, #0
	beq	.L116
	.loc 6 153 34
	ldr	r3, .L123
	movs	r2, #1
	strb	r2, [r3, #47]
	.loc 6 154 35
	ldr	r3, .L123
	movs	r2, #0
	strh	r2, [r3, #26]	@ movhi
	.loc 6 155 60
	ldr	r3, .L123
	ldr	r3, [r3, #12]
	.loc 6 156 39
	ldr	r2, .L123
	ldrb	r2, [r2, #45]	@ zero_extendqisi2
	.loc 6 155 13
	mov	r1, r2
	mov	r0, r3
	bl	nrf_saadc_buffer_init
	b	.L115
.L116:
	.loc 6 158 22
	ldr	r3, .L123
	ldrh	r2, [r3, #26]
	.loc 6 158 47
	ldr	r3, .L123
	ldrb	r3, [r3, #45]	@ zero_extendqisi2
	.loc 6 158 40
	uxth	r3, r3
	.loc 6 158 17
	cmp	r2, r3
	bne	.L115
	.loc 6 161 34
	ldr	r3, .L123
	movs	r2, #1
	strb	r2, [r3, #47]
	.loc 6 162 35
	ldr	r3, .L123
	movs	r2, #0
	strh	r2, [r3, #26]	@ movhi
.L115:
	.loc 6 164 9
	mov	r0, #260
	bl	nrf_saadc_event_clear
	.loc 6 165 9
	movs	r0, #4
	bl	nrf_saadc_task_trigger
.L113:
	.loc 6 167 9
	mov	r0, #272
	bl	nrf_saadc_event_check
	mov	r3, r0
	.loc 6 167 8
	cmp	r3, #0
	beq	.L117
.LBB3:
	.loc 6 169 9
	mov	r0, #272
	bl	nrf_saadc_event_clear
	.loc 6 171 24
	ldr	r3, .L123
	movs	r2, #0
	strb	r2, [r3, #16]
	.loc 6 174 18
	movs	r3, #2
	strb	r3, [sp, #12]
	.loc 6 175 13
	ldr	r3, .L123
	ldr	r3, [r3]
	.loc 6 175 9
	add	r2, sp, #12
	mov	r0, r2
	blx	r3
.LVL2:
.L117:
.LBE3:
	.loc 6 177 9
	mov	r0, #276
	bl	nrf_saadc_event_check
	mov	r3, r0
	.loc 6 177 8
	cmp	r3, #0
	beq	.L118
	.loc 6 179 9
	mov	r0, #276
	bl	nrf_saadc_event_clear
	.loc 6 181 24
	ldr	r3, .L123
	movs	r2, #0
	strb	r2, [r3, #16]
	.loc 6 208 1
	b	.L122
.L118:
.LBB4:
	.loc 6 185 18
	ldr	r3, .L123
	ldr	r3, [r3, #20]
	str	r3, [sp, #44]
	.loc 6 189 15
	b	.L120
.L121:
	.loc 6 191 24
	ldr	r3, [sp, #44]
	clz	r3, r3
	.loc 6 191 22
	str	r3, [sp, #40]
	.loc 6 192 42
	mov	r2, #-2147483648
	ldr	r3, [sp, #40]
	lsr	r3, r2, r3
	.loc 6 192 28
	mvns	r3, r3
	.loc 6 192 25
	ldr	r2, [sp, #44]
	ands	r3, r3, r2
	str	r3, [sp, #44]
	.loc 6 193 79
	ldr	r3, [sp, #40]
	uxth	r3, r3
	adds	r3, r3, #70
	uxth	r3, r3
	.loc 6 193 19
	lsls	r3, r3, #2
	strh	r3, [sp, #38]	@ movhi
	.loc 6 194 17
	ldrh	r3, [sp, #38]
	mov	r0, r3
	bl	nrf_saadc_event_check
	mov	r3, r0
	.loc 6 194 16
	cmp	r3, #0
	beq	.L120
.LBB5:
	.loc 6 196 17
	ldrh	r3, [sp, #38]
	mov	r0, r3
	bl	nrf_saadc_event_clear
	.loc 6 198 26
	movs	r3, #1
	strb	r3, [sp]
	.loc 6 199 53
	ldrh	r3, [sp, #38]
	.loc 6 199 69
	sub	r3, r3, #280
	.loc 6 199 109
	lsrs	r3, r3, #3
	.loc 6 199 42
	uxtb	r3, r3
	.loc 6 199 40
	strb	r3, [sp, #4]
	.loc 6 200 48
	ldrh	r3, [sp, #38]
	.loc 6 200 64
	sub	r3, r3, #280
	.loc 6 200 104
	and	r3, r3, #4
	.loc 6 200 131
	cmp	r3, #0
	ite	eq
	moveq	r3, #1
	movne	r3, #0
	uxtb	r3, r3
	.loc 6 200 43
	strb	r3, [sp, #5]
	.loc 6 204 21
	ldr	r3, .L123
	ldr	r3, [r3]
	.loc 6 204 17
	mov	r2, sp
	mov	r0, r2
	blx	r3
.LVL3:
.L120:
.LBE5:
	.loc 6 189 15
	ldr	r3, [sp, #44]
	cmp	r3, #0
	bne	.L121
.L122:
.LBE4:
	.loc 6 208 1
	nop
	add	sp, sp, #52
.LCFI49:
	@ sp needed
	ldr	pc, [sp], #4
.L124:
	.align	2
.L123:
	.word	m_cb
.LFE234:
	.size	SAADC_IRQHandler, .-SAADC_IRQHandler
	.section	.text.nrfx_saadc_init,"ax",%progbits
	.align	1
	.global	nrfx_saadc_init
	.syntax unified
	.thumb
	.thumb_func
	.fpu fpv4-sp-d16
	.type	nrfx_saadc_init, %function
nrfx_saadc_init:
.LFB235:
	.loc 6 213 1
	@ args = 0, pretend = 0, frame = 16
	@ frame_needed = 0, uses_anonymous_args = 0
	push	{lr}
.LCFI50:
	sub	sp, sp, #20
.LCFI51:
	str	r0, [sp, #4]
	str	r1, [sp]
	.loc 6 218 13
	ldr	r3, .L129
	ldrb	r3, [r3, #44]	@ zero_extendqisi2
	.loc 6 218 8
	cmp	r3, #0
	beq	.L126
	.loc 6 220 18
	movs	r3, #8
	str	r3, [sp, #12]
	.loc 6 224 16
	ldr	r3, [sp, #12]
	b	.L127
.L126:
	.loc 6 227 24
	ldr	r2, .L129
	ldr	r3, [sp]
	str	r3, [r2]
	.loc 6 228 5
	ldr	r3, [sp, #4]
	ldrb	r3, [r3]	@ zero_extendqisi2
	mov	r0, r3
	bl	nrf_saadc_resolution_set
	.loc 6 229 5
	ldr	r3, [sp, #4]
	ldrb	r3, [r3, #1]	@ zero_extendqisi2
	mov	r0, r3
	bl	nrf_saadc_oversample_set
	.loc 6 230 35
	ldr	r3, [sp, #4]
	ldrb	r2, [r3, #3]	@ zero_extendqisi2
	.loc 6 230 25
	ldr	r3, .L129
	strb	r2, [r3, #46]
	.loc 6 231 16
	ldr	r3, .L129
	movs	r2, #1
	strb	r2, [r3, #44]
	.loc 6 232 20
	ldr	r3, .L129
	movs	r2, #0
	strb	r2, [r3, #16]
	.loc 6 233 26
	ldr	r3, .L129
	movs	r2, #0
	strb	r2, [r3, #45]
	.loc 6 234 31
	ldr	r3, .L129
	movs	r2, #0
	str	r2, [r3, #20]
	.loc 6 235 26
	ldr	r3, .L129
	movs	r2, #0
	strb	r2, [r3, #47]
	.loc 6 237 5
	mvn	r0, #-2147483648
	bl	nrf_saadc_int_disable
	.loc 6 238 5
	mov	r0, #260
	bl	nrf_saadc_event_clear
	.loc 6 239 5
	mov	r0, #256
	bl	nrf_saadc_event_clear
	.loc 6 240 5
	ldr	r3, [sp, #4]
	ldrb	r3, [r3, #2]	@ zero_extendqisi2
	mov	r1, r3
	movs	r0, #7
	bl	_NRFX_IRQ_PRIORITY_SET
	.loc 6 241 5
	movs	r0, #7
	bl	_NRFX_IRQ_ENABLE
	.loc 6 242 5
	movs	r0, #2
	bl	nrf_saadc_int_enable
	.loc 6 244 13
	ldr	r3, .L129
	ldrb	r3, [r3, #46]	@ zero_extendqisi2
	.loc 6 244 8
	cmp	r3, #0
	beq	.L128
	.loc 6 246 9
	movs	r0, #1
	bl	nrf_saadc_int_enable
.L128:
	.loc 6 249 5
	bl	nrf_saadc_enable
	.loc 6 251 14
	movs	r3, #0
	str	r3, [sp, #12]
	.loc 6 254 12
	ldr	r3, [sp, #12]
.L127:
	.loc 6 255 1
	mov	r0, r3
	add	sp, sp, #20
.LCFI52:
	@ sp needed
	ldr	pc, [sp], #4
.L130:
	.align	2
.L129:
	.word	m_cb
.LFE235:
	.size	nrfx_saadc_init, .-nrfx_saadc_init
	.section	.text.nrfx_saadc_uninit,"ax",%progbits
	.align	1
	.global	nrfx_saadc_uninit
	.syntax unified
	.thumb
	.thumb_func
	.fpu fpv4-sp-d16
	.type	nrfx_saadc_uninit, %function
nrfx_saadc_uninit:
.LFB236:
	.loc 6 259 1
	@ args = 0, pretend = 0, frame = 16
	@ frame_needed = 0, uses_anonymous_args = 0
	push	{lr}
.LCFI53:
	sub	sp, sp, #20
.LCFI54:
	.loc 6 262 5
	mvn	r0, #-2147483648
	bl	nrf_saadc_int_disable
	.loc 6 263 5
	movs	r0, #7
	bl	_NRFX_IRQ_DISABLE
	.loc 6 264 5
	movs	r0, #8
	bl	nrf_saadc_task_trigger
.LBB6:
	.loc 6 268 17
	movs	r3, #0
	strb	r3, [sp, #7]
	.loc 6 268 15
	movw	r3, #10000
	str	r3, [sp, #12]
.L134:
	.loc 6 268 54 discriminator 4
	mov	r0, #276
	bl	nrf_saadc_event_check
	mov	r3, r0
	.loc 6 268 53 discriminator 4
	cmp	r3, #0
	beq	.L132
	.loc 6 268 111 discriminator 2
	movs	r3, #1
	strb	r3, [sp, #7]
	.loc 6 268 4 discriminator 2
	b	.L138
.L132:
	.loc 6 268 15 discriminator 3
	movs	r0, #0
	bl	nrfx_coredep_delay_us
	.loc 6 268 4 discriminator 3
	ldr	r3, [sp, #12]
	subs	r3, r3, #1
	str	r3, [sp, #12]
	ldr	r3, [sp, #12]
	cmp	r3, #0
	bne	.L134
.L138:
.LBE6:
	.loc 6 271 5
	bl	nrf_saadc_disable
	.loc 6 272 20
	ldr	r3, .L139
	movs	r2, #0
	strb	r2, [r3, #16]
.LBB7:
	.loc 6 274 19
	movs	r3, #0
	str	r3, [sp, #8]
	.loc 6 274 5
	b	.L135
.L137:
	.loc 6 276 31
	ldr	r2, .L139
	ldr	r3, [sp, #8]
	adds	r3, r3, #12
	lsls	r3, r3, #1
	add	r3, r3, r2
	ldrb	r3, [r3, #4]	@ zero_extendqisi2
	.loc 6 276 12
	cmp	r3, #0
	beq	.L136
.LBB8:
	.loc 6 278 35
	ldr	r3, [sp, #8]
	uxtb	r3, r3
	mov	r0, r3
	bl	nrfx_saadc_channel_uninit
	str	r0, [sp]
.L136:
.LBE8:
	.loc 6 274 45 discriminator 2
	ldr	r3, [sp, #8]
	adds	r3, r3, #1
	str	r3, [sp, #8]
.L135:
	.loc 6 274 5 discriminator 1
	ldr	r3, [sp, #8]
	cmp	r3, #7
	bls	.L137
.LBE7:
	.loc 6 283 16
	ldr	r3, .L139
	movs	r2, #0
	strb	r2, [r3, #44]
	.loc 6 284 1
	nop
	add	sp, sp, #20
.LCFI55:
	@ sp needed
	ldr	pc, [sp], #4
.L140:
	.align	2
.L139:
	.word	m_cb
.LFE236:
	.size	nrfx_saadc_uninit, .-nrfx_saadc_uninit
	.section	.text.nrfx_saadc_channel_init,"ax",%progbits
	.align	1
	.global	nrfx_saadc_channel_init
	.syntax unified
	.thumb
	.thumb_func
	.fpu fpv4-sp-d16
	.type	nrfx_saadc_channel_init, %function
nrfx_saadc_channel_init:
.LFB237:
	.loc 6 289 1
	@ args = 0, pretend = 0, frame = 16
	@ frame_needed = 0, uses_anonymous_args = 0
	push	{lr}
.LCFI56:
	sub	sp, sp, #20
.LCFI57:
	mov	r3, r0
	str	r1, [sp]
	strb	r3, [sp, #7]
	.loc 6 302 13
	ldr	r3, .L149
	ldrb	r3, [r3, #16]
	uxtb	r3, r3
	.loc 6 302 8
	cmp	r3, #0
	beq	.L142
	.loc 6 304 18
	movs	r3, #17
	str	r3, [sp, #12]
	.loc 6 308 16
	ldr	r3, [sp, #12]
	b	.L143
.L142:
	.loc 6 312 18
	ldr	r3, [sp]
	ldrb	r3, [r3, #4]	@ zero_extendqisi2
	.loc 6 312 8
	cmp	r3, #0
	beq	.L144
	.loc 6 313 18 discriminator 1
	ldr	r3, [sp]
	ldrb	r3, [r3, #4]	@ zero_extendqisi2
	.loc 6 312 55 discriminator 1
	cmp	r3, #1
	bne	.L145
.L144:
	.loc 6 315 9
	bl	nrf_saadc_disable
.L145:
	.loc 6 319 27
	ldrb	r3, [sp, #7]	@ zero_extendqisi2
	ldr	r2, .L149
	adds	r3, r3, #12
	lsls	r3, r3, #1
	add	r3, r3, r2
	ldrb	r3, [r3, #4]	@ zero_extendqisi2
	.loc 6 319 8
	cmp	r3, #0
	bne	.L146
	.loc 6 321 15
	ldr	r3, .L149
	ldrb	r3, [r3, #45]	@ zero_extendqisi2
	.loc 6 321 9
	adds	r3, r3, #1
	uxtb	r2, r3
	ldr	r3, .L149
	strb	r2, [r3, #45]
.L146:
	.loc 6 323 23
	ldrb	r3, [sp, #7]	@ zero_extendqisi2
	.loc 6 323 40
	ldr	r2, [sp]
	ldrb	r1, [r2, #7]	@ zero_extendqisi2
	.loc 6 323 30
	ldr	r2, .L149
	adds	r3, r3, #12
	lsls	r3, r3, #1
	add	r3, r3, r2
	mov	r2, r1
	strb	r2, [r3, #4]
	.loc 6 324 23
	ldrb	r3, [sp, #7]	@ zero_extendqisi2
	.loc 6 324 40
	ldr	r2, [sp]
	ldrb	r1, [r2, #8]	@ zero_extendqisi2
	.loc 6 324 30
	ldr	r2, .L149
	adds	r3, r3, #12
	lsls	r3, r3, #1
	add	r3, r3, r2
	mov	r2, r1
	strb	r2, [r3, #5]
	.loc 6 325 5
	ldrb	r3, [sp, #7]	@ zero_extendqisi2
	ldr	r1, [sp]
	mov	r0, r3
	bl	nrf_saadc_channel_init
	.loc 6 326 5
	ldr	r3, [sp]
	ldrb	r1, [r3, #7]	@ zero_extendqisi2
	ldr	r3, [sp]
	ldrb	r2, [r3, #8]	@ zero_extendqisi2
	ldrb	r3, [sp, #7]	@ zero_extendqisi2
	mov	r0, r3
	bl	nrf_saadc_channel_input_set
	.loc 6 329 18
	ldr	r3, [sp]
	ldrb	r3, [r3, #4]	@ zero_extendqisi2
	.loc 6 329 8
	cmp	r3, #0
	beq	.L147
	.loc 6 330 18 discriminator 1
	ldr	r3, [sp]
	ldrb	r3, [r3, #4]	@ zero_extendqisi2
	.loc 6 329 55 discriminator 1
	cmp	r3, #1
	bne	.L148
.L147:
	.loc 6 332 9
	bl	nrf_saadc_enable
.L148:
	.loc 6 337 14
	movs	r3, #0
	str	r3, [sp, #12]
	.loc 6 339 12
	ldr	r3, [sp, #12]
.L143:
	.loc 6 340 1
	mov	r0, r3
	add	sp, sp, #20
.LCFI58:
	@ sp needed
	ldr	pc, [sp], #4
.L150:
	.align	2
.L149:
	.word	m_cb
.LFE237:
	.size	nrfx_saadc_channel_init, .-nrfx_saadc_channel_init
	.section	.text.nrfx_saadc_channel_uninit,"ax",%progbits
	.align	1
	.global	nrfx_saadc_channel_uninit
	.syntax unified
	.thumb
	.thumb_func
	.fpu fpv4-sp-d16
	.type	nrfx_saadc_channel_uninit, %function
nrfx_saadc_channel_uninit:
.LFB238:
	.loc 6 344 1
	@ args = 0, pretend = 0, frame = 16
	@ frame_needed = 0, uses_anonymous_args = 0
	push	{lr}
.LCFI59:
	sub	sp, sp, #20
.LCFI60:
	mov	r3, r0
	strb	r3, [sp, #7]
	.loc 6 351 13
	ldr	r3, .L155
	ldrb	r3, [r3, #16]
	uxtb	r3, r3
	.loc 6 351 8
	cmp	r3, #0
	beq	.L152
	.loc 6 353 18
	movs	r3, #17
	str	r3, [sp, #12]
	.loc 6 357 16
	ldr	r3, [sp, #12]
	b	.L153
.L152:
	.loc 6 360 27
	ldrb	r3, [sp, #7]	@ zero_extendqisi2
	ldr	r2, .L155
	adds	r3, r3, #12
	lsls	r3, r3, #1
	add	r3, r3, r2
	ldrb	r3, [r3, #4]	@ zero_extendqisi2
	.loc 6 360 8
	cmp	r3, #0
	beq	.L154
	.loc 6 362 15
	ldr	r3, .L155
	ldrb	r3, [r3, #45]	@ zero_extendqisi2
	.loc 6 362 9
	subs	r3, r3, #1
	uxtb	r2, r3
	ldr	r3, .L155
	strb	r2, [r3, #45]
.L154:
	.loc 6 364 23
	ldrb	r3, [sp, #7]	@ zero_extendqisi2
	.loc 6 364 30
	ldr	r2, .L155
	adds	r3, r3, #12
	lsls	r3, r3, #1
	add	r3, r3, r2
	movs	r2, #0
	strb	r2, [r3, #4]
	.loc 6 365 23
	ldrb	r3, [sp, #7]	@ zero_extendqisi2
	.loc 6 365 30
	ldr	r2, .L155
	adds	r3, r3, #12
	lsls	r3, r3, #1
	add	r3, r3, r2
	movs	r2, #0
	strb	r2, [r3, #5]
	.loc 6 366 5
	ldrb	r3, [sp, #7]	@ zero_extendqisi2
	movs	r2, #0
	movs	r1, #0
	mov	r0, r3
	bl	nrf_saadc_channel_input_set
	.loc 6 367 5
	ldrb	r3, [sp, #7]	@ zero_extendqisi2
	movw	r2, #2047
	ldr	r1, .L155+4
	mov	r0, r3
	bl	nrfx_saadc_limits_set
	.loc 6 370 14
	movs	r3, #0
	str	r3, [sp, #12]
	.loc 6 372 12
	ldr	r3, [sp, #12]
.L153:
	.loc 6 373 1
	mov	r0, r3
	add	sp, sp, #20
.LCFI61:
	@ sp needed
	ldr	pc, [sp], #4
.L156:
	.align	2
.L155:
	.word	m_cb
	.word	-2048
.LFE238:
	.size	nrfx_saadc_channel_uninit, .-nrfx_saadc_channel_uninit
	.section	.text.nrfx_saadc_sample_task_get,"ax",%progbits
	.align	1
	.global	nrfx_saadc_sample_task_get
	.syntax unified
	.thumb
	.thumb_func
	.fpu fpv4-sp-d16
	.type	nrfx_saadc_sample_task_get, %function
nrfx_saadc_sample_task_get:
.LFB239:
	.loc 6 377 1
	@ args = 0, pretend = 0, frame = 0
	@ frame_needed = 0, uses_anonymous_args = 0
	push	{r3, lr}
.LCFI62:
	.loc 6 379 21
	ldr	r3, .L161
	ldrb	r3, [r3, #46]	@ zero_extendqisi2
	.loc 6 378 12
	cmp	r3, #0
	beq	.L158
	.loc 6 378 12 is_stmt 0 discriminator 1
	movs	r3, #0
	b	.L159
.L158:
	.loc 6 378 12 discriminator 2
	movs	r3, #4
.L159:
	.loc 6 378 12 discriminator 4
	mov	r0, r3
	bl	nrf_saadc_task_address_get
	mov	r3, r0
	.loc 6 380 1 is_stmt 1 discriminator 4
	mov	r0, r3
	pop	{r3, pc}
.L162:
	.align	2
.L161:
	.word	m_cb
.LFE239:
	.size	nrfx_saadc_sample_task_get, .-nrfx_saadc_sample_task_get
	.section	.text.nrfx_saadc_sample_convert,"ax",%progbits
	.align	1
	.global	nrfx_saadc_sample_convert
	.syntax unified
	.thumb
	.thumb_func
	.fpu fpv4-sp-d16
	.type	nrfx_saadc_sample_convert, %function
nrfx_saadc_sample_convert:
.LFB240:
	.loc 6 384 1
	@ args = 0, pretend = 0, frame = 32
	@ frame_needed = 0, uses_anonymous_args = 0
	push	{lr}
.LCFI63:
	sub	sp, sp, #36
.LCFI64:
	mov	r3, r0
	str	r1, [sp]
	strb	r3, [sp, #7]
	.loc 6 387 13
	ldr	r3, .L178
	ldrb	r3, [r3, #16]
	uxtb	r3, r3
	.loc 6 387 8
	cmp	r3, #0
	beq	.L164
	.loc 6 389 18
	movs	r3, #17
	str	r3, [sp, #12]
	.loc 6 393 16
	ldr	r3, [sp, #12]
	b	.L165
.L164:
	.loc 6 395 20
	ldr	r3, .L178
	movs	r2, #1
	strb	r2, [r3, #16]
	.loc 6 396 5
	movs	r0, #3
	bl	nrf_saadc_int_disable
	.loc 6 397 5
	movs	r1, #1
	ldr	r0, [sp]
	bl	nrf_saadc_buffer_init
	.loc 6 398 13
	ldr	r3, .L178
	ldrb	r3, [r3, #45]	@ zero_extendqisi2
	.loc 6 398 8
	cmp	r3, #1
	bls	.L166
.LBB9:
	.loc 6 400 23
	movs	r3, #0
	str	r3, [sp, #28]
	.loc 6 400 9
	b	.L167
.L168:
	.loc 6 402 13 discriminator 3
	ldr	r3, [sp, #28]
	uxtb	r3, r3
	movs	r2, #0
	movs	r1, #0
	mov	r0, r3
	bl	nrf_saadc_channel_input_set
	.loc 6 400 37 discriminator 3
	ldr	r3, [sp, #28]
	adds	r3, r3, #1
	str	r3, [sp, #28]
.L167:
	.loc 6 400 9 discriminator 1
	ldr	r3, [sp, #28]
	cmp	r3, #7
	bls	.L168
.L166:
.LBE9:
	.loc 6 405 5
	ldrb	r3, [sp, #7]	@ zero_extendqisi2
	ldr	r2, .L178
	adds	r3, r3, #12
	lsls	r3, r3, #1
	add	r3, r3, r2
	ldrb	r1, [r3, #4]	@ zero_extendqisi2
	ldrb	r3, [sp, #7]	@ zero_extendqisi2
	ldr	r2, .L178
	adds	r3, r3, #12
	lsls	r3, r3, #1
	add	r3, r3, r2
	ldrb	r2, [r3, #5]	@ zero_extendqisi2
	ldrb	r3, [sp, #7]	@ zero_extendqisi2
	mov	r0, r3
	bl	nrf_saadc_channel_input_set
	.loc 6 406 5
	movs	r0, #0
	bl	nrf_saadc_task_trigger
	.loc 6 407 5
	movs	r0, #4
	bl	nrf_saadc_task_trigger
.LBB10:
	.loc 6 410 17
	movs	r3, #0
	strb	r3, [sp, #19]
	.loc 6 410 15
	movw	r3, #10000
	str	r3, [sp, #24]
.L171:
	.loc 6 410 54 discriminator 4
	mov	r0, #260
	bl	nrf_saadc_event_check
	mov	r3, r0
	.loc 6 410 53 discriminator 4
	cmp	r3, #0
	beq	.L169
	.loc 6 410 107 discriminator 2
	movs	r3, #1
	strb	r3, [sp, #19]
	.loc 6 410 4 discriminator 2
	b	.L177
.L169:
	.loc 6 410 15 discriminator 3
	movs	r0, #0
	bl	nrfx_coredep_delay_us
	.loc 6 410 4 discriminator 3
	ldr	r3, [sp, #24]
	subs	r3, r3, #1
	str	r3, [sp, #24]
	ldr	r3, [sp, #24]
	cmp	r3, #0
	bne	.L171
.L177:
.LBE10:
	.loc 6 413 5
	mov	r0, #256
	bl	nrf_saadc_event_clear
	.loc 6 414 5
	mov	r0, #260
	bl	nrf_saadc_event_clear
	.loc 6 418 13
	ldr	r3, .L178
	ldrb	r3, [r3, #45]	@ zero_extendqisi2
	.loc 6 418 8
	cmp	r3, #1
	bls	.L172
.LBB11:
	.loc 6 420 23
	movs	r3, #0
	str	r3, [sp, #20]
	.loc 6 420 9
	b	.L173
.L174:
	.loc 6 422 13 discriminator 3
	ldr	r3, [sp, #20]
	uxtb	r0, r3
	ldr	r2, .L178
	ldr	r3, [sp, #20]
	adds	r3, r3, #12
	lsls	r3, r3, #1
	add	r3, r3, r2
	ldrb	r1, [r3, #4]	@ zero_extendqisi2
	ldr	r2, .L178
	ldr	r3, [sp, #20]
	adds	r3, r3, #12
	lsls	r3, r3, #1
	add	r3, r3, r2
	ldrb	r3, [r3, #5]	@ zero_extendqisi2
	mov	r2, r3
	bl	nrf_saadc_channel_input_set
	.loc 6 420 37 discriminator 3
	ldr	r3, [sp, #20]
	adds	r3, r3, #1
	str	r3, [sp, #20]
.L173:
	.loc 6 420 9 discriminator 1
	ldr	r3, [sp, #20]
	cmp	r3, #7
	bls	.L174
.L172:
.LBE11:
	.loc 6 426 13
	ldr	r3, .L178
	ldrb	r3, [r3, #46]	@ zero_extendqisi2
	.loc 6 426 8
	cmp	r3, #0
	beq	.L175
	.loc 6 428 9
	movs	r0, #3
	bl	nrf_saadc_int_enable
	b	.L176
.L175:
	.loc 6 432 9
	movs	r0, #2
	bl	nrf_saadc_int_enable
.L176:
	.loc 6 435 20
	ldr	r3, .L178
	movs	r2, #0
	strb	r2, [r3, #16]
	.loc 6 437 14
	movs	r3, #0
	str	r3, [sp, #12]
	.loc 6 441 12
	ldr	r3, [sp, #12]
.L165:
	.loc 6 442 1
	mov	r0, r3
	add	sp, sp, #36
.LCFI65:
	@ sp needed
	ldr	pc, [sp], #4
.L179:
	.align	2
.L178:
	.word	m_cb
.LFE240:
	.size	nrfx_saadc_sample_convert, .-nrfx_saadc_sample_convert
	.section	.text.nrfx_saadc_buffer_convert,"ax",%progbits
	.align	1
	.global	nrfx_saadc_buffer_convert
	.syntax unified
	.thumb
	.thumb_func
	.fpu fpv4-sp-d16
	.type	nrfx_saadc_buffer_convert, %function
nrfx_saadc_buffer_convert:
.LFB241:
	.loc 6 446 1
	@ args = 0, pretend = 0, frame = 16
	@ frame_needed = 0, uses_anonymous_args = 0
	push	{lr}
.LCFI66:
	sub	sp, sp, #20
.LCFI67:
	str	r0, [sp, #4]
	mov	r3, r1
	strh	r3, [sp, #2]	@ movhi
	.loc 6 451 5
	movs	r0, #18
	bl	nrf_saadc_int_disable
	.loc 6 452 13
	ldr	r3, .L189
	ldrb	r3, [r3, #16]
	uxtb	r3, r3
	.loc 6 452 8
	cmp	r3, #2
	bne	.L181
	.loc 6 454 9
	movs	r0, #18
	bl	nrf_saadc_int_enable
	.loc 6 455 18
	movs	r3, #17
	str	r3, [sp, #12]
	.loc 6 459 16
	ldr	r3, [sp, #12]
	b	.L182
.L181:
	.loc 6 461 13
	ldr	r3, .L189
	ldrb	r3, [r3, #16]
	uxtb	r3, r3
	.loc 6 461 8
	cmp	r3, #1
	bne	.L183
	.loc 6 463 18
	ldr	r3, .L189
	ldr	r3, [r3, #12]
	.loc 6 463 12
	cmp	r3, #0
	beq	.L184
	.loc 6 465 13
	movs	r0, #2
	bl	nrf_saadc_int_enable
	.loc 6 466 22
	movs	r3, #17
	str	r3, [sp, #12]
	.loc 6 470 20
	ldr	r3, [sp, #12]
	b	.L182
.L184:
	.loc 6 474 37
	ldr	r2, .L189
	ldr	r3, [sp, #4]
	str	r3, [r2, #12]
	.loc 6 475 40
	ldr	r2, .L189
	ldrh	r3, [sp, #2]	@ movhi
	strh	r3, [r2, #24]	@ movhi
	.loc 6 476 22
	ldr	r3, .L189
	ldrb	r3, [r3, #46]	@ zero_extendqisi2
	.loc 6 476 17
	eor	r3, r3, #1
	uxtb	r3, r3
	.loc 6 476 16
	cmp	r3, #0
	beq	.L185
	.loc 6 478 23
	nop
.L186:
	.loc 6 478 24 discriminator 1
	mov	r0, #256
	bl	nrf_saadc_event_check
	mov	r3, r0
	.loc 6 478 71 discriminator 1
	eor	r3, r3, #1
	uxtb	r3, r3
	.loc 6 478 23 discriminator 1
	cmp	r3, #0
	bne	.L186
	.loc 6 479 17
	mov	r0, #256
	bl	nrf_saadc_event_clear
	.loc 6 480 17
	ldrh	r3, [sp, #2]
	mov	r1, r3
	ldr	r0, [sp, #4]
	bl	nrf_saadc_buffer_init
.L185:
	.loc 6 482 13
	movs	r0, #2
	bl	nrf_saadc_int_enable
	.loc 6 483 22
	movs	r3, #0
	str	r3, [sp, #12]
	.loc 6 487 20
	ldr	r3, [sp, #12]
	b	.L182
.L183:
	.loc 6 490 5
	movs	r0, #2
	bl	nrf_saadc_int_enable
	.loc 6 491 20
	ldr	r3, .L189
	movs	r2, #1
	strb	r2, [r3, #16]
	.loc 6 493 19
	ldr	r2, .L189
	ldr	r3, [sp, #4]
	str	r3, [r2, #4]
	.loc 6 494 22
	ldr	r2, .L189
	ldrh	r3, [sp, #2]	@ movhi
	strh	r3, [r2, #8]	@ movhi
	.loc 6 495 29
	ldr	r3, .L189
	movs	r2, #0
	str	r2, [r3, #12]
	.loc 6 502 13
	ldr	r3, .L189
	ldrb	r3, [r3, #46]	@ zero_extendqisi2
	.loc 6 502 8
	cmp	r3, #0
	beq	.L187
	.loc 6 504 31
	ldr	r2, .L189
	ldrh	r3, [sp, #2]	@ movhi
	strh	r3, [r2, #26]	@ movhi
	.loc 6 505 45
	ldr	r3, .L189
	ldrb	r3, [r3, #45]	@ zero_extendqisi2
	.loc 6 505 9
	mov	r1, r3
	ldr	r0, [sp, #4]
	bl	nrf_saadc_buffer_init
	b	.L188
.L187:
	.loc 6 509 9
	ldrh	r3, [sp, #2]
	mov	r1, r3
	ldr	r0, [sp, #4]
	bl	nrf_saadc_buffer_init
	.loc 6 510 9
	mov	r0, #256
	bl	nrf_saadc_event_clear
	.loc 6 511 9
	movs	r0, #0
	bl	nrf_saadc_task_trigger
.L188:
	.loc 6 514 14
	movs	r3, #0
	str	r3, [sp, #12]
	.loc 6 516 12
	ldr	r3, [sp, #12]
.L182:
	.loc 6 517 1
	mov	r0, r3
	add	sp, sp, #20
.LCFI68:
	@ sp needed
	ldr	pc, [sp], #4
.L190:
	.align	2
.L189:
	.word	m_cb
.LFE241:
	.size	nrfx_saadc_buffer_convert, .-nrfx_saadc_buffer_convert
	.section	.text.nrfx_saadc_sample,"ax",%progbits
	.align	1
	.global	nrfx_saadc_sample
	.syntax unified
	.thumb
	.thumb_func
	.fpu fpv4-sp-d16
	.type	nrfx_saadc_sample, %function
nrfx_saadc_sample:
.LFB242:
	.loc 6 521 1
	@ args = 0, pretend = 0, frame = 8
	@ frame_needed = 0, uses_anonymous_args = 0
	push	{lr}
.LCFI69:
	sub	sp, sp, #12
.LCFI70:
	.loc 6 524 16
	movs	r3, #0
	str	r3, [sp, #4]
	.loc 6 525 13
	ldr	r3, .L196
	ldrb	r3, [r3, #16]
	uxtb	r3, r3
	.loc 6 525 8
	cmp	r3, #1
	beq	.L192
	.loc 6 527 18
	movs	r3, #8
	str	r3, [sp, #4]
	b	.L193
.L192:
	.loc 6 529 18
	ldr	r3, .L196
	ldrb	r3, [r3, #46]	@ zero_extendqisi2
	.loc 6 529 13
	cmp	r3, #0
	beq	.L194
	.loc 6 531 9
	movs	r0, #0
	bl	nrf_saadc_task_trigger
	b	.L193
.L194:
	.loc 6 535 9
	movs	r0, #4
	bl	nrf_saadc_task_trigger
.L193:
	.loc 6 539 12
	ldr	r3, [sp, #4]
	.loc 6 540 1
	mov	r0, r3
	add	sp, sp, #12
.LCFI71:
	@ sp needed
	ldr	pc, [sp], #4
.L197:
	.align	2
.L196:
	.word	m_cb
.LFE242:
	.size	nrfx_saadc_sample, .-nrfx_saadc_sample
	.section	.text.nrfx_saadc_calibrate_offset,"ax",%progbits
	.align	1
	.global	nrfx_saadc_calibrate_offset
	.syntax unified
	.thumb
	.thumb_func
	.fpu fpv4-sp-d16
	.type	nrfx_saadc_calibrate_offset, %function
nrfx_saadc_calibrate_offset:
.LFB243:
	.loc 6 544 1
	@ args = 0, pretend = 0, frame = 8
	@ frame_needed = 0, uses_anonymous_args = 0
	push	{lr}
.LCFI72:
	sub	sp, sp, #12
.LCFI73:
	.loc 6 549 13
	ldr	r3, .L201
	ldrb	r3, [r3, #16]
	uxtb	r3, r3
	.loc 6 549 8
	cmp	r3, #0
	beq	.L199
	.loc 6 551 18
	movs	r3, #17
	str	r3, [sp, #4]
	.loc 6 555 16
	ldr	r3, [sp, #4]
	b	.L200
.L199:
	.loc 6 558 20
	ldr	r3, .L201
	movs	r2, #2
	strb	r2, [r3, #16]
	.loc 6 560 5
	mov	r0, #272
	bl	nrf_saadc_event_clear
	.loc 6 561 5
	movs	r0, #16
	bl	nrf_saadc_int_enable
	.loc 6 562 5
	movs	r0, #12
	bl	nrf_saadc_task_trigger
	.loc 6 563 14
	movs	r3, #0
	str	r3, [sp, #4]
	.loc 6 567 12
	ldr	r3, [sp, #4]
.L200:
	.loc 6 568 1
	mov	r0, r3
	add	sp, sp, #12
.LCFI74:
	@ sp needed
	ldr	pc, [sp], #4
.L202:
	.align	2
.L201:
	.word	m_cb
.LFE243:
	.size	nrfx_saadc_calibrate_offset, .-nrfx_saadc_calibrate_offset
	.section	.text.nrfx_saadc_is_busy,"ax",%progbits
	.align	1
	.global	nrfx_saadc_is_busy
	.syntax unified
	.thumb
	.thumb_func
	.fpu fpv4-sp-d16
	.type	nrfx_saadc_is_busy, %function
nrfx_saadc_is_busy:
.LFB244:
	.loc 6 572 1
	@ args = 0, pretend = 0, frame = 0
	@ frame_needed = 0, uses_anonymous_args = 0
	@ link register save eliminated.
	.loc 6 573 17
	ldr	r3, .L205
	ldrb	r3, [r3, #16]
	uxtb	r3, r3
	.loc 6 573 28
	cmp	r3, #0
	ite	ne
	movne	r3, #1
	moveq	r3, #0
	uxtb	r3, r3
	.loc 6 574 1
	mov	r0, r3
	bx	lr
.L206:
	.align	2
.L205:
	.word	m_cb
.LFE244:
	.size	nrfx_saadc_is_busy, .-nrfx_saadc_is_busy
	.section	.text.nrfx_saadc_abort,"ax",%progbits
	.align	1
	.global	nrfx_saadc_abort
	.syntax unified
	.thumb
	.thumb_func
	.fpu fpv4-sp-d16
	.type	nrfx_saadc_abort, %function
nrfx_saadc_abort:
.LFB245:
	.loc 6 578 1
	@ args = 0, pretend = 0, frame = 8
	@ frame_needed = 0, uses_anonymous_args = 0
	push	{lr}
.LCFI75:
	sub	sp, sp, #12
.LCFI76:
	.loc 6 579 9
	bl	nrfx_saadc_is_busy
	mov	r3, r0
	.loc 6 579 8
	cmp	r3, #0
	beq	.L214
	.loc 6 581 9
	mov	r0, #276
	bl	nrf_saadc_event_clear
	.loc 6 582 9
	movs	r0, #32
	bl	nrf_saadc_int_enable
	.loc 6 583 9
	movs	r0, #8
	bl	nrf_saadc_task_trigger
	.loc 6 585 17
	ldr	r3, .L215
	ldrb	r3, [r3, #16]
	uxtb	r3, r3
	.loc 6 585 12
	cmp	r3, #2
	bne	.L209
	.loc 6 587 28
	ldr	r3, .L215
	movs	r2, #0
	strb	r2, [r3, #16]
	b	.L210
.L209:
.LBB12:
.LBB13:
	.loc 6 593 25
	movs	r3, #0
	strb	r3, [sp, #3]
	.loc 6 593 23
	movw	r3, #10000
	str	r3, [sp, #4]
.L213:
	.loc 6 593 67 discriminator 4
	ldr	r3, .L215
	ldrb	r3, [r3, #16]
	uxtb	r3, r3
	.loc 6 593 61 discriminator 4
	cmp	r3, #0
	beq	.L211
	.loc 6 593 113 discriminator 2
	movs	r3, #1
	strb	r3, [sp, #3]
	.loc 6 593 12 discriminator 2
	b	.L210
.L211:
	.loc 6 593 23 discriminator 3
	movs	r0, #0
	bl	nrfx_coredep_delay_us
	.loc 6 593 12 discriminator 3
	ldr	r3, [sp, #4]
	subs	r3, r3, #1
	str	r3, [sp, #4]
	ldr	r3, [sp, #4]
	cmp	r3, #0
	bne	.L213
.L210:
.LBE13:
.LBE12:
	.loc 6 597 9
	movs	r0, #32
	bl	nrf_saadc_int_disable
	.loc 6 599 23
	ldr	r3, .L215
	movs	r2, #0
	str	r2, [r3, #4]
	.loc 6 600 33
	ldr	r3, .L215
	movs	r2, #0
	str	r2, [r3, #12]
.L214:
	.loc 6 603 1
	nop
	add	sp, sp, #12
.LCFI77:
	@ sp needed
	ldr	pc, [sp], #4
.L216:
	.align	2
.L215:
	.word	m_cb
.LFE245:
	.size	nrfx_saadc_abort, .-nrfx_saadc_abort
	.section	.text.nrfx_saadc_limits_set,"ax",%progbits
	.align	1
	.global	nrfx_saadc_limits_set
	.syntax unified
	.thumb
	.thumb_func
	.fpu fpv4-sp-d16
	.type	nrfx_saadc_limits_set, %function
nrfx_saadc_limits_set:
.LFB246:
	.loc 6 607 1
	@ args = 0, pretend = 0, frame = 16
	@ frame_needed = 0, uses_anonymous_args = 0
	push	{lr}
.LCFI78:
	sub	sp, sp, #20
.LCFI79:
	mov	r3, r0
	strb	r3, [sp, #7]
	mov	r3, r1	@ movhi
	strh	r3, [sp, #4]	@ movhi
	mov	r3, r2	@ movhi
	strh	r3, [sp, #2]	@ movhi
	.loc 6 613 5
	ldrsh	r2, [sp, #2]
	ldrsh	r1, [sp, #4]
	ldrb	r3, [sp, #7]	@ zero_extendqisi2
	mov	r0, r3
	bl	nrf_saadc_channel_limits_set
	.loc 6 615 25
	ldrb	r3, [sp, #7]	@ zero_extendqisi2
	movs	r1, #0
	mov	r0, r3
	bl	nrf_saadc_limit_int_get
	str	r0, [sp, #12]
	.loc 6 616 8
	ldrsh	r3, [sp, #4]
	cmn	r3, #2048
	bne	.L218
	.loc 6 618 35
	ldr	r3, .L223
	ldr	r2, [r3, #20]
	.loc 6 618 58
	ldrb	r3, [sp, #7]	@ zero_extendqisi2
	lsls	r3, r3, #1
	.loc 6 618 68
	adds	r3, r3, #1
	.loc 6 618 51
	mov	r1, #-2147483648
	lsr	r3, r1, r3
	.loc 6 618 38
	mvns	r3, r3
	.loc 6 618 35
	ands	r3, r3, r2
	ldr	r2, .L223
	str	r3, [r2, #20]
	.loc 6 619 9
	ldr	r0, [sp, #12]
	bl	nrf_saadc_int_disable
	b	.L219
.L218:
	.loc 6 623 35
	ldr	r3, .L223
	ldr	r2, [r3, #20]
	.loc 6 623 57
	ldrb	r3, [sp, #7]	@ zero_extendqisi2
	lsls	r3, r3, #1
	.loc 6 623 67
	adds	r3, r3, #1
	.loc 6 623 50
	mov	r1, #-2147483648
	lsr	r3, r1, r3
	.loc 6 623 35
	orrs	r3, r3, r2
	ldr	r2, .L223
	str	r3, [r2, #20]
	.loc 6 624 9
	ldr	r0, [sp, #12]
	bl	nrf_saadc_int_enable
.L219:
	.loc 6 627 16
	ldrb	r3, [sp, #7]	@ zero_extendqisi2
	movs	r1, #1
	mov	r0, r3
	bl	nrf_saadc_limit_int_get
	str	r0, [sp, #12]
	.loc 6 628 8
	ldrsh	r3, [sp, #2]
	movw	r2, #2047
	cmp	r3, r2
	bne	.L220
	.loc 6 630 35
	ldr	r3, .L223
	ldr	r2, [r3, #20]
	.loc 6 630 58
	ldrb	r3, [sp, #7]	@ zero_extendqisi2
	lsls	r3, r3, #1
	.loc 6 630 51
	mov	r1, #-2147483648
	lsr	r3, r1, r3
	.loc 6 630 38
	mvns	r3, r3
	.loc 6 630 35
	ands	r3, r3, r2
	ldr	r2, .L223
	str	r3, [r2, #20]
	.loc 6 631 9
	ldr	r0, [sp, #12]
	bl	nrf_saadc_int_disable
	.loc 6 638 1
	b	.L222
.L220:
	.loc 6 635 35
	ldr	r3, .L223
	ldr	r2, [r3, #20]
	.loc 6 635 57
	ldrb	r3, [sp, #7]	@ zero_extendqisi2
	lsls	r3, r3, #1
	.loc 6 635 50
	mov	r1, #-2147483648
	lsr	r3, r1, r3
	.loc 6 635 35
	orrs	r3, r3, r2
	ldr	r2, .L223
	str	r3, [r2, #20]
	.loc 6 636 9
	ldr	r0, [sp, #12]
	bl	nrf_saadc_int_enable
.L222:
	.loc 6 638 1
	nop
	add	sp, sp, #20
.LCFI80:
	@ sp needed
	ldr	pc, [sp], #4
.L224:
	.align	2
.L223:
	.word	m_cb
.LFE246:
	.size	nrfx_saadc_limits_set, .-nrfx_saadc_limits_set
	.section	.rodata.delay_bytecode.7993,"a"
	.align	4
	.type	delay_bytecode.7993, %object
	.size	delay_bytecode.7993, 6
delay_bytecode.7993:
	.short	14339
	.short	-9987
	.short	18288
	.section	.debug_frame,"",%progbits
.Lframe0:
	.4byte	.LECIE0-.LSCIE0
.LSCIE0:
	.4byte	0xffffffff
	.byte	0x3
	.ascii	"\000"
	.uleb128 0x1
	.sleb128 -4
	.uleb128 0xe
	.byte	0xc
	.uleb128 0xd
	.uleb128 0
	.align	2
.LECIE0:
.LSFDE0:
	.4byte	.LEFDE0-.LASFDE0
.LASFDE0:
	.4byte	.Lframe0
	.4byte	.LFB108
	.4byte	.LFE108-.LFB108
	.byte	0x4
	.4byte	.LCFI0-.LFB108
	.byte	0xe
	.uleb128 0x8
	.byte	0x4
	.4byte	.LCFI1-.LCFI0
	.byte	0xe
	.uleb128 0
	.align	2
.LEFDE0:
.LSFDE2:
	.4byte	.LEFDE2-.LASFDE2
.LASFDE2:
	.4byte	.Lframe0
	.4byte	.LFB109
	.4byte	.LFE109-.LFB109
	.byte	0x4
	.4byte	.LCFI2-.LFB109
	.byte	0xe
	.uleb128 0x8
	.byte	0x4
	.4byte	.LCFI3-.LCFI2
	.byte	0xe
	.uleb128 0
	.align	2
.LEFDE2:
.LSFDE4:
	.4byte	.LEFDE4-.LASFDE4
.LASFDE4:
	.4byte	.Lframe0
	.4byte	.LFB112
	.4byte	.LFE112-.LFB112
	.byte	0x4
	.4byte	.LCFI4-.LFB112
	.byte	0xe
	.uleb128 0x8
	.byte	0x4
	.4byte	.LCFI5-.LCFI4
	.byte	0xe
	.uleb128 0
	.align	2
.LEFDE4:
.LSFDE6:
	.4byte	.LEFDE6-.LASFDE6
.LASFDE6:
	.4byte	.Lframe0
	.4byte	.LFB114
	.4byte	.LFE114-.LFB114
	.byte	0x4
	.4byte	.LCFI6-.LFB114
	.byte	0xe
	.uleb128 0x8
	.byte	0x4
	.4byte	.LCFI7-.LCFI6
	.byte	0xe
	.uleb128 0
	.align	2
.LEFDE6:
.LSFDE8:
	.4byte	.LEFDE8-.LASFDE8
.LASFDE8:
	.4byte	.Lframe0
	.4byte	.LFB146
	.4byte	.LFE146-.LFB146
	.byte	0x4
	.4byte	.LCFI8-.LFB146
	.byte	0xe
	.uleb128 0x4
	.byte	0x8e
	.uleb128 0x1
	.byte	0x4
	.4byte	.LCFI9-.LCFI8
	.byte	0xe
	.uleb128 0x10
	.byte	0x4
	.4byte	.LCFI10-.LCFI9
	.byte	0xe
	.uleb128 0x4
	.align	2
.LEFDE8:
.LSFDE10:
	.4byte	.LEFDE10-.LASFDE10
.LASFDE10:
	.4byte	.Lframe0
	.4byte	.LFB147
	.4byte	.LFE147-.LFB147
	.byte	0x4
	.4byte	.LCFI11-.LFB147
	.byte	0xe
	.uleb128 0x4
	.byte	0x8e
	.uleb128 0x1
	.byte	0x4
	.4byte	.LCFI12-.LCFI11
	.byte	0xe
	.uleb128 0x10
	.byte	0x4
	.4byte	.LCFI13-.LCFI12
	.byte	0xe
	.uleb128 0x4
	.align	2
.LEFDE10:
.LSFDE12:
	.4byte	.LEFDE12-.LASFDE12
.LASFDE12:
	.4byte	.Lframe0
	.4byte	.LFB149
	.4byte	.LFE149-.LFB149
	.byte	0x4
	.4byte	.LCFI14-.LFB149
	.byte	0xe
	.uleb128 0x4
	.byte	0x8e
	.uleb128 0x1
	.byte	0x4
	.4byte	.LCFI15-.LCFI14
	.byte	0xe
	.uleb128 0x10
	.byte	0x4
	.4byte	.LCFI16-.LCFI15
	.byte	0xe
	.uleb128 0x4
	.align	2
.LEFDE12:
.LSFDE14:
	.4byte	.LEFDE14-.LASFDE14
.LASFDE14:
	.4byte	.Lframe0
	.4byte	.LFB153
	.4byte	.LFE153-.LFB153
	.align	2
.LEFDE14:
.LSFDE16:
	.4byte	.LEFDE16-.LASFDE16
.LASFDE16:
	.4byte	.Lframe0
	.4byte	.LFB154
	.4byte	.LFE154-.LFB154
	.align	2
.LEFDE16:
.LSFDE18:
	.4byte	.LEFDE18-.LASFDE18
.LASFDE18:
	.4byte	.Lframe0
	.4byte	.LFB155
	.4byte	.LFE155-.LFB155
	.align	2
.LEFDE18:
.LSFDE20:
	.4byte	.LEFDE20-.LASFDE20
.LASFDE20:
	.4byte	.Lframe0
	.4byte	.LFB156
	.4byte	.LFE156-.LFB156
	.align	2
.LEFDE20:
.LSFDE22:
	.4byte	.LEFDE22-.LASFDE22
.LASFDE22:
	.4byte	.Lframe0
	.4byte	.LFB157
	.4byte	.LFE157-.LFB157
	.align	2
.LEFDE22:
.LSFDE24:
	.4byte	.LEFDE24-.LASFDE24
.LASFDE24:
	.4byte	.Lframe0
	.4byte	.LFB158
	.4byte	.LFE158-.LFB158
	.align	2
.LEFDE24:
.LSFDE26:
	.4byte	.LEFDE26-.LASFDE26
.LASFDE26:
	.4byte	.Lframe0
	.4byte	.LFB159
	.4byte	.LFE159-.LFB159
	.align	2
.LEFDE26:
.LSFDE28:
	.4byte	.LEFDE28-.LASFDE28
.LASFDE28:
	.4byte	.Lframe0
	.4byte	.LFB160
	.4byte	.LFE160-.LFB160
	.align	2
.LEFDE28:
.LSFDE30:
	.4byte	.LEFDE30-.LASFDE30
.LASFDE30:
	.4byte	.Lframe0
	.4byte	.LFB161
	.4byte	.LFE161-.LFB161
	.align	2
.LEFDE30:
.LSFDE32:
	.4byte	.LEFDE32-.LASFDE32
.LASFDE32:
	.4byte	.Lframe0
	.4byte	.LFB162
	.4byte	.LFE162-.LFB162
	.align	2
.LEFDE32:
.LSFDE34:
	.4byte	.LEFDE34-.LASFDE34
.LASFDE34:
	.4byte	.Lframe0
	.4byte	.LFB163
	.4byte	.LFE163-.LFB163
	.align	2
.LEFDE34:
.LSFDE36:
	.4byte	.LEFDE36-.LASFDE36
.LASFDE36:
	.4byte	.Lframe0
	.4byte	.LFB164
	.4byte	.LFE164-.LFB164
	.align	2
.LEFDE36:
.LSFDE38:
	.4byte	.LEFDE38-.LASFDE38
.LASFDE38:
	.4byte	.Lframe0
	.4byte	.LFB165
	.4byte	.LFE165-.LFB165
	.align	2
.LEFDE38:
.LSFDE40:
	.4byte	.LEFDE40-.LASFDE40
.LASFDE40:
	.4byte	.Lframe0
	.4byte	.LFB166
	.4byte	.LFE166-.LFB166
	.align	2
.LEFDE40:
.LSFDE42:
	.4byte	.LEFDE42-.LASFDE42
.LASFDE42:
	.4byte	.Lframe0
	.4byte	.LFB167
	.4byte	.LFE167-.LFB167
	.align	2
.LEFDE42:
.LSFDE44:
	.4byte	.LEFDE44-.LASFDE44
.LASFDE44:
	.4byte	.Lframe0
	.4byte	.LFB168
	.4byte	.LFE168-.LFB168
	.align	2
.LEFDE44:
.LSFDE46:
	.4byte	.LEFDE46-.LASFDE46
.LASFDE46:
	.4byte	.Lframe0
	.4byte	.LFB169
	.4byte	.LFE169-.LFB169
	.align	2
.LEFDE46:
.LSFDE48:
	.4byte	.LEFDE48-.LASFDE48
.LASFDE48:
	.4byte	.Lframe0
	.4byte	.LFB170
	.4byte	.LFE170-.LFB170
	.align	2
.LEFDE48:
.LSFDE50:
	.4byte	.LEFDE50-.LASFDE50
.LASFDE50:
	.4byte	.Lframe0
	.4byte	.LFB171
	.4byte	.LFE171-.LFB171
	.align	2
.LEFDE50:
.LSFDE52:
	.4byte	.LEFDE52-.LASFDE52
.LASFDE52:
	.4byte	.Lframe0
	.4byte	.LFB172
	.4byte	.LFE172-.LFB172
	.align	2
.LEFDE52:
.LSFDE54:
	.4byte	.LEFDE54-.LASFDE54
.LASFDE54:
	.4byte	.Lframe0
	.4byte	.LFB173
	.4byte	.LFE173-.LFB173
	.align	2
.LEFDE54:
.LSFDE56:
	.4byte	.LEFDE56-.LASFDE56
.LASFDE56:
	.4byte	.Lframe0
	.4byte	.LFB174
	.4byte	.LFE174-.LFB174
	.align	2
.LEFDE56:
.LSFDE58:
	.4byte	.LEFDE58-.LASFDE58
.LASFDE58:
	.4byte	.Lframe0
	.4byte	.LFB175
	.4byte	.LFE175-.LFB175
	.align	2
.LEFDE58:
.LSFDE60:
	.4byte	.LEFDE60-.LASFDE60
.LASFDE60:
	.4byte	.Lframe0
	.4byte	.LFB176
	.4byte	.LFE176-.LFB176
	.align	2
.LEFDE60:
.LSFDE62:
	.4byte	.LEFDE62-.LASFDE62
.LASFDE62:
	.4byte	.Lframe0
	.4byte	.LFB177
	.4byte	.LFE177-.LFB177
	.align	2
.LEFDE62:
.LSFDE64:
	.4byte	.LEFDE64-.LASFDE64
.LASFDE64:
	.4byte	.Lframe0
	.4byte	.LFB178
	.4byte	.LFE178-.LFB178
	.align	2
.LEFDE64:
.LSFDE66:
	.4byte	.LEFDE66-.LASFDE66
.LASFDE66:
	.4byte	.Lframe0
	.4byte	.LFB179
	.4byte	.LFE179-.LFB179
	.align	2
.LEFDE66:
.LSFDE68:
	.4byte	.LEFDE68-.LASFDE68
.LASFDE68:
	.4byte	.Lframe0
	.4byte	.LFB180
	.4byte	.LFE180-.LFB180
	.align	2
.LEFDE68:
.LSFDE70:
	.4byte	.LEFDE70-.LASFDE70
.LASFDE70:
	.4byte	.Lframe0
	.4byte	.LFB181
	.4byte	.LFE181-.LFB181
	.align	2
.LEFDE70:
.LSFDE72:
	.4byte	.LEFDE72-.LASFDE72
.LASFDE72:
	.4byte	.Lframe0
	.4byte	.LFB182
	.4byte	.LFE182-.LFB182
	.align	2
.LEFDE72:
.LSFDE74:
	.4byte	.LEFDE74-.LASFDE74
.LASFDE74:
	.4byte	.Lframe0
	.4byte	.LFB183
	.4byte	.LFE183-.LFB183
	.align	2
.LEFDE74:
.LSFDE76:
	.4byte	.LEFDE76-.LASFDE76
.LASFDE76:
	.4byte	.Lframe0
	.4byte	.LFB184
	.4byte	.LFE184-.LFB184
	.align	2
.LEFDE76:
.LSFDE78:
	.4byte	.LEFDE78-.LASFDE78
.LASFDE78:
	.4byte	.Lframe0
	.4byte	.LFB185
	.4byte	.LFE185-.LFB185
	.align	2
.LEFDE78:
.LSFDE80:
	.4byte	.LEFDE80-.LASFDE80
.LASFDE80:
	.4byte	.Lframe0
	.4byte	.LFB186
	.4byte	.LFE186-.LFB186
	.align	2
.LEFDE80:
.LSFDE82:
	.4byte	.LEFDE82-.LASFDE82
.LASFDE82:
	.4byte	.Lframe0
	.4byte	.LFB187
	.4byte	.LFE187-.LFB187
	.align	2
.LEFDE82:
.LSFDE84:
	.4byte	.LEFDE84-.LASFDE84
.LASFDE84:
	.4byte	.Lframe0
	.4byte	.LFB188
	.4byte	.LFE188-.LFB188
	.align	2
.LEFDE84:
.LSFDE86:
	.4byte	.LEFDE86-.LASFDE86
.LASFDE86:
	.4byte	.Lframe0
	.4byte	.LFB189
	.4byte	.LFE189-.LFB189
	.align	2
.LEFDE86:
.LSFDE88:
	.4byte	.LEFDE88-.LASFDE88
.LASFDE88:
	.4byte	.Lframe0
	.4byte	.LFB190
	.4byte	.LFE190-.LFB190
	.align	2
.LEFDE88:
.LSFDE90:
	.4byte	.LEFDE90-.LASFDE90
.LASFDE90:
	.4byte	.Lframe0
	.4byte	.LFB191
	.4byte	.LFE191-.LFB191
	.align	2
.LEFDE90:
.LSFDE92:
	.4byte	.LEFDE92-.LASFDE92
.LASFDE92:
	.4byte	.Lframe0
	.4byte	.LFB192
	.4byte	.LFE192-.LFB192
	.align	2
.LEFDE92:
.LSFDE94:
	.4byte	.LEFDE94-.LASFDE94
.LASFDE94:
	.4byte	.Lframe0
	.4byte	.LFB193
	.4byte	.LFE193-.LFB193
	.align	2
.LEFDE94:
.LSFDE96:
	.4byte	.LEFDE96-.LASFDE96
.LASFDE96:
	.4byte	.Lframe0
	.4byte	.LFB194
	.4byte	.LFE194-.LFB194
	.align	2
.LEFDE96:
.LSFDE98:
	.4byte	.LEFDE98-.LASFDE98
.LASFDE98:
	.4byte	.Lframe0
	.4byte	.LFB195
	.4byte	.LFE195-.LFB195
	.align	2
.LEFDE98:
.LSFDE100:
	.4byte	.LEFDE100-.LASFDE100
.LASFDE100:
	.4byte	.Lframe0
	.4byte	.LFB210
	.4byte	.LFE210-.LFB210
	.byte	0x4
	.4byte	.LCFI17-.LFB210
	.byte	0xe
	.uleb128 0x4
	.byte	0x8e
	.uleb128 0x1
	.byte	0x4
	.4byte	.LCFI18-.LCFI17
	.byte	0xe
	.uleb128 0x18
	.byte	0x4
	.4byte	.LCFI19-.LCFI18
	.byte	0xe
	.uleb128 0x4
	.align	2
.LEFDE100:
.LSFDE102:
	.4byte	.LEFDE102-.LASFDE102
.LASFDE102:
	.4byte	.Lframe0
	.4byte	.LFB211
	.4byte	.LFE211-.LFB211
	.byte	0x4
	.4byte	.LCFI20-.LFB211
	.byte	0xe
	.uleb128 0x8
	.byte	0x4
	.4byte	.LCFI21-.LCFI20
	.byte	0xe
	.uleb128 0
	.align	2
.LEFDE102:
.LSFDE104:
	.4byte	.LEFDE104-.LASFDE104
.LASFDE104:
	.4byte	.Lframe0
	.4byte	.LFB212
	.4byte	.LFE212-.LFB212
	.byte	0x4
	.4byte	.LCFI22-.LFB212
	.byte	0xe
	.uleb128 0x8
	.byte	0x4
	.4byte	.LCFI23-.LCFI22
	.byte	0xe
	.uleb128 0
	.align	2
.LEFDE104:
.LSFDE106:
	.4byte	.LEFDE106-.LASFDE106
.LASFDE106:
	.4byte	.Lframe0
	.4byte	.LFB213
	.4byte	.LFE213-.LFB213
	.byte	0x4
	.4byte	.LCFI24-.LFB213
	.byte	0xe
	.uleb128 0x8
	.byte	0x4
	.4byte	.LCFI25-.LCFI24
	.byte	0xe
	.uleb128 0
	.align	2
.LEFDE106:
.LSFDE108:
	.4byte	.LEFDE108-.LASFDE108
.LASFDE108:
	.4byte	.Lframe0
	.4byte	.LFB214
	.4byte	.LFE214-.LFB214
	.byte	0x4
	.4byte	.LCFI26-.LFB214
	.byte	0xe
	.uleb128 0x10
	.byte	0x4
	.4byte	.LCFI27-.LCFI26
	.byte	0xe
	.uleb128 0
	.align	2
.LEFDE108:
.LSFDE110:
	.4byte	.LEFDE110-.LASFDE110
.LASFDE110:
	.4byte	.Lframe0
	.4byte	.LFB218
	.4byte	.LFE218-.LFB218
	.byte	0x4
	.4byte	.LCFI28-.LFB218
	.byte	0xe
	.uleb128 0x8
	.byte	0x4
	.4byte	.LCFI29-.LCFI28
	.byte	0xe
	.uleb128 0
	.align	2
.LEFDE110:
.LSFDE112:
	.4byte	.LEFDE112-.LASFDE112
.LASFDE112:
	.4byte	.Lframe0
	.4byte	.LFB219
	.4byte	.LFE219-.LFB219
	.byte	0x4
	.4byte	.LCFI30-.LFB219
	.byte	0xe
	.uleb128 0x8
	.byte	0x4
	.4byte	.LCFI31-.LCFI30
	.byte	0xe
	.uleb128 0
	.align	2
.LEFDE112:
.LSFDE114:
	.4byte	.LEFDE114-.LASFDE114
.LASFDE114:
	.4byte	.Lframe0
	.4byte	.LFB220
	.4byte	.LFE220-.LFB220
	.byte	0x4
	.4byte	.LCFI32-.LFB220
	.byte	0xe
	.uleb128 0x8
	.byte	0x4
	.4byte	.LCFI33-.LCFI32
	.byte	0xe
	.uleb128 0
	.align	2
.LEFDE114:
.LSFDE116:
	.4byte	.LEFDE116-.LASFDE116
.LASFDE116:
	.4byte	.Lframe0
	.4byte	.LFB222
	.4byte	.LFE222-.LFB222
	.byte	0x4
	.4byte	.LCFI34-.LFB222
	.byte	0xe
	.uleb128 0x8
	.byte	0x4
	.4byte	.LCFI35-.LCFI34
	.byte	0xe
	.uleb128 0
	.align	2
.LEFDE116:
.LSFDE118:
	.4byte	.LEFDE118-.LASFDE118
.LASFDE118:
	.4byte	.Lframe0
	.4byte	.LFB223
	.4byte	.LFE223-.LFB223
	.byte	0x4
	.4byte	.LCFI36-.LFB223
	.byte	0xe
	.uleb128 0x10
	.byte	0x4
	.4byte	.LCFI37-.LCFI36
	.byte	0xe
	.uleb128 0
	.align	2
.LEFDE118:
.LSFDE120:
	.4byte	.LEFDE120-.LASFDE120
.LASFDE120:
	.4byte	.Lframe0
	.4byte	.LFB225
	.4byte	.LFE225-.LFB225
	.align	2
.LEFDE120:
.LSFDE122:
	.4byte	.LEFDE122-.LASFDE122
.LASFDE122:
	.4byte	.Lframe0
	.4byte	.LFB226
	.4byte	.LFE226-.LFB226
	.align	2
.LEFDE122:
.LSFDE124:
	.4byte	.LEFDE124-.LASFDE124
.LASFDE124:
	.4byte	.Lframe0
	.4byte	.LFB228
	.4byte	.LFE228-.LFB228
	.byte	0x4
	.4byte	.LCFI38-.LFB228
	.byte	0xe
	.uleb128 0x8
	.byte	0x4
	.4byte	.LCFI39-.LCFI38
	.byte	0xe
	.uleb128 0
	.align	2
.LEFDE124:
.LSFDE126:
	.4byte	.LEFDE126-.LASFDE126
.LASFDE126:
	.4byte	.Lframe0
	.4byte	.LFB230
	.4byte	.LFE230-.LFB230
	.byte	0x4
	.4byte	.LCFI40-.LFB230
	.byte	0xe
	.uleb128 0x8
	.byte	0x4
	.4byte	.LCFI41-.LCFI40
	.byte	0xe
	.uleb128 0
	.align	2
.LEFDE126:
.LSFDE128:
	.4byte	.LEFDE128-.LASFDE128
.LASFDE128:
	.4byte	.Lframe0
	.4byte	.LFB231
	.4byte	.LFE231-.LFB231
	.byte	0x4
	.4byte	.LCFI42-.LFB231
	.byte	0xe
	.uleb128 0x8
	.byte	0x4
	.4byte	.LCFI43-.LCFI42
	.byte	0xe
	.uleb128 0
	.align	2
.LEFDE128:
.LSFDE130:
	.4byte	.LEFDE130-.LASFDE130
.LASFDE130:
	.4byte	.Lframe0
	.4byte	.LFB233
	.4byte	.LFE233-.LFB233
	.byte	0x4
	.4byte	.LCFI44-.LFB233
	.byte	0xe
	.uleb128 0x4
	.byte	0x8e
	.uleb128 0x1
	.byte	0x4
	.4byte	.LCFI45-.LCFI44
	.byte	0xe
	.uleb128 0x10
	.byte	0x4
	.4byte	.LCFI46-.LCFI45
	.byte	0xe
	.uleb128 0x4
	.align	2
.LEFDE130:
.LSFDE132:
	.4byte	.LEFDE132-.LASFDE132
.LASFDE132:
	.4byte	.Lframe0
	.4byte	.LFB234
	.4byte	.LFE234-.LFB234
	.byte	0x4
	.4byte	.LCFI47-.LFB234
	.byte	0xe
	.uleb128 0x4
	.byte	0x8e
	.uleb128 0x1
	.byte	0x4
	.4byte	.LCFI48-.LCFI47
	.byte	0xe
	.uleb128 0x38
	.byte	0x4
	.4byte	.LCFI49-.LCFI48
	.byte	0xe
	.uleb128 0x4
	.align	2
.LEFDE132:
.LSFDE134:
	.4byte	.LEFDE134-.LASFDE134
.LASFDE134:
	.4byte	.Lframe0
	.4byte	.LFB235
	.4byte	.LFE235-.LFB235
	.byte	0x4
	.4byte	.LCFI50-.LFB235
	.byte	0xe
	.uleb128 0x4
	.byte	0x8e
	.uleb128 0x1
	.byte	0x4
	.4byte	.LCFI51-.LCFI50
	.byte	0xe
	.uleb128 0x18
	.byte	0x4
	.4byte	.LCFI52-.LCFI51
	.byte	0xe
	.uleb128 0x4
	.align	2
.LEFDE134:
.LSFDE136:
	.4byte	.LEFDE136-.LASFDE136
.LASFDE136:
	.4byte	.Lframe0
	.4byte	.LFB236
	.4byte	.LFE236-.LFB236
	.byte	0x4
	.4byte	.LCFI53-.LFB236
	.byte	0xe
	.uleb128 0x4
	.byte	0x8e
	.uleb128 0x1
	.byte	0x4
	.4byte	.LCFI54-.LCFI53
	.byte	0xe
	.uleb128 0x18
	.byte	0x4
	.4byte	.LCFI55-.LCFI54
	.byte	0xe
	.uleb128 0x4
	.align	2
.LEFDE136:
.LSFDE138:
	.4byte	.LEFDE138-.LASFDE138
.LASFDE138:
	.4byte	.Lframe0
	.4byte	.LFB237
	.4byte	.LFE237-.LFB237
	.byte	0x4
	.4byte	.LCFI56-.LFB237
	.byte	0xe
	.uleb128 0x4
	.byte	0x8e
	.uleb128 0x1
	.byte	0x4
	.4byte	.LCFI57-.LCFI56
	.byte	0xe
	.uleb128 0x18
	.byte	0x4
	.4byte	.LCFI58-.LCFI57
	.byte	0xe
	.uleb128 0x4
	.align	2
.LEFDE138:
.LSFDE140:
	.4byte	.LEFDE140-.LASFDE140
.LASFDE140:
	.4byte	.Lframe0
	.4byte	.LFB238
	.4byte	.LFE238-.LFB238
	.byte	0x4
	.4byte	.LCFI59-.LFB238
	.byte	0xe
	.uleb128 0x4
	.byte	0x8e
	.uleb128 0x1
	.byte	0x4
	.4byte	.LCFI60-.LCFI59
	.byte	0xe
	.uleb128 0x18
	.byte	0x4
	.4byte	.LCFI61-.LCFI60
	.byte	0xe
	.uleb128 0x4
	.align	2
.LEFDE140:
.LSFDE142:
	.4byte	.LEFDE142-.LASFDE142
.LASFDE142:
	.4byte	.Lframe0
	.4byte	.LFB239
	.4byte	.LFE239-.LFB239
	.byte	0x4
	.4byte	.LCFI62-.LFB239
	.byte	0xe
	.uleb128 0x8
	.byte	0x83
	.uleb128 0x2
	.byte	0x8e
	.uleb128 0x1
	.align	2
.LEFDE142:
.LSFDE144:
	.4byte	.LEFDE144-.LASFDE144
.LASFDE144:
	.4byte	.Lframe0
	.4byte	.LFB240
	.4byte	.LFE240-.LFB240
	.byte	0x4
	.4byte	.LCFI63-.LFB240
	.byte	0xe
	.uleb128 0x4
	.byte	0x8e
	.uleb128 0x1
	.byte	0x4
	.4byte	.LCFI64-.LCFI63
	.byte	0xe
	.uleb128 0x28
	.byte	0x4
	.4byte	.LCFI65-.LCFI64
	.byte	0xe
	.uleb128 0x4
	.align	2
.LEFDE144:
.LSFDE146:
	.4byte	.LEFDE146-.LASFDE146
.LASFDE146:
	.4byte	.Lframe0
	.4byte	.LFB241
	.4byte	.LFE241-.LFB241
	.byte	0x4
	.4byte	.LCFI66-.LFB241
	.byte	0xe
	.uleb128 0x4
	.byte	0x8e
	.uleb128 0x1
	.byte	0x4
	.4byte	.LCFI67-.LCFI66
	.byte	0xe
	.uleb128 0x18
	.byte	0x4
	.4byte	.LCFI68-.LCFI67
	.byte	0xe
	.uleb128 0x4
	.align	2
.LEFDE146:
.LSFDE148:
	.4byte	.LEFDE148-.LASFDE148
.LASFDE148:
	.4byte	.Lframe0
	.4byte	.LFB242
	.4byte	.LFE242-.LFB242
	.byte	0x4
	.4byte	.LCFI69-.LFB242
	.byte	0xe
	.uleb128 0x4
	.byte	0x8e
	.uleb128 0x1
	.byte	0x4
	.4byte	.LCFI70-.LCFI69
	.byte	0xe
	.uleb128 0x10
	.byte	0x4
	.4byte	.LCFI71-.LCFI70
	.byte	0xe
	.uleb128 0x4
	.align	2
.LEFDE148:
.LSFDE150:
	.4byte	.LEFDE150-.LASFDE150
.LASFDE150:
	.4byte	.Lframe0
	.4byte	.LFB243
	.4byte	.LFE243-.LFB243
	.byte	0x4
	.4byte	.LCFI72-.LFB243
	.byte	0xe
	.uleb128 0x4
	.byte	0x8e
	.uleb128 0x1
	.byte	0x4
	.4byte	.LCFI73-.LCFI72
	.byte	0xe
	.uleb128 0x10
	.byte	0x4
	.4byte	.LCFI74-.LCFI73
	.byte	0xe
	.uleb128 0x4
	.align	2
.LEFDE150:
.LSFDE152:
	.4byte	.LEFDE152-.LASFDE152
.LASFDE152:
	.4byte	.Lframe0
	.4byte	.LFB244
	.4byte	.LFE244-.LFB244
	.align	2
.LEFDE152:
.LSFDE154:
	.4byte	.LEFDE154-.LASFDE154
.LASFDE154:
	.4byte	.Lframe0
	.4byte	.LFB245
	.4byte	.LFE245-.LFB245
	.byte	0x4
	.4byte	.LCFI75-.LFB245
	.byte	0xe
	.uleb128 0x4
	.byte	0x8e
	.uleb128 0x1
	.byte	0x4
	.4byte	.LCFI76-.LCFI75
	.byte	0xe
	.uleb128 0x10
	.byte	0x4
	.4byte	.LCFI77-.LCFI76
	.byte	0xe
	.uleb128 0x4
	.align	2
.LEFDE154:
.LSFDE156:
	.4byte	.LEFDE156-.LASFDE156
.LASFDE156:
	.4byte	.Lframe0
	.4byte	.LFB246
	.4byte	.LFE246-.LFB246
	.byte	0x4
	.4byte	.LCFI78-.LFB246
	.byte	0xe
	.uleb128 0x4
	.byte	0x8e
	.uleb128 0x1
	.byte	0x4
	.4byte	.LCFI79-.LCFI78
	.byte	0xe
	.uleb128 0x18
	.byte	0x4
	.4byte	.LCFI80-.LCFI79
	.byte	0xe
	.uleb128 0x4
	.align	2
.LEFDE156:
	.text
.Letext0:
	.file 7 "../../../../../../modules/nrfx/drivers/include/nrfx_saadc.h"
	.file 8 "C:/Program Files (x86)/SEGGER/SEGGER Embedded Studio for ARM 4.50/include/stdint.h"
	.file 9 "../../../../../../modules/nrfx/drivers/nrfx_common.h"