	.cpu cortex-m4
	.eabi_attribute 27, 1
	.eabi_attribute 28, 1
	.eabi_attribute 20, 1
	.eabi_attribute 21, 1
	.eabi_attribute 23, 3
	.eabi_attribute 24, 1
	.eabi_attribute 25, 1
	.eabi_attribute 26, 1
	.eabi_attribute 30, 6
	.eabi_attribute 34, 1
	.eabi_attribute 18, 4
	.file	"nrfx_twi.c"
	.text
.Ltext0:
	.section	.text.NVIC_EnableIRQ,"ax",%progbits
	.align	1
	.syntax unified
	.thumb
	.thumb_func
	.fpu fpv4-sp-d16
	.type	NVIC_EnableIRQ, %function
NVIC_EnableIRQ:
.LFB108:
	.file 1 "../../../../../../components/toolchain/cmsis/include/core_cm4.h"
	.loc 1 1627 1
	@ args = 0, pretend = 0, frame = 8
	@ frame_needed = 0, uses_anonymous_args = 0
	@ link register save eliminated.
	sub	sp, sp, #8
.LCFI0:
	mov	r3, r0
	strb	r3, [sp, #7]
	.loc 1 1628 137
	ldrb	r3, [sp, #7]	@ zero_extendqisi2
	and	r2, r3, #31
	.loc 1 1628 47
	ldr	r1, .L2
	.loc 1 1628 56
	ldrsb	r3, [sp, #7]
	.loc 1 1628 81
	lsrs	r3, r3, #5
	.loc 1 1628 107
	movs	r0, #1
	lsl	r2, r0, r2
	.loc 1 1628 90
	str	r2, [r1, r3, lsl #2]
	.loc 1 1629 1
	nop
	add	sp, sp, #8
.LCFI1:
	@ sp needed
	bx	lr
.L3:
	.align	2
.L2:
	.word	-536813312
.LFE108:
	.size	NVIC_EnableIRQ, .-NVIC_EnableIRQ
	.section	.text.NVIC_DisableIRQ,"ax",%progbits
	.align	1
	.syntax unified
	.thumb
	.thumb_func
	.fpu fpv4-sp-d16
	.type	NVIC_DisableIRQ, %function
NVIC_DisableIRQ:
.LFB109:
	.loc 1 1638 1
	@ args = 0, pretend = 0, frame = 8
	@ frame_needed = 0, uses_anonymous_args = 0
	@ link register save eliminated.
	sub	sp, sp, #8
.LCFI2:
	mov	r3, r0
	strb	r3, [sp, #7]
	.loc 1 1639 137
	ldrb	r3, [sp, #7]	@ zero_extendqisi2
	and	r2, r3, #31
	.loc 1 1639 47
	ldr	r1, .L5
	.loc 1 1639 56
	ldrsb	r3, [sp, #7]
	.loc 1 1639 81
	lsrs	r3, r3, #5
	.loc 1 1639 107
	movs	r0, #1
	lsl	r2, r0, r2
	.loc 1 1639 90
	adds	r3, r3, #32
	str	r2, [r1, r3, lsl #2]
	.loc 1 1640 1
	nop
	add	sp, sp, #8
.LCFI3:
	@ sp needed
	bx	lr
.L6:
	.align	2
.L5:
	.word	-536813312
.LFE109:
	.size	NVIC_DisableIRQ, .-NVIC_DisableIRQ
	.section	.text.NVIC_ClearPendingIRQ,"ax",%progbits
	.align	1
	.syntax unified
	.thumb
	.thumb_func
	.fpu fpv4-sp-d16
	.type	NVIC_ClearPendingIRQ, %function
NVIC_ClearPendingIRQ:
.LFB112:
	.loc 1 1673 1
	@ args = 0, pretend = 0, frame = 8
	@ frame_needed = 0, uses_anonymous_args = 0
	@ link register save eliminated.
	sub	sp, sp, #8
.LCFI4:
	mov	r3, r0
	strb	r3, [sp, #7]
	.loc 1 1674 137
	ldrb	r3, [sp, #7]	@ zero_extendqisi2
	and	r2, r3, #31
	.loc 1 1674 47
	ldr	r1, .L8
	.loc 1 1674 56
	ldrsb	r3, [sp, #7]
	.loc 1 1674 81
	lsrs	r3, r3, #5
	.loc 1 1674 107
	movs	r0, #1
	lsl	r2, r0, r2
	.loc 1 1674 90
	adds	r3, r3, #96
	str	r2, [r1, r3, lsl #2]
	.loc 1 1675 1
	nop
	add	sp, sp, #8
.LCFI5:
	@ sp needed
	bx	lr
.L9:
	.align	2
.L8:
	.word	-536813312
.LFE112:
	.size	NVIC_ClearPendingIRQ, .-NVIC_ClearPendingIRQ
	.section	.text.NVIC_SetPriority,"ax",%progbits
	.align	1
	.syntax unified
	.thumb
	.thumb_func
	.fpu fpv4-sp-d16
	.type	NVIC_SetPriority, %function
NVIC_SetPriority:
.LFB114:
	.loc 1 1699 1
	@ args = 0, pretend = 0, frame = 8
	@ frame_needed = 0, uses_anonymous_args = 0
	@ link register save eliminated.
	sub	sp, sp, #8
.LCFI6:
	mov	r3, r0
	str	r1, [sp]
	strb	r3, [sp, #7]
	.loc 1 1700 6
	ldrsb	r3, [sp, #7]
	cmp	r3, #0
	bge	.L11
	.loc 1 1702 97
	ldr	r3, [sp]
	uxtb	r2, r3
	.loc 1 1702 48
	ldr	r1, .L14
	.loc 1 1702 81
	ldrb	r3, [sp, #7]	@ zero_extendqisi2
	and	r3, r3, #15
	.loc 1 1702 89
	subs	r3, r3, #4
	.loc 1 1702 97
	lsls	r2, r2, #5
	uxtb	r2, r2
	.loc 1 1702 95
	add	r3, r3, r1
	strb	r2, [r3, #24]
	.loc 1 1708 1
	b	.L13
.L11:
	.loc 1 1706 83
	ldr	r3, [sp]
	uxtb	r2, r3
	.loc 1 1706 49
	ldr	r1, .L14+4
	.loc 1 1706 55
	ldrsb	r3, [sp, #7]
	.loc 1 1706 83
	lsls	r2, r2, #5
	uxtb	r2, r2
	.loc 1 1706 81
	add	r3, r3, r1
	strb	r2, [r3, #768]
.L13:
	.loc 1 1708 1
	nop
	add	sp, sp, #8
.LCFI7:
	@ sp needed
	bx	lr
.L15:
	.align	2
.L14:
	.word	-536810240
	.word	-536813312
.LFE114:
	.size	NVIC_SetPriority, .-NVIC_SetPriority
	.section	.text.nrfx_get_irq_number,"ax",%progbits
	.align	1
	.syntax unified
	.thumb
	.thumb_func
	.fpu fpv4-sp-d16
	.type	nrfx_get_irq_number, %function
nrfx_get_irq_number:
.LFB125:
	.file 2 "../../../../../../modules/nrfx/drivers/nrfx_common.h"
	.loc 2 244 1
	@ args = 0, pretend = 0, frame = 16
	@ frame_needed = 0, uses_anonymous_args = 0
	@ link register save eliminated.
	sub	sp, sp, #16
.LCFI8:
	str	r0, [sp, #4]
	.loc 2 245 37
	ldr	r3, [sp, #4]
	.loc 2 245 54
	lsrs	r3, r3, #12
	.loc 2 245 13
	strb	r3, [sp, #15]
	.loc 2 246 12
	ldrsb	r3, [sp, #15]
	.loc 2 247 1
	mov	r0, r3
	add	sp, sp, #16
.LCFI9:
	@ sp needed
	bx	lr
.LFE125:
	.size	nrfx_get_irq_number, .-nrfx_get_irq_number
	.section	.text._NRFX_IRQ_PRIORITY_SET,"ax",%progbits
	.align	1
	.syntax unified
	.thumb
	.thumb_func
	.fpu fpv4-sp-d16
	.type	_NRFX_IRQ_PRIORITY_SET, %function
_NRFX_IRQ_PRIORITY_SET:
.LFB146:
	.file 3 "../../../../../../integration/nrfx/nrfx_glue.h"
	.loc 3 106 1
	@ args = 0, pretend = 0, frame = 8
	@ frame_needed = 0, uses_anonymous_args = 0
	push	{lr}
.LCFI10:
	sub	sp, sp, #12
.LCFI11:
	mov	r3, r0
	mov	r2, r1
	strb	r3, [sp, #7]
	mov	r3, r2
	strb	r3, [sp, #6]
	.loc 3 108 5
	ldrb	r2, [sp, #6]	@ zero_extendqisi2
	ldrsb	r3, [sp, #7]
	mov	r1, r2
	mov	r0, r3
	bl	NVIC_SetPriority
	.loc 3 109 1
	nop
	add	sp, sp, #12
.LCFI12:
	@ sp needed
	ldr	pc, [sp], #4
.LFE146:
	.size	_NRFX_IRQ_PRIORITY_SET, .-_NRFX_IRQ_PRIORITY_SET
	.section	.text._NRFX_IRQ_ENABLE,"ax",%progbits
	.align	1
	.syntax unified
	.thumb
	.thumb_func
	.fpu fpv4-sp-d16
	.type	_NRFX_IRQ_ENABLE, %function
_NRFX_IRQ_ENABLE:
.LFB147:
	.loc 3 118 1
	@ args = 0, pretend = 0, frame = 8
	@ frame_needed = 0, uses_anonymous_args = 0
	push	{lr}
.LCFI13:
	sub	sp, sp, #12
.LCFI14:
	mov	r3, r0
	strb	r3, [sp, #7]
	.loc 3 119 5
	ldrsb	r3, [sp, #7]
	mov	r0, r3
	bl	NVIC_ClearPendingIRQ
	.loc 3 120 5
	ldrsb	r3, [sp, #7]
	mov	r0, r3
	bl	NVIC_EnableIRQ
	.loc 3 121 1
	nop
	add	sp, sp, #12
.LCFI15:
	@ sp needed
	ldr	pc, [sp], #4
.LFE147:
	.size	_NRFX_IRQ_ENABLE, .-_NRFX_IRQ_ENABLE
	.section	.text._NRFX_IRQ_DISABLE,"ax",%progbits
	.align	1
	.syntax unified
	.thumb
	.thumb_func
	.fpu fpv4-sp-d16
	.type	_NRFX_IRQ_DISABLE, %function
_NRFX_IRQ_DISABLE:
.LFB149:
	.loc 3 144 1
	@ args = 0, pretend = 0, frame = 8
	@ frame_needed = 0, uses_anonymous_args = 0
	push	{lr}
.LCFI16:
	sub	sp, sp, #12
.LCFI17:
	mov	r3, r0
	strb	r3, [sp, #7]
	.loc 3 145 5
	ldrsb	r3, [sp, #7]
	mov	r0, r3
	bl	NVIC_DisableIRQ
	.loc 3 146 1
	nop
	add	sp, sp, #12
.LCFI18:
	@ sp needed
	ldr	pc, [sp], #4
.LFE149:
	.size	_NRFX_IRQ_DISABLE, .-_NRFX_IRQ_DISABLE
	.section	.text.sd_mutex_new,"ax",%progbits
	.align	1
	.syntax unified
	.thumb
	.thumb_func
	.fpu fpv4-sp-d16
	.type	sd_mutex_new, %function
sd_mutex_new:
.LFB153:
	.file 4 "../../../../../../components/softdevice/s132/headers/nrf_soc.h"
	.loc 4 393 101
	@ Naked Function: prologue and epilogue provided by programmer.
	@ args = 0, pretend = 0, frame = 0
	@ frame_needed = 0, uses_anonymous_args = 0
	.loc 4 393 103
	.syntax unified
@ 393 "../../../../../../components/softdevice/s132/headers/nrf_soc.h" 1
	svc #44
bx r14
@ 0 "" 2
	.loc 4 393 2
	.thumb
	.syntax unified
	nop
	mov	r0, r3
.LFE153:
	.size	sd_mutex_new, .-sd_mutex_new
	.section	.text.sd_mutex_acquire,"ax",%progbits
	.align	1
	.syntax unified
	.thumb
	.thumb_func
	.fpu fpv4-sp-d16
	.type	sd_mutex_acquire, %function
sd_mutex_acquire:
.LFB154:
	.loc 4 402 105
	@ Naked Function: prologue and epilogue provided by programmer.
	@ args = 0, pretend = 0, frame = 0
	@ frame_needed = 0, uses_anonymous_args = 0
	.loc 4 402 107
	.syntax unified
@ 402 "../../../../../../components/softdevice/s132/headers/nrf_soc.h" 1
	svc #45
bx r14
@ 0 "" 2
	.loc 4 402 2
	.thumb
	.syntax unified
	nop
	mov	r0, r3
.LFE154:
	.size	sd_mutex_acquire, .-sd_mutex_acquire
	.section	.text.sd_mutex_release,"ax",%progbits
	.align	1
	.syntax unified
	.thumb
	.thumb_func
	.fpu fpv4-sp-d16
	.type	sd_mutex_release, %function
sd_mutex_release:
.LFB155:
	.loc 4 410 105
	@ Naked Function: prologue and epilogue provided by programmer.
	@ args = 0, pretend = 0, frame = 0
	@ frame_needed = 0, uses_anonymous_args = 0
	.loc 4 410 107
	.syntax unified
@ 410 "../../../../../../components/softdevice/s132/headers/nrf_soc.h" 1
	svc #46
bx r14
@ 0 "" 2
	.loc 4 410 2
	.thumb
	.syntax unified
	nop
	mov	r0, r3
.LFE155:
	.size	sd_mutex_release, .-sd_mutex_release
	.section	.text.sd_rand_application_pool_capacity_get,"ax",%progbits
	.align	1
	.syntax unified
	.thumb
	.thumb_func
	.fpu fpv4-sp-d16
	.type	sd_rand_application_pool_capacity_get, %function
sd_rand_application_pool_capacity_get:
.LFB156:
	.loc 4 418 130
	@ Naked Function: prologue and epilogue provided by programmer.
	@ args = 0, pretend = 0, frame = 0
	@ frame_needed = 0, uses_anonymous_args = 0
	.loc 4 418 132
	.syntax unified
@ 418 "../../../../../../components/softdevice/s132/headers/nrf_soc.h" 1
	svc #47
bx r14
@ 0 "" 2
	.loc 4 418 2
	.thumb
	.syntax unified
	nop
	mov	r0, r3
.LFE156:
	.size	sd_rand_application_pool_capacity_get, .-sd_rand_application_pool_capacity_get
	.section	.text.sd_rand_application_bytes_available_get,"ax",%progbits
	.align	1
	.syntax unified
	.thumb
	.thumb_func
	.fpu fpv4-sp-d16
	.type	sd_rand_application_bytes_available_get, %function
sd_rand_application_bytes_available_get:
.LFB157:
	.loc 4 426 134
	@ Naked Function: prologue and epilogue provided by programmer.
	@ args = 0, pretend = 0, frame = 0
	@ frame_needed = 0, uses_anonymous_args = 0
	.loc 4 426 136
	.syntax unified
@ 426 "../../../../../../components/softdevice/s132/headers/nrf_soc.h" 1
	svc #48
bx r14
@ 0 "" 2
	.loc 4 426 2
	.thumb
	.syntax unified
	nop
	mov	r0, r3
.LFE157:
	.size	sd_rand_application_bytes_available_get, .-sd_rand_application_bytes_available_get
	.section	.text.sd_rand_application_vector_get,"ax",%progbits
	.align	1
	.syntax unified
	.thumb
	.thumb_func
	.fpu fpv4-sp-d16
	.type	sd_rand_application_vector_get, %function
sd_rand_application_vector_get:
.LFB158:
	.loc 4 436 130
	@ Naked Function: prologue and epilogue provided by programmer.
	@ args = 0, pretend = 0, frame = 0
	@ frame_needed = 0, uses_anonymous_args = 0
	.loc 4 436 132
	.syntax unified
@ 436 "../../../../../../components/softdevice/s132/headers/nrf_soc.h" 1
	svc #49
bx r14
@ 0 "" 2
	.loc 4 436 2
	.thumb
	.syntax unified
	nop
	mov	r0, r3
.LFE158:
	.size	sd_rand_application_vector_get, .-sd_rand_application_vector_get
	.section	.text.sd_power_reset_reason_get,"ax",%progbits
	.align	1
	.syntax unified
	.thumb
	.thumb_func
	.fpu fpv4-sp-d16
	.type	sd_power_reset_reason_get, %function
sd_power_reset_reason_get:
.LFB159:
	.loc 4 444 118
	@ Naked Function: prologue and epilogue provided by programmer.
	@ args = 0, pretend = 0, frame = 0
	@ frame_needed = 0, uses_anonymous_args = 0
	.loc 4 444 120
	.syntax unified
@ 444 "../../../../../../components/softdevice/s132/headers/nrf_soc.h" 1
	svc #52
bx r14
@ 0 "" 2
	.loc 4 444 2
	.thumb
	.syntax unified
	nop
	mov	r0, r3
.LFE159:
	.size	sd_power_reset_reason_get, .-sd_power_reset_reason_get
	.section	.text.sd_power_reset_reason_clr,"ax",%progbits
	.align	1
	.syntax unified
	.thumb
	.thumb_func
	.fpu fpv4-sp-d16
	.type	sd_power_reset_reason_clr, %function
sd_power_reset_reason_clr:
.LFB160:
	.loc 4 452 122
	@ Naked Function: prologue and epilogue provided by programmer.
	@ args = 0, pretend = 0, frame = 0
	@ frame_needed = 0, uses_anonymous_args = 0
	.loc 4 452 124
	.syntax unified
@ 452 "../../../../../../components/softdevice/s132/headers/nrf_soc.h" 1
	svc #53
bx r14
@ 0 "" 2
	.loc 4 452 2
	.thumb
	.syntax unified
	nop
	mov	r0, r3
.LFE160:
	.size	sd_power_reset_reason_clr, .-sd_power_reset_reason_clr
	.section	.text.sd_power_mode_set,"ax",%progbits
	.align	1
	.syntax unified
	.thumb
	.thumb_func
	.fpu fpv4-sp-d16
	.type	sd_power_mode_set, %function
sd_power_mode_set:
.LFB161:
	.loc 4 461 103
	@ Naked Function: prologue and epilogue provided by programmer.
	@ args = 0, pretend = 0, frame = 0
	@ frame_needed = 0, uses_anonymous_args = 0
	.loc 4 461 105
	.syntax unified
@ 461 "../../../../../../components/softdevice/s132/headers/nrf_soc.h" 1
	svc #50
bx r14
@ 0 "" 2
	.loc 4 461 2
	.thumb
	.syntax unified
	nop
	mov	r0, r3
.LFE161:
	.size	sd_power_mode_set, .-sd_power_mode_set
	.section	.text.sd_power_system_off,"ax",%progbits
	.align	1
	.syntax unified
	.thumb
	.thumb_func
	.fpu fpv4-sp-d16
	.type	sd_power_system_off, %function
sd_power_system_off:
.LFB162:
	.loc 4 467 91
	@ Naked Function: prologue and epilogue provided by programmer.
	@ args = 0, pretend = 0, frame = 0
	@ frame_needed = 0, uses_anonymous_args = 0
	.loc 4 467 93
	.syntax unified
@ 467 "../../../../../../components/softdevice/s132/headers/nrf_soc.h" 1
	svc #51
bx r14
@ 0 "" 2
	.loc 4 467 2
	.thumb
	.syntax unified
	nop
	mov	r0, r3
.LFE162:
	.size	sd_power_system_off, .-sd_power_system_off
	.section	.text.sd_power_pof_enable,"ax",%progbits
	.align	1
	.syntax unified
	.thumb
	.thumb_func
	.fpu fpv4-sp-d16
	.type	sd_power_pof_enable, %function
sd_power_pof_enable:
.LFB163:
	.loc 4 478 105
	@ Naked Function: prologue and epilogue provided by programmer.
	@ args = 0, pretend = 0, frame = 0
	@ frame_needed = 0, uses_anonymous_args = 0
	.loc 4 478 107
	.syntax unified
@ 478 "../../../../../../components/softdevice/s132/headers/nrf_soc.h" 1
	svc #54
bx r14
@ 0 "" 2
	.loc 4 478 2
	.thumb
	.syntax unified
	nop
	mov	r0, r3
.LFE163:
	.size	sd_power_pof_enable, .-sd_power_pof_enable
	.section	.text.sd_power_pof_threshold_set,"ax",%progbits
	.align	1
	.syntax unified
	.thumb
	.thumb_func
	.fpu fpv4-sp-d16
	.type	sd_power_pof_threshold_set, %function
sd_power_pof_threshold_set:
.LFB164:
	.loc 4 489 111
	@ Naked Function: prologue and epilogue provided by programmer.
	@ args = 0, pretend = 0, frame = 0
	@ frame_needed = 0, uses_anonymous_args = 0
	.loc 4 489 113
	.syntax unified
@ 489 "../../../../../../components/softdevice/s132/headers/nrf_soc.h" 1
	svc #55
bx r14
@ 0 "" 2
	.loc 4 489 2
	.thumb
	.syntax unified
	nop
	mov	r0, r3
.LFE164:
	.size	sd_power_pof_threshold_set, .-sd_power_pof_threshold_set
	.section	.text.sd_power_ram_power_set,"ax",%progbits
	.align	1
	.syntax unified
	.thumb
	.thumb_func
	.fpu fpv4-sp-d16
	.type	sd_power_ram_power_set, %function
sd_power_ram_power_set:
.LFB165:
	.loc 4 499 126
	@ Naked Function: prologue and epilogue provided by programmer.
	@ args = 0, pretend = 0, frame = 0
	@ frame_needed = 0, uses_anonymous_args = 0
	.loc 4 499 128
	.syntax unified
@ 499 "../../../../../../components/softdevice/s132/headers/nrf_soc.h" 1
	svc #57
bx r14
@ 0 "" 2
	.loc 4 499 2
	.thumb
	.syntax unified
	nop
	mov	r0, r3
.LFE165:
	.size	sd_power_ram_power_set, .-sd_power_ram_power_set
	.section	.text.sd_power_ram_power_clr,"ax",%progbits
	.align	1
	.syntax unified
	.thumb
	.thumb_func
	.fpu fpv4-sp-d16
	.type	sd_power_ram_power_clr, %function
sd_power_ram_power_clr:
.LFB166:
	.loc 4 508 126
	@ Naked Function: prologue and epilogue provided by programmer.
	@ args = 0, pretend = 0, frame = 0
	@ frame_needed = 0, uses_anonymous_args = 0
	.loc 4 508 128
	.syntax unified
@ 508 "../../../../../../components/softdevice/s132/headers/nrf_soc.h" 1
	svc #58
bx r14
@ 0 "" 2
	.loc 4 508 2
	.thumb
	.syntax unified
	nop
	mov	r0, r3
.LFE166:
	.size	sd_power_ram_power_clr, .-sd_power_ram_power_clr
	.section	.text.sd_power_ram_power_get,"ax",%progbits
	.align	1
	.syntax unified
	.thumb
	.thumb_func
	.fpu fpv4-sp-d16
	.type	sd_power_ram_power_get, %function
sd_power_ram_power_get:
.LFB167:
	.loc 4 517 127
	@ Naked Function: prologue and epilogue provided by programmer.
	@ args = 0, pretend = 0, frame = 0
	@ frame_needed = 0, uses_anonymous_args = 0
	.loc 4 517 129
	.syntax unified
@ 517 "../../../../../../components/softdevice/s132/headers/nrf_soc.h" 1
	svc #59
bx r14
@ 0 "" 2
	.loc 4 517 2
	.thumb
	.syntax unified
	nop
	mov	r0, r3
.LFE167:
	.size	sd_power_ram_power_get, .-sd_power_ram_power_get
	.section	.text.sd_power_gpregret_set,"ax",%progbits
	.align	1
	.syntax unified
	.thumb
	.thumb_func
	.fpu fpv4-sp-d16
	.type	sd_power_gpregret_set, %function
sd_power_gpregret_set:
.LFB168:
	.loc 4 526 132
	@ Naked Function: prologue and epilogue provided by programmer.
	@ args = 0, pretend = 0, frame = 0
	@ frame_needed = 0, uses_anonymous_args = 0
	.loc 4 526 134
	.syntax unified
@ 526 "../../../../../../components/softdevice/s132/headers/nrf_soc.h" 1
	svc #60
bx r14
@ 0 "" 2
	.loc 4 526 2
	.thumb
	.syntax unified
	nop
	mov	r0, r3
.LFE168:
	.size	sd_power_gpregret_set, .-sd_power_gpregret_set
	.section	.text.sd_power_gpregret_clr,"ax",%progbits
	.align	1
	.syntax unified
	.thumb
	.thumb_func
	.fpu fpv4-sp-d16
	.type	sd_power_gpregret_clr, %function
sd_power_gpregret_clr:
.LFB169:
	.loc 4 535 132
	@ Naked Function: prologue and epilogue provided by programmer.
	@ args = 0, pretend = 0, frame = 0
	@ frame_needed = 0, uses_anonymous_args = 0
	.loc 4 535 134
	.syntax unified
@ 535 "../../../../../../components/softdevice/s132/headers/nrf_soc.h" 1
	svc #61
bx r14
@ 0 "" 2
	.loc 4 535 2
	.thumb
	.syntax unified
	nop
	mov	r0, r3
.LFE169:
	.size	sd_power_gpregret_clr, .-sd_power_gpregret_clr
	.section	.text.sd_power_gpregret_get,"ax",%progbits
	.align	1
	.syntax unified
	.thumb
	.thumb_func
	.fpu fpv4-sp-d16
	.type	sd_power_gpregret_get, %function
sd_power_gpregret_get:
.LFB170:
	.loc 4 544 131
	@ Naked Function: prologue and epilogue provided by programmer.
	@ args = 0, pretend = 0, frame = 0
	@ frame_needed = 0, uses_anonymous_args = 0
	.loc 4 544 133
	.syntax unified
@ 544 "../../../../../../components/softdevice/s132/headers/nrf_soc.h" 1
	svc #62
bx r14
@ 0 "" 2
	.loc 4 544 2
	.thumb
	.syntax unified
	nop
	mov	r0, r3
.LFE170:
	.size	sd_power_gpregret_get, .-sd_power_gpregret_get
	.section	.text.sd_power_dcdc_mode_set,"ax",%progbits
	.align	1
	.syntax unified
	.thumb
	.thumb_func
	.fpu fpv4-sp-d16
	.type	sd_power_dcdc_mode_set, %function
sd_power_dcdc_mode_set:
.LFB171:
	.loc 4 553 107
	@ Naked Function: prologue and epilogue provided by programmer.
	@ args = 0, pretend = 0, frame = 0
	@ frame_needed = 0, uses_anonymous_args = 0
	.loc 4 553 109
	.syntax unified
@ 553 "../../../../../../components/softdevice/s132/headers/nrf_soc.h" 1
	svc #63
bx r14
@ 0 "" 2
	.loc 4 553 2
	.thumb
	.syntax unified
	nop
	mov	r0, r3
.LFE171:
	.size	sd_power_dcdc_mode_set, .-sd_power_dcdc_mode_set
	.section	.text.sd_clock_hfclk_request,"ax",%progbits
	.align	1
	.syntax unified
	.thumb
	.thumb_func
	.fpu fpv4-sp-d16
	.type	sd_clock_hfclk_request, %function
sd_clock_hfclk_request:
.LFB172:
	.loc 4 566 94
	@ Naked Function: prologue and epilogue provided by programmer.
	@ args = 0, pretend = 0, frame = 0
	@ frame_needed = 0, uses_anonymous_args = 0
	.loc 4 566 96
	.syntax unified
@ 566 "../../../../../../components/softdevice/s132/headers/nrf_soc.h" 1
	svc #66
bx r14
@ 0 "" 2
	.loc 4 566 2
	.thumb
	.syntax unified
	nop
	mov	r0, r3
.LFE172:
	.size	sd_clock_hfclk_request, .-sd_clock_hfclk_request
	.section	.text.sd_clock_hfclk_release,"ax",%progbits
	.align	1
	.syntax unified
	.thumb
	.thumb_func
	.fpu fpv4-sp-d16
	.type	sd_clock_hfclk_release, %function
sd_clock_hfclk_release:
.LFB173:
	.loc 4 577 94
	@ Naked Function: prologue and epilogue provided by programmer.
	@ args = 0, pretend = 0, frame = 0
	@ frame_needed = 0, uses_anonymous_args = 0
	.loc 4 577 96
	.syntax unified
@ 577 "../../../../../../components/softdevice/s132/headers/nrf_soc.h" 1
	svc #67
bx r14
@ 0 "" 2
	.loc 4 577 2
	.thumb
	.syntax unified
	nop
	mov	r0, r3
.LFE173:
	.size	sd_clock_hfclk_release, .-sd_clock_hfclk_release
	.section	.text.sd_clock_hfclk_is_running,"ax",%progbits
	.align	1
	.syntax unified
	.thumb
	.thumb_func
	.fpu fpv4-sp-d16
	.type	sd_clock_hfclk_is_running, %function
sd_clock_hfclk_is_running:
.LFB174:
	.loc 4 588 116
	@ Naked Function: prologue and epilogue provided by programmer.
	@ args = 0, pretend = 0, frame = 0
	@ frame_needed = 0, uses_anonymous_args = 0
	.loc 4 588 118
	.syntax unified
@ 588 "../../../../../../components/softdevice/s132/headers/nrf_soc.h" 1
	svc #68
bx r14
@ 0 "" 2
	.loc 4 588 2
	.thumb
	.syntax unified
	nop
	mov	r0, r3
.LFE174:
	.size	sd_clock_hfclk_is_running, .-sd_clock_hfclk_is_running
	.section	.text.sd_app_evt_wait,"ax",%progbits
	.align	1
	.syntax unified
	.thumb
	.thumb_func
	.fpu fpv4-sp-d16
	.type	sd_app_evt_wait, %function
sd_app_evt_wait:
.LFB175:
	.loc 4 616 87
	@ Naked Function: prologue and epilogue provided by programmer.
	@ args = 0, pretend = 0, frame = 0
	@ frame_needed = 0, uses_anonymous_args = 0
	.loc 4 616 89
	.syntax unified
@ 616 "../../../../../../components/softdevice/s132/headers/nrf_soc.h" 1
	svc #65
bx r14
@ 0 "" 2
	.loc 4 616 2
	.thumb
	.syntax unified
	nop
	mov	r0, r3
.LFE175:
	.size	sd_app_evt_wait, .-sd_app_evt_wait
	.section	.text.sd_ppi_channel_enable_get,"ax",%progbits
	.align	1
	.syntax unified
	.thumb
	.thumb_func
	.fpu fpv4-sp-d16
	.type	sd_ppi_channel_enable_get, %function
sd_ppi_channel_enable_get:
.LFB176:
	.loc 4 624 120
	@ Naked Function: prologue and epilogue provided by programmer.
	@ args = 0, pretend = 0, frame = 0
	@ frame_needed = 0, uses_anonymous_args = 0
	.loc 4 624 122
	.syntax unified
@ 624 "../../../../../../components/softdevice/s132/headers/nrf_soc.h" 1
	svc #32
bx r14
@ 0 "" 2
	.loc 4 624 2
	.thumb
	.syntax unified
	nop
	mov	r0, r3
.LFE176:
	.size	sd_ppi_channel_enable_get, .-sd_ppi_channel_enable_get
	.section	.text.sd_ppi_channel_enable_set,"ax",%progbits
	.align	1
	.syntax unified
	.thumb
	.thumb_func
	.fpu fpv4-sp-d16
	.type	sd_ppi_channel_enable_set, %function
sd_ppi_channel_enable_set:
.LFB177:
	.loc 4 632 124
	@ Naked Function: prologue and epilogue provided by programmer.
	@ args = 0, pretend = 0, frame = 0
	@ frame_needed = 0, uses_anonymous_args = 0
	.loc 4 632 126
	.syntax unified
@ 632 "../../../../../../components/softdevice/s132/headers/nrf_soc.h" 1
	svc #33
bx r14
@ 0 "" 2
	.loc 4 632 2
	.thumb
	.syntax unified
	nop
	mov	r0, r3
.LFE177:
	.size	sd_ppi_channel_enable_set, .-sd_ppi_channel_enable_set
	.section	.text.sd_ppi_channel_enable_clr,"ax",%progbits
	.align	1
	.syntax unified
	.thumb
	.thumb_func
	.fpu fpv4-sp-d16
	.type	sd_ppi_channel_enable_clr, %function
sd_ppi_channel_enable_clr:
.LFB178:
	.loc 4 640 124
	@ Naked Function: prologue and epilogue provided by programmer.
	@ args = 0, pretend = 0, frame = 0
	@ frame_needed = 0, uses_anonymous_args = 0
	.loc 4 640 126
	.syntax unified
@ 640 "../../../../../../components/softdevice/s132/headers/nrf_soc.h" 1
	svc #34
bx r14
@ 0 "" 2
	.loc 4 640 2
	.thumb
	.syntax unified
	nop
	mov	r0, r3
.LFE178:
	.size	sd_ppi_channel_enable_clr, .-sd_ppi_channel_enable_clr
	.section	.text.sd_ppi_channel_assign,"ax",%progbits
	.align	1
	.syntax unified
	.thumb
	.thumb_func
	.fpu fpv4-sp-d16
	.type	sd_ppi_channel_assign, %function
sd_ppi_channel_assign:
.LFB179:
	.loc 4 651 181
	@ Naked Function: prologue and epilogue provided by programmer.
	@ args = 0, pretend = 0, frame = 0
	@ frame_needed = 0, uses_anonymous_args = 0
	.loc 4 651 183
	.syntax unified
@ 651 "../../../../../../components/softdevice/s132/headers/nrf_soc.h" 1
	svc #35
bx r14
@ 0 "" 2
	.loc 4 651 2
	.thumb
	.syntax unified
	nop
	mov	r0, r3
.LFE179:
	.size	sd_ppi_channel_assign, .-sd_ppi_channel_assign
	.section	.text.sd_ppi_group_task_enable,"ax",%progbits
	.align	1
	.syntax unified
	.thumb
	.thumb_func
	.fpu fpv4-sp-d16
	.type	sd_ppi_group_task_enable, %function
sd_ppi_group_task_enable:
.LFB180:
	.loc 4 660 109
	@ Naked Function: prologue and epilogue provided by programmer.
	@ args = 0, pretend = 0, frame = 0
	@ frame_needed = 0, uses_anonymous_args = 0
	.loc 4 660 111
	.syntax unified
@ 660 "../../../../../../components/softdevice/s132/headers/nrf_soc.h" 1
	svc #36
bx r14
@ 0 "" 2
	.loc 4 660 2
	.thumb
	.syntax unified
	nop
	mov	r0, r3
.LFE180:
	.size	sd_ppi_group_task_enable, .-sd_ppi_group_task_enable
	.section	.text.sd_ppi_group_task_disable,"ax",%progbits
	.align	1
	.syntax unified
	.thumb
	.thumb_func
	.fpu fpv4-sp-d16
	.type	sd_ppi_group_task_disable, %function
sd_ppi_group_task_disable:
.LFB181:
	.loc 4 669 110
	@ Naked Function: prologue and epilogue provided by programmer.
	@ args = 0, pretend = 0, frame = 0
	@ frame_needed = 0, uses_anonymous_args = 0
	.loc 4 669 112
	.syntax unified
@ 669 "../../../../../../components/softdevice/s132/headers/nrf_soc.h" 1
	svc #37
bx r14
@ 0 "" 2
	.loc 4 669 2
	.thumb
	.syntax unified
	nop
	mov	r0, r3
.LFE181:
	.size	sd_ppi_group_task_disable, .-sd_ppi_group_task_disable
	.section	.text.sd_ppi_group_assign,"ax",%progbits
	.align	1
	.syntax unified
	.thumb
	.thumb_func
	.fpu fpv4-sp-d16
	.type	sd_ppi_group_assign, %function
sd_ppi_group_assign:
.LFB182:
	.loc 4 679 126
	@ Naked Function: prologue and epilogue provided by programmer.
	@ args = 0, pretend = 0, frame = 0
	@ frame_needed = 0, uses_anonymous_args = 0
	.loc 4 679 128
	.syntax unified
@ 679 "../../../../../../components/softdevice/s132/headers/nrf_soc.h" 1
	svc #38
bx r14
@ 0 "" 2
	.loc 4 679 2
	.thumb
	.syntax unified
	nop
	mov	r0, r3
.LFE182:
	.size	sd_ppi_group_assign, .-sd_ppi_group_assign
	.section	.text.sd_ppi_group_get,"ax",%progbits
	.align	1
	.syntax unified
	.thumb
	.thumb_func
	.fpu fpv4-sp-d16
	.type	sd_ppi_group_get, %function
sd_ppi_group_get:
.LFB183:
	.loc 4 689 127
	@ Naked Function: prologue and epilogue provided by programmer.
	@ args = 0, pretend = 0, frame = 0
	@ frame_needed = 0, uses_anonymous_args = 0
	.loc 4 689 129
	.syntax unified
@ 689 "../../../../../../components/softdevice/s132/headers/nrf_soc.h" 1
	svc #39
bx r14
@ 0 "" 2
	.loc 4 689 2
	.thumb
	.syntax unified
	nop
	mov	r0, r3
.LFE183:
	.size	sd_ppi_group_get, .-sd_ppi_group_get
	.section	.text.sd_radio_notification_cfg_set,"ax",%progbits
	.align	1
	.syntax unified
	.thumb
	.thumb_func
	.fpu fpv4-sp-d16
	.type	sd_radio_notification_cfg_set, %function
sd_radio_notification_cfg_set:
.LFB184:
	.loc 4 720 127
	@ Naked Function: prologue and epilogue provided by programmer.
	@ args = 0, pretend = 0, frame = 0
	@ frame_needed = 0, uses_anonymous_args = 0
	.loc 4 720 129
	.syntax unified
@ 720 "../../../../../../components/softdevice/s132/headers/nrf_soc.h" 1
	svc #69
bx r14
@ 0 "" 2
	.loc 4 720 2
	.thumb
	.syntax unified
	nop
	mov	r0, r3
.LFE184:
	.size	sd_radio_notification_cfg_set, .-sd_radio_notification_cfg_set
	.section	.text.sd_ecb_block_encrypt,"ax",%progbits
	.align	1
	.syntax unified
	.thumb
	.thumb_func
	.fpu fpv4-sp-d16
	.type	sd_ecb_block_encrypt, %function
sd_ecb_block_encrypt:
.LFB185:
	.loc 4 736 119
	@ Naked Function: prologue and epilogue provided by programmer.
	@ args = 0, pretend = 0, frame = 0
	@ frame_needed = 0, uses_anonymous_args = 0
	.loc 4 736 121
	.syntax unified
@ 736 "../../../../../../components/softdevice/s132/headers/nrf_soc.h" 1
	svc #70
bx r14
@ 0 "" 2
	.loc 4 736 2
	.thumb
	.syntax unified
	nop
	mov	r0, r3
.LFE185:
	.size	sd_ecb_block_encrypt, .-sd_ecb_block_encrypt
	.section	.text.sd_ecb_blocks_encrypt,"ax",%progbits
	.align	1
	.syntax unified
	.thumb
	.thumb_func
	.fpu fpv4-sp-d16
	.type	sd_ecb_blocks_encrypt, %function
sd_ecb_blocks_encrypt:
.LFB186:
	.loc 4 753 150
	@ Naked Function: prologue and epilogue provided by programmer.
	@ args = 0, pretend = 0, frame = 0
	@ frame_needed = 0, uses_anonymous_args = 0
	.loc 4 753 152
	.syntax unified
@ 753 "../../../../../../components/softdevice/s132/headers/nrf_soc.h" 1
	svc #71
bx r14
@ 0 "" 2
	.loc 4 753 2
	.thumb
	.syntax unified
	nop
	mov	r0, r3
.LFE186:
	.size	sd_ecb_blocks_encrypt, .-sd_ecb_blocks_encrypt
	.section	.text.sd_evt_get,"ax",%progbits
	.align	1
	.syntax unified
	.thumb
	.thumb_func
	.fpu fpv4-sp-d16
	.type	sd_evt_get, %function
sd_evt_get:
.LFB187:
	.loc 4 764 97
	@ Naked Function: prologue and epilogue provided by programmer.
	@ args = 0, pretend = 0, frame = 0
	@ frame_needed = 0, uses_anonymous_args = 0
	.loc 4 764 99
	.syntax unified
@ 764 "../../../../../../components/softdevice/s132/headers/nrf_soc.h" 1
	svc #75
bx r14
@ 0 "" 2
	.loc 4 764 2
	.thumb
	.syntax unified
	nop
	mov	r0, r3
.LFE187:
	.size	sd_evt_get, .-sd_evt_get
	.section	.text.sd_temp_get,"ax",%progbits
	.align	1
	.syntax unified
	.thumb
	.thumb_func
	.fpu fpv4-sp-d16
	.type	sd_temp_get, %function
sd_temp_get:
.LFB188:
	.loc 4 775 95
	@ Naked Function: prologue and epilogue provided by programmer.
	@ args = 0, pretend = 0, frame = 0
	@ frame_needed = 0, uses_anonymous_args = 0
	.loc 4 775 97
	.syntax unified
@ 775 "../../../../../../components/softdevice/s132/headers/nrf_soc.h" 1
	svc #76
bx r14
@ 0 "" 2
	.loc 4 775 2
	.thumb
	.syntax unified
	nop
	mov	r0, r3
.LFE188:
	.size	sd_temp_get, .-sd_temp_get
	.section	.text.sd_flash_write,"ax",%progbits
	.align	1
	.syntax unified
	.thumb
	.thumb_func
	.fpu fpv4-sp-d16
	.type	sd_flash_write, %function
sd_flash_write:
.LFB189:
	.loc 4 812 137
	@ Naked Function: prologue and epilogue provided by programmer.
	@ args = 0, pretend = 0, frame = 0
	@ frame_needed = 0, uses_anonymous_args = 0
	.loc 4 812 139
	.syntax unified
@ 812 "../../../../../../components/softdevice/s132/headers/nrf_soc.h" 1
	svc #41
bx r14
@ 0 "" 2
	.loc 4 812 2
	.thumb
	.syntax unified
	nop
	mov	r0, r3
.LFE189:
	.size	sd_flash_write, .-sd_flash_write
	.section	.text.sd_flash_page_erase,"ax",%progbits
	.align	1
	.syntax unified
	.thumb
	.thumb_func
	.fpu fpv4-sp-d16
	.type	sd_flash_page_erase, %function
sd_flash_page_erase:
.LFB190:
	.loc 4 844 107
	@ Naked Function: prologue and epilogue provided by programmer.
	@ args = 0, pretend = 0, frame = 0
	@ frame_needed = 0, uses_anonymous_args = 0
	.loc 4 844 109
	.syntax unified
@ 844 "../../../../../../components/softdevice/s132/headers/nrf_soc.h" 1
	svc #40
bx r14
@ 0 "" 2
	.loc 4 844 2
	.thumb
	.syntax unified
	nop
	mov	r0, r3
.LFE190:
	.size	sd_flash_page_erase, .-sd_flash_page_erase
	.section	.text.sd_flash_protect,"ax",%progbits
	.align	1
	.syntax unified
	.thumb
	.thumb_func
	.fpu fpv4-sp-d16
	.type	sd_flash_protect, %function
sd_flash_protect:
.LFB191:
	.loc 4 867 166
	@ Naked Function: prologue and epilogue provided by programmer.
	@ args = 0, pretend = 0, frame = 0
	@ frame_needed = 0, uses_anonymous_args = 0
	.loc 4 867 168
	.syntax unified
@ 867 "../../../../../../components/softdevice/s132/headers/nrf_soc.h" 1
	svc #42
bx r14
@ 0 "" 2
	.loc 4 867 2
	.thumb
	.syntax unified
	nop
	mov	r0, r3
.LFE191:
	.size	sd_flash_protect, .-sd_flash_protect
	.section	.text.sd_radio_session_open,"ax",%progbits
	.align	1
	.syntax unified
	.thumb
	.thumb_func
	.fpu fpv4-sp-d16
	.type	sd_radio_session_open, %function
sd_radio_session_open:
.LFB192:
	.loc 4 889 140
	@ Naked Function: prologue and epilogue provided by programmer.
	@ args = 0, pretend = 0, frame = 0
	@ frame_needed = 0, uses_anonymous_args = 0
	.loc 4 889 142
	.syntax unified
@ 889 "../../../../../../components/softdevice/s132/headers/nrf_soc.h" 1
	svc #72
bx r14
@ 0 "" 2
	.loc 4 889 2
	.thumb
	.syntax unified
	nop
	mov	r0, r3
.LFE192:
	.size	sd_radio_session_open, .-sd_radio_session_open
	.section	.text.sd_radio_session_close,"ax",%progbits
	.align	1
	.syntax unified
	.thumb
	.thumb_func
	.fpu fpv4-sp-d16
	.type	sd_radio_session_close, %function
sd_radio_session_close:
.LFB193:
	.loc 4 902 94
	@ Naked Function: prologue and epilogue provided by programmer.
	@ args = 0, pretend = 0, frame = 0
	@ frame_needed = 0, uses_anonymous_args = 0
	.loc 4 902 96
	.syntax unified
@ 902 "../../../../../../components/softdevice/s132/headers/nrf_soc.h" 1
	svc #73
bx r14
@ 0 "" 2
	.loc 4 902 2
	.thumb
	.syntax unified
	nop
	mov	r0, r3
.LFE193:
	.size	sd_radio_session_close, .-sd_radio_session_close
	.section	.text.sd_radio_request,"ax",%progbits
	.align	1
	.syntax unified
	.thumb
	.thumb_func
	.fpu fpv4-sp-d16
	.type	sd_radio_request, %function
sd_radio_request:
.LFB194:
	.loc 4 934 121
	@ Naked Function: prologue and epilogue provided by programmer.
	@ args = 0, pretend = 0, frame = 0
	@ frame_needed = 0, uses_anonymous_args = 0
	.loc 4 934 123
	.syntax unified
@ 934 "../../../../../../components/softdevice/s132/headers/nrf_soc.h" 1
	svc #74
bx r14
@ 0 "" 2
	.loc 4 934 2
	.thumb
	.syntax unified
	nop
	mov	r0, r3
.LFE194:
	.size	sd_radio_request, .-sd_radio_request
	.section	.text.sd_protected_register_write,"ax",%progbits
	.align	1
	.syntax unified
	.thumb
	.thumb_func
	.fpu fpv4-sp-d16
	.type	sd_protected_register_write, %function
sd_protected_register_write:
.LFB195:
	.loc 4 955 141
	@ Naked Function: prologue and epilogue provided by programmer.
	@ args = 0, pretend = 0, frame = 0
	@ frame_needed = 0, uses_anonymous_args = 0
	.loc 4 955 143
	.syntax unified
@ 955 "../../../../../../components/softdevice/s132/headers/nrf_soc.h" 1
	svc #43
bx r14
@ 0 "" 2
	.loc 4 955 2
	.thumb
	.syntax unified
	nop
	mov	r0, r3
.LFE195:
	.size	sd_protected_register_write, .-sd_protected_register_write
	.section	.text.nrf_twi_task_trigger,"ax",%progbits
	.align	1
	.syntax unified
	.thumb
	.thumb_func
	.fpu fpv4-sp-d16
	.type	nrf_twi_task_trigger, %function
nrf_twi_task_trigger:
.LFB211:
	.file 5 "../../../../../../modules/nrfx/hal/nrf_twi.h"
	.loc 5 317 1
	@ args = 0, pretend = 0, frame = 8
	@ frame_needed = 0, uses_anonymous_args = 0
	@ link register save eliminated.
	sub	sp, sp, #8
.LCFI19:
	str	r0, [sp, #4]
	mov	r3, r1
	strb	r3, [sp, #3]
	.loc 5 318 48
	ldrb	r3, [sp, #3]	@ zero_extendqisi2
	.loc 5 318 7
	ldr	r2, [sp, #4]
	add	r3, r3, r2
	.loc 5 318 65
	movs	r2, #1
	str	r2, [r3]
	.loc 5 319 1
	nop
	add	sp, sp, #8
.LCFI20:
	@ sp needed
	bx	lr
.LFE211:
	.size	nrf_twi_task_trigger, .-nrf_twi_task_trigger
	.section	.text.nrf_twi_event_clear,"ax",%progbits
	.align	1
	.syntax unified
	.thumb
	.thumb_func
	.fpu fpv4-sp-d16
	.type	nrf_twi_event_clear, %function
nrf_twi_event_clear:
.LFB213:
	.loc 5 329 1
	@ args = 0, pretend = 0, frame = 16
	@ frame_needed = 0, uses_anonymous_args = 0
	@ link register save eliminated.
	sub	sp, sp, #16
.LCFI21:
	str	r0, [sp, #4]
	mov	r3, r1
	strh	r3, [sp, #2]	@ movhi
	.loc 5 330 48
	ldrh	r3, [sp, #2]
	.loc 5 330 7
	ldr	r2, [sp, #4]
	add	r3, r3, r2
	.loc 5 330 66
	movs	r2, #0
	str	r2, [r3]
	.loc 5 332 74
	ldrh	r3, [sp, #2]
	.loc 5 332 33
	ldr	r2, [sp, #4]
	add	r3, r3, r2
	.loc 5 332 31
	ldr	r3, [r3]
	.loc 5 332 23
	str	r3, [sp, #12]
	.loc 5 333 5
	ldr	r3, [sp, #12]
	.loc 5 335 1
	nop
	add	sp, sp, #16
.LCFI22:
	@ sp needed
	bx	lr
.LFE213:
	.size	nrf_twi_event_clear, .-nrf_twi_event_clear
	.section	.text.nrf_twi_event_check,"ax",%progbits
	.align	1
	.syntax unified
	.thumb
	.thumb_func
	.fpu fpv4-sp-d16
	.type	nrf_twi_event_check, %function
nrf_twi_event_check:
.LFB214:
	.loc 5 339 1
	@ args = 0, pretend = 0, frame = 8
	@ frame_needed = 0, uses_anonymous_args = 0
	@ link register save eliminated.
	sub	sp, sp, #8
.LCFI23:
	str	r0, [sp, #4]
	mov	r3, r1
	strh	r3, [sp, #2]	@ movhi
	.loc 5 340 59
	ldrh	r3, [sp, #2]
	.loc 5 340 18
	ldr	r2, [sp, #4]
	add	r3, r3, r2
	.loc 5 340 17
	ldr	r3, [r3]
	.loc 5 340 12
	cmp	r3, #0
	ite	ne
	movne	r3, #1
	moveq	r3, #0
	uxtb	r3, r3
	.loc 5 341 1
	mov	r0, r3
	add	sp, sp, #8
.LCFI24:
	@ sp needed
	bx	lr
.LFE214:
	.size	nrf_twi_event_check, .-nrf_twi_event_check
	.section	.text.nrf_twi_event_address_get,"ax",%progbits
	.align	1
	.syntax unified
	.thumb
	.thumb_func
	.fpu fpv4-sp-d16
	.type	nrf_twi_event_address_get, %function
nrf_twi_event_address_get:
.LFB215:
	.loc 5 345 1
	@ args = 0, pretend = 0, frame = 8
	@ frame_needed = 0, uses_anonymous_args = 0
	@ link register save eliminated.
	sub	sp, sp, #8
.LCFI25:
	str	r0, [sp, #4]
	mov	r3, r1
	strh	r3, [sp, #2]	@ movhi
	.loc 5 346 44
	ldrh	r3, [sp, #2]
	.loc 5 346 12
	ldr	r2, [sp, #4]
	add	r3, r3, r2
	.loc 5 347 1
	mov	r0, r3
	add	sp, sp, #8
.LCFI26:
	@ sp needed
	bx	lr
.LFE215:
	.size	nrf_twi_event_address_get, .-nrf_twi_event_address_get
	.section	.text.nrf_twi_shorts_disable,"ax",%progbits
	.align	1
	.syntax unified
	.thumb
	.thumb_func
	.fpu fpv4-sp-d16
	.type	nrf_twi_shorts_disable, %function
nrf_twi_shorts_disable:
.LFB217:
	.loc 5 357 1
	@ args = 0, pretend = 0, frame = 8
	@ frame_needed = 0, uses_anonymous_args = 0
	@ link register save eliminated.
	sub	sp, sp, #8
.LCFI27:
	str	r0, [sp, #4]
	str	r1, [sp]
	.loc 5 358 19
	ldr	r3, [sp, #4]
	ldr	r2, [r3, #512]
	.loc 5 358 22
	ldr	r3, [sp]
	mvns	r3, r3
	.loc 5 358 19
	ands	r2, r2, r3
	ldr	r3, [sp, #4]
	str	r2, [r3, #512]
	.loc 5 359 1
	nop
	add	sp, sp, #8
.LCFI28:
	@ sp needed
	bx	lr
.LFE217:
	.size	nrf_twi_shorts_disable, .-nrf_twi_shorts_disable
	.section	.text.nrf_twi_int_enable,"ax",%progbits
	.align	1
	.syntax unified
	.thumb
	.thumb_func
	.fpu fpv4-sp-d16
	.type	nrf_twi_int_enable, %function
nrf_twi_int_enable:
.LFB218:
	.loc 5 363 1
	@ args = 0, pretend = 0, frame = 8
	@ frame_needed = 0, uses_anonymous_args = 0
	@ link register save eliminated.
	sub	sp, sp, #8
.LCFI29:
	str	r0, [sp, #4]
	str	r1, [sp]
	.loc 5 364 21
	ldr	r3, [sp, #4]
	ldr	r2, [sp]
	str	r2, [r3, #772]
	.loc 5 365 1
	nop
	add	sp, sp, #8
.LCFI30:
	@ sp needed
	bx	lr
.LFE218:
	.size	nrf_twi_int_enable, .-nrf_twi_int_enable
	.section	.text.nrf_twi_int_disable,"ax",%progbits
	.align	1
	.syntax unified
	.thumb
	.thumb_func
	.fpu fpv4-sp-d16
	.type	nrf_twi_int_disable, %function
nrf_twi_int_disable:
.LFB219:
	.loc 5 369 1
	@ args = 0, pretend = 0, frame = 8
	@ frame_needed = 0, uses_anonymous_args = 0
	@ link register save eliminated.
	sub	sp, sp, #8
.LCFI31:
	str	r0, [sp, #4]
	str	r1, [sp]
	.loc 5 370 21
	ldr	r3, [sp, #4]
	ldr	r2, [sp]
	str	r2, [r3, #776]
	.loc 5 371 1
	nop
	add	sp, sp, #8
.LCFI32:
	@ sp needed
	bx	lr
.LFE219:
	.size	nrf_twi_int_disable, .-nrf_twi_int_disable
	.section	.text.nrf_twi_enable,"ax",%progbits
	.align	1
	.syntax unified
	.thumb
	.thumb_func
	.fpu fpv4-sp-d16
	.type	nrf_twi_enable, %function
nrf_twi_enable:
.LFB221:
	.loc 5 380 1
	@ args = 0, pretend = 0, frame = 8
	@ frame_needed = 0, uses_anonymous_args = 0
	@ link register save eliminated.
	sub	sp, sp, #8
.LCFI33:
	str	r0, [sp, #4]
	.loc 5 381 19
	ldr	r3, [sp, #4]
	movs	r2, #5
	str	r2, [r3, #1280]
	.loc 5 382 1
	nop
	add	sp, sp, #8
.LCFI34:
	@ sp needed
	bx	lr
.LFE221:
	.size	nrf_twi_enable, .-nrf_twi_enable
	.section	.text.nrf_twi_disable,"ax",%progbits
	.align	1
	.syntax unified
	.thumb
	.thumb_func
	.fpu fpv4-sp-d16
	.type	nrf_twi_disable, %function
nrf_twi_disable:
.LFB222:
	.loc 5 385 1
	@ args = 0, pretend = 0, frame = 8
	@ frame_needed = 0, uses_anonymous_args = 0
	@ link register save eliminated.
	sub	sp, sp, #8
.LCFI35:
	str	r0, [sp, #4]
	.loc 5 386 19
	ldr	r3, [sp, #4]
	movs	r2, #0
	str	r2, [r3, #1280]
	.loc 5 387 1
	nop
	add	sp, sp, #8
.LCFI36:
	@ sp needed
	bx	lr
.LFE222:
	.size	nrf_twi_disable, .-nrf_twi_disable
	.section	.text.nrf_twi_pins_set,"ax",%progbits
	.align	1
	.syntax unified
	.thumb
	.thumb_func
	.fpu fpv4-sp-d16
	.type	nrf_twi_pins_set, %function
nrf_twi_pins_set:
.LFB223:
	.loc 5 392 1
	@ args = 0, pretend = 0, frame = 16
	@ frame_needed = 0, uses_anonymous_args = 0
	@ link register save eliminated.
	sub	sp, sp, #16
.LCFI37:
	str	r0, [sp, #12]
	str	r1, [sp, #8]
	str	r2, [sp, #4]
	.loc 5 396 20
	ldr	r3, [sp, #12]
	ldr	r2, [sp, #8]
	str	r2, [r3, #1288]
	.loc 5 402 20
	ldr	r3, [sp, #12]
	ldr	r2, [sp, #4]
	str	r2, [r3, #1292]
	.loc 5 404 1
	nop
	add	sp, sp, #16
.LCFI38:
	@ sp needed
	bx	lr
.LFE223:
	.size	nrf_twi_pins_set, .-nrf_twi_pins_set
	.section	.text.nrf_twi_frequency_set,"ax",%progbits
	.align	1
	.syntax unified
	.thumb
	.thumb_func
	.fpu fpv4-sp-d16
	.type	nrf_twi_frequency_set, %function
nrf_twi_frequency_set:
.LFB224:
	.loc 5 408 1
	@ args = 0, pretend = 0, frame = 8
	@ frame_needed = 0, uses_anonymous_args = 0
	@ link register save eliminated.
	sub	sp, sp, #8
.LCFI39:
	str	r0, [sp, #4]
	str	r1, [sp]
	.loc 5 409 22
	ldr	r3, [sp, #4]
	ldr	r2, [sp]
	str	r2, [r3, #1316]
	.loc 5 410 1
	nop
	add	sp, sp, #8
.LCFI40:
	@ sp needed
	bx	lr
.LFE224:
	.size	nrf_twi_frequency_set, .-nrf_twi_frequency_set
	.section	.text.nrf_twi_errorsrc_get_and_clear,"ax",%progbits
	.align	1
	.syntax unified
	.thumb
	.thumb_func
	.fpu fpv4-sp-d16
	.type	nrf_twi_errorsrc_get_and_clear, %function
nrf_twi_errorsrc_get_and_clear:
.LFB225:
	.loc 5 413 1
	@ args = 0, pretend = 0, frame = 16
	@ frame_needed = 0, uses_anonymous_args = 0
	@ link register save eliminated.
	sub	sp, sp, #16
.LCFI41:
	str	r0, [sp, #4]
	.loc 5 414 14
	ldr	r3, [sp, #4]
	ldr	r3, [r3, #1220]
	str	r3, [sp, #12]
	.loc 5 417 21
	ldr	r3, [sp, #4]
	ldr	r2, [sp, #12]
	str	r2, [r3, #1220]
	.loc 5 419 12
	ldr	r3, [sp, #12]
	.loc 5 420 1
	mov	r0, r3
	add	sp, sp, #16
.LCFI42:
	@ sp needed
	bx	lr
.LFE225:
	.size	nrf_twi_errorsrc_get_and_clear, .-nrf_twi_errorsrc_get_and_clear
	.section	.text.nrf_twi_address_set,"ax",%progbits
	.align	1
	.syntax unified
	.thumb
	.thumb_func
	.fpu fpv4-sp-d16
	.type	nrf_twi_address_set, %function
nrf_twi_address_set:
.LFB226:
	.loc 5 423 1
	@ args = 0, pretend = 0, frame = 8
	@ frame_needed = 0, uses_anonymous_args = 0
	@ link register save eliminated.
	sub	sp, sp, #8
.LCFI43:
	str	r0, [sp, #4]
	mov	r3, r1
	strb	r3, [sp, #3]
	.loc 5 424 20
	ldrb	r2, [sp, #3]	@ zero_extendqisi2
	ldr	r3, [sp, #4]
	str	r2, [r3, #1416]
	.loc 5 425 1
	nop
	add	sp, sp, #8
.LCFI44:
	@ sp needed
	bx	lr
.LFE226:
	.size	nrf_twi_address_set, .-nrf_twi_address_set
	.section	.text.nrf_twi_rxd_get,"ax",%progbits
	.align	1
	.syntax unified
	.thumb
	.thumb_func
	.fpu fpv4-sp-d16
	.type	nrf_twi_rxd_get, %function
nrf_twi_rxd_get:
.LFB227:
	.loc 5 428 1
	@ args = 0, pretend = 0, frame = 8
	@ frame_needed = 0, uses_anonymous_args = 0
	@ link register save eliminated.
	sub	sp, sp, #8
.LCFI45:
	str	r0, [sp, #4]
	.loc 5 429 26
	ldr	r3, [sp, #4]
	ldr	r3, [r3, #1304]
	.loc 5 429 12
	uxtb	r3, r3
	.loc 5 430 1
	mov	r0, r3
	add	sp, sp, #8
.LCFI46:
	@ sp needed
	bx	lr
.LFE227:
	.size	nrf_twi_rxd_get, .-nrf_twi_rxd_get
	.section	.text.nrf_twi_txd_set,"ax",%progbits
	.align	1
	.syntax unified
	.thumb
	.thumb_func
	.fpu fpv4-sp-d16
	.type	nrf_twi_txd_set, %function
nrf_twi_txd_set:
.LFB228:
	.loc 5 433 1
	@ args = 0, pretend = 0, frame = 8
	@ frame_needed = 0, uses_anonymous_args = 0
	@ link register save eliminated.
	sub	sp, sp, #8
.LCFI47:
	str	r0, [sp, #4]
	mov	r3, r1
	strb	r3, [sp, #3]
	.loc 5 434 16
	ldrb	r2, [sp, #3]	@ zero_extendqisi2
	ldr	r3, [sp, #4]
	str	r2, [r3, #1308]
	.loc 5 435 1
	nop
	add	sp, sp, #8
.LCFI48:
	@ sp needed
	bx	lr
.LFE228:
	.size	nrf_twi_txd_set, .-nrf_twi_txd_set
	.section	.text.nrf_twi_shorts_set,"ax",%progbits
	.align	1
	.syntax unified
	.thumb
	.thumb_func
	.fpu fpv4-sp-d16
	.type	nrf_twi_shorts_set, %function
nrf_twi_shorts_set:
.LFB229:
	.loc 5 439 1
	@ args = 0, pretend = 0, frame = 8
	@ frame_needed = 0, uses_anonymous_args = 0
	@ link register save eliminated.
	sub	sp, sp, #8
.LCFI49:
	str	r0, [sp, #4]
	str	r1, [sp]
	.loc 5 440 19
	ldr	r3, [sp, #4]
	ldr	r2, [sp]
	str	r2, [r3, #512]
	.loc 5 441 1
	nop
	add	sp, sp, #8
.LCFI50:
	@ sp needed
	bx	lr
.LFE229:
	.size	nrf_twi_shorts_set, .-nrf_twi_shorts_set
	.section	.text.nrf_gpio_pin_port_decode,"ax",%progbits
	.align	1
	.syntax unified
	.thumb
	.thumb_func
	.fpu fpv4-sp-d16
	.type	nrf_gpio_pin_port_decode, %function
nrf_gpio_pin_port_decode:
.LFB230:
	.file 6 "../../../../../../modules/nrfx/hal/nrf_gpio.h"
	.loc 6 454 1
	@ args = 0, pretend = 0, frame = 8
	@ frame_needed = 0, uses_anonymous_args = 0
	@ link register save eliminated.
	sub	sp, sp, #8
.LCFI51:
	str	r0, [sp, #4]
	.loc 6 458 12
	mov	r3, #1342177280
	.loc 6 470 1
	mov	r0, r3
	add	sp, sp, #8
.LCFI52:
	@ sp needed
	bx	lr
.LFE230:
	.size	nrf_gpio_pin_port_decode, .-nrf_gpio_pin_port_decode
	.section	.text.nrf_gpio_cfg,"ax",%progbits
	.align	1
	.syntax unified
	.thumb
	.thumb_func
	.fpu fpv4-sp-d16
	.type	nrf_gpio_cfg, %function
nrf_gpio_cfg:
.LFB233:
	.loc 6 502 1
	@ args = 8, pretend = 0, frame = 16
	@ frame_needed = 0, uses_anonymous_args = 0
	push	{lr}
.LCFI53:
	sub	sp, sp, #20
.LCFI54:
	str	r0, [sp, #4]
	mov	r0, r1
	mov	r1, r2
	mov	r2, r3
	mov	r3, r0
	strb	r3, [sp, #3]
	mov	r3, r1
	strb	r3, [sp, #2]
	mov	r3, r2
	strb	r3, [sp, #1]
	.loc 6 503 27
	add	r3, sp, #4
	mov	r0, r3
	bl	nrf_gpio_pin_port_decode
	str	r0, [sp, #12]
	.loc 6 505 47
	ldrb	r2, [sp, #3]	@ zero_extendqisi2
	.loc 6 506 35
	ldrb	r3, [sp, #2]	@ zero_extendqisi2
	.loc 6 506 51
	lsls	r3, r3, #1
	.loc 6 506 32
	orrs	r2, r2, r3
	.loc 6 507 35
	ldrb	r3, [sp, #1]	@ zero_extendqisi2
	.loc 6 507 50
	lsls	r3, r3, #2
	.loc 6 507 32
	orrs	r2, r2, r3
	.loc 6 508 35
	ldrb	r3, [sp, #24]	@ zero_extendqisi2
	.loc 6 508 51
	lsls	r3, r3, #8
	.loc 6 508 32
	orr	r1, r2, r3
	.loc 6 509 35
	ldrb	r3, [sp, #28]	@ zero_extendqisi2
	.loc 6 509 51
	lsls	r3, r3, #16
	.loc 6 505 17
	ldr	r2, [sp, #4]
	.loc 6 509 32
	orrs	r1, r1, r3
	.loc 6 505 30
	ldr	r3, [sp, #12]
	add	r2, r2, #448
	str	r1, [r3, r2, lsl #2]
	.loc 6 510 1
	nop
	add	sp, sp, #20
.LCFI55:
	@ sp needed
	ldr	pc, [sp], #4
.LFE233:
	.size	nrf_gpio_cfg, .-nrf_gpio_cfg
	.section	.text.nrf_gpio_cfg_default,"ax",%progbits
	.align	1
	.syntax unified
	.thumb
	.thumb_func
	.fpu fpv4-sp-d16
	.type	nrf_gpio_cfg_default, %function
nrf_gpio_cfg_default:
.LFB236:
	.loc 6 538 1
	@ args = 0, pretend = 0, frame = 8
	@ frame_needed = 0, uses_anonymous_args = 0
	push	{lr}
.LCFI56:
	sub	sp, sp, #20
.LCFI57:
	str	r0, [sp, #12]
	.loc 6 539 5
	movs	r3, #0
	str	r3, [sp, #4]
	movs	r3, #0
	str	r3, [sp]
	movs	r3, #0
	movs	r2, #1
	movs	r1, #0
	ldr	r0, [sp, #12]
	bl	nrf_gpio_cfg
	.loc 6 546 1
	nop
	add	sp, sp, #20
.LCFI58:
	@ sp needed
	ldr	pc, [sp], #4
.LFE236:
	.size	nrf_gpio_cfg_default, .-nrf_gpio_cfg_default
	.global	m_nrf_log_TWI_logs_data_const
	.section .rodata
	.align	2
.LC0:
	.ascii	"TWI\000"
	.section	.log_const_data_TWI,"a"
	.align	2
	.type	m_nrf_log_TWI_logs_data_const, %object
	.size	m_nrf_log_TWI_logs_data_const, 8
m_nrf_log_TWI_logs_data_const:
	.word	.LC0
	.byte	0
	.byte	0
	.byte	0
	.byte	0
	.global	m_nrf_log_TWI_logs_data_dynamic
	.section	.log_dynamic_data_TWI,"aw"
	.align	2
	.type	m_nrf_log_TWI_logs_data_dynamic, %object
	.size	m_nrf_log_TWI_logs_data_dynamic, 4
m_nrf_log_TWI_logs_data_dynamic:
	.space	4
	.section	.bss.m_cb,"aw",%nobits
	.align	2
	.type	m_cb, %object
	.size	m_cb, 48
m_cb:
	.space	48
	.section	.text.twi_process_error,"ax",%progbits
	.align	1
	.syntax unified
	.thumb
	.thumb_func
	.fpu fpv4-sp-d16
	.type	twi_process_error, %function
twi_process_error:
.LFB262:
	.file 7 "C:\\nRF5_SDK_15.0.0_a53641a\\modules\\nrfx\\drivers\\src\\nrfx_twi.c"
	.loc 7 109 1
	@ args = 0, pretend = 0, frame = 16
	@ frame_needed = 0, uses_anonymous_args = 0
	@ link register save eliminated.
	sub	sp, sp, #16
.LCFI59:
	str	r0, [sp, #4]
	.loc 7 110 16
	movs	r3, #3
	str	r3, [sp, #12]
	.loc 7 112 18
	ldr	r3, [sp, #4]
	and	r3, r3, #1
	.loc 7 112 8
	cmp	r3, #0
	beq	.L89
	.loc 7 114 13
	mov	r3, #33280
	str	r3, [sp, #12]
.L89:
	.loc 7 117 18
	ldr	r3, [sp, #4]
	and	r3, r3, #2
	.loc 7 117 8
	cmp	r3, #0
	beq	.L90
	.loc 7 119 13
	movw	r3, #33281
	str	r3, [sp, #12]
.L90:
	.loc 7 122 18
	ldr	r3, [sp, #4]
	and	r3, r3, #4
	.loc 7 122 8
	cmp	r3, #0
	beq	.L91
	.loc 7 124 13
	movw	r3, #33282
	str	r3, [sp, #12]
.L91:
	.loc 7 127 12
	ldr	r3, [sp, #12]
	.loc 7 128 1
	mov	r0, r3
	add	sp, sp, #16
.LCFI60:
	@ sp needed
	bx	lr
.LFE262:
	.size	twi_process_error, .-twi_process_error
	.section	.text.nrfx_twi_init,"ax",%progbits
	.align	1
	.global	nrfx_twi_init
	.syntax unified
	.thumb
	.thumb_func
	.fpu fpv4-sp-d16
	.type	nrfx_twi_init, %function
nrfx_twi_init:
.LFB263:
	.loc 7 136 1
	@ args = 0, pretend = 0, frame = 32
	@ frame_needed = 0, uses_anonymous_args = 0
	push	{lr}
.LCFI61:
	sub	sp, sp, #44
.LCFI62:
	str	r0, [sp, #20]
	str	r1, [sp, #16]
	str	r2, [sp, #12]
	str	r3, [sp, #8]
	.loc 7 139 50
	ldr	r3, [sp, #20]
	ldrb	r3, [r3, #4]	@ zero_extendqisi2
	mov	r2, r3
	.loc 7 139 27
	mov	r3, r2
	lsls	r3, r3, #1
	add	r3, r3, r2
	lsls	r3, r3, #4
	ldr	r2, .L98
	add	r3, r3, r2
	str	r3, [sp, #32]
	.loc 7 142 13
	ldr	r3, [sp, #32]
	ldrb	r3, [r3, #42]	@ zero_extendqisi2
	.loc 7 142 8
	cmp	r3, #0
	beq	.L94
	.loc 7 144 18
	movs	r3, #8
	str	r3, [sp, #28]
	.loc 7 148 16
	ldr	r3, [sp, #28]
	b	.L95
.L94:
	.loc 7 160 36
	ldr	r3, [sp, #20]
	ldr	r2, [r3]
	.loc 7 161 36
	ldr	r3, [sp, #20]
	ldrb	r3, [r3, #4]	@ zero_extendqisi2
	mov	r1, r3
	.loc 7 160 9
	ldr	r3, .L98+4
	ldr	r3, [r3, r1, lsl #2]
	mov	r1, r3
	mov	r0, r2
	bl	nrfx_prs_acquire
	mov	r3, r0
	.loc 7 160 8
	cmp	r3, #0
	beq	.L96
	.loc 7 163 18
	movs	r3, #17
	str	r3, [sp, #28]
	.loc 7 167 16
	ldr	r3, [sp, #28]
	b	.L95
.L96:
	.loc 7 171 19
	ldr	r3, [sp, #32]
	ldr	r2, [sp, #12]
	str	r2, [r3]
	.loc 7 172 21
	ldr	r3, [sp, #32]
	ldr	r2, [sp, #8]
	str	r2, [r3, #4]
	.loc 7 173 20
	ldr	r3, [sp, #32]
	movs	r2, #0
	str	r2, [r3, #8]
	.loc 7 174 20
	ldr	r3, [sp, #32]
	movs	r2, #0
	strb	r2, [r3, #45]
	.loc 7 175 16
	ldr	r3, [sp, #32]
	movs	r2, #0
	strb	r2, [r3, #44]
	.loc 7 176 37
	ldr	r3, [sp, #16]
	ldrb	r2, [r3, #13]	@ zero_extendqisi2
	.loc 7 176 27
	ldr	r3, [sp, #32]
	strb	r2, [r3, #47]
	.loc 7 182 5
	ldr	r3, [sp, #16]
	ldr	r0, [r3]
	movs	r3, #0
	str	r3, [sp, #4]
	movs	r3, #6
	str	r3, [sp]
	movs	r3, #3
	movs	r2, #0
	movs	r1, #0
	bl	nrf_gpio_cfg
	.loc 7 183 5
	ldr	r3, [sp, #16]
	ldr	r0, [r3, #4]
	movs	r3, #0
	str	r3, [sp, #4]
	movs	r3, #6
	str	r3, [sp]
	movs	r3, #3
	movs	r2, #0
	movs	r1, #0
	bl	nrf_gpio_cfg
	.loc 7 185 20
	ldr	r3, [sp, #20]
	ldr	r3, [r3]
	str	r3, [sp, #36]
	.loc 7 186 5
	ldr	r3, [sp, #16]
	ldr	r1, [r3]
	ldr	r3, [sp, #16]
	ldr	r3, [r3, #4]
	mov	r2, r3
	ldr	r0, [sp, #36]
	bl	nrf_twi_pins_set
	.loc 7 188 38
	ldr	r3, [sp, #16]
	ldr	r3, [r3, #8]
	.loc 7 187 5
	mov	r1, r3
	ldr	r0, [sp, #36]
	bl	nrf_twi_frequency_set
	.loc 7 190 13
	ldr	r3, [sp, #32]
	ldr	r3, [r3]
	.loc 7 190 8
	cmp	r3, #0
	beq	.L97
	.loc 7 192 62
	ldr	r3, [sp, #20]
	ldr	r3, [r3]
	.loc 7 192 9
	mov	r0, r3
	bl	nrfx_get_irq_number
	mov	r3, r0
	mov	r2, r3
	ldr	r3, [sp, #16]
	ldrb	r3, [r3, #12]	@ zero_extendqisi2
	mov	r1, r3
	mov	r0, r2
	bl	_NRFX_IRQ_PRIORITY_SET
	.loc 7 194 56
	ldr	r3, [sp, #20]
	ldr	r3, [r3]
	.loc 7 194 9
	mov	r0, r3
	bl	nrfx_get_irq_number
	mov	r3, r0
	mov	r0, r3
	bl	_NRFX_IRQ_ENABLE
.L97:
	.loc 7 197 17
	ldr	r3, [sp, #32]
	movs	r2, #1
	strb	r2, [r3, #42]
	.loc 7 199 14
	movs	r3, #0
	str	r3, [sp, #28]
	.loc 7 201 12
	ldr	r3, [sp, #28]
.L95:
	.loc 7 202 1
	mov	r0, r3
	add	sp, sp, #44
.LCFI63:
	@ sp needed
	ldr	pc, [sp], #4
.L99:
	.align	2
.L98:
	.word	m_cb
	.word	irq_handlers.8811
.LFE263:
	.size	nrfx_twi_init, .-nrfx_twi_init
	.section	.text.nrfx_twi_uninit,"ax",%progbits
	.align	1
	.global	nrfx_twi_uninit
	.syntax unified
	.thumb
	.thumb_func
	.fpu fpv4-sp-d16
	.type	nrfx_twi_uninit, %function
nrfx_twi_uninit:
.LFB264:
	.loc 7 205 1
	@ args = 0, pretend = 0, frame = 16
	@ frame_needed = 0, uses_anonymous_args = 0
	push	{lr}
.LCFI64:
	sub	sp, sp, #20
.LCFI65:
	str	r0, [sp, #4]
	.loc 7 206 50
	ldr	r3, [sp, #4]
	ldrb	r3, [r3, #4]	@ zero_extendqisi2
	mov	r2, r3
	.loc 7 206 27
	mov	r3, r2
	lsls	r3, r3, #1
	add	r3, r3, r2
	lsls	r3, r3, #4
	ldr	r2, .L103
	add	r3, r3, r2
	str	r3, [sp, #12]
	.loc 7 209 13
	ldr	r3, [sp, #12]
	ldr	r3, [r3]
	.loc 7 209 8
	cmp	r3, #0
	beq	.L101
	.loc 7 211 57
	ldr	r3, [sp, #4]
	ldr	r3, [r3]
	.loc 7 211 9
	mov	r0, r3
	bl	nrfx_get_irq_number
	mov	r3, r0
	mov	r0, r3
	bl	_NRFX_IRQ_DISABLE
.L101:
	.loc 7 213 5
	ldr	r0, [sp, #4]
	bl	nrfx_twi_disable
	.loc 7 216 32
	ldr	r3, [sp, #4]
	ldr	r3, [r3]
	.loc 7 216 5
	mov	r0, r3
	bl	nrfx_prs_release
	.loc 7 219 14
	ldr	r3, [sp, #12]
	ldrb	r3, [r3, #47]	@ zero_extendqisi2
	.loc 7 219 9
	eor	r3, r3, #1
	uxtb	r3, r3
	.loc 7 219 8
	cmp	r3, #0
	beq	.L102
	.loc 7 221 40
	ldr	r3, [sp, #4]
	ldr	r3, [r3]
	.loc 7 221 9
	ldr	r3, [r3, #1288]
	mov	r0, r3
	bl	nrf_gpio_cfg_default
	.loc 7 222 40
	ldr	r3, [sp, #4]
	ldr	r3, [r3]
	.loc 7 222 9
	ldr	r3, [r3, #1292]
	mov	r0, r3
	bl	nrf_gpio_cfg_default
.L102:
	.loc 7 225 17
	ldr	r3, [sp, #12]
	movs	r2, #0
	strb	r2, [r3, #42]
	.loc 7 227 1
	nop
	add	sp, sp, #20
.LCFI66:
	@ sp needed
	ldr	pc, [sp], #4
.L104:
	.align	2
.L103:
	.word	m_cb
.LFE264:
	.size	nrfx_twi_uninit, .-nrfx_twi_uninit
	.section	.text.nrfx_twi_enable,"ax",%progbits
	.align	1
	.global	nrfx_twi_enable
	.syntax unified
	.thumb
	.thumb_func
	.fpu fpv4-sp-d16
	.type	nrfx_twi_enable, %function
nrfx_twi_enable:
.LFB265:
	.loc 7 230 1
	@ args = 0, pretend = 0, frame = 16
	@ frame_needed = 0, uses_anonymous_args = 0
	push	{lr}
.LCFI67:
	sub	sp, sp, #20
.LCFI68:
	str	r0, [sp, #4]
	.loc 7 231 50
	ldr	r3, [sp, #4]
	ldrb	r3, [r3, #4]	@ zero_extendqisi2
	mov	r2, r3
	.loc 7 231 27
	mov	r3, r2
	lsls	r3, r3, #1
	add	r3, r3, r2
	lsls	r3, r3, #4
	ldr	r2, .L106
	add	r3, r3, r2
	str	r3, [sp, #12]
	.loc 7 234 20
	ldr	r3, [sp, #4]
	ldr	r3, [r3]
	str	r3, [sp, #8]
	.loc 7 235 5
	ldr	r0, [sp, #8]
	bl	nrf_twi_enable
	.loc 7 237 17
	ldr	r3, [sp, #12]
	movs	r2, #2
	strb	r2, [r3, #42]
	.loc 7 239 1
	nop
	add	sp, sp, #20
.LCFI69:
	@ sp needed
	ldr	pc, [sp], #4
.L107:
	.align	2
.L106:
	.word	m_cb
.LFE265:
	.size	nrfx_twi_enable, .-nrfx_twi_enable
	.section	.text.nrfx_twi_disable,"ax",%progbits
	.align	1
	.global	nrfx_twi_disable
	.syntax unified
	.thumb
	.thumb_func
	.fpu fpv4-sp-d16
	.type	nrfx_twi_disable, %function
nrfx_twi_disable:
.LFB266:
	.loc 7 242 1
	@ args = 0, pretend = 0, frame = 16
	@ frame_needed = 0, uses_anonymous_args = 0
	push	{lr}
.LCFI70:
	sub	sp, sp, #20
.LCFI71:
	str	r0, [sp, #4]
	.loc 7 243 50
	ldr	r3, [sp, #4]
	ldrb	r3, [r3, #4]	@ zero_extendqisi2
	mov	r2, r3
	.loc 7 243 27
	mov	r3, r2
	lsls	r3, r3, #1
	add	r3, r3, r2
	lsls	r3, r3, #4
	ldr	r2, .L109
	add	r3, r3, r2
	str	r3, [sp, #12]
	.loc 7 246 20
	ldr	r3, [sp, #4]
	ldr	r3, [r3]
	str	r3, [sp, #8]
	.loc 7 247 5
	ldr	r1, .L109+4
	ldr	r0, [sp, #8]
	bl	nrf_twi_int_disable
	.loc 7 248 5
	movs	r1, #3
	ldr	r0, [sp, #8]
	bl	nrf_twi_shorts_disable
	.loc 7 249 5
	ldr	r0, [sp, #8]
	bl	nrf_twi_disable
	.loc 7 251 17
	ldr	r3, [sp, #12]
	movs	r2, #1
	strb	r2, [r3, #42]
	.loc 7 253 1
	nop
	add	sp, sp, #20
.LCFI72:
	@ sp needed
	ldr	pc, [sp], #4
.L110:
	.align	2
.L109:
	.word	m_cb
	.word	279174
.LFE266:
	.size	nrfx_twi_disable, .-nrfx_twi_disable
	.section	.text.twi_send_byte,"ax",%progbits
	.align	1
	.syntax unified
	.thumb
	.thumb_func
	.fpu fpv4-sp-d16
	.type	twi_send_byte, %function
twi_send_byte:
.LFB267:
	.loc 7 260 1
	@ args = 4, pretend = 0, frame = 16
	@ frame_needed = 0, uses_anonymous_args = 0
	push	{lr}
.LCFI73:
	sub	sp, sp, #20
.LCFI74:
	str	r0, [sp, #12]
	str	r1, [sp, #8]
	str	r3, [sp]
	mov	r3, r2
	strb	r3, [sp, #7]
	.loc 7 261 9
	ldr	r3, [sp]
	ldrb	r3, [r3]	@ zero_extendqisi2
	.loc 7 261 8
	ldrb	r2, [sp, #7]	@ zero_extendqisi2
	cmp	r2, r3
	bls	.L112
	.loc 7 263 39
	ldr	r3, [sp]
	ldrb	r3, [r3]	@ zero_extendqisi2
	mov	r2, r3
	.loc 7 263 38
	ldr	r3, [sp, #8]
	add	r3, r3, r2
	.loc 7 263 9
	ldrb	r3, [r3]	@ zero_extendqisi2
	mov	r1, r3
	ldr	r0, [sp, #12]
	bl	nrf_twi_txd_set
	.loc 7 264 12
	ldr	r3, [sp]
	ldrb	r3, [r3]	@ zero_extendqisi2
	.loc 7 264 9
	adds	r3, r3, #1
	uxtb	r2, r3
	ldr	r3, [sp]
	strb	r2, [r3]
	b	.L113
.L112:
	.loc 7 268 12
	ldrb	r3, [sp, #24]	@ zero_extendqisi2
	cmp	r3, #0
	beq	.L114
	.loc 7 270 13
	movs	r1, #28
	ldr	r0, [sp, #12]
	bl	nrf_twi_task_trigger
	.loc 7 271 19
	movs	r3, #0
	b	.L115
.L114:
	.loc 7 275 13
	movs	r1, #20
	ldr	r0, [sp, #12]
	bl	nrf_twi_task_trigger
.L113:
	.loc 7 278 11
	movs	r3, #1
.L115:
	.loc 7 279 1
	mov	r0, r3
	add	sp, sp, #20
.LCFI75:
	@ sp needed
	ldr	pc, [sp], #4
.LFE267:
	.size	twi_send_byte, .-twi_send_byte
	.section	.text.twi_receive_byte,"ax",%progbits
	.align	1
	.syntax unified
	.thumb
	.thumb_func
	.fpu fpv4-sp-d16
	.type	twi_receive_byte, %function
twi_receive_byte:
.LFB268:
	.loc 7 285 1
	@ args = 0, pretend = 0, frame = 16
	@ frame_needed = 0, uses_anonymous_args = 0
	push	{r4, lr}
.LCFI76:
	sub	sp, sp, #16
.LCFI77:
	str	r0, [sp, #12]
	str	r1, [sp, #8]
	str	r3, [sp]
	mov	r3, r2
	strb	r3, [sp, #7]
	.loc 7 286 9
	ldr	r3, [sp]
	ldrb	r3, [r3]	@ zero_extendqisi2
	.loc 7 286 8
	ldrb	r2, [sp, #7]	@ zero_extendqisi2
	cmp	r2, r3
	bls	.L116
	.loc 7 288 16
	ldr	r3, [sp]
	ldrb	r3, [r3]	@ zero_extendqisi2
	mov	r2, r3
	.loc 7 288 15
	ldr	r3, [sp, #8]
	adds	r4, r3, r2
	.loc 7 288 40
	ldr	r0, [sp, #12]
	bl	nrf_twi_rxd_get
	mov	r3, r0
	.loc 7 288 38
	strb	r3, [r4]
	.loc 7 290 12
	ldr	r3, [sp]
	ldrb	r3, [r3]	@ zero_extendqisi2
	.loc 7 290 9
	adds	r3, r3, #1
	uxtb	r2, r3
	ldr	r3, [sp]
	strb	r2, [r3]
	.loc 7 292 13
	ldr	r3, [sp]
	ldrb	r3, [r3]	@ zero_extendqisi2
	mov	r2, r3
	.loc 7 292 44
	ldrb	r3, [sp, #7]	@ zero_extendqisi2
	subs	r3, r3, #1
	.loc 7 292 12
	cmp	r2, r3
	bne	.L118
	.loc 7 294 13
	movs	r1, #2
	ldr	r0, [sp, #12]
	bl	nrf_twi_shorts_set
	b	.L119
.L118:
	.loc 7 296 18
	ldr	r3, [sp]
	ldrb	r3, [r3]	@ zero_extendqisi2
	.loc 7 296 17
	ldrb	r2, [sp, #7]	@ zero_extendqisi2
	cmp	r2, r3
	beq	.L120
.L119:
	.loc 7 301 9
	movs	r1, #32
	ldr	r0, [sp, #12]
	bl	nrf_twi_task_trigger
	b	.L116
.L120:
	.loc 7 298 13
	nop
.L116:
	.loc 7 303 1
	add	sp, sp, #16
.LCFI78:
	@ sp needed
	pop	{r4, pc}
.LFE268:
	.size	twi_receive_byte, .-twi_receive_byte
	.section	.text.twi_transfer,"ax",%progbits
	.align	1
	.syntax unified
	.thumb
	.thumb_func
	.fpu fpv4-sp-d16
	.type	twi_transfer, %function
twi_transfer:
.LFB269:
	.loc 7 311 1
	@ args = 8, pretend = 0, frame = 24
	@ frame_needed = 0, uses_anonymous_args = 0
	push	{lr}
.LCFI79:
	sub	sp, sp, #36
.LCFI80:
	str	r0, [sp, #20]
	str	r1, [sp, #16]
	str	r2, [sp, #12]
	str	r3, [sp, #8]
	.loc 7 312 27
	ldr	r3, [sp, #16]
	ldrb	r3, [r3]	@ zero_extendqisi2
	.loc 7 312 37
	cmp	r3, #0
	bne	.L122
	.loc 7 312 42 discriminator 2
	ldr	r3, [sp, #12]
	ldrb	r3, [r3]	@ zero_extendqisi2
	.loc 7 312 37 discriminator 2
	ldrb	r2, [sp, #40]	@ zero_extendqisi2
	cmp	r2, r3
	bne	.L123
.L122:
	.loc 7 312 37 is_stmt 0 discriminator 3
	movs	r3, #1
	b	.L124
.L123:
	.loc 7 312 37 discriminator 4
	movs	r3, #0
.L124:
	.loc 7 312 9 is_stmt 1 discriminator 6
	strb	r3, [sp, #31]
	ldrb	r3, [sp, #31]
	and	r3, r3, #1
	strb	r3, [sp, #31]
	.loc 7 314 9 discriminator 6
	ldr	r3, [sp, #16]
	ldrb	r3, [r3]	@ zero_extendqisi2
	.loc 7 314 8 discriminator 6
	cmp	r3, #0
	beq	.L125
	.loc 7 316 9
	mov	r1, #292
	ldr	r0, [sp, #20]
	bl	nrf_twi_event_clear
	.loc 7 317 9
	mov	r1, #284
	ldr	r0, [sp, #20]
	bl	nrf_twi_event_clear
	.loc 7 318 9
	mov	r1, #264
	ldr	r0, [sp, #20]
	bl	nrf_twi_event_clear
	b	.L126
.L125:
	.loc 7 320 14
	mov	r1, #292
	ldr	r0, [sp, #20]
	bl	nrf_twi_event_check
	mov	r3, r0
	.loc 7 320 13
	cmp	r3, #0
	beq	.L127
	.loc 7 322 9
	mov	r1, #292
	ldr	r0, [sp, #20]
	bl	nrf_twi_event_clear
	.loc 7 324 9
	movs	r1, #20
	ldr	r0, [sp, #20]
	bl	nrf_twi_task_trigger
	.loc 7 325 18
	ldr	r3, [sp, #16]
	movs	r2, #1
	strb	r2, [r3]
	b	.L126
.L127:
	.loc 7 329 13
	mov	r1, #284
	ldr	r0, [sp, #20]
	bl	nrf_twi_event_check
	mov	r3, r0
	.loc 7 329 12
	cmp	r3, #0
	beq	.L128
	.loc 7 331 13
	mov	r1, #284
	ldr	r0, [sp, #20]
	bl	nrf_twi_event_clear
	.loc 7 333 17
	mov	r1, #292
	ldr	r0, [sp, #20]
	bl	nrf_twi_event_check
	mov	r3, r0
	.loc 7 333 16
	cmp	r3, #0
	beq	.L129
	.loc 7 335 17
	mov	r1, #292
	ldr	r0, [sp, #20]
	bl	nrf_twi_event_clear
	.loc 7 337 17
	movs	r1, #20
	ldr	r0, [sp, #20]
	bl	nrf_twi_task_trigger
	.loc 7 338 26
	ldr	r3, [sp, #16]
	movs	r2, #1
	strb	r2, [r3]
	b	.L126
.L129:
	.loc 7 342 22
	ldrb	r2, [sp, #40]	@ zero_extendqisi2
	ldrb	r3, [sp, #44]	@ zero_extendqisi2
	str	r3, [sp]
	ldr	r3, [sp, #12]
	ldr	r1, [sp, #8]
	ldr	r0, [sp, #20]
	bl	twi_send_byte
	mov	r3, r0
	.loc 7 342 21
	eor	r3, r3, #1
	uxtb	r3, r3
	.loc 7 342 20
	cmp	r3, #0
	beq	.L126
	.loc 7 344 27
	movs	r3, #0
	b	.L130
.L128:
	.loc 7 348 18
	mov	r1, #264
	ldr	r0, [sp, #20]
	bl	nrf_twi_event_check
	mov	r3, r0
	.loc 7 348 17
	cmp	r3, #0
	beq	.L126
	.loc 7 350 13
	mov	r1, #264
	ldr	r0, [sp, #20]
	bl	nrf_twi_event_clear
	.loc 7 352 17
	mov	r1, #292
	ldr	r0, [sp, #20]
	bl	nrf_twi_event_check
	mov	r3, r0
	.loc 7 352 16
	cmp	r3, #0
	beq	.L131
	.loc 7 355 17
	mov	r1, #292
	ldr	r0, [sp, #20]
	bl	nrf_twi_event_clear
	.loc 7 356 17
	movs	r1, #20
	ldr	r0, [sp, #20]
	bl	nrf_twi_task_trigger
	.loc 7 357 26
	ldr	r3, [sp, #16]
	movs	r2, #1
	strb	r2, [r3]
	b	.L126
.L131:
	.loc 7 361 17
	ldrb	r2, [sp, #40]	@ zero_extendqisi2
	ldr	r3, [sp, #12]
	ldr	r1, [sp, #8]
	ldr	r0, [sp, #20]
	bl	twi_receive_byte
.L126:
	.loc 7 366 8
	ldrb	r3, [sp, #31]	@ zero_extendqisi2
	cmp	r3, #0
	beq	.L132
	.loc 7 366 26 discriminator 1
	mov	r1, #260
	ldr	r0, [sp, #20]
	bl	nrf_twi_event_check
	mov	r3, r0
	.loc 7 366 23 discriminator 1
	cmp	r3, #0
	beq	.L132
	.loc 7 368 9
	mov	r1, #260
	ldr	r0, [sp, #20]
	bl	nrf_twi_event_clear
	.loc 7 370 15
	movs	r3, #0
	b	.L130
.L132:
	.loc 7 373 11
	movs	r3, #1
.L130:
	.loc 7 374 1
	mov	r0, r3
	add	sp, sp, #36
.LCFI81:
	@ sp needed
	ldr	pc, [sp], #4
.LFE269:
	.size	twi_transfer, .-twi_transfer
	.section	.text.twi_tx_start_transfer,"ax",%progbits
	.align	1
	.syntax unified
	.thumb
	.thumb_func
	.fpu fpv4-sp-d16
	.type	twi_tx_start_transfer, %function
twi_tx_start_transfer:
.LFB270:
	.loc 7 381 1
	@ args = 4, pretend = 0, frame = 32
	@ frame_needed = 0, uses_anonymous_args = 0
	push	{lr}
.LCFI82:
	sub	sp, sp, #44
.LCFI83:
	str	r0, [sp, #20]
	str	r1, [sp, #16]
	str	r2, [sp, #12]
	strb	r3, [sp, #11]
	.loc 7 382 16
	movs	r3, #0
	str	r3, [sp, #36]
	.loc 7 385 16
	movw	r3, #10000
	str	r3, [sp, #28]
	.loc 7 387 5
	mov	r1, #260
	ldr	r0, [sp, #16]
	bl	nrf_twi_event_clear
	.loc 7 388 5
	mov	r1, #292
	ldr	r0, [sp, #16]
	bl	nrf_twi_event_clear
	.loc 7 389 5
	mov	r1, #284
	ldr	r0, [sp, #16]
	bl	nrf_twi_event_clear
	.loc 7 390 5
	mov	r1, #264
	ldr	r0, [sp, #16]
	bl	nrf_twi_event_clear
	.loc 7 391 5
	movs	r1, #0
	ldr	r0, [sp, #16]
	bl	nrf_twi_shorts_set
	.loc 7 393 29
	ldr	r3, [sp, #20]
	movs	r2, #0
	strb	r2, [r3, #46]
	.loc 7 394 17
	ldr	r3, [sp, #20]
	movs	r2, #0
	strb	r2, [r3, #43]
	.loc 7 397 5
	movs	r1, #32
	ldr	r0, [sp, #16]
	bl	nrf_twi_task_trigger
	.loc 7 398 5
	movs	r1, #8
	ldr	r0, [sp, #16]
	bl	nrf_twi_task_trigger
	.loc 7 400 11
	ldr	r3, [sp, #20]
	add	r1, r3, #46
	ldrb	r2, [sp, #11]	@ zero_extendqisi2
	ldrb	r3, [sp, #48]	@ zero_extendqisi2
	str	r3, [sp]
	mov	r3, r1
	ldr	r1, [sp, #12]
	ldr	r0, [sp, #16]
	bl	twi_send_byte
	.loc 7 402 13
	ldr	r3, [sp, #20]
	ldr	r3, [r3]
	.loc 7 402 8
	cmp	r3, #0
	beq	.L136
	.loc 7 404 24
	ldr	r3, [sp, #20]
	movw	r2, #646
	str	r2, [r3, #8]
	.loc 7 408 9
	ldr	r3, [sp, #20]
	ldr	r3, [r3, #8]
	mov	r1, r3
	ldr	r0, [sp, #16]
	bl	nrf_twi_int_enable
	b	.L135
.L138:
	.loc 7 420 23
	ldr	r3, [sp, #28]
	subs	r3, r3, #1
	str	r3, [sp, #28]
.L136:
	.loc 7 412 28
	ldr	r3, [sp, #28]
	.loc 7 412 15
	cmp	r3, #0
	ble	.L137
	.loc 7 413 16 discriminator 1
	ldr	r3, [sp, #20]
	add	r1, r3, #43
	ldr	r3, [sp, #20]
	add	r2, r3, #46
	ldrb	r3, [sp, #48]	@ zero_extendqisi2
	str	r3, [sp, #4]
	ldrb	r3, [sp, #11]	@ zero_extendqisi2
	str	r3, [sp]
	ldr	r3, [sp, #12]
	ldr	r0, [sp, #16]
	bl	twi_transfer
	mov	r3, r0
	.loc 7 412 33 discriminator 1
	cmp	r3, #0
	bne	.L138
.L137:
	.loc 7 423 17
	ldr	r3, [sp, #20]
	ldrb	r3, [r3, #43]	@ zero_extendqisi2
	.loc 7 423 12
	cmp	r3, #0
	beq	.L139
.LBB2:
	.loc 7 425 33
	ldr	r0, [sp, #16]
	bl	nrf_twi_errorsrc_get_and_clear
	str	r0, [sp, #32]
	.loc 7 427 16
	ldr	r3, [sp, #32]
	cmp	r3, #0
	beq	.L139
	.loc 7 429 28
	ldr	r0, [sp, #32]
	bl	twi_process_error
	str	r0, [sp, #36]
.L139:
.LBE2:
	.loc 7 433 24
	ldr	r3, [sp, #28]
	.loc 7 433 12
	cmp	r3, #0
	bgt	.L135
	.loc 7 435 13
	ldr	r0, [sp, #16]
	bl	nrf_twi_disable
	.loc 7 436 13
	ldr	r0, [sp, #16]
	bl	nrf_twi_enable
	.loc 7 437 22
	movs	r3, #3
	str	r3, [sp, #36]
.L135:
	.loc 7 441 12
	ldr	r3, [sp, #36]
	.loc 7 442 1
	mov	r0, r3
	add	sp, sp, #44
.LCFI84:
	@ sp needed
	ldr	pc, [sp], #4
.LFE270:
	.size	twi_tx_start_transfer, .-twi_tx_start_transfer
	.section	.text.twi_rx_start_transfer,"ax",%progbits
	.align	1
	.syntax unified
	.thumb
	.thumb_func
	.fpu fpv4-sp-d16
	.type	twi_rx_start_transfer, %function
twi_rx_start_transfer:
.LFB271:
	.loc 7 448 1
	@ args = 0, pretend = 0, frame = 32
	@ frame_needed = 0, uses_anonymous_args = 0
	push	{lr}
.LCFI85:
	sub	sp, sp, #44
.LCFI86:
	str	r0, [sp, #20]
	str	r1, [sp, #16]
	str	r2, [sp, #12]
	strb	r3, [sp, #11]
	.loc 7 449 16
	movs	r3, #0
	str	r3, [sp, #36]
	.loc 7 452 16
	movw	r3, #10000
	str	r3, [sp, #28]
	.loc 7 454 5
	mov	r1, #260
	ldr	r0, [sp, #16]
	bl	nrf_twi_event_clear
	.loc 7 455 5
	mov	r1, #292
	ldr	r0, [sp, #16]
	bl	nrf_twi_event_clear
	.loc 7 456 5
	mov	r1, #284
	ldr	r0, [sp, #16]
	bl	nrf_twi_event_clear
	.loc 7 457 5
	mov	r1, #264
	ldr	r0, [sp, #16]
	bl	nrf_twi_event_clear
	.loc 7 459 29
	ldr	r3, [sp, #20]
	movs	r2, #0
	strb	r2, [r3, #46]
	.loc 7 460 17
	ldr	r3, [sp, #20]
	movs	r2, #0
	strb	r2, [r3, #43]
	.loc 7 462 8
	ldrb	r3, [sp, #11]	@ zero_extendqisi2
	cmp	r3, #1
	bne	.L142
	.loc 7 464 9
	movs	r1, #2
	ldr	r0, [sp, #16]
	bl	nrf_twi_shorts_set
	b	.L143
.L142:
	.loc 7 468 9
	movs	r1, #1
	ldr	r0, [sp, #16]
	bl	nrf_twi_shorts_set
.L143:
	.loc 7 471 5
	movs	r1, #32
	ldr	r0, [sp, #16]
	bl	nrf_twi_task_trigger
	.loc 7 472 5
	movs	r1, #0
	ldr	r0, [sp, #16]
	bl	nrf_twi_task_trigger
	.loc 7 474 13
	ldr	r3, [sp, #20]
	ldr	r3, [r3]
	.loc 7 474 8
	cmp	r3, #0
	beq	.L146
	.loc 7 476 24
	ldr	r3, [sp, #20]
	movw	r2, #646
	str	r2, [r3, #8]
	.loc 7 480 9
	ldr	r3, [sp, #20]
	ldr	r3, [r3, #8]
	mov	r1, r3
	ldr	r0, [sp, #16]
	bl	nrf_twi_int_enable
	b	.L145
.L148:
	.loc 7 492 26
	ldr	r3, [sp, #28]
	subs	r3, r3, #1
	str	r3, [sp, #28]
.L146:
	.loc 7 484 28
	ldr	r3, [sp, #28]
	.loc 7 484 15
	cmp	r3, #0
	ble	.L147
	.loc 7 485 16 discriminator 1
	ldr	r3, [sp, #20]
	add	r1, r3, #43
	ldr	r3, [sp, #20]
	add	r2, r3, #46
	movs	r3, #0
	str	r3, [sp, #4]
	ldrb	r3, [sp, #11]	@ zero_extendqisi2
	str	r3, [sp]
	ldr	r3, [sp, #12]
	ldr	r0, [sp, #16]
	bl	twi_transfer
	mov	r3, r0
	.loc 7 484 33 discriminator 1
	cmp	r3, #0
	bne	.L148
.L147:
	.loc 7 495 17
	ldr	r3, [sp, #20]
	ldrb	r3, [r3, #43]	@ zero_extendqisi2
	.loc 7 495 12
	cmp	r3, #0
	beq	.L149
.LBB3:
	.loc 7 497 33
	ldr	r0, [sp, #16]
	bl	nrf_twi_errorsrc_get_and_clear
	str	r0, [sp, #32]
	.loc 7 499 16
	ldr	r3, [sp, #32]
	cmp	r3, #0
	beq	.L149
	.loc 7 501 28
	ldr	r0, [sp, #32]
	bl	twi_process_error
	str	r0, [sp, #36]
.L149:
.LBE3:
	.loc 7 504 24
	ldr	r3, [sp, #28]
	.loc 7 504 12
	cmp	r3, #0
	bgt	.L145
	.loc 7 506 13
	ldr	r0, [sp, #16]
	bl	nrf_twi_disable
	.loc 7 507 13
	ldr	r0, [sp, #16]
	bl	nrf_twi_enable
	.loc 7 508 22
	movs	r3, #3
	str	r3, [sp, #36]
.L145:
	.loc 7 511 12
	ldr	r3, [sp, #36]
	.loc 7 512 1
	mov	r0, r3
	add	sp, sp, #44
.LCFI87:
	@ sp needed
	ldr	pc, [sp], #4
.LFE271:
	.size	twi_rx_start_transfer, .-twi_rx_start_transfer
	.section	.text.twi_xfer,"ax",%progbits
	.align	1
	.syntax unified
	.thumb
	.thumb_func
	.fpu fpv4-sp-d16
	.type	twi_xfer, %function
twi_xfer:
.LFB272:
	.loc 7 518 1
	@ args = 0, pretend = 0, frame = 24
	@ frame_needed = 0, uses_anonymous_args = 0
	push	{r4, r5, lr}
.LCFI88:
	sub	sp, sp, #36
.LCFI89:
	str	r0, [sp, #20]
	str	r1, [sp, #16]
	str	r2, [sp, #12]
	str	r3, [sp, #8]
	.loc 7 520 16
	movs	r3, #0
	str	r3, [sp, #28]
	.loc 7 523 5
	ldr	r1, .L160
	ldr	r0, [sp, #16]
	bl	nrf_twi_int_disable
	.loc 7 525 13
	ldr	r3, [sp, #20]
	ldrb	r3, [r3, #44]
	uxtb	r3, r3
	.loc 7 525 8
	cmp	r3, #0
	beq	.L152
	.loc 7 527 9
	ldr	r3, [sp, #20]
	ldr	r3, [r3, #8]
	mov	r1, r3
	ldr	r0, [sp, #16]
	bl	nrf_twi_int_enable
	.loc 7 528 18
	movs	r3, #17
	str	r3, [sp, #28]
	.loc 7 532 16
	ldr	r3, [sp, #28]
	b	.L153
.L152:
	.loc 7 536 34
	ldr	r3, [sp, #8]
	and	r3, r3, #4
	.loc 7 536 73
	cmp	r3, #0
	ite	eq
	moveq	r3, #1
	movne	r3, #0
	uxtb	r2, r3
	.loc 7 536 20
	ldr	r3, [sp, #20]
	strb	r2, [r3, #44]
	.loc 7 539 17
	ldr	r3, [sp, #20]
	ldr	r2, [sp, #8]
	str	r2, [r3, #32]
	.loc 7 540 21
	ldr	r3, [sp, #20]
	ldr	r2, [sp, #12]
	add	r4, r3, #12
	mov	r5, r2
	ldmia	r5!, {r0, r1, r2, r3}
	stmia	r4!, {r0, r1, r2, r3}
	ldr	r3, [r5]
	str	r3, [r4]
	.loc 7 541 36
	ldr	r3, [sp, #12]
	ldr	r3, [r3, #4]
	.loc 7 541 23
	uxtb	r2, r3
	ldr	r3, [sp, #20]
	strb	r2, [r3, #40]
	.loc 7 542 35
	ldr	r3, [sp, #12]
	ldr	r2, [r3, #12]
	.loc 7 542 22
	ldr	r3, [sp, #20]
	str	r2, [r3, #36]
	.loc 7 543 5
	ldr	r3, [sp, #12]
	ldrb	r3, [r3, #1]	@ zero_extendqisi2
	mov	r1, r3
	ldr	r0, [sp, #16]
	bl	nrf_twi_address_set
	.loc 7 545 20
	ldr	r3, [sp, #12]
	ldrb	r3, [r3]	@ zero_extendqisi2
	.loc 7 545 8
	cmp	r3, #1
	beq	.L154
	.loc 7 547 43
	ldr	r3, [sp, #12]
	ldrb	r3, [r3]	@ zero_extendqisi2
	.loc 7 548 74
	cmp	r3, #0
	bne	.L155
	.loc 7 548 38 discriminator 2
	ldr	r3, [sp, #8]
	and	r3, r3, #32
	.loc 7 548 74 discriminator 2
	cmp	r3, #0
	beq	.L156
.L155:
	.loc 7 548 74 is_stmt 0 discriminator 3
	movs	r3, #1
	b	.L157
.L156:
	.loc 7 548 74 discriminator 4
	movs	r3, #0
.L157:
	.loc 7 548 74 discriminator 6
	and	r3, r3, #1
	uxtb	r2, r3
	.loc 7 547 28 is_stmt 1 discriminator 6
	ldr	r3, [sp, #20]
	strb	r2, [r3, #41]
	.loc 7 552 53 discriminator 6
	ldr	r3, [sp, #12]
	ldr	r2, [r3, #12]
	.loc 7 553 53 discriminator 6
	ldr	r3, [sp, #12]
	ldr	r3, [r3, #4]
	.loc 7 550 20 discriminator 6
	uxtb	r1, r3
	ldr	r3, [sp, #20]
	ldrb	r3, [r3, #41]	@ zero_extendqisi2
	str	r3, [sp]
	mov	r3, r1
	ldr	r1, [sp, #16]
	ldr	r0, [sp, #20]
	bl	twi_tx_start_transfer
	str	r0, [sp, #28]
	b	.L158
.L154:
	.loc 7 558 28
	ldr	r3, [sp, #20]
	movs	r2, #0
	strb	r2, [r3, #41]
	.loc 7 562 53
	ldr	r3, [sp, #12]
	ldr	r2, [r3, #12]
	.loc 7 563 53
	ldr	r3, [sp, #12]
	ldr	r3, [r3, #4]
	.loc 7 560 20
	uxtb	r3, r3
	ldr	r1, [sp, #16]
	ldr	r0, [sp, #20]
	bl	twi_rx_start_transfer
	str	r0, [sp, #28]
.L158:
	.loc 7 565 13
	ldr	r3, [sp, #20]
	ldr	r3, [r3]
	.loc 7 565 8
	cmp	r3, #0
	bne	.L159
	.loc 7 567 20
	ldr	r3, [sp, #20]
	movs	r2, #0
	strb	r2, [r3, #44]
.L159:
	.loc 7 569 12
	ldr	r3, [sp, #28]
.L153:
	.loc 7 570 1
	mov	r0, r3
	add	sp, sp, #36
.LCFI90:
	@ sp needed
	pop	{r4, r5, pc}
.L161:
	.align	2
.L160:
	.word	279174
.LFE272:
	.size	twi_xfer, .-twi_xfer
	.section	.text.nrfx_twi_is_busy,"ax",%progbits
	.align	1
	.global	nrfx_twi_is_busy
	.syntax unified
	.thumb
	.thumb_func
	.fpu fpv4-sp-d16
	.type	nrfx_twi_is_busy, %function
nrfx_twi_is_busy:
.LFB273:
	.loc 7 573 1
	@ args = 0, pretend = 0, frame = 16
	@ frame_needed = 0, uses_anonymous_args = 0
	@ link register save eliminated.
	sub	sp, sp, #16
.LCFI91:
	str	r0, [sp, #4]
	.loc 7 574 50
	ldr	r3, [sp, #4]
	ldrb	r3, [r3, #4]	@ zero_extendqisi2
	mov	r2, r3
	.loc 7 574 27
	mov	r3, r2
	lsls	r3, r3, #1
	add	r3, r3, r2
	lsls	r3, r3, #4
	ldr	r2, .L164
	add	r3, r3, r2
	str	r3, [sp, #12]
	.loc 7 575 16
	ldr	r3, [sp, #12]
	ldrb	r3, [r3, #44]
	uxtb	r3, r3
	.loc 7 576 1
	mov	r0, r3
	add	sp, sp, #16
.LCFI92:
	@ sp needed
	bx	lr
.L165:
	.align	2
.L164:
	.word	m_cb
.LFE273:
	.size	nrfx_twi_is_busy, .-nrfx_twi_is_busy
	.section	.text.nrfx_twi_xfer,"ax",%progbits
	.align	1
	.global	nrfx_twi_xfer
	.syntax unified
	.thumb
	.thumb_func
	.fpu fpv4-sp-d16
	.type	nrfx_twi_xfer, %function
nrfx_twi_xfer:
.LFB274:
	.loc 7 581 1
	@ args = 0, pretend = 0, frame = 24
	@ frame_needed = 0, uses_anonymous_args = 0
	push	{lr}
.LCFI93:
	sub	sp, sp, #28
.LCFI94:
	str	r0, [sp, #12]
	str	r1, [sp, #8]
	str	r2, [sp, #4]
	.loc 7 583 16
	movs	r3, #0
	str	r3, [sp, #20]
	.loc 7 584 50
	ldr	r3, [sp, #12]
	ldrb	r3, [r3, #4]	@ zero_extendqisi2
	mov	r2, r3
	.loc 7 584 27
	mov	r3, r2
	lsls	r3, r3, #1
	add	r3, r3, r2
	lsls	r3, r3, #4
	ldr	r2, .L168
	add	r3, r3, r2
	str	r3, [sp, #16]
	.loc 7 601 57
	ldr	r3, [sp, #12]
	ldr	r1, [r3]
	.loc 7 601 16
	ldr	r3, [sp, #4]
	ldr	r2, [sp, #8]
	ldr	r0, [sp, #16]
	bl	twi_xfer
	str	r0, [sp, #20]
	.loc 7 605 12
	ldr	r3, [sp, #20]
	.loc 7 606 1
	mov	r0, r3
	add	sp, sp, #28
.LCFI95:
	@ sp needed
	ldr	pc, [sp], #4
.L169:
	.align	2
.L168:
	.word	m_cb
.LFE274:
	.size	nrfx_twi_xfer, .-nrfx_twi_xfer
	.section	.text.nrfx_twi_tx,"ax",%progbits
	.align	1
	.global	nrfx_twi_tx
	.syntax unified
	.thumb
	.thumb_func
	.fpu fpv4-sp-d16
	.type	nrfx_twi_tx, %function
nrfx_twi_tx:
.LFB275:
	.loc 7 613 1
	@ args = 4, pretend = 0, frame = 40
	@ frame_needed = 0, uses_anonymous_args = 0
	push	{lr}
.LCFI96:
	sub	sp, sp, #44
.LCFI97:
	str	r0, [sp, #12]
	str	r2, [sp, #4]
	str	r3, [sp]
	mov	r3, r1
	strb	r3, [sp, #11]
	.loc 7 614 26
	add	r3, sp, #20
	movs	r2, #0
	str	r2, [r3]
	str	r2, [r3, #4]
	str	r2, [r3, #8]
	str	r2, [r3, #12]
	str	r2, [r3, #16]
	ldrb	r3, [sp, #11]
	strb	r3, [sp, #21]
	ldr	r3, [sp]
	str	r3, [sp, #24]
	ldr	r3, [sp, #4]
	str	r3, [sp, #32]
	.loc 7 616 12
	ldrb	r3, [sp, #48]	@ zero_extendqisi2
	cmp	r3, #0
	beq	.L171
	.loc 7 616 12 is_stmt 0 discriminator 1
	movs	r2, #32
	b	.L172
.L171:
	.loc 7 616 12 discriminator 2
	movs	r2, #0
.L172:
	.loc 7 616 12 discriminator 4
	add	r3, sp, #20
	mov	r1, r3
	ldr	r0, [sp, #12]
	bl	nrfx_twi_xfer
	mov	r3, r0
	.loc 7 617 1 is_stmt 1 discriminator 4
	mov	r0, r3
	add	sp, sp, #44
.LCFI98:
	@ sp needed
	ldr	pc, [sp], #4
.LFE275:
	.size	nrfx_twi_tx, .-nrfx_twi_tx
	.section	.text.nrfx_twi_rx,"ax",%progbits
	.align	1
	.global	nrfx_twi_rx
	.syntax unified
	.thumb
	.thumb_func
	.fpu fpv4-sp-d16
	.type	nrfx_twi_rx, %function
nrfx_twi_rx:
.LFB276:
	.loc 7 623 1
	@ args = 0, pretend = 0, frame = 40
	@ frame_needed = 0, uses_anonymous_args = 0
	push	{lr}
.LCFI99:
	sub	sp, sp, #44
.LCFI100:
	str	r0, [sp, #12]
	str	r2, [sp, #4]
	str	r3, [sp]
	mov	r3, r1
	strb	r3, [sp, #11]
	.loc 7 624 26
	add	r3, sp, #20
	movs	r2, #0
	str	r2, [r3]
	str	r2, [r3, #4]
	str	r2, [r3, #8]
	str	r2, [r3, #12]
	str	r2, [r3, #16]
	movs	r3, #1
	strb	r3, [sp, #20]
	ldrb	r3, [sp, #11]
	strb	r3, [sp, #21]
	ldr	r3, [sp]
	str	r3, [sp, #24]
	ldr	r3, [sp, #4]
	str	r3, [sp, #32]
	.loc 7 625 12
	add	r3, sp, #20
	movs	r2, #0
	mov	r1, r3
	ldr	r0, [sp, #12]
	bl	nrfx_twi_xfer
	mov	r3, r0
	.loc 7 626 1
	mov	r0, r3
	add	sp, sp, #44
.LCFI101:
	@ sp needed
	ldr	pc, [sp], #4
.LFE276:
	.size	nrfx_twi_rx, .-nrfx_twi_rx
	.section	.text.nrfx_twi_data_count_get,"ax",%progbits
	.align	1
	.global	nrfx_twi_data_count_get
	.syntax unified
	.thumb
	.thumb_func
	.fpu fpv4-sp-d16
	.type	nrfx_twi_data_count_get, %function
nrfx_twi_data_count_get:
.LFB277:
	.loc 7 629 1
	@ args = 0, pretend = 0, frame = 8
	@ frame_needed = 0, uses_anonymous_args = 0
	@ link register save eliminated.
	sub	sp, sp, #8
.LCFI102:
	str	r0, [sp, #4]
	.loc 7 630 27
	ldr	r3, [sp, #4]
	ldrb	r3, [r3, #4]	@ zero_extendqisi2
	mov	r1, r3
	.loc 7 630 42
	ldr	r2, .L178
	mov	r3, r1
	lsls	r3, r3, #1
	add	r3, r3, r1
	lsls	r3, r3, #4
	add	r3, r3, r2
	adds	r3, r3, #46
	ldrb	r3, [r3]	@ zero_extendqisi2
	.loc 7 631 1
	mov	r0, r3
	add	sp, sp, #8
.LCFI103:
	@ sp needed
	bx	lr
.L179:
	.align	2
.L178:
	.word	m_cb
.LFE277:
	.size	nrfx_twi_data_count_get, .-nrfx_twi_data_count_get
	.section	.text.nrfx_twi_stopped_event_get,"ax",%progbits
	.align	1
	.global	nrfx_twi_stopped_event_get
	.syntax unified
	.thumb
	.thumb_func
	.fpu fpv4-sp-d16
	.type	nrfx_twi_stopped_event_get, %function
nrfx_twi_stopped_event_get:
.LFB278:
	.loc 7 634 1
	@ args = 0, pretend = 0, frame = 8
	@ frame_needed = 0, uses_anonymous_args = 0
	push	{lr}
.LCFI104:
	sub	sp, sp, #12
.LCFI105:
	str	r0, [sp, #4]
	.loc 7 635 22
	ldr	r3, [sp, #4]
	ldr	r3, [r3]
	mov	r1, #260
	mov	r0, r3
	bl	nrf_twi_event_address_get
	mov	r3, r0
	.loc 7 636 1
	mov	r0, r3
	add	sp, sp, #12
.LCFI106:
	@ sp needed
	ldr	pc, [sp], #4
.LFE278:
	.size	nrfx_twi_stopped_event_get, .-nrfx_twi_stopped_event_get
	.section	.text.twi_irq_handler,"ax",%progbits
	.align	1
	.syntax unified
	.thumb
	.thumb_func
	.fpu fpv4-sp-d16
	.type	twi_irq_handler, %function
twi_irq_handler:
.LFB279:
	.loc 7 639 1
	@ args = 0, pretend = 0, frame = 40
	@ frame_needed = 0, uses_anonymous_args = 0
	push	{r4, r5, lr}
.LCFI107:
	sub	sp, sp, #52
.LCFI108:
	str	r0, [sp, #12]
	str	r1, [sp, #8]
	.loc 7 642 9
	ldr	r3, [sp, #8]
	add	r1, r3, #43
	ldr	r3, [sp, #8]
	add	r0, r3, #46
	ldr	r3, [sp, #8]
	ldr	r4, [r3, #36]
	ldr	r3, [sp, #8]
	ldrb	r3, [r3, #40]	@ zero_extendqisi2
	ldr	r2, [sp, #8]
	ldrb	r2, [r2, #41]	@ zero_extendqisi2
	str	r2, [sp, #4]
	str	r3, [sp]
	mov	r3, r4
	mov	r2, r0
	ldr	r0, [sp, #12]
	bl	twi_transfer
	mov	r3, r0
	.loc 7 642 8
	cmp	r3, #0
	bne	.L193
	.loc 7 652 14
	ldr	r3, [sp, #8]
	ldrb	r3, [r3, #43]	@ zero_extendqisi2
	.loc 7 652 9
	eor	r3, r3, #1
	uxtb	r3, r3
	.loc 7 652 8
	cmp	r3, #0
	beq	.L185
	.loc 7 653 26 discriminator 1
	ldr	r3, [sp, #8]
	ldrb	r3, [r3, #12]	@ zero_extendqisi2
	.loc 7 652 22 discriminator 1
	cmp	r3, #2
	beq	.L186
	.loc 7 654 26
	ldr	r3, [sp, #8]
	ldrb	r3, [r3, #12]	@ zero_extendqisi2
	.loc 7 653 55
	cmp	r3, #3
	bne	.L185
.L186:
	.loc 7 655 13
	ldr	r3, [sp, #8]
	ldr	r2, [r3, #36]
	.loc 7 655 44
	ldr	r3, [sp, #8]
	ldr	r3, [r3, #24]
	.loc 7 654 56
	cmp	r2, r3
	bne	.L185
	.loc 7 657 43
	ldr	r3, [sp, #8]
	ldr	r2, [r3, #28]
	.loc 7 657 26
	ldr	r3, [sp, #8]
	str	r2, [r3, #36]
	.loc 7 658 44
	ldr	r3, [sp, #8]
	ldr	r3, [r3, #20]
	.loc 7 658 27
	uxtb	r2, r3
	ldr	r3, [sp, #8]
	strb	r2, [r3, #40]
	.loc 7 659 35
	ldr	r3, [sp, #8]
	ldr	r3, [r3, #32]
	.loc 7 659 43
	and	r3, r3, #32
	cmp	r3, #0
	ite	ne
	movne	r3, #1
	moveq	r3, #0
	uxtb	r2, r3
	.loc 7 659 28
	ldr	r3, [sp, #8]
	strb	r2, [r3, #41]
	.loc 7 661 28
	ldr	r3, [sp, #8]
	ldrb	r3, [r3, #12]	@ zero_extendqisi2
	.loc 7 661 12
	cmp	r3, #3
	bne	.L187
	.loc 7 665 45
	ldr	r3, [sp, #8]
	ldr	r2, [r3, #36]
	.loc 7 663 19
	ldr	r3, [sp, #8]
	ldrb	r1, [r3, #40]	@ zero_extendqisi2
	ldr	r3, [sp, #8]
	ldrb	r3, [r3, #41]	@ zero_extendqisi2
	str	r3, [sp]
	mov	r3, r1
	ldr	r1, [sp, #12]
	ldr	r0, [sp, #8]
	bl	twi_tx_start_transfer
	.loc 7 661 12
	b	.L182
.L187:
	.loc 7 671 58
	ldr	r3, [sp, #8]
	ldr	r2, [r3, #36]
	.loc 7 671 19
	ldr	r3, [sp, #8]
	ldrb	r3, [r3, #40]	@ zero_extendqisi2
	ldr	r1, [sp, #12]
	ldr	r0, [sp, #8]
	bl	twi_rx_start_transfer
	.loc 7 661 12
	b	.L182
.L185:
.LBB4:
	.loc 7 677 25
	ldr	r3, [sp, #8]
	add	r4, sp, #24
	add	r5, r3, #12
	ldmia	r5!, {r0, r1, r2, r3}
	stmia	r4!, {r0, r1, r2, r3}
	ldr	r3, [r5]
	str	r3, [r4]
	.loc 7 679 17
	ldr	r3, [sp, #8]
	ldrb	r3, [r3, #43]	@ zero_extendqisi2
	.loc 7 679 12
	cmp	r3, #0
	beq	.L189
.LBB5:
	.loc 7 681 33
	ldr	r0, [sp, #12]
	bl	nrf_twi_errorsrc_get_and_clear
	str	r0, [sp, #44]
	.loc 7 682 26
	ldr	r3, [sp, #44]
	and	r3, r3, #2
	.loc 7 682 16
	cmp	r3, #0
	beq	.L190
	.loc 7 684 28
	movs	r3, #1
	strb	r3, [sp, #20]
	b	.L191
.L190:
	.loc 7 687 31
	ldr	r3, [sp, #44]
	and	r3, r3, #4
	.loc 7 687 21
	cmp	r3, #0
	beq	.L191
	.loc 7 689 28
	movs	r3, #2
	strb	r3, [sp, #20]
	b	.L191
.L189:
.LBE5:
	.loc 7 695 24
	movs	r3, #0
	strb	r3, [sp, #20]
.L191:
	.loc 7 699 20
	ldr	r3, [sp, #8]
	movs	r2, #0
	strb	r2, [r3, #44]
	.loc 7 701 32
	ldr	r3, [sp, #8]
	ldr	r3, [r3, #32]
	.loc 7 701 26
	and	r3, r3, #4
	.loc 7 701 12
	cmp	r3, #0
	bne	.L182
	.loc 7 703 17
	ldr	r3, [sp, #8]
	ldr	r3, [r3]
	.loc 7 703 13
	ldr	r2, [sp, #8]
	ldr	r1, [r2, #4]
	add	r2, sp, #20
	mov	r0, r2
	blx	r3
.LVL0:
	b	.L182
.L193:
.LBE4:
	.loc 7 649 9
	nop
.L182:
	.loc 7 707 1
	add	sp, sp, #52
.LCFI109:
	@ sp needed
	pop	{r4, r5, pc}
.LFE279:
	.size	twi_irq_handler, .-twi_irq_handler
	.section	.text.SPIM1_SPIS1_TWIM1_TWIS1_SPI1_TWI1_IRQHandler,"ax",%progbits
	.align	1
	.global	SPIM1_SPIS1_TWIM1_TWIS1_SPI1_TWI1_IRQHandler
	.syntax unified
	.thumb
	.thumb_func
	.fpu fpv4-sp-d16
	.type	SPIM1_SPIS1_TWIM1_TWIS1_SPI1_TWI1_IRQHandler, %function
SPIM1_SPIS1_TWIM1_TWIS1_SPI1_TWI1_IRQHandler:
.LFB280:
	.loc 7 718 1
	@ args = 0, pretend = 0, frame = 0
	@ frame_needed = 0, uses_anonymous_args = 0
	push	{r3, lr}
.LCFI110:
	.loc 7 719 5
	ldr	r1, .L195
	mov	r0, #1073758208
	bl	twi_irq_handler
	.loc 7 720 1
	nop
	pop	{r3, pc}
.L196:
	.align	2
.L195:
	.word	m_cb
.LFE280:
	.size	SPIM1_SPIS1_TWIM1_TWIS1_SPI1_TWI1_IRQHandler, .-SPIM1_SPIS1_TWIM1_TWIS1_SPI1_TWI1_IRQHandler
	.section	.rodata.irq_handlers.8811,"a"
	.align	2
	.type	irq_handlers.8811, %object
	.size	irq_handlers.8811, 4
irq_handlers.8811:
	.word	SPIM1_SPIS1_TWIM1_TWIS1_SPI1_TWI1_IRQHandler
	.section	.debug_frame,"",%progbits
.Lframe0:
	.4byte	.LECIE0-.LSCIE0
.LSCIE0:
	.4byte	0xffffffff
	.byte	0x3
	.ascii	"\000"
	.uleb128 0x1
	.sleb128 -4
	.uleb128 0xe
	.byte	0xc
	.uleb128 0xd
	.uleb128 0
	.align	2
.LECIE0:
.LSFDE0:
	.4byte	.LEFDE0-.LASFDE0
.LASFDE0:
	.4byte	.Lframe0
	.4byte	.LFB108
	.4byte	.LFE108-.LFB108
	.byte	0x4
	.4byte	.LCFI0-.LFB108
	.byte	0xe
	.uleb128 0x8
	.byte	0x4
	.4byte	.LCFI1-.LCFI0
	.byte	0xe
	.uleb128 0
	.align	2
.LEFDE0:
.LSFDE2:
	.4byte	.LEFDE2-.LASFDE2
.LASFDE2:
	.4byte	.Lframe0
	.4byte	.LFB109
	.4byte	.LFE109-.LFB109
	.byte	0x4
	.4byte	.LCFI2-.LFB109
	.byte	0xe
	.uleb128 0x8
	.byte	0x4
	.4byte	.LCFI3-.LCFI2
	.byte	0xe
	.uleb128 0
	.align	2
.LEFDE2:
.LSFDE4:
	.4byte	.LEFDE4-.LASFDE4
.LASFDE4:
	.4byte	.Lframe0
	.4byte	.LFB112
	.4byte	.LFE112-.LFB112
	.byte	0x4
	.4byte	.LCFI4-.LFB112
	.byte	0xe
	.uleb128 0x8
	.byte	0x4
	.4byte	.LCFI5-.LCFI4
	.byte	0xe
	.uleb128 0
	.align	2
.LEFDE4:
.LSFDE6:
	.4byte	.LEFDE6-.LASFDE6
.LASFDE6:
	.4byte	.Lframe0
	.4byte	.LFB114
	.4byte	.LFE114-.LFB114
	.byte	0x4
	.4byte	.LCFI6-.LFB114
	.byte	0xe
	.uleb128 0x8
	.byte	0x4
	.4byte	.LCFI7-.LCFI6
	.byte	0xe
	.uleb128 0
	.align	2
.LEFDE6:
.LSFDE8:
	.4byte	.LEFDE8-.LASFDE8
.LASFDE8:
	.4byte	.Lframe0
	.4byte	.LFB125
	.4byte	.LFE125-.LFB125
	.byte	0x4
	.4byte	.LCFI8-.LFB125
	.byte	0xe
	.uleb128 0x10
	.byte	0x4
	.4byte	.LCFI9-.LCFI8
	.byte	0xe
	.uleb128 0
	.align	2
.LEFDE8:
.LSFDE10:
	.4byte	.LEFDE10-.LASFDE10
.LASFDE10:
	.4byte	.Lframe0
	.4byte	.LFB146
	.4byte	.LFE146-.LFB146
	.byte	0x4
	.4byte	.LCFI10-.LFB146
	.byte	0xe
	.uleb128 0x4
	.byte	0x8e
	.uleb128 0x1
	.byte	0x4
	.4byte	.LCFI11-.LCFI10
	.byte	0xe
	.uleb128 0x10
	.byte	0x4
	.4byte	.LCFI12-.LCFI11
	.byte	0xe
	.uleb128 0x4
	.align	2
.LEFDE10:
.LSFDE12:
	.4byte	.LEFDE12-.LASFDE12
.LASFDE12:
	.4byte	.Lframe0
	.4byte	.LFB147
	.4byte	.LFE147-.LFB147
	.byte	0x4
	.4byte	.LCFI13-.LFB147
	.byte	0xe
	.uleb128 0x4
	.byte	0x8e
	.uleb128 0x1
	.byte	0x4
	.4byte	.LCFI14-.LCFI13
	.byte	0xe
	.uleb128 0x10
	.byte	0x4
	.4byte	.LCFI15-.LCFI14
	.byte	0xe
	.uleb128 0x4
	.align	2
.LEFDE12:
.LSFDE14:
	.4byte	.LEFDE14-.LASFDE14
.LASFDE14:
	.4byte	.Lframe0
	.4byte	.LFB149
	.4byte	.LFE149-.LFB149
	.byte	0x4
	.4byte	.LCFI16-.LFB149
	.byte	0xe
	.uleb128 0x4
	.byte	0x8e
	.uleb128 0x1
	.byte	0x4
	.4byte	.LCFI17-.LCFI16
	.byte	0xe
	.uleb128 0x10
	.byte	0x4
	.4byte	.LCFI18-.LCFI17
	.byte	0xe
	.uleb128 0x4
	.align	2
.LEFDE14:
.LSFDE16:
	.4byte	.LEFDE16-.LASFDE16
.LASFDE16:
	.4byte	.Lframe0
	.4byte	.LFB153
	.4byte	.LFE153-.LFB153
	.align	2
.LEFDE16:
.LSFDE18:
	.4byte	.LEFDE18-.LASFDE18
.LASFDE18:
	.4byte	.Lframe0
	.4byte	.LFB154
	.4byte	.LFE154-.LFB154
	.align	2
.LEFDE18:
.LSFDE20:
	.4byte	.LEFDE20-.LASFDE20
.LASFDE20:
	.4byte	.Lframe0
	.4byte	.LFB155
	.4byte	.LFE155-.LFB155
	.align	2
.LEFDE20:
.LSFDE22:
	.4byte	.LEFDE22-.LASFDE22
.LASFDE22:
	.4byte	.Lframe0
	.4byte	.LFB156
	.4byte	.LFE156-.LFB156
	.align	2
.LEFDE22:
.LSFDE24:
	.4byte	.LEFDE24-.LASFDE24
.LASFDE24:
	.4byte	.Lframe0
	.4byte	.LFB157
	.4byte	.LFE157-.LFB157
	.align	2
.LEFDE24:
.LSFDE26:
	.4byte	.LEFDE26-.LASFDE26
.LASFDE26:
	.4byte	.Lframe0
	.4byte	.LFB158
	.4byte	.LFE158-.LFB158
	.align	2
.LEFDE26:
.LSFDE28:
	.4byte	.LEFDE28-.LASFDE28
.LASFDE28:
	.4byte	.Lframe0
	.4byte	.LFB159
	.4byte	.LFE159-.LFB159
	.align	2
.LEFDE28:
.LSFDE30:
	.4byte	.LEFDE30-.LASFDE30
.LASFDE30:
	.4byte	.Lframe0
	.4byte	.LFB160
	.4byte	.LFE160-.LFB160
	.align	2
.LEFDE30:
.LSFDE32:
	.4byte	.LEFDE32-.LASFDE32
.LASFDE32:
	.4byte	.Lframe0
	.4byte	.LFB161
	.4byte	.LFE161-.LFB161
	.align	2
.LEFDE32:
.LSFDE34:
	.4byte	.LEFDE34-.LASFDE34
.LASFDE34:
	.4byte	.Lframe0
	.4byte	.LFB162
	.4byte	.LFE162-.LFB162
	.align	2
.LEFDE34:
.LSFDE36:
	.4byte	.LEFDE36-.LASFDE36
.LASFDE36:
	.4byte	.Lframe0
	.4byte	.LFB163
	.4byte	.LFE163-.LFB163
	.align	2
.LEFDE36:
.LSFDE38:
	.4byte	.LEFDE38-.LASFDE38
.LASFDE38:
	.4byte	.Lframe0
	.4byte	.LFB164
	.4byte	.LFE164-.LFB164
	.align	2
.LEFDE38:
.LSFDE40:
	.4byte	.LEFDE40-.LASFDE40
.LASFDE40:
	.4byte	.Lframe0
	.4byte	.LFB165
	.4byte	.LFE165-.LFB165
	.align	2
.LEFDE40:
.LSFDE42:
	.4byte	.LEFDE42-.LASFDE42
.LASFDE42:
	.4byte	.Lframe0
	.4byte	.LFB166
	.4byte	.LFE166-.LFB166
	.align	2
.LEFDE42:
.LSFDE44:
	.4byte	.LEFDE44-.LASFDE44
.LASFDE44:
	.4byte	.Lframe0
	.4byte	.LFB167
	.4byte	.LFE167-.LFB167
	.align	2
.LEFDE44:
.LSFDE46:
	.4byte	.LEFDE46-.LASFDE46
.LASFDE46:
	.4byte	.Lframe0
	.4byte	.LFB168
	.4byte	.LFE168-.LFB168
	.align	2
.LEFDE46:
.LSFDE48:
	.4byte	.LEFDE48-.LASFDE48
.LASFDE48:
	.4byte	.Lframe0
	.4byte	.LFB169
	.4byte	.LFE169-.LFB169
	.align	2
.LEFDE48:
.LSFDE50:
	.4byte	.LEFDE50-.LASFDE50
.LASFDE50:
	.4byte	.Lframe0
	.4byte	.LFB170
	.4byte	.LFE170-.LFB170
	.align	2
.LEFDE50:
.LSFDE52:
	.4byte	.LEFDE52-.LASFDE52
.LASFDE52:
	.4byte	.Lframe0
	.4byte	.LFB171
	.4byte	.LFE171-.LFB171
	.align	2
.LEFDE52:
.LSFDE54:
	.4byte	.LEFDE54-.LASFDE54
.LASFDE54:
	.4byte	.Lframe0
	.4byte	.LFB172
	.4byte	.LFE172-.LFB172
	.align	2
.LEFDE54:
.LSFDE56:
	.4byte	.LEFDE56-.LASFDE56
.LASFDE56:
	.4byte	.Lframe0
	.4byte	.LFB173
	.4byte	.LFE173-.LFB173
	.align	2
.LEFDE56:
.LSFDE58:
	.4byte	.LEFDE58-.LASFDE58
.LASFDE58:
	.4byte	.Lframe0
	.4byte	.LFB174
	.4byte	.LFE174-.LFB174
	.align	2
.LEFDE58:
.LSFDE60:
	.4byte	.LEFDE60-.LASFDE60
.LASFDE60:
	.4byte	.Lframe0
	.4byte	.LFB175
	.4byte	.LFE175-.LFB175
	.align	2
.LEFDE60:
.LSFDE62:
	.4byte	.LEFDE62-.LASFDE62
.LASFDE62:
	.4byte	.Lframe0
	.4byte	.LFB176
	.4byte	.LFE176-.LFB176
	.align	2
.LEFDE62:
.LSFDE64:
	.4byte	.LEFDE64-.LASFDE64
.LASFDE64:
	.4byte	.Lframe0
	.4byte	.LFB177
	.4byte	.LFE177-.LFB177
	.align	2
.LEFDE64:
.LSFDE66:
	.4byte	.LEFDE66-.LASFDE66
.LASFDE66:
	.4byte	.Lframe0
	.4byte	.LFB178
	.4byte	.LFE178-.LFB178
	.align	2
.LEFDE66:
.LSFDE68:
	.4byte	.LEFDE68-.LASFDE68
.LASFDE68:
	.4byte	.Lframe0
	.4byte	.LFB179
	.4byte	.LFE179-.LFB179
	.align	2
.LEFDE68:
.LSFDE70:
	.4byte	.LEFDE70-.LASFDE70
.LASFDE70:
	.4byte	.Lframe0
	.4byte	.LFB180
	.4byte	.LFE180-.LFB180
	.align	2
.LEFDE70:
.LSFDE72:
	.4byte	.LEFDE72-.LASFDE72
.LASFDE72:
	.4byte	.Lframe0
	.4byte	.LFB181
	.4byte	.LFE181-.LFB181
	.align	2
.LEFDE72:
.LSFDE74:
	.4byte	.LEFDE74-.LASFDE74
.LASFDE74:
	.4byte	.Lframe0
	.4byte	.LFB182
	.4byte	.LFE182-.LFB182
	.align	2
.LEFDE74:
.LSFDE76:
	.4byte	.LEFDE76-.LASFDE76
.LASFDE76:
	.4byte	.Lframe0
	.4byte	.LFB183
	.4byte	.LFE183-.LFB183
	.align	2
.LEFDE76:
.LSFDE78:
	.4byte	.LEFDE78-.LASFDE78
.LASFDE78:
	.4byte	.Lframe0
	.4byte	.LFB184
	.4byte	.LFE184-.LFB184
	.align	2
.LEFDE78:
.LSFDE80:
	.4byte	.LEFDE80-.LASFDE80
.LASFDE80:
	.4byte	.Lframe0
	.4byte	.LFB185
	.4byte	.LFE185-.LFB185
	.align	2
.LEFDE80:
.LSFDE82:
	.4byte	.LEFDE82-.LASFDE82
.LASFDE82:
	.4byte	.Lframe0
	.4byte	.LFB186
	.4byte	.LFE186-.LFB186
	.align	2
.LEFDE82:
.LSFDE84:
	.4byte	.LEFDE84-.LASFDE84
.LASFDE84:
	.4byte	.Lframe0
	.4byte	.LFB187
	.4byte	.LFE187-.LFB187
	.align	2
.LEFDE84:
.LSFDE86:
	.4byte	.LEFDE86-.LASFDE86
.LASFDE86:
	.4byte	.Lframe0
	.4byte	.LFB188
	.4byte	.LFE188-.LFB188
	.align	2
.LEFDE86:
.LSFDE88:
	.4byte	.LEFDE88-.LASFDE88
.LASFDE88:
	.4byte	.Lframe0
	.4byte	.LFB189
	.4byte	.LFE189-.LFB189
	.align	2
.LEFDE88:
.LSFDE90:
	.4byte	.LEFDE90-.LASFDE90
.LASFDE90:
	.4byte	.Lframe0
	.4byte	.LFB190
	.4byte	.LFE190-.LFB190
	.align	2
.LEFDE90:
.LSFDE92:
	.4byte	.LEFDE92-.LASFDE92
.LASFDE92:
	.4byte	.Lframe0
	.4byte	.LFB191
	.4byte	.LFE191-.LFB191
	.align	2
.LEFDE92:
.LSFDE94:
	.4byte	.LEFDE94-.LASFDE94
.LASFDE94:
	.4byte	.Lframe0
	.4byte	.LFB192
	.4byte	.LFE192-.LFB192
	.align	2
.LEFDE94:
.LSFDE96:
	.4byte	.LEFDE96-.LASFDE96
.LASFDE96:
	.4byte	.Lframe0
	.4byte	.LFB193
	.4byte	.LFE193-.LFB193
	.align	2
.LEFDE96:
.LSFDE98:
	.4byte	.LEFDE98-.LASFDE98
.LASFDE98:
	.4byte	.Lframe0
	.4byte	.LFB194
	.4byte	.LFE194-.LFB194
	.align	2
.LEFDE98:
.LSFDE100:
	.4byte	.LEFDE100-.LASFDE100
.LASFDE100:
	.4byte	.Lframe0
	.4byte	.LFB195
	.4byte	.LFE195-.LFB195
	.align	2
.LEFDE100:
.LSFDE102:
	.4byte	.LEFDE102-.LASFDE102
.LASFDE102:
	.4byte	.Lframe0
	.4byte	.LFB211
	.4byte	.LFE211-.LFB211
	.byte	0x4
	.4byte	.LCFI19-.LFB211
	.byte	0xe
	.uleb128 0x8
	.byte	0x4
	.4byte	.LCFI20-.LCFI19
	.byte	0xe
	.uleb128 0
	.align	2
.LEFDE102:
.LSFDE104:
	.4byte	.LEFDE104-.LASFDE104
.LASFDE104:
	.4byte	.Lframe0
	.4byte	.LFB213
	.4byte	.LFE213-.LFB213
	.byte	0x4
	.4byte	.LCFI21-.LFB213
	.byte	0xe
	.uleb128 0x10
	.byte	0x4
	.4byte	.LCFI22-.LCFI21
	.byte	0xe
	.uleb128 0
	.align	2
.LEFDE104:
.LSFDE106:
	.4byte	.LEFDE106-.LASFDE106
.LASFDE106:
	.4byte	.Lframe0
	.4byte	.LFB214
	.4byte	.LFE214-.LFB214
	.byte	0x4
	.4byte	.LCFI23-.LFB214
	.byte	0xe
	.uleb128 0x8
	.byte	0x4
	.4byte	.LCFI24-.LCFI23
	.byte	0xe
	.uleb128 0
	.align	2
.LEFDE106:
.LSFDE108:
	.4byte	.LEFDE108-.LASFDE108
.LASFDE108:
	.4byte	.Lframe0
	.4byte	.LFB215
	.4byte	.LFE215-.LFB215
	.byte	0x4
	.4byte	.LCFI25-.LFB215
	.byte	0xe
	.uleb128 0x8
	.byte	0x4
	.4byte	.LCFI26-.LCFI25
	.byte	0xe
	.uleb128 0
	.align	2
.LEFDE108:
.LSFDE110:
	.4byte	.LEFDE110-.LASFDE110
.LASFDE110:
	.4byte	.Lframe0
	.4byte	.LFB217
	.4byte	.LFE217-.LFB217
	.byte	0x4
	.4byte	.LCFI27-.LFB217
	.byte	0xe
	.uleb128 0x8
	.byte	0x4
	.4byte	.LCFI28-.LCFI27
	.byte	0xe
	.uleb128 0
	.align	2
.LEFDE110:
.LSFDE112:
	.4byte	.LEFDE112-.LASFDE112
.LASFDE112:
	.4byte	.Lframe0
	.4byte	.LFB218
	.4byte	.LFE218-.LFB218
	.byte	0x4
	.4byte	.LCFI29-.LFB218
	.byte	0xe
	.uleb128 0x8
	.byte	0x4
	.4byte	.LCFI30-.LCFI29
	.byte	0xe
	.uleb128 0
	.align	2
.LEFDE112:
.LSFDE114:
	.4byte	.LEFDE114-.LASFDE114
.LASFDE114:
	.4byte	.Lframe0
	.4byte	.LFB219
	.4byte	.LFE219-.LFB219
	.byte	0x4
	.4byte	.LCFI31-.LFB219
	.byte	0xe
	.uleb128 0x8
	.byte	0x4
	.4byte	.LCFI32-.LCFI31
	.byte	0xe
	.uleb128 0
	.align	2
.LEFDE114:
.LSFDE116:
	.4byte	.LEFDE116-.LASFDE116
.LASFDE116:
	.4byte	.Lframe0
	.4byte	.LFB221
	.4byte	.LFE221-.LFB221
	.byte	0x4
	.4byte	.LCFI33-.LFB221
	.byte	0xe
	.uleb128 0x8
	.byte	0x4
	.4byte	.LCFI34-.LCFI33
	.byte	0xe
	.uleb128 0
	.align	2
.LEFDE116:
.LSFDE118:
	.4byte	.LEFDE118-.LASFDE118
.LASFDE118:
	.4byte	.Lframe0
	.4byte	.LFB222
	.4byte	.LFE222-.LFB222
	.byte	0x4
	.4byte	.LCFI35-.LFB222
	.byte	0xe
	.uleb128 0x8
	.byte	0x4
	.4byte	.LCFI36-.LCFI35
	.byte	0xe
	.uleb128 0
	.align	2
.LEFDE118:
.LSFDE120:
	.4byte	.LEFDE120-.LASFDE120
.LASFDE120:
	.4byte	.Lframe0
	.4byte	.LFB223
	.4byte	.LFE223-.LFB223
	.byte	0x4
	.4byte	.LCFI37-.LFB223
	.byte	0xe
	.uleb128 0x10
	.byte	0x4
	.4byte	.LCFI38-.LCFI37
	.byte	0xe
	.uleb128 0
	.align	2
.LEFDE120:
.LSFDE122:
	.4byte	.LEFDE122-.LASFDE122
.LASFDE122:
	.4byte	.Lframe0
	.4byte	.LFB224
	.4byte	.LFE224-.LFB224
	.byte	0x4
	.4byte	.LCFI39-.LFB224
	.byte	0xe
	.uleb128 0x8
	.byte	0x4
	.4byte	.LCFI40-.LCFI39
	.byte	0xe
	.uleb128 0
	.align	2
.LEFDE122:
.LSFDE124:
	.4byte	.LEFDE124-.LASFDE124
.LASFDE124:
	.4byte	.Lframe0
	.4byte	.LFB225
	.4byte	.LFE225-.LFB225
	.byte	0x4
	.4byte	.LCFI41-.LFB225
	.byte	0xe
	.uleb128 0x10
	.byte	0x4
	.4byte	.LCFI42-.LCFI41
	.byte	0xe
	.uleb128 0
	.align	2
.LEFDE124:
.LSFDE126:
	.4byte	.LEFDE126-.LASFDE126
.LASFDE126:
	.4byte	.Lframe0
	.4byte	.LFB226
	.4byte	.LFE226-.LFB226
	.byte	0x4
	.4byte	.LCFI43-.LFB226
	.byte	0xe
	.uleb128 0x8
	.byte	0x4
	.4byte	.LCFI44-.LCFI43
	.byte	0xe
	.uleb128 0
	.align	2
.LEFDE126:
.LSFDE128:
	.4byte	.LEFDE128-.LASFDE128
.LASFDE128:
	.4byte	.Lframe0
	.4byte	.LFB227
	.4byte	.LFE227-.LFB227
	.byte	0x4
	.4byte	.LCFI45-.LFB227
	.byte	0xe
	.uleb128 0x8
	.byte	0x4
	.4byte	.LCFI46-.LCFI45
	.byte	0xe
	.uleb128 0
	.align	2
.LEFDE128:
.LSFDE130:
	.4byte	.LEFDE130-.LASFDE130
.LASFDE130:
	.4byte	.Lframe0
	.4byte	.LFB228
	.4byte	.LFE228-.LFB228
	.byte	0x4
	.4byte	.LCFI47-.LFB228
	.byte	0xe
	.uleb128 0x8
	.byte	0x4
	.4byte	.LCFI48-.LCFI47
	.byte	0xe
	.uleb128 0
	.align	2
.LEFDE130:
.LSFDE132:
	.4byte	.LEFDE132-.LASFDE132
.LASFDE132:
	.4byte	.Lframe0
	.4byte	.LFB229
	.4byte	.LFE229-.LFB229
	.byte	0x4
	.4byte	.LCFI49-.LFB229
	.byte	0xe
	.uleb128 0x8
	.byte	0x4
	.4byte	.LCFI50-.LCFI49
	.byte	0xe
	.uleb128 0
	.align	2
.LEFDE132:
.LSFDE134:
	.4byte	.LEFDE134-.LASFDE134
.LASFDE134:
	.4byte	.Lframe0
	.4byte	.LFB230
	.4byte	.LFE230-.LFB230
	.byte	0x4
	.4byte	.LCFI51-.LFB230
	.byte	0xe
	.uleb128 0x8
	.byte	0x4
	.4byte	.LCFI52-.LCFI51
	.byte	0xe
	.uleb128 0
	.align	2
.LEFDE134:
.LSFDE136:
	.4byte	.LEFDE136-.LASFDE136
.LASFDE136:
	.4byte	.Lframe0
	.4byte	.LFB233
	.4byte	.LFE233-.LFB233
	.byte	0x4
	.4byte	.LCFI53-.LFB233
	.byte	0xe
	.uleb128 0x4
	.byte	0x8e
	.uleb128 0x1
	.byte	0x4
	.4byte	.LCFI54-.LCFI53
	.byte	0xe
	.uleb128 0x18
	.byte	0x4
	.4byte	.LCFI55-.LCFI54
	.byte	0xe
	.uleb128 0x4
	.align	2
.LEFDE136:
.LSFDE138:
	.4byte	.LEFDE138-.LASFDE138
.LASFDE138:
	.4byte	.Lframe0
	.4byte	.LFB236
	.4byte	.LFE236-.LFB236
	.byte	0x4
	.4byte	.LCFI56-.LFB236
	.byte	0xe
	.uleb128 0x4
	.byte	0x8e
	.uleb128 0x1
	.byte	0x4
	.4byte	.LCFI57-.LCFI56
	.byte	0xe
	.uleb128 0x18
	.byte	0x4
	.4byte	.LCFI58-.LCFI57
	.byte	0xe
	.uleb128 0x4
	.align	2
.LEFDE138:
.LSFDE140:
	.4byte	.LEFDE140-.LASFDE140
.LASFDE140:
	.4byte	.Lframe0
	.4byte	.LFB262
	.4byte	.LFE262-.LFB262
	.byte	0x4
	.4byte	.LCFI59-.LFB262
	.byte	0xe
	.uleb128 0x10
	.byte	0x4
	.4byte	.LCFI60-.LCFI59
	.byte	0xe
	.uleb128 0
	.align	2
.LEFDE140:
.LSFDE142:
	.4byte	.LEFDE142-.LASFDE142
.LASFDE142:
	.4byte	.Lframe0
	.4byte	.LFB263
	.4byte	.LFE263-.LFB263
	.byte	0x4
	.4byte	.LCFI61-.LFB263
	.byte	0xe
	.uleb128 0x4
	.byte	0x8e
	.uleb128 0x1
	.byte	0x4
	.4byte	.LCFI62-.LCFI61
	.byte	0xe
	.uleb128 0x30
	.byte	0x4
	.4byte	.LCFI63-.LCFI62
	.byte	0xe
	.uleb128 0x4
	.align	2
.LEFDE142:
.LSFDE144:
	.4byte	.LEFDE144-.LASFDE144
.LASFDE144:
	.4byte	.Lframe0
	.4byte	.LFB264
	.4byte	.LFE264-.LFB264
	.byte	0x4
	.4byte	.LCFI64-.LFB264
	.byte	0xe
	.uleb128 0x4
	.byte	0x8e
	.uleb128 0x1
	.byte	0x4
	.4byte	.LCFI65-.LCFI64
	.byte	0xe
	.uleb128 0x18
	.byte	0x4
	.4byte	.LCFI66-.LCFI65
	.byte	0xe
	.uleb128 0x4
	.align	2
.LEFDE144:
.LSFDE146:
	.4byte	.LEFDE146-.LASFDE146
.LASFDE146:
	.4byte	.Lframe0
	.4byte	.LFB265
	.4byte	.LFE265-.LFB265
	.byte	0x4
	.4byte	.LCFI67-.LFB265
	.byte	0xe
	.uleb128 0x4
	.byte	0x8e
	.uleb128 0x1
	.byte	0x4
	.4byte	.LCFI68-.LCFI67
	.byte	0xe
	.uleb128 0x18
	.byte	0x4
	.4byte	.LCFI69-.LCFI68
	.byte	0xe
	.uleb128 0x4
	.align	2
.LEFDE146:
.LSFDE148:
	.4byte	.LEFDE148-.LASFDE148
.LASFDE148:
	.4byte	.Lframe0
	.4byte	.LFB266
	.4byte	.LFE266-.LFB266
	.byte	0x4
	.4byte	.LCFI70-.LFB266
	.byte	0xe
	.uleb128 0x4
	.byte	0x8e
	.uleb128 0x1
	.byte	0x4
	.4byte	.LCFI71-.LCFI70
	.byte	0xe
	.uleb128 0x18
	.byte	0x4
	.4byte	.LCFI72-.LCFI71
	.byte	0xe
	.uleb128 0x4
	.align	2
.LEFDE148:
.LSFDE150:
	.4byte	.LEFDE150-.LASFDE150
.LASFDE150:
	.4byte	.Lframe0
	.4byte	.LFB267
	.4byte	.LFE267-.LFB267
	.byte	0x4
	.4byte	.LCFI73-.LFB267
	.byte	0xe
	.uleb128 0x4
	.byte	0x8e
	.uleb128 0x1
	.byte	0x4
	.4byte	.LCFI74-.LCFI73
	.byte	0xe
	.uleb128 0x18
	.byte	0x4
	.4byte	.LCFI75-.LCFI74
	.byte	0xe
	.uleb128 0x4
	.align	2
.LEFDE150:
.LSFDE152:
	.4byte	.LEFDE152-.LASFDE152
.LASFDE152:
	.4byte	.Lframe0
	.4byte	.LFB268
	.4byte	.LFE268-.LFB268
	.byte	0x4
	.4byte	.LCFI76-.LFB268
	.byte	0xe
	.uleb128 0x8
	.byte	0x84
	.uleb128 0x2
	.byte	0x8e
	.uleb128 0x1
	.byte	0x4
	.4byte	.LCFI77-.LCFI76
	.byte	0xe
	.uleb128 0x18
	.byte	0x4
	.4byte	.LCFI78-.LCFI77
	.byte	0xe
	.uleb128 0x8
	.align	2
.LEFDE152:
.LSFDE154:
	.4byte	.LEFDE154-.LASFDE154
.LASFDE154:
	.4byte	.Lframe0
	.4byte	.LFB269
	.4byte	.LFE269-.LFB269
	.byte	0x4
	.4byte	.LCFI79-.LFB269
	.byte	0xe
	.uleb128 0x4
	.byte	0x8e
	.uleb128 0x1
	.byte	0x4
	.4byte	.LCFI80-.LCFI79
	.byte	0xe
	.uleb128 0x28
	.byte	0x4
	.4byte	.LCFI81-.LCFI80
	.byte	0xe
	.uleb128 0x4
	.align	2
.LEFDE154:
.LSFDE156:
	.4byte	.LEFDE156-.LASFDE156
.LASFDE156:
	.4byte	.Lframe0
	.4byte	.LFB270
	.4byte	.LFE270-.LFB270
	.byte	0x4
	.4byte	.LCFI82-.LFB270
	.byte	0xe
	.uleb128 0x4
	.byte	0x8e
	.uleb128 0x1
	.byte	0x4
	.4byte	.LCFI83-.LCFI82
	.byte	0xe
	.uleb128 0x30
	.byte	0x4
	.4byte	.LCFI84-.LCFI83
	.byte	0xe
	.uleb128 0x4
	.align	2
.LEFDE156:
.LSFDE158:
	.4byte	.LEFDE158-.LASFDE158
.LASFDE158:
	.4byte	.Lframe0
	.4byte	.LFB271
	.4byte	.LFE271-.LFB271
	.byte	0x4
	.4byte	.LCFI85-.LFB271
	.byte	0xe
	.uleb128 0x4
	.byte	0x8e
	.uleb128 0x1
	.byte	0x4
	.4byte	.LCFI86-.LCFI85
	.byte	0xe
	.uleb128 0x30
	.byte	0x4
	.4byte	.LCFI87-.LCFI86
	.byte	0xe
	.uleb128 0x4
	.align	2
.LEFDE158:
.LSFDE160:
	.4byte	.LEFDE160-.LASFDE160
.LASFDE160:
	.4byte	.Lframe0
	.4byte	.LFB272
	.4byte	.LFE272-.LFB272
	.byte	0x4
	.4byte	.LCFI88-.LFB272
	.byte	0xe
	.uleb128 0xc
	.byte	0x84
	.uleb128 0x3
	.byte	0x85
	.uleb128 0x2
	.byte	0x8e
	.uleb128 0x1
	.byte	0x4
	.4byte	.LCFI89-.LCFI88
	.byte	0xe
	.uleb128 0x30
	.byte	0x4
	.4byte	.LCFI90-.LCFI89
	.byte	0xe
	.uleb128 0xc
	.align	2
.LEFDE160:
.LSFDE162:
	.4byte	.LEFDE162-.LASFDE162
.LASFDE162:
	.4byte	.Lframe0
	.4byte	.LFB273
	.4byte	.LFE273-.LFB273
	.byte	0x4
	.4byte	.LCFI91-.LFB273
	.byte	0xe
	.uleb128 0x10
	.byte	0x4
	.4byte	.LCFI92-.LCFI91
	.byte	0xe
	.uleb128 0
	.align	2
.LEFDE162:
.LSFDE164:
	.4byte	.LEFDE164-.LASFDE164
.LASFDE164:
	.4byte	.Lframe0
	.4byte	.LFB274
	.4byte	.LFE274-.LFB274
	.byte	0x4
	.4byte	.LCFI93-.LFB274
	.byte	0xe
	.uleb128 0x4
	.byte	0x8e
	.uleb128 0x1
	.byte	0x4
	.4byte	.LCFI94-.LCFI93
	.byte	0xe
	.uleb128 0x20
	.byte	0x4
	.4byte	.LCFI95-.LCFI94
	.byte	0xe
	.uleb128 0x4
	.align	2
.LEFDE164:
.LSFDE166:
	.4byte	.LEFDE166-.LASFDE166
.LASFDE166:
	.4byte	.Lframe0
	.4byte	.LFB275
	.4byte	.LFE275-.LFB275
	.byte	0x4
	.4byte	.LCFI96-.LFB275
	.byte	0xe
	.uleb128 0x4
	.byte	0x8e
	.uleb128 0x1
	.byte	0x4
	.4byte	.LCFI97-.LCFI96
	.byte	0xe
	.uleb128 0x30
	.byte	0x4
	.4byte	.LCFI98-.LCFI97
	.byte	0xe
	.uleb128 0x4
	.align	2
.LEFDE166:
.LSFDE168:
	.4byte	.LEFDE168-.LASFDE168
.LASFDE168:
	.4byte	.Lframe0
	.4byte	.LFB276
	.4byte	.LFE276-.LFB276
	.byte	0x4
	.4byte	.LCFI99-.LFB276
	.byte	0xe
	.uleb128 0x4
	.byte	0x8e
	.uleb128 0x1
	.byte	0x4
	.4byte	.LCFI100-.LCFI99
	.byte	0xe
	.uleb128 0x30
	.byte	0x4
	.4byte	.LCFI101-.LCFI100
	.byte	0xe
	.uleb128 0x4
	.align	2
.LEFDE168:
.LSFDE170:
	.4byte	.LEFDE170-.LASFDE170
.LASFDE170:
	.4byte	.Lframe0
	.4byte	.LFB277
	.4byte	.LFE277-.LFB277
	.byte	0x4
	.4byte	.LCFI102-.LFB277
	.byte	0xe
	.uleb128 0x8
	.byte	0x4
	.4byte	.LCFI103-.LCFI102
	.byte	0xe
	.uleb128 0
	.align	2
.LEFDE170:
.LSFDE172:
	.4byte	.LEFDE172-.LASFDE172
.LASFDE172:
	.4byte	.Lframe0
	.4byte	.LFB278
	.4byte	.LFE278-.LFB278
	.byte	0x4
	.4byte	.LCFI104-.LFB278
	.byte	0xe
	.uleb128 0x4
	.byte	0x8e
	.uleb128 0x1
	.byte	0x4
	.4byte	.LCFI105-.LCFI104
	.byte	0xe
	.uleb128 0x10
	.byte	0x4
	.4byte	.LCFI106-.LCFI105
	.byte	0xe
	.uleb128 0x4
	.align	2
.LEFDE172:
.LSFDE174:
	.4byte	.LEFDE174-.LASFDE174
.LASFDE174:
	.4byte	.Lframe0
	.4byte	.LFB279
	.4byte	.LFE279-.LFB279
	.byte	0x4
	.4byte	.LCFI107-.LFB279
	.byte	0xe
	.uleb128 0xc
	.byte	0x84
	.uleb128 0x3
	.byte	0x85
	.uleb128 0x2
	.byte	0x8e
	.uleb128 0x1
	.byte	0x4
	.4byte	.LCFI108-.LCFI107
	.byte	0xe
	.uleb128 0x40
	.byte	0x4
	.4byte	.LCFI109-.LCFI108
	.byte	0xe
	.uleb128 0xc
	.align	2
.LEFDE174:
.LSFDE176:
	.4byte	.LEFDE176-.LASFDE176
.LASFDE176:
	.4byte	.Lframe0
	.4byte	.LFB280
	.4byte	.LFE280-.LFB280
	.byte	0x4
	.4byte	.LCFI110-.LFB280
	.byte	0xe
	.uleb128 0x8
	.byte	0x83
	.uleb128 0x2
	.byte	0x8e
	.uleb128 0x1
	.align	2
.LEFDE176:
	.text
.Letext0:
	.file 8 "../../../../../../modules/nrfx/drivers/include/nrfx_twi.h"
	.file 9 "C:/Program Files (x86)/SEGGER/SEGGER Embedded Studio for ARM 4.50/include/stdint.h"