	.cpu cortex-m4
	.eabi_attribute 27, 1
	.eabi_attribute 28, 1
	.eabi_attribute 20, 1
	.eabi_attribute 21, 1
	.eabi_attribute 23, 3
	.eabi_attribute 24, 1
	.eabi_attribute 25, 1
	.eabi_attribute 26, 1
	.eabi_attribute 30, 6
	.eabi_attribute 34, 1
	.eabi_attribute 18, 4
	.file	"queue.c"
	.text
.Ltext0:
	.section	.text.sd_mutex_new,"ax",%progbits
	.align	1
	.syntax unified
	.thumb
	.thumb_func
	.fpu fpv4-sp-d16
	.type	sd_mutex_new, %function
sd_mutex_new:
.LFB124:
	.file 1 "../../../../../../components/softdevice/s132/headers/nrf_soc.h"
	.loc 1 393 101
	@ Naked Function: prologue and epilogue provided by programmer.
	@ args = 0, pretend = 0, frame = 0
	@ frame_needed = 0, uses_anonymous_args = 0
	.loc 1 393 103
	.syntax unified
@ 393 "../../../../../../components/softdevice/s132/headers/nrf_soc.h" 1
	svc #44
bx r14
@ 0 "" 2
	.loc 1 393 2
	.thumb
	.syntax unified
	nop
	mov	r0, r3
.LFE124:
	.size	sd_mutex_new, .-sd_mutex_new
	.section	.text.sd_mutex_acquire,"ax",%progbits
	.align	1
	.syntax unified
	.thumb
	.thumb_func
	.fpu fpv4-sp-d16
	.type	sd_mutex_acquire, %function
sd_mutex_acquire:
.LFB125:
	.loc 1 402 105
	@ Naked Function: prologue and epilogue provided by programmer.
	@ args = 0, pretend = 0, frame = 0
	@ frame_needed = 0, uses_anonymous_args = 0
	.loc 1 402 107
	.syntax unified
@ 402 "../../../../../../components/softdevice/s132/headers/nrf_soc.h" 1
	svc #45
bx r14
@ 0 "" 2
	.loc 1 402 2
	.thumb
	.syntax unified
	nop
	mov	r0, r3
.LFE125:
	.size	sd_mutex_acquire, .-sd_mutex_acquire
	.section	.text.sd_mutex_release,"ax",%progbits
	.align	1
	.syntax unified
	.thumb
	.thumb_func
	.fpu fpv4-sp-d16
	.type	sd_mutex_release, %function
sd_mutex_release:
.LFB126:
	.loc 1 410 105
	@ Naked Function: prologue and epilogue provided by programmer.
	@ args = 0, pretend = 0, frame = 0
	@ frame_needed = 0, uses_anonymous_args = 0
	.loc 1 410 107
	.syntax unified
@ 410 "../../../../../../components/softdevice/s132/headers/nrf_soc.h" 1
	svc #46
bx r14
@ 0 "" 2
	.loc 1 410 2
	.thumb
	.syntax unified
	nop
	mov	r0, r3
.LFE126:
	.size	sd_mutex_release, .-sd_mutex_release
	.section	.text.sd_rand_application_pool_capacity_get,"ax",%progbits
	.align	1
	.syntax unified
	.thumb
	.thumb_func
	.fpu fpv4-sp-d16
	.type	sd_rand_application_pool_capacity_get, %function
sd_rand_application_pool_capacity_get:
.LFB127:
	.loc 1 418 130
	@ Naked Function: prologue and epilogue provided by programmer.
	@ args = 0, pretend = 0, frame = 0
	@ frame_needed = 0, uses_anonymous_args = 0
	.loc 1 418 132
	.syntax unified
@ 418 "../../../../../../components/softdevice/s132/headers/nrf_soc.h" 1
	svc #47
bx r14
@ 0 "" 2
	.loc 1 418 2
	.thumb
	.syntax unified
	nop
	mov	r0, r3
.LFE127:
	.size	sd_rand_application_pool_capacity_get, .-sd_rand_application_pool_capacity_get
	.section	.text.sd_rand_application_bytes_available_get,"ax",%progbits
	.align	1
	.syntax unified
	.thumb
	.thumb_func
	.fpu fpv4-sp-d16
	.type	sd_rand_application_bytes_available_get, %function
sd_rand_application_bytes_available_get:
.LFB128:
	.loc 1 426 134
	@ Naked Function: prologue and epilogue provided by programmer.
	@ args = 0, pretend = 0, frame = 0
	@ frame_needed = 0, uses_anonymous_args = 0
	.loc 1 426 136
	.syntax unified
@ 426 "../../../../../../components/softdevice/s132/headers/nrf_soc.h" 1
	svc #48
bx r14
@ 0 "" 2
	.loc 1 426 2
	.thumb
	.syntax unified
	nop
	mov	r0, r3
.LFE128:
	.size	sd_rand_application_bytes_available_get, .-sd_rand_application_bytes_available_get
	.section	.text.sd_rand_application_vector_get,"ax",%progbits
	.align	1
	.syntax unified
	.thumb
	.thumb_func
	.fpu fpv4-sp-d16
	.type	sd_rand_application_vector_get, %function
sd_rand_application_vector_get:
.LFB129:
	.loc 1 436 130
	@ Naked Function: prologue and epilogue provided by programmer.
	@ args = 0, pretend = 0, frame = 0
	@ frame_needed = 0, uses_anonymous_args = 0
	.loc 1 436 132
	.syntax unified
@ 436 "../../../../../../components/softdevice/s132/headers/nrf_soc.h" 1
	svc #49
bx r14
@ 0 "" 2
	.loc 1 436 2
	.thumb
	.syntax unified
	nop
	mov	r0, r3
.LFE129:
	.size	sd_rand_application_vector_get, .-sd_rand_application_vector_get
	.section	.text.sd_power_reset_reason_get,"ax",%progbits
	.align	1
	.syntax unified
	.thumb
	.thumb_func
	.fpu fpv4-sp-d16
	.type	sd_power_reset_reason_get, %function
sd_power_reset_reason_get:
.LFB130:
	.loc 1 444 118
	@ Naked Function: prologue and epilogue provided by programmer.
	@ args = 0, pretend = 0, frame = 0
	@ frame_needed = 0, uses_anonymous_args = 0
	.loc 1 444 120
	.syntax unified
@ 444 "../../../../../../components/softdevice/s132/headers/nrf_soc.h" 1
	svc #52
bx r14
@ 0 "" 2
	.loc 1 444 2
	.thumb
	.syntax unified
	nop
	mov	r0, r3
.LFE130:
	.size	sd_power_reset_reason_get, .-sd_power_reset_reason_get
	.section	.text.sd_power_reset_reason_clr,"ax",%progbits
	.align	1
	.syntax unified
	.thumb
	.thumb_func
	.fpu fpv4-sp-d16
	.type	sd_power_reset_reason_clr, %function
sd_power_reset_reason_clr:
.LFB131:
	.loc 1 452 122
	@ Naked Function: prologue and epilogue provided by programmer.
	@ args = 0, pretend = 0, frame = 0
	@ frame_needed = 0, uses_anonymous_args = 0
	.loc 1 452 124
	.syntax unified
@ 452 "../../../../../../components/softdevice/s132/headers/nrf_soc.h" 1
	svc #53
bx r14
@ 0 "" 2
	.loc 1 452 2
	.thumb
	.syntax unified
	nop
	mov	r0, r3
.LFE131:
	.size	sd_power_reset_reason_clr, .-sd_power_reset_reason_clr
	.section	.text.sd_power_mode_set,"ax",%progbits
	.align	1
	.syntax unified
	.thumb
	.thumb_func
	.fpu fpv4-sp-d16
	.type	sd_power_mode_set, %function
sd_power_mode_set:
.LFB132:
	.loc 1 461 103
	@ Naked Function: prologue and epilogue provided by programmer.
	@ args = 0, pretend = 0, frame = 0
	@ frame_needed = 0, uses_anonymous_args = 0
	.loc 1 461 105
	.syntax unified
@ 461 "../../../../../../components/softdevice/s132/headers/nrf_soc.h" 1
	svc #50
bx r14
@ 0 "" 2
	.loc 1 461 2
	.thumb
	.syntax unified
	nop
	mov	r0, r3
.LFE132:
	.size	sd_power_mode_set, .-sd_power_mode_set
	.section	.text.sd_power_system_off,"ax",%progbits
	.align	1
	.syntax unified
	.thumb
	.thumb_func
	.fpu fpv4-sp-d16
	.type	sd_power_system_off, %function
sd_power_system_off:
.LFB133:
	.loc 1 467 91
	@ Naked Function: prologue and epilogue provided by programmer.
	@ args = 0, pretend = 0, frame = 0
	@ frame_needed = 0, uses_anonymous_args = 0
	.loc 1 467 93
	.syntax unified
@ 467 "../../../../../../components/softdevice/s132/headers/nrf_soc.h" 1
	svc #51
bx r14
@ 0 "" 2
	.loc 1 467 2
	.thumb
	.syntax unified
	nop
	mov	r0, r3
.LFE133:
	.size	sd_power_system_off, .-sd_power_system_off
	.section	.text.sd_power_pof_enable,"ax",%progbits
	.align	1
	.syntax unified
	.thumb
	.thumb_func
	.fpu fpv4-sp-d16
	.type	sd_power_pof_enable, %function
sd_power_pof_enable:
.LFB134:
	.loc 1 478 105
	@ Naked Function: prologue and epilogue provided by programmer.
	@ args = 0, pretend = 0, frame = 0
	@ frame_needed = 0, uses_anonymous_args = 0
	.loc 1 478 107
	.syntax unified
@ 478 "../../../../../../components/softdevice/s132/headers/nrf_soc.h" 1
	svc #54
bx r14
@ 0 "" 2
	.loc 1 478 2
	.thumb
	.syntax unified
	nop
	mov	r0, r3
.LFE134:
	.size	sd_power_pof_enable, .-sd_power_pof_enable
	.section	.text.sd_power_pof_threshold_set,"ax",%progbits
	.align	1
	.syntax unified
	.thumb
	.thumb_func
	.fpu fpv4-sp-d16
	.type	sd_power_pof_threshold_set, %function
sd_power_pof_threshold_set:
.LFB135:
	.loc 1 489 111
	@ Naked Function: prologue and epilogue provided by programmer.
	@ args = 0, pretend = 0, frame = 0
	@ frame_needed = 0, uses_anonymous_args = 0
	.loc 1 489 113
	.syntax unified
@ 489 "../../../../../../components/softdevice/s132/headers/nrf_soc.h" 1
	svc #55
bx r14
@ 0 "" 2
	.loc 1 489 2
	.thumb
	.syntax unified
	nop
	mov	r0, r3
.LFE135:
	.size	sd_power_pof_threshold_set, .-sd_power_pof_threshold_set
	.section	.text.sd_power_ram_power_set,"ax",%progbits
	.align	1
	.syntax unified
	.thumb
	.thumb_func
	.fpu fpv4-sp-d16
	.type	sd_power_ram_power_set, %function
sd_power_ram_power_set:
.LFB136:
	.loc 1 499 126
	@ Naked Function: prologue and epilogue provided by programmer.
	@ args = 0, pretend = 0, frame = 0
	@ frame_needed = 0, uses_anonymous_args = 0
	.loc 1 499 128
	.syntax unified
@ 499 "../../../../../../components/softdevice/s132/headers/nrf_soc.h" 1
	svc #57
bx r14
@ 0 "" 2
	.loc 1 499 2
	.thumb
	.syntax unified
	nop
	mov	r0, r3
.LFE136:
	.size	sd_power_ram_power_set, .-sd_power_ram_power_set
	.section	.text.sd_power_ram_power_clr,"ax",%progbits
	.align	1
	.syntax unified
	.thumb
	.thumb_func
	.fpu fpv4-sp-d16
	.type	sd_power_ram_power_clr, %function
sd_power_ram_power_clr:
.LFB137:
	.loc 1 508 126
	@ Naked Function: prologue and epilogue provided by programmer.
	@ args = 0, pretend = 0, frame = 0
	@ frame_needed = 0, uses_anonymous_args = 0
	.loc 1 508 128
	.syntax unified
@ 508 "../../../../../../components/softdevice/s132/headers/nrf_soc.h" 1
	svc #58
bx r14
@ 0 "" 2
	.loc 1 508 2
	.thumb
	.syntax unified
	nop
	mov	r0, r3
.LFE137:
	.size	sd_power_ram_power_clr, .-sd_power_ram_power_clr
	.section	.text.sd_power_ram_power_get,"ax",%progbits
	.align	1
	.syntax unified
	.thumb
	.thumb_func
	.fpu fpv4-sp-d16
	.type	sd_power_ram_power_get, %function
sd_power_ram_power_get:
.LFB138:
	.loc 1 517 127
	@ Naked Function: prologue and epilogue provided by programmer.
	@ args = 0, pretend = 0, frame = 0
	@ frame_needed = 0, uses_anonymous_args = 0
	.loc 1 517 129
	.syntax unified
@ 517 "../../../../../../components/softdevice/s132/headers/nrf_soc.h" 1
	svc #59
bx r14
@ 0 "" 2
	.loc 1 517 2
	.thumb
	.syntax unified
	nop
	mov	r0, r3
.LFE138:
	.size	sd_power_ram_power_get, .-sd_power_ram_power_get
	.section	.text.sd_power_gpregret_set,"ax",%progbits
	.align	1
	.syntax unified
	.thumb
	.thumb_func
	.fpu fpv4-sp-d16
	.type	sd_power_gpregret_set, %function
sd_power_gpregret_set:
.LFB139:
	.loc 1 526 132
	@ Naked Function: prologue and epilogue provided by programmer.
	@ args = 0, pretend = 0, frame = 0
	@ frame_needed = 0, uses_anonymous_args = 0
	.loc 1 526 134
	.syntax unified
@ 526 "../../../../../../components/softdevice/s132/headers/nrf_soc.h" 1
	svc #60
bx r14
@ 0 "" 2
	.loc 1 526 2
	.thumb
	.syntax unified
	nop
	mov	r0, r3
.LFE139:
	.size	sd_power_gpregret_set, .-sd_power_gpregret_set
	.section	.text.sd_power_gpregret_clr,"ax",%progbits
	.align	1
	.syntax unified
	.thumb
	.thumb_func
	.fpu fpv4-sp-d16
	.type	sd_power_gpregret_clr, %function
sd_power_gpregret_clr:
.LFB140:
	.loc 1 535 132
	@ Naked Function: prologue and epilogue provided by programmer.
	@ args = 0, pretend = 0, frame = 0
	@ frame_needed = 0, uses_anonymous_args = 0
	.loc 1 535 134
	.syntax unified
@ 535 "../../../../../../components/softdevice/s132/headers/nrf_soc.h" 1
	svc #61
bx r14
@ 0 "" 2
	.loc 1 535 2
	.thumb
	.syntax unified
	nop
	mov	r0, r3
.LFE140:
	.size	sd_power_gpregret_clr, .-sd_power_gpregret_clr
	.section	.text.sd_power_gpregret_get,"ax",%progbits
	.align	1
	.syntax unified
	.thumb
	.thumb_func
	.fpu fpv4-sp-d16
	.type	sd_power_gpregret_get, %function
sd_power_gpregret_get:
.LFB141:
	.loc 1 544 131
	@ Naked Function: prologue and epilogue provided by programmer.
	@ args = 0, pretend = 0, frame = 0
	@ frame_needed = 0, uses_anonymous_args = 0
	.loc 1 544 133
	.syntax unified
@ 544 "../../../../../../components/softdevice/s132/headers/nrf_soc.h" 1
	svc #62
bx r14
@ 0 "" 2
	.loc 1 544 2
	.thumb
	.syntax unified
	nop
	mov	r0, r3
.LFE141:
	.size	sd_power_gpregret_get, .-sd_power_gpregret_get
	.section	.text.sd_power_dcdc_mode_set,"ax",%progbits
	.align	1
	.syntax unified
	.thumb
	.thumb_func
	.fpu fpv4-sp-d16
	.type	sd_power_dcdc_mode_set, %function
sd_power_dcdc_mode_set:
.LFB142:
	.loc 1 553 107
	@ Naked Function: prologue and epilogue provided by programmer.
	@ args = 0, pretend = 0, frame = 0
	@ frame_needed = 0, uses_anonymous_args = 0
	.loc 1 553 109
	.syntax unified
@ 553 "../../../../../../components/softdevice/s132/headers/nrf_soc.h" 1
	svc #63
bx r14
@ 0 "" 2
	.loc 1 553 2
	.thumb
	.syntax unified
	nop
	mov	r0, r3
.LFE142:
	.size	sd_power_dcdc_mode_set, .-sd_power_dcdc_mode_set
	.section	.text.sd_clock_hfclk_request,"ax",%progbits
	.align	1
	.syntax unified
	.thumb
	.thumb_func
	.fpu fpv4-sp-d16
	.type	sd_clock_hfclk_request, %function
sd_clock_hfclk_request:
.LFB143:
	.loc 1 566 94
	@ Naked Function: prologue and epilogue provided by programmer.
	@ args = 0, pretend = 0, frame = 0
	@ frame_needed = 0, uses_anonymous_args = 0
	.loc 1 566 96
	.syntax unified
@ 566 "../../../../../../components/softdevice/s132/headers/nrf_soc.h" 1
	svc #66
bx r14
@ 0 "" 2
	.loc 1 566 2
	.thumb
	.syntax unified
	nop
	mov	r0, r3
.LFE143:
	.size	sd_clock_hfclk_request, .-sd_clock_hfclk_request
	.section	.text.sd_clock_hfclk_release,"ax",%progbits
	.align	1
	.syntax unified
	.thumb
	.thumb_func
	.fpu fpv4-sp-d16
	.type	sd_clock_hfclk_release, %function
sd_clock_hfclk_release:
.LFB144:
	.loc 1 577 94
	@ Naked Function: prologue and epilogue provided by programmer.
	@ args = 0, pretend = 0, frame = 0
	@ frame_needed = 0, uses_anonymous_args = 0
	.loc 1 577 96
	.syntax unified
@ 577 "../../../../../../components/softdevice/s132/headers/nrf_soc.h" 1
	svc #67
bx r14
@ 0 "" 2
	.loc 1 577 2
	.thumb
	.syntax unified
	nop
	mov	r0, r3
.LFE144:
	.size	sd_clock_hfclk_release, .-sd_clock_hfclk_release
	.section	.text.sd_clock_hfclk_is_running,"ax",%progbits
	.align	1
	.syntax unified
	.thumb
	.thumb_func
	.fpu fpv4-sp-d16
	.type	sd_clock_hfclk_is_running, %function
sd_clock_hfclk_is_running:
.LFB145:
	.loc 1 588 116
	@ Naked Function: prologue and epilogue provided by programmer.
	@ args = 0, pretend = 0, frame = 0
	@ frame_needed = 0, uses_anonymous_args = 0
	.loc 1 588 118
	.syntax unified
@ 588 "../../../../../../components/softdevice/s132/headers/nrf_soc.h" 1
	svc #68
bx r14
@ 0 "" 2
	.loc 1 588 2
	.thumb
	.syntax unified
	nop
	mov	r0, r3
.LFE145:
	.size	sd_clock_hfclk_is_running, .-sd_clock_hfclk_is_running
	.section	.text.sd_app_evt_wait,"ax",%progbits
	.align	1
	.syntax unified
	.thumb
	.thumb_func
	.fpu fpv4-sp-d16
	.type	sd_app_evt_wait, %function
sd_app_evt_wait:
.LFB146:
	.loc 1 616 87
	@ Naked Function: prologue and epilogue provided by programmer.
	@ args = 0, pretend = 0, frame = 0
	@ frame_needed = 0, uses_anonymous_args = 0
	.loc 1 616 89
	.syntax unified
@ 616 "../../../../../../components/softdevice/s132/headers/nrf_soc.h" 1
	svc #65
bx r14
@ 0 "" 2
	.loc 1 616 2
	.thumb
	.syntax unified
	nop
	mov	r0, r3
.LFE146:
	.size	sd_app_evt_wait, .-sd_app_evt_wait
	.section	.text.sd_ppi_channel_enable_get,"ax",%progbits
	.align	1
	.syntax unified
	.thumb
	.thumb_func
	.fpu fpv4-sp-d16
	.type	sd_ppi_channel_enable_get, %function
sd_ppi_channel_enable_get:
.LFB147:
	.loc 1 624 120
	@ Naked Function: prologue and epilogue provided by programmer.
	@ args = 0, pretend = 0, frame = 0
	@ frame_needed = 0, uses_anonymous_args = 0
	.loc 1 624 122
	.syntax unified
@ 624 "../../../../../../components/softdevice/s132/headers/nrf_soc.h" 1
	svc #32
bx r14
@ 0 "" 2
	.loc 1 624 2
	.thumb
	.syntax unified
	nop
	mov	r0, r3
.LFE147:
	.size	sd_ppi_channel_enable_get, .-sd_ppi_channel_enable_get
	.section	.text.sd_ppi_channel_enable_set,"ax",%progbits
	.align	1
	.syntax unified
	.thumb
	.thumb_func
	.fpu fpv4-sp-d16
	.type	sd_ppi_channel_enable_set, %function
sd_ppi_channel_enable_set:
.LFB148:
	.loc 1 632 124
	@ Naked Function: prologue and epilogue provided by programmer.
	@ args = 0, pretend = 0, frame = 0
	@ frame_needed = 0, uses_anonymous_args = 0
	.loc 1 632 126
	.syntax unified
@ 632 "../../../../../../components/softdevice/s132/headers/nrf_soc.h" 1
	svc #33
bx r14
@ 0 "" 2
	.loc 1 632 2
	.thumb
	.syntax unified
	nop
	mov	r0, r3
.LFE148:
	.size	sd_ppi_channel_enable_set, .-sd_ppi_channel_enable_set
	.section	.text.sd_ppi_channel_enable_clr,"ax",%progbits
	.align	1
	.syntax unified
	.thumb
	.thumb_func
	.fpu fpv4-sp-d16
	.type	sd_ppi_channel_enable_clr, %function
sd_ppi_channel_enable_clr:
.LFB149:
	.loc 1 640 124
	@ Naked Function: prologue and epilogue provided by programmer.
	@ args = 0, pretend = 0, frame = 0
	@ frame_needed = 0, uses_anonymous_args = 0
	.loc 1 640 126
	.syntax unified
@ 640 "../../../../../../components/softdevice/s132/headers/nrf_soc.h" 1
	svc #34
bx r14
@ 0 "" 2
	.loc 1 640 2
	.thumb
	.syntax unified
	nop
	mov	r0, r3
.LFE149:
	.size	sd_ppi_channel_enable_clr, .-sd_ppi_channel_enable_clr
	.section	.text.sd_ppi_channel_assign,"ax",%progbits
	.align	1
	.syntax unified
	.thumb
	.thumb_func
	.fpu fpv4-sp-d16
	.type	sd_ppi_channel_assign, %function
sd_ppi_channel_assign:
.LFB150:
	.loc 1 651 181
	@ Naked Function: prologue and epilogue provided by programmer.
	@ args = 0, pretend = 0, frame = 0
	@ frame_needed = 0, uses_anonymous_args = 0
	.loc 1 651 183
	.syntax unified
@ 651 "../../../../../../components/softdevice/s132/headers/nrf_soc.h" 1
	svc #35
bx r14
@ 0 "" 2
	.loc 1 651 2
	.thumb
	.syntax unified
	nop
	mov	r0, r3
.LFE150:
	.size	sd_ppi_channel_assign, .-sd_ppi_channel_assign
	.section	.text.sd_ppi_group_task_enable,"ax",%progbits
	.align	1
	.syntax unified
	.thumb
	.thumb_func
	.fpu fpv4-sp-d16
	.type	sd_ppi_group_task_enable, %function
sd_ppi_group_task_enable:
.LFB151:
	.loc 1 660 109
	@ Naked Function: prologue and epilogue provided by programmer.
	@ args = 0, pretend = 0, frame = 0
	@ frame_needed = 0, uses_anonymous_args = 0
	.loc 1 660 111
	.syntax unified
@ 660 "../../../../../../components/softdevice/s132/headers/nrf_soc.h" 1
	svc #36
bx r14
@ 0 "" 2
	.loc 1 660 2
	.thumb
	.syntax unified
	nop
	mov	r0, r3
.LFE151:
	.size	sd_ppi_group_task_enable, .-sd_ppi_group_task_enable
	.section	.text.sd_ppi_group_task_disable,"ax",%progbits
	.align	1
	.syntax unified
	.thumb
	.thumb_func
	.fpu fpv4-sp-d16
	.type	sd_ppi_group_task_disable, %function
sd_ppi_group_task_disable:
.LFB152:
	.loc 1 669 110
	@ Naked Function: prologue and epilogue provided by programmer.
	@ args = 0, pretend = 0, frame = 0
	@ frame_needed = 0, uses_anonymous_args = 0
	.loc 1 669 112
	.syntax unified
@ 669 "../../../../../../components/softdevice/s132/headers/nrf_soc.h" 1
	svc #37
bx r14
@ 0 "" 2
	.loc 1 669 2
	.thumb
	.syntax unified
	nop
	mov	r0, r3
.LFE152:
	.size	sd_ppi_group_task_disable, .-sd_ppi_group_task_disable
	.section	.text.sd_ppi_group_assign,"ax",%progbits
	.align	1
	.syntax unified
	.thumb
	.thumb_func
	.fpu fpv4-sp-d16
	.type	sd_ppi_group_assign, %function
sd_ppi_group_assign:
.LFB153:
	.loc 1 679 126
	@ Naked Function: prologue and epilogue provided by programmer.
	@ args = 0, pretend = 0, frame = 0
	@ frame_needed = 0, uses_anonymous_args = 0
	.loc 1 679 128
	.syntax unified
@ 679 "../../../../../../components/softdevice/s132/headers/nrf_soc.h" 1
	svc #38
bx r14
@ 0 "" 2
	.loc 1 679 2
	.thumb
	.syntax unified
	nop
	mov	r0, r3
.LFE153:
	.size	sd_ppi_group_assign, .-sd_ppi_group_assign
	.section	.text.sd_ppi_group_get,"ax",%progbits
	.align	1
	.syntax unified
	.thumb
	.thumb_func
	.fpu fpv4-sp-d16
	.type	sd_ppi_group_get, %function
sd_ppi_group_get:
.LFB154:
	.loc 1 689 127
	@ Naked Function: prologue and epilogue provided by programmer.
	@ args = 0, pretend = 0, frame = 0
	@ frame_needed = 0, uses_anonymous_args = 0
	.loc 1 689 129
	.syntax unified
@ 689 "../../../../../../components/softdevice/s132/headers/nrf_soc.h" 1
	svc #39
bx r14
@ 0 "" 2
	.loc 1 689 2
	.thumb
	.syntax unified
	nop
	mov	r0, r3
.LFE154:
	.size	sd_ppi_group_get, .-sd_ppi_group_get
	.section	.text.sd_radio_notification_cfg_set,"ax",%progbits
	.align	1
	.syntax unified
	.thumb
	.thumb_func
	.fpu fpv4-sp-d16
	.type	sd_radio_notification_cfg_set, %function
sd_radio_notification_cfg_set:
.LFB155:
	.loc 1 720 127
	@ Naked Function: prologue and epilogue provided by programmer.
	@ args = 0, pretend = 0, frame = 0
	@ frame_needed = 0, uses_anonymous_args = 0
	.loc 1 720 129
	.syntax unified
@ 720 "../../../../../../components/softdevice/s132/headers/nrf_soc.h" 1
	svc #69
bx r14
@ 0 "" 2
	.loc 1 720 2
	.thumb
	.syntax unified
	nop
	mov	r0, r3
.LFE155:
	.size	sd_radio_notification_cfg_set, .-sd_radio_notification_cfg_set
	.section	.text.sd_ecb_block_encrypt,"ax",%progbits
	.align	1
	.syntax unified
	.thumb
	.thumb_func
	.fpu fpv4-sp-d16
	.type	sd_ecb_block_encrypt, %function
sd_ecb_block_encrypt:
.LFB156:
	.loc 1 736 119
	@ Naked Function: prologue and epilogue provided by programmer.
	@ args = 0, pretend = 0, frame = 0
	@ frame_needed = 0, uses_anonymous_args = 0
	.loc 1 736 121
	.syntax unified
@ 736 "../../../../../../components/softdevice/s132/headers/nrf_soc.h" 1
	svc #70
bx r14
@ 0 "" 2
	.loc 1 736 2
	.thumb
	.syntax unified
	nop
	mov	r0, r3
.LFE156:
	.size	sd_ecb_block_encrypt, .-sd_ecb_block_encrypt
	.section	.text.sd_ecb_blocks_encrypt,"ax",%progbits
	.align	1
	.syntax unified
	.thumb
	.thumb_func
	.fpu fpv4-sp-d16
	.type	sd_ecb_blocks_encrypt, %function
sd_ecb_blocks_encrypt:
.LFB157:
	.loc 1 753 150
	@ Naked Function: prologue and epilogue provided by programmer.
	@ args = 0, pretend = 0, frame = 0
	@ frame_needed = 0, uses_anonymous_args = 0
	.loc 1 753 152
	.syntax unified
@ 753 "../../../../../../components/softdevice/s132/headers/nrf_soc.h" 1
	svc #71
bx r14
@ 0 "" 2
	.loc 1 753 2
	.thumb
	.syntax unified
	nop
	mov	r0, r3
.LFE157:
	.size	sd_ecb_blocks_encrypt, .-sd_ecb_blocks_encrypt
	.section	.text.sd_evt_get,"ax",%progbits
	.align	1
	.syntax unified
	.thumb
	.thumb_func
	.fpu fpv4-sp-d16
	.type	sd_evt_get, %function
sd_evt_get:
.LFB158:
	.loc 1 764 97
	@ Naked Function: prologue and epilogue provided by programmer.
	@ args = 0, pretend = 0, frame = 0
	@ frame_needed = 0, uses_anonymous_args = 0
	.loc 1 764 99
	.syntax unified
@ 764 "../../../../../../components/softdevice/s132/headers/nrf_soc.h" 1
	svc #75
bx r14
@ 0 "" 2
	.loc 1 764 2
	.thumb
	.syntax unified
	nop
	mov	r0, r3
.LFE158:
	.size	sd_evt_get, .-sd_evt_get
	.section	.text.sd_temp_get,"ax",%progbits
	.align	1
	.syntax unified
	.thumb
	.thumb_func
	.fpu fpv4-sp-d16
	.type	sd_temp_get, %function
sd_temp_get:
.LFB159:
	.loc 1 775 95
	@ Naked Function: prologue and epilogue provided by programmer.
	@ args = 0, pretend = 0, frame = 0
	@ frame_needed = 0, uses_anonymous_args = 0
	.loc 1 775 97
	.syntax unified
@ 775 "../../../../../../components/softdevice/s132/headers/nrf_soc.h" 1
	svc #76
bx r14
@ 0 "" 2
	.loc 1 775 2
	.thumb
	.syntax unified
	nop
	mov	r0, r3
.LFE159:
	.size	sd_temp_get, .-sd_temp_get
	.section	.text.sd_flash_write,"ax",%progbits
	.align	1
	.syntax unified
	.thumb
	.thumb_func
	.fpu fpv4-sp-d16
	.type	sd_flash_write, %function
sd_flash_write:
.LFB160:
	.loc 1 812 137
	@ Naked Function: prologue and epilogue provided by programmer.
	@ args = 0, pretend = 0, frame = 0
	@ frame_needed = 0, uses_anonymous_args = 0
	.loc 1 812 139
	.syntax unified
@ 812 "../../../../../../components/softdevice/s132/headers/nrf_soc.h" 1
	svc #41
bx r14
@ 0 "" 2
	.loc 1 812 2
	.thumb
	.syntax unified
	nop
	mov	r0, r3
.LFE160:
	.size	sd_flash_write, .-sd_flash_write
	.section	.text.sd_flash_page_erase,"ax",%progbits
	.align	1
	.syntax unified
	.thumb
	.thumb_func
	.fpu fpv4-sp-d16
	.type	sd_flash_page_erase, %function
sd_flash_page_erase:
.LFB161:
	.loc 1 844 107
	@ Naked Function: prologue and epilogue provided by programmer.
	@ args = 0, pretend = 0, frame = 0
	@ frame_needed = 0, uses_anonymous_args = 0
	.loc 1 844 109
	.syntax unified
@ 844 "../../../../../../components/softdevice/s132/headers/nrf_soc.h" 1
	svc #40
bx r14
@ 0 "" 2
	.loc 1 844 2
	.thumb
	.syntax unified
	nop
	mov	r0, r3
.LFE161:
	.size	sd_flash_page_erase, .-sd_flash_page_erase
	.section	.text.sd_flash_protect,"ax",%progbits
	.align	1
	.syntax unified
	.thumb
	.thumb_func
	.fpu fpv4-sp-d16
	.type	sd_flash_protect, %function
sd_flash_protect:
.LFB162:
	.loc 1 867 166
	@ Naked Function: prologue and epilogue provided by programmer.
	@ args = 0, pretend = 0, frame = 0
	@ frame_needed = 0, uses_anonymous_args = 0
	.loc 1 867 168
	.syntax unified
@ 867 "../../../../../../components/softdevice/s132/headers/nrf_soc.h" 1
	svc #42
bx r14
@ 0 "" 2
	.loc 1 867 2
	.thumb
	.syntax unified
	nop
	mov	r0, r3
.LFE162:
	.size	sd_flash_protect, .-sd_flash_protect
	.section	.text.sd_radio_session_open,"ax",%progbits
	.align	1
	.syntax unified
	.thumb
	.thumb_func
	.fpu fpv4-sp-d16
	.type	sd_radio_session_open, %function
sd_radio_session_open:
.LFB163:
	.loc 1 889 140
	@ Naked Function: prologue and epilogue provided by programmer.
	@ args = 0, pretend = 0, frame = 0
	@ frame_needed = 0, uses_anonymous_args = 0
	.loc 1 889 142
	.syntax unified
@ 889 "../../../../../../components/softdevice/s132/headers/nrf_soc.h" 1
	svc #72
bx r14
@ 0 "" 2
	.loc 1 889 2
	.thumb
	.syntax unified
	nop
	mov	r0, r3
.LFE163:
	.size	sd_radio_session_open, .-sd_radio_session_open
	.section	.text.sd_radio_session_close,"ax",%progbits
	.align	1
	.syntax unified
	.thumb
	.thumb_func
	.fpu fpv4-sp-d16
	.type	sd_radio_session_close, %function
sd_radio_session_close:
.LFB164:
	.loc 1 902 94
	@ Naked Function: prologue and epilogue provided by programmer.
	@ args = 0, pretend = 0, frame = 0
	@ frame_needed = 0, uses_anonymous_args = 0
	.loc 1 902 96
	.syntax unified
@ 902 "../../../../../../components/softdevice/s132/headers/nrf_soc.h" 1
	svc #73
bx r14
@ 0 "" 2
	.loc 1 902 2
	.thumb
	.syntax unified
	nop
	mov	r0, r3
.LFE164:
	.size	sd_radio_session_close, .-sd_radio_session_close
	.section	.text.sd_radio_request,"ax",%progbits
	.align	1
	.syntax unified
	.thumb
	.thumb_func
	.fpu fpv4-sp-d16
	.type	sd_radio_request, %function
sd_radio_request:
.LFB165:
	.loc 1 934 121
	@ Naked Function: prologue and epilogue provided by programmer.
	@ args = 0, pretend = 0, frame = 0
	@ frame_needed = 0, uses_anonymous_args = 0
	.loc 1 934 123
	.syntax unified
@ 934 "../../../../../../components/softdevice/s132/headers/nrf_soc.h" 1
	svc #74
bx r14
@ 0 "" 2
	.loc 1 934 2
	.thumb
	.syntax unified
	nop
	mov	r0, r3
.LFE165:
	.size	sd_radio_request, .-sd_radio_request
	.section	.text.sd_protected_register_write,"ax",%progbits
	.align	1
	.syntax unified
	.thumb
	.thumb_func
	.fpu fpv4-sp-d16
	.type	sd_protected_register_write, %function
sd_protected_register_write:
.LFB166:
	.loc 1 955 141
	@ Naked Function: prologue and epilogue provided by programmer.
	@ args = 0, pretend = 0, frame = 0
	@ frame_needed = 0, uses_anonymous_args = 0
	.loc 1 955 143
	.syntax unified
@ 955 "../../../../../../components/softdevice/s132/headers/nrf_soc.h" 1
	svc #43
bx r14
@ 0 "" 2
	.loc 1 955 2
	.thumb
	.syntax unified
	nop
	mov	r0, r3
.LFE166:
	.size	sd_protected_register_write, .-sd_protected_register_write
	.section	.text.ulPortRaiseBASEPRI,"ax",%progbits
	.align	1
	.syntax unified
	.thumb
	.thumb_func
	.fpu fpv4-sp-d16
	.type	ulPortRaiseBASEPRI, %function
ulPortRaiseBASEPRI:
.LFB199:
	.file 2 "../../../../../../external/freertos/portable/CMSIS/nrf52/portmacro_cmsis.h"
	.loc 2 173 1
	@ args = 0, pretend = 0, frame = 16
	@ frame_needed = 0, uses_anonymous_args = 0
	@ link register save eliminated.
	sub	sp, sp, #16
.LCFI0:
.LBB83:
.LBB84:
	.file 3 "../../../../../../components/toolchain/cmsis/include/cmsis_gcc.h"
	.loc 3 252 3
	.syntax unified
@ 252 "../../../../../../components/toolchain/cmsis/include/cmsis_gcc.h" 1
	MRS r3, basepri
@ 0 "" 2
	.thumb
	.syntax unified
	str	r3, [sp, #4]
	.loc 3 253 9
	ldr	r3, [sp, #4]
.LBE84:
.LBE83:
	.loc 2 174 34
	str	r3, [sp, #12]
	movs	r3, #64
	str	r3, [sp, #8]
.LBB85:
.LBB86:
	.loc 3 264 3
	ldr	r3, [sp, #8]
	.syntax unified
@ 264 "../../../../../../components/toolchain/cmsis/include/cmsis_gcc.h" 1
	MSR basepri, r3
@ 0 "" 2
	.loc 3 265 1
	.thumb
	.syntax unified
	nop
.LBE86:
.LBE85:
	.loc 2 176 12
	ldr	r3, [sp, #12]
	.loc 2 177 1
	mov	r0, r3
	add	sp, sp, #16
.LCFI1:
	@ sp needed
	bx	lr
.LFE199:
	.size	ulPortRaiseBASEPRI, .-ulPortRaiseBASEPRI
	.global	xQueueRegistry
	.section	.bss.xQueueRegistry,"aw",%nobits
	.align	2
	.type	xQueueRegistry, %object
	.size	xQueueRegistry, 16
xQueueRegistry:
	.space	16
	.section	.text.xQueueGenericReset,"ax",%progbits
	.align	1
	.global	xQueueGenericReset
	.syntax unified
	.thumb
	.thumb_func
	.fpu fpv4-sp-d16
	.type	xQueueGenericReset, %function
xQueueGenericReset:
.LFB200:
	.file 4 "C:\\nRF5_SDK_15.0.0_a53641a\\external\\freertos\\source\\queue.c"
	.loc 4 249 1
	@ args = 0, pretend = 0, frame = 16
	@ frame_needed = 0, uses_anonymous_args = 0
	push	{lr}
.LCFI2:
	sub	sp, sp, #20
.LCFI3:
	str	r0, [sp, #4]
	str	r1, [sp]
	.loc 4 250 17
	ldr	r3, [sp, #4]
	str	r3, [sp, #12]
	.loc 4 254 2
	bl	vPortEnterCritical
	.loc 4 256 28
	ldr	r3, [sp, #12]
	ldr	r2, [r3]
	.loc 4 256 48
	ldr	r3, [sp, #12]
	ldr	r3, [r3, #60]
	.loc 4 256 68
	ldr	r1, [sp, #12]
	ldr	r1, [r1, #64]
	.loc 4 256 59
	mul	r3, r1, r3
	.loc 4 256 37
	add	r2, r2, r3
	.loc 4 256 19
	ldr	r3, [sp, #12]
	str	r2, [r3, #4]
	.loc 4 257 30
	ldr	r3, [sp, #12]
	movs	r2, #0
	str	r2, [r3, #56]
	.loc 4 258 31
	ldr	r3, [sp, #12]
	ldr	r2, [r3]
	.loc 4 258 22
	ldr	r3, [sp, #12]
	str	r2, [r3, #8]
	.loc 4 259 34
	ldr	r3, [sp, #12]
	ldr	r2, [r3]
	.loc 4 259 56
	ldr	r3, [sp, #12]
	ldr	r3, [r3, #60]
	.loc 4 259 67
	subs	r3, r3, #1
	.loc 4 259 99
	ldr	r1, [sp, #12]
	ldr	r1, [r1, #64]
	.loc 4 259 90
	mul	r3, r1, r3
	.loc 4 259 43
	add	r2, r2, r3
	.loc 4 259 25
	ldr	r3, [sp, #12]
	str	r2, [r3, #12]
	.loc 4 260 20
	ldr	r3, [sp, #12]
	movs	r2, #255
	strb	r2, [r3, #68]
	.loc 4 261 20
	ldr	r3, [sp, #12]
	movs	r2, #255
	strb	r2, [r3, #69]
	.loc 4 263 5
	ldr	r3, [sp]
	cmp	r3, #0
	bne	.L48
	.loc 4 270 64
	ldr	r3, [sp, #12]
	ldr	r3, [r3, #16]
	.loc 4 270 6
	cmp	r3, #0
	beq	.L49
	.loc 4 272 35
	ldr	r3, [sp, #12]
	adds	r3, r3, #16
	.loc 4 272 9
	mov	r0, r3
	bl	xTaskRemoveFromEventList
	mov	r3, r0
	.loc 4 272 7
	cmp	r3, #0
	beq	.L49
	.loc 4 274 54
	ldr	r3, .L51
	.loc 4 274 61
	mov	r2, #268435456
	str	r2, [r3, #4]
.LBB87:
.LBB88:
	.loc 3 406 3
	.syntax unified
@ 406 "../../../../../../components/toolchain/cmsis/include/cmsis_gcc.h" 1
	sev
@ 0 "" 2
	.loc 3 407 1
	.thumb
	.syntax unified
	nop
.LBE88:
.LBE87:
.LBB89:
.LBB90:
	.loc 3 429 3
	.syntax unified
@ 429 "../../../../../../components/toolchain/cmsis/include/cmsis_gcc.h" 1
	dsb 0xF
@ 0 "" 2
	.loc 3 430 1
	.thumb
	.syntax unified
	nop
.LBE90:
.LBE89:
.LBB91:
.LBB92:
	.loc 3 418 3
	.syntax unified
@ 418 "../../../../../../components/toolchain/cmsis/include/cmsis_gcc.h" 1
	isb 0xF
@ 0 "" 2
	.loc 3 419 1
	.thumb
	.syntax unified
	b	.L49
.L48:
.LBE92:
.LBE91:
	.loc 4 289 4
	ldr	r3, [sp, #12]
	adds	r3, r3, #16
	mov	r0, r3
	bl	vListInitialise
	.loc 4 290 4
	ldr	r3, [sp, #12]
	adds	r3, r3, #36
	mov	r0, r3
	bl	vListInitialise
.L49:
	.loc 4 293 2
	bl	vPortExitCritical
	.loc 4 297 9
	movs	r3, #1
	.loc 4 298 1
	mov	r0, r3
	add	sp, sp, #20
.LCFI4:
	@ sp needed
	ldr	pc, [sp], #4
.L52:
	.align	2
.L51:
	.word	-536810240
.LFE200:
	.size	xQueueGenericReset, .-xQueueGenericReset
	.section	.text.xQueueGenericCreate,"ax",%progbits
	.align	1
	.global	xQueueGenericCreate
	.syntax unified
	.thumb
	.thumb_func
	.fpu fpv4-sp-d16
	.type	xQueueGenericCreate, %function
xQueueGenericCreate:
.LFB201:
	.loc 4 360 2
	@ args = 0, pretend = 0, frame = 32
	@ frame_needed = 0, uses_anonymous_args = 0
	push	{lr}
.LCFI5:
	sub	sp, sp, #44
.LCFI6:
	str	r0, [sp, #20]
	str	r1, [sp, #16]
	mov	r3, r2
	strb	r3, [sp, #15]
	.loc 4 367 5
	ldr	r3, [sp, #16]
	cmp	r3, #0
	bne	.L54
	.loc 4 370 22
	movs	r3, #0
	str	r3, [sp, #36]
	b	.L55
.L54:
	.loc 4 376 22
	ldr	r3, [sp, #20]
	ldr	r2, [sp, #16]
	mul	r3, r2, r3
	str	r3, [sp, #36]
.L55:
	.loc 4 379 30
	ldr	r3, [sp, #36]
	adds	r3, r3, #80
	mov	r0, r3
	bl	pvPortMalloc
	str	r0, [sp, #32]
	.loc 4 381 5
	ldr	r3, [sp, #32]
	cmp	r3, #0
	beq	.L56
	.loc 4 385 20
	ldr	r3, [sp, #32]
	adds	r3, r3, #80
	str	r3, [sp, #28]
	.loc 4 396 4
	ldrb	r2, [sp, #15]	@ zero_extendqisi2
	ldr	r3, [sp, #32]
	str	r3, [sp]
	mov	r3, r2
	ldr	r2, [sp, #28]
	ldr	r1, [sp, #16]
	ldr	r0, [sp, #20]
	bl	prvInitialiseNewQueue
	b	.L57
.L56:
	.loc 4 400 8
	bl	prvTraceGetCurrentTaskHandle
	mov	r3, r0
	mov	r0, r3
	bl	prvTraceGetTaskNumberHigh16
	mov	r3, r0
	mov	r2, r3
	ldr	r3, .L65
	ldrh	r3, [r3]
	ands	r3, r3, r2
	uxth	r3, r3
	.loc 4 400 7
	cmp	r3, #0
	beq	.L64
	.loc 4 400 98 discriminator 1
	ldrb	r3, [sp, #15]	@ zero_extendqisi2
	cmp	r3, #4
	bhi	.L57
	adr	r2, .L59
	ldr	pc, [r2, r3, lsl #2]
	.p2align 2
.L59:
	.word	.L62+1
	.word	.L61+1
	.word	.L57+1
	.word	.L60+1
	.word	.L58+1
	.p2align 1
.L62:
	.loc 4 400 146 discriminator 2
	ldr	r2, [sp, #20]
	movs	r1, #0
	movs	r0, #65
	bl	prvTraceStoreEvent2
	.loc 4 400 4 discriminator 2
	b	.L57
.L60:
	.loc 4 400 223 discriminator 4
	movs	r1, #0
	movs	r0, #66
	bl	prvTraceStoreEvent1
	.loc 4 400 4 discriminator 4
	b	.L57
.L61:
	.loc 4 400 285 discriminator 3
	movs	r1, #0
	movs	r0, #67
	bl	prvTraceStoreEvent1
	.loc 4 400 4 discriminator 3
	b	.L57
.L58:
	.loc 4 400 347 discriminator 5
	movs	r1, #0
	movs	r0, #71
	bl	prvTraceStoreEvent1
	.loc 4 400 4 discriminator 5
	b	.L57
.L64:
	.loc 4 400 386
	nop
.L57:
	.loc 4 403 10
	ldr	r3, [sp, #32]
	.loc 4 404 2
	mov	r0, r3
	add	sp, sp, #44
.LCFI7:
	@ sp needed
	ldr	pc, [sp], #4
.L66:
	.align	2
.L65:
	.word	CurrentFilterMask
.LFE201:
	.size	xQueueGenericCreate, .-xQueueGenericCreate
	.section	.text.prvInitialiseNewQueue,"ax",%progbits
	.align	1
	.syntax unified
	.thumb
	.thumb_func
	.fpu fpv4-sp-d16
	.type	prvInitialiseNewQueue, %function
prvInitialiseNewQueue:
.LFB202:
	.loc 4 410 1
	@ args = 4, pretend = 0, frame = 16
	@ frame_needed = 0, uses_anonymous_args = 0
	push	{lr}
.LCFI8:
	sub	sp, sp, #20
.LCFI9:
	str	r0, [sp, #12]
	str	r1, [sp, #8]
	str	r2, [sp, #4]
	strb	r3, [sp, #3]
	.loc 4 415 4
	ldr	r3, [sp, #8]
	cmp	r3, #0
	bne	.L68
	.loc 4 421 22
	ldr	r3, [sp, #24]
	ldr	r2, [sp, #24]
	str	r2, [r3]
	b	.L69
.L68:
	.loc 4 426 22
	ldr	r3, [sp, #24]
	ldr	r2, [sp, #4]
	str	r2, [r3]
.L69:
	.loc 4 431 23
	ldr	r3, [sp, #24]
	ldr	r2, [sp, #12]
	str	r2, [r3, #60]
	.loc 4 432 25
	ldr	r3, [sp, #24]
	ldr	r2, [sp, #8]
	str	r2, [r3, #64]
	.loc 4 433 11
	movs	r1, #1
	ldr	r0, [sp, #24]
	bl	xQueueGenericReset
	.loc 4 437 27
	ldr	r3, [sp, #24]
	ldrb	r2, [sp, #3]
	strb	r2, [r3, #76]
	.loc 4 447 2
	ldrb	r3, [sp, #3]	@ zero_extendqisi2
	ldr	r2, [sp, #8]
	ldr	r1, [sp, #12]
	movs	r0, #115
	bl	SEGGER_SYSVIEW_RecordU32x3
	.loc 4 448 1
	nop
	add	sp, sp, #20
.LCFI10:
	@ sp needed
	ldr	pc, [sp], #4
.LFE202:
	.size	prvInitialiseNewQueue, .-prvInitialiseNewQueue
	.section	.text.prvInitialiseMutex,"ax",%progbits
	.align	1
	.syntax unified
	.thumb
	.thumb_func
	.fpu fpv4-sp-d16
	.type	prvInitialiseMutex, %function
prvInitialiseMutex:
.LFB203:
	.loc 4 454 2
	@ args = 0, pretend = 0, frame = 8
	@ frame_needed = 0, uses_anonymous_args = 0
	push	{lr}
.LCFI11:
	sub	sp, sp, #12
.LCFI12:
	str	r0, [sp, #4]
	.loc 4 455 5
	ldr	r3, [sp, #4]
	cmp	r3, #0
	beq	.L72
	.loc 4 461 23
	ldr	r3, [sp, #4]
	movs	r2, #0
	str	r2, [r3, #4]
	.loc 4 462 23
	ldr	r3, [sp, #4]
	movs	r2, #0
	str	r2, [r3]
	.loc 4 465 39
	ldr	r3, [sp, #4]
	movs	r2, #0
	str	r2, [r3, #12]
	.loc 4 470 13
	movs	r3, #0
	movs	r2, #0
	movs	r1, #0
	ldr	r0, [sp, #4]
	bl	xQueueGenericSend
.L72:
	.loc 4 476 2
	nop
	add	sp, sp, #12
.LCFI13:
	@ sp needed
	ldr	pc, [sp], #4
.LFE203:
	.size	prvInitialiseMutex, .-prvInitialiseMutex
	.section	.text.xQueueCreateMutex,"ax",%progbits
	.align	1
	.global	xQueueCreateMutex
	.syntax unified
	.thumb
	.thumb_func
	.fpu fpv4-sp-d16
	.type	xQueueCreateMutex, %function
xQueueCreateMutex:
.LFB204:
	.loc 4 484 2
	@ args = 0, pretend = 0, frame = 24
	@ frame_needed = 0, uses_anonymous_args = 0
	push	{lr}
.LCFI14:
	sub	sp, sp, #28
.LCFI15:
	mov	r3, r0
	strb	r3, [sp, #7]
	.loc 4 486 20
	movs	r3, #1
	str	r3, [sp, #20]
	.loc 4 486 55
	movs	r3, #0
	str	r3, [sp, #16]
	.loc 4 488 30
	ldrb	r3, [sp, #7]	@ zero_extendqisi2
	mov	r2, r3
	ldr	r1, [sp, #16]
	ldr	r0, [sp, #20]
	bl	xQueueGenericCreate
	str	r0, [sp, #12]
	.loc 4 489 3
	ldr	r0, [sp, #12]
	bl	prvInitialiseMutex
	.loc 4 491 10
	ldr	r3, [sp, #12]
	.loc 4 492 2
	mov	r0, r3
	add	sp, sp, #28
.LCFI16:
	@ sp needed
	ldr	pc, [sp], #4
.LFE204:
	.size	xQueueCreateMutex, .-xQueueCreateMutex
	.section	.text.xQueueGiveMutexRecursive,"ax",%progbits
	.align	1
	.global	xQueueGiveMutexRecursive
	.syntax unified
	.thumb
	.thumb_func
	.fpu fpv4-sp-d16
	.type	xQueueGiveMutexRecursive, %function
xQueueGiveMutexRecursive:
.LFB205:
	.loc 4 576 2
	@ args = 0, pretend = 0, frame = 16
	@ frame_needed = 0, uses_anonymous_args = 0
	push	{r4, lr}
.LCFI17:
	sub	sp, sp, #16
.LCFI18:
	str	r0, [sp, #4]
	.loc 4 578 18
	ldr	r3, [sp, #4]
	str	r3, [sp, #8]
	.loc 4 588 14
	ldr	r3, [sp, #8]
	ldr	r4, [r3, #4]
	.loc 4 588 37
	bl	xTaskGetCurrentTaskHandle
	mov	r3, r0
	.loc 4 588 5
	cmp	r4, r3
	bne	.L76
	.loc 4 597 16
	ldr	r3, [sp, #8]
	ldr	r3, [r3, #12]
	.loc 4 597 39
	subs	r2, r3, #1
	ldr	r3, [sp, #8]
	str	r2, [r3, #12]
	.loc 4 600 18
	ldr	r3, [sp, #8]
	ldr	r3, [r3, #12]
	.loc 4 600 6
	cmp	r3, #0
	bne	.L77
	.loc 4 604 14
	movs	r3, #0
	movs	r2, #0
	movs	r1, #0
	ldr	r0, [sp, #8]
	bl	xQueueGenericSend
.L77:
	.loc 4 611 12
	movs	r3, #1
	str	r3, [sp, #12]
	b	.L78
.L76:
	.loc 4 617 12
	movs	r3, #0
	str	r3, [sp, #12]
.L78:
	.loc 4 622 10
	ldr	r3, [sp, #12]
	.loc 4 623 2
	mov	r0, r3
	add	sp, sp, #16
.LCFI19:
	@ sp needed
	pop	{r4, pc}
.LFE205:
	.size	xQueueGiveMutexRecursive, .-xQueueGiveMutexRecursive
	.section	.text.xQueueTakeMutexRecursive,"ax",%progbits
	.align	1
	.global	xQueueTakeMutexRecursive
	.syntax unified
	.thumb
	.thumb_func
	.fpu fpv4-sp-d16
	.type	xQueueTakeMutexRecursive, %function
xQueueTakeMutexRecursive:
.LFB206:
	.loc 4 631 2
	@ args = 0, pretend = 0, frame = 16
	@ frame_needed = 0, uses_anonymous_args = 0
	push	{r4, lr}
.LCFI20:
	sub	sp, sp, #16
.LCFI21:
	str	r0, [sp, #4]
	str	r1, [sp]
	.loc 4 633 18
	ldr	r3, [sp, #4]
	str	r3, [sp, #8]
	.loc 4 642 14
	ldr	r3, [sp, #8]
	ldr	r4, [r3, #4]
	.loc 4 642 37
	bl	xTaskGetCurrentTaskHandle
	mov	r3, r0
	.loc 4 642 5
	cmp	r4, r3
	bne	.L81
	.loc 4 644 16
	ldr	r3, [sp, #8]
	ldr	r3, [r3, #12]
	.loc 4 644 39
	adds	r2, r3, #1
	ldr	r3, [sp, #8]
	str	r2, [r3, #12]
	.loc 4 645 12
	movs	r3, #1
	str	r3, [sp, #12]
	b	.L82
.L81:
	.loc 4 649 14
	ldr	r1, [sp]
	ldr	r0, [sp, #8]
	bl	xQueueSemaphoreTake
	str	r0, [sp, #12]
	.loc 4 654 6
	ldr	r3, [sp, #12]
	cmp	r3, #0
	beq	.L82
	.loc 4 656 17
	ldr	r3, [sp, #8]
	ldr	r3, [r3, #12]
	.loc 4 656 40
	adds	r2, r3, #1
	ldr	r3, [sp, #8]
	str	r2, [r3, #12]
.L82:
	.loc 4 664 10
	ldr	r3, [sp, #12]
	.loc 4 665 2
	mov	r0, r3
	add	sp, sp, #16
.LCFI22:
	@ sp needed
	pop	{r4, pc}
.LFE206:
	.size	xQueueTakeMutexRecursive, .-xQueueTakeMutexRecursive
	.section	.text.xQueueCreateCountingSemaphore,"ax",%progbits
	.align	1
	.global	xQueueCreateCountingSemaphore
	.syntax unified
	.thumb
	.thumb_func
	.fpu fpv4-sp-d16
	.type	xQueueCreateCountingSemaphore, %function
xQueueCreateCountingSemaphore:
.LFB207:
	.loc 4 701 2
	@ args = 0, pretend = 0, frame = 16
	@ frame_needed = 0, uses_anonymous_args = 0
	push	{lr}
.LCFI23:
	sub	sp, sp, #20
.LCFI24:
	str	r0, [sp, #4]
	str	r1, [sp]
	.loc 4 707 13
	movs	r2, #2
	movs	r1, #0
	ldr	r0, [sp, #4]
	bl	xQueueGenericCreate
	str	r0, [sp, #12]
	.loc 4 709 5
	ldr	r3, [sp, #12]
	cmp	r3, #0
	beq	.L85
	.loc 4 711 49
	ldr	r3, [sp, #12]
	ldr	r2, [sp]
	str	r2, [r3, #56]
	.loc 4 713 4
	ldr	r3, .L88
	ldrh	r3, [r3]
	mov	r1, r3
	ldr	r0, [sp, #12]
	bl	prvTraceSetQueueNumberHigh16
	.loc 4 713 74
	bl	prvTraceGetCurrentTaskHandle
	mov	r3, r0
	mov	r0, r3
	bl	prvTraceGetTaskNumberHigh16
	mov	r3, r0
	mov	r2, r3
	ldr	r3, .L88+4
	ldrh	r3, [r3]
	ands	r3, r3, r2
	uxth	r3, r3
	.loc 4 713 73
	cmp	r3, #0
	beq	.L86
	.loc 4 713 166 discriminator 1
	ldr	r0, [sp, #12]
	bl	prvTraceGetQueueNumberHigh16
	mov	r3, r0
	mov	r2, r3
	ldr	r3, .L88+4
	ldrh	r3, [r3]
	ands	r3, r3, r2
	uxth	r3, r3
	.loc 4 713 165 discriminator 1
	cmp	r3, #0
	beq	.L86
	.loc 4 713 232 discriminator 2
	ldr	r3, [sp, #12]
	ldr	r2, [sp, #4]
	mov	r1, r3
	movs	r0, #22
	bl	prvTraceStoreEvent2
	b	.L86
.L85:
	.loc 4 717 8
	bl	prvTraceGetCurrentTaskHandle
	mov	r3, r0
	mov	r0, r3
	bl	prvTraceGetTaskNumberHigh16
	mov	r3, r0
	mov	r2, r3
	ldr	r3, .L88+4
	ldrh	r3, [r3]
	ands	r3, r3, r2
	uxth	r3, r3
	.loc 4 717 7
	cmp	r3, #0
	beq	.L86
	.loc 4 717 96 discriminator 1
	ldr	r2, [sp, #4]
	movs	r1, #0
	movs	r0, #70
	bl	prvTraceStoreEvent2
.L86:
	.loc 4 720 10
	ldr	r3, [sp, #12]
	.loc 4 721 2
	mov	r0, r3
	add	sp, sp, #20
.LCFI25:
	@ sp needed
	ldr	pc, [sp], #4
.L89:
	.align	2
.L88:
	.word	CurrentFilterGroup
	.word	CurrentFilterMask
.LFE207:
	.size	xQueueCreateCountingSemaphore, .-xQueueCreateCountingSemaphore
	.section	.text.xQueueGenericSend,"ax",%progbits
	.align	1
	.global	xQueueGenericSend
	.syntax unified
	.thumb
	.thumb_func
	.fpu fpv4-sp-d16
	.type	xQueueGenericSend, %function
xQueueGenericSend:
.LFB208:
	.loc 4 727 1
	@ args = 0, pretend = 0, frame = 40
	@ frame_needed = 0, uses_anonymous_args = 0
	push	{lr}
.LCFI26:
	sub	sp, sp, #52
.LCFI27:
	str	r0, [sp, #20]
	str	r1, [sp, #16]
	str	r2, [sp, #12]
	str	r3, [sp, #8]
	.loc 4 728 12
	movs	r3, #0
	str	r3, [sp, #44]
	.loc 4 730 17
	ldr	r3, [sp, #20]
	str	r3, [sp, #40]
.L110:
	.loc 4 747 3
	bl	vPortEnterCritical
	.loc 4 753 17
	ldr	r3, [sp, #40]
	ldr	r2, [r3, #56]
	.loc 4 753 46
	ldr	r3, [sp, #40]
	ldr	r3, [r3, #60]
	.loc 4 753 6
	cmp	r2, r3
	bcc	.L91
	.loc 4 753 59 discriminator 1
	ldr	r3, [sp, #8]
	cmp	r3, #2
	bne	.L92
.L91:
	.loc 4 755 5
	ldr	r3, [sp, #40]
	mov	r0, r3
	bl	SEGGER_SYSVIEW_ShrinkId
	ldr	r2, [sp, #16]
	ldr	r1, [sp, #12]
	ldr	r3, [sp, #8]
	str	r3, [sp]
	mov	r3, r1
	mov	r1, r0
	movs	r0, #90
	bl	SEGGER_SYSVIEW_RecordU32x4
	.loc 4 756 22
	ldr	r2, [sp, #8]
	ldr	r1, [sp, #16]
	ldr	r0, [sp, #40]
	bl	prvCopyDataToQueue
	str	r0, [sp, #36]
	.loc 4 811 69
	ldr	r3, [sp, #40]
	ldr	r3, [r3, #36]
	.loc 4 811 8
	cmp	r3, #0
	beq	.L93
	.loc 4 813 37
	ldr	r3, [sp, #40]
	adds	r3, r3, #36
	.loc 4 813 11
	mov	r0, r3
	bl	xTaskRemoveFromEventList
	mov	r3, r0
	.loc 4 813 9
	cmp	r3, #0
	beq	.L94
	.loc 4 819 56
	ldr	r3, .L113
	.loc 4 819 63
	mov	r2, #268435456
	str	r2, [r3, #4]
.LBB93:
.LBB94:
	.loc 3 406 3
	.syntax unified
@ 406 "../../../../../../components/toolchain/cmsis/include/cmsis_gcc.h" 1
	sev
@ 0 "" 2
	.loc 3 407 1
	.thumb
	.syntax unified
	nop
.LBE94:
.LBE93:
.LBB95:
.LBB96:
	.loc 3 429 3
	.syntax unified
@ 429 "../../../../../../components/toolchain/cmsis/include/cmsis_gcc.h" 1
	dsb 0xF
@ 0 "" 2
	.loc 3 430 1
	.thumb
	.syntax unified
	nop
.LBE96:
.LBE95:
.LBB97:
.LBB98:
	.loc 3 418 3
	.syntax unified
@ 418 "../../../../../../components/toolchain/cmsis/include/cmsis_gcc.h" 1
	isb 0xF
@ 0 "" 2
	.loc 3 419 1
	.thumb
	.syntax unified
	b	.L94
.L93:
.LBE98:
.LBE97:
	.loc 4 826 13
	ldr	r3, [sp, #36]
	cmp	r3, #0
	beq	.L94
	.loc 4 832 55
	ldr	r3, .L113
	.loc 4 832 62
	mov	r2, #268435456
	str	r2, [r3, #4]
.LBB99:
.LBB100:
	.loc 3 406 3
	.syntax unified
@ 406 "../../../../../../components/toolchain/cmsis/include/cmsis_gcc.h" 1
	sev
@ 0 "" 2
	.loc 3 407 1
	.thumb
	.syntax unified
	nop
.LBE100:
.LBE99:
.LBB101:
.LBB102:
	.loc 3 429 3
	.syntax unified
@ 429 "../../../../../../components/toolchain/cmsis/include/cmsis_gcc.h" 1
	dsb 0xF
@ 0 "" 2
	.loc 3 430 1
	.thumb
	.syntax unified
	nop
.LBE102:
.LBE101:
.LBB103:
.LBB104:
	.loc 3 418 3
	.syntax unified
@ 418 "../../../../../../components/toolchain/cmsis/include/cmsis_gcc.h" 1
	isb 0xF
@ 0 "" 2
	.loc 3 419 1
	.thumb
	.syntax unified
	nop
.L94:
.LBE104:
.LBE103:
	.loc 4 841 5
	bl	vPortExitCritical
	.loc 4 842 12
	movs	r3, #1
	b	.L111
.L92:
	.loc 4 846 22
	ldr	r3, [sp, #12]
	.loc 4 846 7
	cmp	r3, #0
	bne	.L96
	.loc 4 850 6
	bl	vPortExitCritical
	.loc 4 854 6
	ldr	r3, [sp, #40]
	mov	r0, r3
	bl	SEGGER_SYSVIEW_ShrinkId
	ldr	r2, [sp, #16]
	ldr	r1, [sp, #12]
	ldr	r3, [sp, #8]
	str	r3, [sp]
	mov	r3, r1
	mov	r1, r0
	movs	r0, #90
	bl	SEGGER_SYSVIEW_RecordU32x4
	.loc 4 855 13
	movs	r3, #0
	b	.L111
.L96:
	.loc 4 857 12
	ldr	r3, [sp, #44]
	cmp	r3, #0
	bne	.L97
	.loc 4 861 6
	add	r3, sp, #28
	mov	r0, r3
	bl	vTaskInternalSetTimeOutState
	.loc 4 862 20
	movs	r3, #1
	str	r3, [sp, #44]
.L97:
	.loc 4 871 3
	bl	vPortExitCritical
	.loc 4 876 3
	bl	vTaskSuspendAll
	.loc 4 877 3
	bl	vPortEnterCritical
	.loc 4 877 42
	ldr	r3, [sp, #40]
	ldrb	r3, [r3, #68]
	sxtb	r3, r3
	.loc 4 877 29
	cmp	r3, #-1
	bne	.L98
	.loc 4 877 98 discriminator 1
	ldr	r3, [sp, #40]
	movs	r2, #0
	strb	r2, [r3, #68]
.L98:
	.loc 4 877 135 discriminator 3
	ldr	r3, [sp, #40]
	ldrb	r3, [r3, #69]
	sxtb	r3, r3
	.loc 4 877 122 discriminator 3
	cmp	r3, #-1
	bne	.L99
	.loc 4 877 191 discriminator 4
	ldr	r3, [sp, #40]
	movs	r2, #0
	strb	r2, [r3, #69]
.L99:
	.loc 4 877 215 discriminator 6
	bl	vPortExitCritical
	.loc 4 880 7 discriminator 6
	add	r2, sp, #12
	add	r3, sp, #28
	mov	r1, r2
	mov	r0, r3
	bl	xTaskCheckForTimeOut
	mov	r3, r0
	.loc 4 880 5 discriminator 6
	cmp	r3, #0
	bne	.L100
	.loc 4 882 8
	ldr	r0, [sp, #40]
	bl	prvIsQueueFull
	mov	r3, r0
	.loc 4 882 6
	cmp	r3, #0
	beq	.L101
	.loc 4 884 9
	bl	prvTraceGetCurrentTaskHandle
	mov	r3, r0
	mov	r0, r3
	bl	prvTraceGetTaskNumberHigh16
	mov	r3, r0
	mov	r2, r3
	ldr	r3, .L113+4
	ldrh	r3, [r3]
	ands	r3, r3, r2
	uxth	r3, r3
	.loc 4 884 8
	cmp	r3, #0
	beq	.L112
	.loc 4 884 101 discriminator 1
	ldr	r0, [sp, #40]
	bl	prvTraceGetQueueNumberHigh16
	mov	r3, r0
	mov	r2, r3
	ldr	r3, .L113+4
	ldrh	r3, [r3]
	ands	r3, r3, r2
	uxth	r3, r3
	.loc 4 884 100 discriminator 1
	cmp	r3, #0
	beq	.L112
	.loc 4 884 182 discriminator 2
	ldr	r3, [sp, #40]
	ldrb	r3, [r3, #76]	@ zero_extendqisi2
	cmp	r3, #4
	bhi	.L102
	adr	r2, .L104
	ldr	pc, [r2, r3, lsl #2]
	.p2align 2
.L104:
	.word	.L106+1
	.word	.L103+1
	.word	.L105+1
	.word	.L105+1
	.word	.L103+1
	.p2align 1
.L106:
	.loc 4 884 224 discriminator 3
	ldr	r3, [sp, #8]
	cmp	r3, #0
	bne	.L107
	.loc 4 884 224 is_stmt 0 discriminator 6
	movs	r0, #86
	b	.L108
.L107:
	.loc 4 884 224 discriminator 7
	movs	r0, #194
.L108:
	.loc 4 884 224 discriminator 9
	ldr	r1, [sp, #40]
	.loc 4 884 323 is_stmt 1 discriminator 9
	ldr	r3, [sp, #40]
	ldr	r3, [r3, #56]
	.loc 4 884 224 discriminator 9
	mov	r2, r3
	bl	prvTraceStoreEvent2
	.loc 4 884 5 discriminator 9
	b	.L102
.L105:
	.loc 4 884 402 discriminator 5
	ldr	r1, [sp, #40]
	.loc 4 884 454 discriminator 5
	ldr	r3, [sp, #40]
	ldr	r3, [r3, #56]
	.loc 4 884 402 discriminator 5
	mov	r2, r3
	movs	r0, #87
	bl	prvTraceStoreEvent2
	.loc 4 884 5 discriminator 5
	b	.L102
.L103:
	.loc 4 884 533 discriminator 4
	ldr	r3, [sp, #40]
	mov	r1, r3
	movs	r0, #88
	bl	prvTraceStoreEvent1
	.loc 4 884 5 discriminator 4
	b	.L102
.L112:
	.loc 4 884 587
	nop
.L102:
	.loc 4 885 5
	ldr	r3, [sp, #40]
	adds	r3, r3, #16
	ldr	r2, [sp, #12]
	mov	r1, r2
	mov	r0, r3
	bl	vTaskPlaceOnEventList
	.loc 4 892 5
	ldr	r0, [sp, #40]
	bl	prvUnlockQueue
	.loc 4 899 9
	bl	xTaskResumeAll
	mov	r3, r0
	.loc 4 899 7
	cmp	r3, #0
	bne	.L110
	.loc 4 901 54
	ldr	r3, .L113
	.loc 4 901 61
	mov	r2, #268435456
	str	r2, [r3, #4]
.LBB105:
.LBB106:
	.loc 3 406 3
	.syntax unified
@ 406 "../../../../../../components/toolchain/cmsis/include/cmsis_gcc.h" 1
	sev
@ 0 "" 2
	.loc 3 407 1
	.thumb
	.syntax unified
	nop
.LBE106:
.LBE105:
.LBB107:
.LBB108:
	.loc 3 429 3
	.syntax unified
@ 429 "../../../../../../components/toolchain/cmsis/include/cmsis_gcc.h" 1
	dsb 0xF
@ 0 "" 2
	.loc 3 430 1
	.thumb
	.syntax unified
	nop
.LBE108:
.LBE107:
.LBB109:
.LBB110:
	.loc 3 418 3
	.syntax unified
@ 418 "../../../../../../components/toolchain/cmsis/include/cmsis_gcc.h" 1
	isb 0xF
@ 0 "" 2
	.loc 3 419 1
	.thumb
	.syntax unified
	b	.L109
.L101:
.LBE110:
.LBE109:
	.loc 4 907 5
	ldr	r0, [sp, #40]
	bl	prvUnlockQueue
	.loc 4 908 14
	bl	xTaskResumeAll
	b	.L110
.L100:
	.loc 4 914 4
	ldr	r0, [sp, #40]
	bl	prvUnlockQueue
	.loc 4 915 13
	bl	xTaskResumeAll
	.loc 4 917 4
	ldr	r3, [sp, #40]
	mov	r0, r3
	bl	SEGGER_SYSVIEW_ShrinkId
	ldr	r2, [sp, #16]
	ldr	r1, [sp, #12]
	ldr	r3, [sp, #8]
	str	r3, [sp]
	mov	r3, r1
	mov	r1, r0
	movs	r0, #90
	bl	SEGGER_SYSVIEW_RecordU32x4
	.loc 4 918 11
	movs	r3, #0
	b	.L111
.L109:
	.loc 4 747 3 discriminator 2
	b	.L110
.L111:
	.loc 4 921 1 discriminator 3
	mov	r0, r3
	add	sp, sp, #52
.LCFI28:
	@ sp needed
	ldr	pc, [sp], #4
.L114:
	.align	2
.L113:
	.word	-536810240
	.word	CurrentFilterMask
.LFE208:
	.size	xQueueGenericSend, .-xQueueGenericSend
	.section	.text.xQueueGenericSendFromISR,"ax",%progbits
	.align	1
	.global	xQueueGenericSendFromISR
	.syntax unified
	.thumb
	.thumb_func
	.fpu fpv4-sp-d16
	.type	xQueueGenericSendFromISR, %function
xQueueGenericSendFromISR:
.LFB209:
	.loc 4 925 1
	@ args = 0, pretend = 0, frame = 40
	@ frame_needed = 0, uses_anonymous_args = 0
	push	{lr}
.LCFI29:
	sub	sp, sp, #44
.LCFI30:
	str	r0, [sp, #12]
	str	r1, [sp, #8]
	str	r2, [sp, #4]
	str	r3, [sp]
	.loc 4 928 17
	ldr	r3, [sp, #12]
	str	r3, [sp, #32]
	.loc 4 955 27
	bl	ulPortRaiseBASEPRI
	str	r0, [sp, #28]
	.loc 4 957 16
	ldr	r3, [sp, #32]
	ldr	r2, [r3, #56]
	.loc 4 957 45
	ldr	r3, [sp, #32]
	ldr	r3, [r3, #60]
	.loc 4 957 5
	cmp	r2, r3
	bcc	.L116
	.loc 4 957 58 discriminator 1
	ldr	r3, [sp]
	cmp	r3, #2
	bne	.L117
.L116:
.LBB111:
	.loc 4 959 17
	ldr	r3, [sp, #32]
	ldrb	r3, [r3, #69]
	strb	r3, [sp, #27]
	.loc 4 961 4
	ldr	r3, [sp, #32]
	mov	r0, r3
	bl	SEGGER_SYSVIEW_ShrinkId
	mov	r1, r0
	ldr	r3, [sp, #4]
	mov	r2, r3
	movs	r0, #96
	bl	SEGGER_SYSVIEW_RecordU32x2
	.loc 4 968 13
	ldr	r2, [sp]
	ldr	r1, [sp, #8]
	ldr	r0, [sp, #32]
	bl	prvCopyDataToQueue
	.loc 4 972 6
	ldrsb	r3, [sp, #27]
	cmp	r3, #-1
	bne	.L118
	.loc 4 1027 69
	ldr	r3, [sp, #32]
	ldr	r3, [r3, #36]
	.loc 4 1027 8
	cmp	r3, #0
	beq	.L119
	.loc 4 1029 37
	ldr	r3, [sp, #32]
	adds	r3, r3, #36
	.loc 4 1029 11
	mov	r0, r3
	bl	xTaskRemoveFromEventList
	mov	r3, r0
	.loc 4 1029 9
	cmp	r3, #0
	beq	.L119
	.loc 4 1033 10
	ldr	r3, [sp, #4]
	cmp	r3, #0
	beq	.L119
	.loc 4 1035 36
	ldr	r3, [sp, #4]
	movs	r2, #1
	str	r2, [r3]
	b	.L119
.L118:
	.loc 4 1058 45
	ldrb	r3, [sp, #27]	@ zero_extendqisi2
	adds	r3, r3, #1
	uxtb	r3, r3
	.loc 4 1058 24
	sxtb	r2, r3
	.loc 4 1058 22
	ldr	r3, [sp, #32]
	strb	r2, [r3, #69]
.L119:
	.loc 4 1061 12
	movs	r3, #1
	str	r3, [sp, #36]
.LBE111:
	.loc 4 958 3
	b	.L120
.L117:
	.loc 4 1065 4
	ldr	r3, [sp, #32]
	mov	r0, r3
	bl	SEGGER_SYSVIEW_ShrinkId
	mov	r1, r0
	ldr	r3, [sp, #4]
	mov	r2, r3
	movs	r0, #96
	bl	SEGGER_SYSVIEW_RecordU32x2
	.loc 4 1066 12
	movs	r3, #0
	str	r3, [sp, #36]
.L120:
	ldr	r3, [sp, #28]
	str	r3, [sp, #20]
.LBB112:
.LBB113:
	.loc 3 264 3
	ldr	r3, [sp, #20]
	.syntax unified
@ 264 "../../../../../../components/toolchain/cmsis/include/cmsis_gcc.h" 1
	MSR basepri, r3
@ 0 "" 2
	.loc 3 265 1
	.thumb
	.syntax unified
	nop
.LBE113:
.LBE112:
	.loc 4 1071 9
	ldr	r3, [sp, #36]
	.loc 4 1072 1
	mov	r0, r3
	add	sp, sp, #44
.LCFI31:
	@ sp needed
	ldr	pc, [sp], #4
.LFE209:
	.size	xQueueGenericSendFromISR, .-xQueueGenericSendFromISR
	.section	.text.xQueueGiveFromISR,"ax",%progbits
	.align	1
	.global	xQueueGiveFromISR
	.syntax unified
	.thumb
	.thumb_func
	.fpu fpv4-sp-d16
	.type	xQueueGiveFromISR, %function
xQueueGiveFromISR:
.LFB210:
	.loc 4 1075 220
	@ args = 0, pretend = 0, frame = 8
	@ frame_needed = 0, uses_anonymous_args = 0
	push	{lr}
.LCFI32:
	sub	sp, sp, #12
.LCFI33:
	str	r0, [sp, #4]
	str	r1, [sp]
	.loc 4 1075 229
	movs	r2, #0
	ldr	r1, [sp]
	ldr	r0, [sp, #4]
	bl	MyWrapper
	mov	r3, r0
	.loc 4 1075 1
	mov	r0, r3
	add	sp, sp, #12
.LCFI34:
	@ sp needed
	ldr	pc, [sp], #4
.LFE210:
	.size	xQueueGiveFromISR, .-xQueueGiveFromISR
	.section	.text.MyWrapper,"ax",%progbits
	.align	1
	.global	MyWrapper
	.syntax unified
	.thumb
	.thumb_func
	.fpu fpv4-sp-d16
	.type	MyWrapper, %function
MyWrapper:
.LFB211:
	.loc 4 1076 1
	@ args = 0, pretend = 0, frame = 40
	@ frame_needed = 0, uses_anonymous_args = 0
	push	{lr}
.LCFI35:
	sub	sp, sp, #44
.LCFI36:
	str	r0, [sp, #12]
	str	r1, [sp, #8]
	str	r2, [sp, #4]
	.loc 4 1079 17
	ldr	r3, [sp, #12]
	str	r3, [sp, #32]
	.loc 4 1114 27
	bl	ulPortRaiseBASEPRI
	str	r0, [sp, #28]
.LBB114:
	.loc 4 1116 21
	ldr	r3, [sp, #32]
	ldr	r3, [r3, #56]
	str	r3, [sp, #24]
	.loc 4 1121 34
	ldr	r3, [sp, #32]
	ldr	r3, [r3, #60]
	.loc 4 1121 5
	ldr	r2, [sp, #24]
	cmp	r2, r3
	bcs	.L125
.LBB115:
	.loc 4 1123 17
	ldr	r3, [sp, #32]
	ldrb	r3, [r3, #69]
	strb	r3, [sp, #23]
	.loc 4 1125 4
	ldr	r3, [sp, #32]
	mov	r0, r3
	bl	SEGGER_SYSVIEW_ShrinkId
	mov	r1, r0
	ldr	r3, [sp, #8]
	mov	r2, r3
	movs	r0, #96
	bl	SEGGER_SYSVIEW_RecordU32x2
	.loc 4 1133 51
	ldr	r3, [sp, #24]
	adds	r2, r3, #1
	.loc 4 1133 31
	ldr	r3, [sp, #32]
	str	r2, [r3, #56]
	.loc 4 1137 6
	ldrsb	r3, [sp, #23]
	cmp	r3, #-1
	bne	.L126
	.loc 4 1192 69
	ldr	r3, [sp, #32]
	ldr	r3, [r3, #36]
	.loc 4 1192 8
	cmp	r3, #0
	beq	.L127
	.loc 4 1194 37
	ldr	r3, [sp, #32]
	adds	r3, r3, #36
	.loc 4 1194 11
	mov	r0, r3
	bl	xTaskRemoveFromEventList
	mov	r3, r0
	.loc 4 1194 9
	cmp	r3, #0
	beq	.L127
	.loc 4 1198 10
	ldr	r3, [sp, #8]
	cmp	r3, #0
	beq	.L127
	.loc 4 1200 36
	ldr	r3, [sp, #8]
	movs	r2, #1
	str	r2, [r3]
	b	.L127
.L126:
	.loc 4 1223 45
	ldrb	r3, [sp, #23]	@ zero_extendqisi2
	adds	r3, r3, #1
	uxtb	r3, r3
	.loc 4 1223 24
	sxtb	r2, r3
	.loc 4 1223 22
	ldr	r3, [sp, #32]
	strb	r2, [r3, #69]
.L127:
	.loc 4 1226 12
	movs	r3, #1
	str	r3, [sp, #36]
.LBE115:
	b	.L128
.L125:
	.loc 4 1230 4
	ldr	r3, [sp, #32]
	mov	r0, r3
	bl	SEGGER_SYSVIEW_ShrinkId
	mov	r1, r0
	ldr	r3, [sp, #8]
	mov	r2, r3
	movs	r0, #96
	bl	SEGGER_SYSVIEW_RecordU32x2
	.loc 4 1231 12
	movs	r3, #0
	str	r3, [sp, #36]
.L128:
	ldr	r3, [sp, #28]
	str	r3, [sp, #16]
.LBE114:
.LBB116:
.LBB117:
	.loc 3 264 3
	ldr	r3, [sp, #16]
	.syntax unified
@ 264 "../../../../../../components/toolchain/cmsis/include/cmsis_gcc.h" 1
	MSR basepri, r3
@ 0 "" 2
	.loc 3 265 1
	.thumb
	.syntax unified
	nop
.LBE117:
.LBE116:
	.loc 4 1236 9
	ldr	r3, [sp, #36]
	.loc 4 1237 1
	mov	r0, r3
	add	sp, sp, #44
.LCFI37:
	@ sp needed
	ldr	pc, [sp], #4
.LFE211:
	.size	MyWrapper, .-MyWrapper
	.section	.text.xQueueReceive,"ax",%progbits
	.align	1
	.global	xQueueReceive
	.syntax unified
	.thumb
	.thumb_func
	.fpu fpv4-sp-d16
	.type	xQueueReceive, %function
xQueueReceive:
.LFB212:
	.loc 4 1241 1
	@ args = 0, pretend = 0, frame = 40
	@ frame_needed = 0, uses_anonymous_args = 0
	push	{r4, lr}
.LCFI38:
	sub	sp, sp, #48
.LCFI39:
	str	r0, [sp, #20]
	str	r1, [sp, #16]
	str	r2, [sp, #12]
	.loc 4 1242 12
	movs	r3, #0
	str	r3, [sp, #44]
	.loc 4 1244 17
	ldr	r3, [sp, #20]
	str	r3, [sp, #40]
.L146:
	.loc 4 1267 3
	bl	vPortEnterCritical
.LBB118:
	.loc 4 1269 22
	ldr	r3, [sp, #40]
	ldr	r3, [r3, #56]
	str	r3, [sp, #36]
	.loc 4 1273 6
	ldr	r3, [sp, #36]
	cmp	r3, #0
	beq	.L131
	.loc 4 1276 5
	ldr	r1, [sp, #16]
	ldr	r0, [sp, #40]
	bl	prvCopyDataFromQueue
	.loc 4 1277 5
	ldr	r3, [sp, #40]
	mov	r0, r3
	bl	SEGGER_SYSVIEW_ShrinkId
	mov	r4, r0
	movs	r0, #0
	bl	SEGGER_SYSVIEW_ShrinkId
	mov	r2, r0
	ldr	r3, [sp, #12]
	movs	r1, #1
	str	r1, [sp]
	mov	r1, r4
	movs	r0, #92
	bl	SEGGER_SYSVIEW_RecordU32x4
	.loc 4 1278 52
	ldr	r3, [sp, #36]
	subs	r2, r3, #1
	.loc 4 1278 32
	ldr	r3, [sp, #40]
	str	r2, [r3, #56]
	.loc 4 1283 65
	ldr	r3, [sp, #40]
	ldr	r3, [r3, #16]
	.loc 4 1283 7
	cmp	r3, #0
	beq	.L132
	.loc 4 1285 36
	ldr	r3, [sp, #40]
	adds	r3, r3, #16
	.loc 4 1285 10
	mov	r0, r3
	bl	xTaskRemoveFromEventList
	mov	r3, r0
	.loc 4 1285 8
	cmp	r3, #0
	beq	.L132
	.loc 4 1287 55
	ldr	r3, .L149
	.loc 4 1287 62
	mov	r2, #268435456
	str	r2, [r3, #4]
.LBB119:
.LBB120:
	.loc 3 406 3
	.syntax unified
@ 406 "../../../../../../components/toolchain/cmsis/include/cmsis_gcc.h" 1
	sev
@ 0 "" 2
	.loc 3 407 1
	.thumb
	.syntax unified
	nop
.LBE120:
.LBE119:
.LBB121:
.LBB122:
	.loc 3 429 3
	.syntax unified
@ 429 "../../../../../../components/toolchain/cmsis/include/cmsis_gcc.h" 1
	dsb 0xF
@ 0 "" 2
	.loc 3 430 1
	.thumb
	.syntax unified
	nop
.LBE122:
.LBE121:
.LBB123:
.LBB124:
	.loc 3 418 3
	.syntax unified
@ 418 "../../../../../../components/toolchain/cmsis/include/cmsis_gcc.h" 1
	isb 0xF
@ 0 "" 2
	.loc 3 419 1
	.thumb
	.syntax unified
	nop
.L132:
.LBE124:
.LBE123:
	.loc 4 1299 5
	bl	vPortExitCritical
	.loc 4 1300 12
	movs	r3, #1
	b	.L147
.L131:
	.loc 4 1304 22
	ldr	r3, [sp, #12]
	.loc 4 1304 7
	cmp	r3, #0
	bne	.L134
	.loc 4 1308 6
	bl	vPortExitCritical
	.loc 4 1309 6
	ldr	r3, [sp, #40]
	mov	r0, r3
	bl	SEGGER_SYSVIEW_ShrinkId
	mov	r4, r0
	movs	r0, #0
	bl	SEGGER_SYSVIEW_ShrinkId
	mov	r2, r0
	ldr	r3, [sp, #12]
	movs	r1, #1
	str	r1, [sp]
	mov	r1, r4
	movs	r0, #92
	bl	SEGGER_SYSVIEW_RecordU32x4
	.loc 4 1310 13
	movs	r3, #0
	b	.L147
.L134:
	.loc 4 1312 12
	ldr	r3, [sp, #44]
	cmp	r3, #0
	bne	.L135
	.loc 4 1316 6
	add	r3, sp, #28
	mov	r0, r3
	bl	vTaskInternalSetTimeOutState
	.loc 4 1317 20
	movs	r3, #1
	str	r3, [sp, #44]
.L135:
.LBE118:
	.loc 4 1326 3
	bl	vPortExitCritical
	.loc 4 1331 3
	bl	vTaskSuspendAll
	.loc 4 1332 3
	bl	vPortEnterCritical
	.loc 4 1332 42
	ldr	r3, [sp, #40]
	ldrb	r3, [r3, #68]
	sxtb	r3, r3
	.loc 4 1332 29
	cmp	r3, #-1
	bne	.L136
	.loc 4 1332 98 discriminator 1
	ldr	r3, [sp, #40]
	movs	r2, #0
	strb	r2, [r3, #68]
.L136:
	.loc 4 1332 135 discriminator 3
	ldr	r3, [sp, #40]
	ldrb	r3, [r3, #69]
	sxtb	r3, r3
	.loc 4 1332 122 discriminator 3
	cmp	r3, #-1
	bne	.L137
	.loc 4 1332 191 discriminator 4
	ldr	r3, [sp, #40]
	movs	r2, #0
	strb	r2, [r3, #69]
.L137:
	.loc 4 1332 215 discriminator 6
	bl	vPortExitCritical
	.loc 4 1335 7 discriminator 6
	add	r2, sp, #12
	add	r3, sp, #28
	mov	r1, r2
	mov	r0, r3
	bl	xTaskCheckForTimeOut
	mov	r3, r0
	.loc 4 1335 5 discriminator 6
	cmp	r3, #0
	bne	.L138
	.loc 4 1339 8
	ldr	r0, [sp, #40]
	bl	prvIsQueueEmpty
	mov	r3, r0
	.loc 4 1339 6
	cmp	r3, #0
	beq	.L139
	.loc 4 1341 9
	bl	prvTraceGetCurrentTaskHandle
	mov	r3, r0
	mov	r0, r3
	bl	prvTraceGetTaskNumberHigh16
	mov	r3, r0
	mov	r2, r3
	ldr	r3, .L149+4
	ldrh	r3, [r3]
	ands	r3, r3, r2
	uxth	r3, r3
	.loc 4 1341 8
	cmp	r3, #0
	beq	.L148
	.loc 4 1341 101 discriminator 1
	ldr	r0, [sp, #40]
	bl	prvTraceGetQueueNumberHigh16
	mov	r3, r0
	mov	r2, r3
	ldr	r3, .L149+4
	ldrh	r3, [r3]
	ands	r3, r3, r2
	uxth	r3, r3
	.loc 4 1341 100 discriminator 1
	cmp	r3, #0
	beq	.L148
	.loc 4 1341 182 discriminator 2
	ldr	r3, [sp, #40]
	ldrb	r3, [r3, #76]	@ zero_extendqisi2
	cmp	r3, #4
	bhi	.L140
	adr	r2, .L142
	ldr	pc, [r2, r3, lsl #2]
	.p2align 2
.L142:
	.word	.L144+1
	.word	.L141+1
	.word	.L143+1
	.word	.L143+1
	.word	.L141+1
	.p2align 1
.L144:
	.loc 4 1341 224 discriminator 3
	ldr	r1, [sp, #40]
	ldr	r2, [sp, #12]
	.loc 4 1341 310 discriminator 3
	ldr	r3, [sp, #40]
	ldr	r3, [r3, #56]
	.loc 4 1341 224 discriminator 3
	movs	r0, #102
	bl	prvTraceStoreEvent3
	.loc 4 1341 5 discriminator 3
	b	.L140
.L143:
	.loc 4 1341 389 discriminator 5
	ldr	r1, [sp, #40]
	ldr	r2, [sp, #12]
	.loc 4 1341 475 discriminator 5
	ldr	r3, [sp, #40]
	ldr	r3, [r3, #56]
	.loc 4 1341 389 discriminator 5
	movs	r0, #103
	bl	prvTraceStoreEvent3
	.loc 4 1341 5 discriminator 5
	b	.L140
.L141:
	.loc 4 1341 554 discriminator 4
	ldr	r3, [sp, #40]
	ldr	r2, [sp, #12]
	mov	r1, r3
	movs	r0, #104
	bl	prvTraceStoreEvent2
	.loc 4 1341 5 discriminator 4
	b	.L140
.L148:
	.loc 4 1341 642
	nop
.L140:
	.loc 4 1342 5
	ldr	r3, [sp, #40]
	adds	r3, r3, #36
	ldr	r2, [sp, #12]
	mov	r1, r2
	mov	r0, r3
	bl	vTaskPlaceOnEventList
	.loc 4 1343 5
	ldr	r0, [sp, #40]
	bl	prvUnlockQueue
	.loc 4 1344 9
	bl	xTaskResumeAll
	mov	r3, r0
	.loc 4 1344 7
	cmp	r3, #0
	bne	.L146
	.loc 4 1346 54
	ldr	r3, .L149
	.loc 4 1346 61
	mov	r2, #268435456
	str	r2, [r3, #4]
.LBB125:
.LBB126:
	.loc 3 406 3
	.syntax unified
@ 406 "../../../../../../components/toolchain/cmsis/include/cmsis_gcc.h" 1
	sev
@ 0 "" 2
	.loc 3 407 1
	.thumb
	.syntax unified
	nop
.LBE126:
.LBE125:
.LBB127:
.LBB128:
	.loc 3 429 3
	.syntax unified
@ 429 "../../../../../../components/toolchain/cmsis/include/cmsis_gcc.h" 1
	dsb 0xF
@ 0 "" 2
	.loc 3 430 1
	.thumb
	.syntax unified
	nop
.LBE128:
.LBE127:
.LBB129:
.LBB130:
	.loc 3 418 3
	.syntax unified
@ 418 "../../../../../../components/toolchain/cmsis/include/cmsis_gcc.h" 1
	isb 0xF
@ 0 "" 2
	.loc 3 419 1
	.thumb
	.syntax unified
	b	.L145
.L139:
.LBE130:
.LBE129:
	.loc 4 1357 5
	ldr	r0, [sp, #40]
	bl	prvUnlockQueue
	.loc 4 1358 14
	bl	xTaskResumeAll
	b	.L146
.L138:
	.loc 4 1365 4
	ldr	r0, [sp, #40]
	bl	prvUnlockQueue
	.loc 4 1366 13
	bl	xTaskResumeAll
	.loc 4 1368 8
	ldr	r0, [sp, #40]
	bl	prvIsQueueEmpty
	mov	r3, r0
	.loc 4 1368 6
	cmp	r3, #0
	beq	.L146
	.loc 4 1370 5
	ldr	r3, [sp, #40]
	mov	r0, r3
	bl	SEGGER_SYSVIEW_ShrinkId
	mov	r4, r0
	movs	r0, #0
	bl	SEGGER_SYSVIEW_ShrinkId
	mov	r2, r0
	ldr	r3, [sp, #12]
	movs	r1, #1
	str	r1, [sp]
	mov	r1, r4
	movs	r0, #92
	bl	SEGGER_SYSVIEW_RecordU32x4
	.loc 4 1371 12
	movs	r3, #0
	b	.L147
.L145:
	.loc 4 1267 3 discriminator 2
	b	.L146
.L147:
	.loc 4 1379 1 discriminator 3
	mov	r0, r3
	add	sp, sp, #48
.LCFI40:
	@ sp needed
	pop	{r4, pc}
.L150:
	.align	2
.L149:
	.word	-536810240
	.word	CurrentFilterMask
.LFE212:
	.size	xQueueReceive, .-xQueueReceive
	.section	.text.xQueueSemaphoreTake,"ax",%progbits
	.align	1
	.global	xQueueSemaphoreTake
	.syntax unified
	.thumb
	.thumb_func
	.fpu fpv4-sp-d16
	.type	xQueueSemaphoreTake, %function
xQueueSemaphoreTake:
.LFB213:
	.loc 4 1383 1
	@ args = 0, pretend = 0, frame = 40
	@ frame_needed = 0, uses_anonymous_args = 0
	push	{r4, lr}
.LCFI41:
	sub	sp, sp, #48
.LCFI42:
	str	r0, [sp, #12]
	str	r1, [sp, #8]
	.loc 4 1384 12
	movs	r3, #0
	str	r3, [sp, #44]
	.loc 4 1386 17
	ldr	r3, [sp, #12]
	str	r3, [sp, #36]
	.loc 4 1389 13
	movs	r3, #0
	str	r3, [sp, #40]
.L170:
	.loc 4 1413 3
	bl	vPortEnterCritical
.LBB131:
	.loc 4 1417 22
	ldr	r3, [sp, #36]
	ldr	r3, [r3, #56]
	str	r3, [sp, #32]
	.loc 4 1421 6
	ldr	r3, [sp, #32]
	cmp	r3, #0
	beq	.L152
	.loc 4 1423 5
	ldr	r3, [sp, #36]
	mov	r0, r3
	bl	SEGGER_SYSVIEW_ShrinkId
	mov	r4, r0
	movs	r0, #0
	bl	SEGGER_SYSVIEW_ShrinkId
	mov	r2, r0
	ldr	r3, [sp, #8]
	movs	r1, #1
	str	r1, [sp]
	mov	r1, r4
	movs	r0, #92
	bl	SEGGER_SYSVIEW_RecordU32x4
	.loc 4 1427 51
	ldr	r3, [sp, #32]
	subs	r2, r3, #1
	.loc 4 1427 32
	ldr	r3, [sp, #36]
	str	r2, [r3, #56]
	.loc 4 1431 17
	ldr	r3, [sp, #36]
	ldr	r3, [r3]
	.loc 4 1431 8
	cmp	r3, #0
	bne	.L153
	.loc 4 1435 38
	bl	pvTaskIncrementMutexHeldCount
	mov	r2, r0
	.loc 4 1435 23
	ldr	r3, [sp, #36]
	str	r2, [r3, #4]
.L153:
	.loc 4 1446 65
	ldr	r3, [sp, #36]
	ldr	r3, [r3, #16]
	.loc 4 1446 7
	cmp	r3, #0
	beq	.L154
	.loc 4 1448 36
	ldr	r3, [sp, #36]
	adds	r3, r3, #16
	.loc 4 1448 10
	mov	r0, r3
	bl	xTaskRemoveFromEventList
	mov	r3, r0
	.loc 4 1448 8
	cmp	r3, #0
	beq	.L154
	.loc 4 1450 55
	ldr	r3, .L173
	.loc 4 1450 62
	mov	r2, #268435456
	str	r2, [r3, #4]
.LBB132:
.LBB133:
	.loc 3 406 3
	.syntax unified
@ 406 "../../../../../../components/toolchain/cmsis/include/cmsis_gcc.h" 1
	sev
@ 0 "" 2
	.loc 3 407 1
	.thumb
	.syntax unified
	nop
.LBE133:
.LBE132:
.LBB134:
.LBB135:
	.loc 3 429 3
	.syntax unified
@ 429 "../../../../../../components/toolchain/cmsis/include/cmsis_gcc.h" 1
	dsb 0xF
@ 0 "" 2
	.loc 3 430 1
	.thumb
	.syntax unified
	nop
.LBE135:
.LBE134:
.LBB136:
.LBB137:
	.loc 3 418 3
	.syntax unified
@ 418 "../../../../../../components/toolchain/cmsis/include/cmsis_gcc.h" 1
	isb 0xF
@ 0 "" 2
	.loc 3 419 1
	.thumb
	.syntax unified
	nop
.L154:
.LBE137:
.LBE136:
	.loc 4 1462 5
	bl	vPortExitCritical
	.loc 4 1463 12
	movs	r3, #1
	b	.L171
.L152:
	.loc 4 1467 22
	ldr	r3, [sp, #8]
	.loc 4 1467 7
	cmp	r3, #0
	bne	.L156
	.loc 4 1480 6
	bl	vPortExitCritical
	.loc 4 1481 6
	ldr	r3, [sp, #36]
	mov	r0, r3
	bl	SEGGER_SYSVIEW_ShrinkId
	mov	r4, r0
	movs	r0, #0
	bl	SEGGER_SYSVIEW_ShrinkId
	mov	r2, r0
	ldr	r3, [sp, #8]
	movs	r1, #1
	str	r1, [sp]
	mov	r1, r4
	movs	r0, #92
	bl	SEGGER_SYSVIEW_RecordU32x4
	.loc 4 1482 13
	movs	r3, #0
	b	.L171
.L156:
	.loc 4 1484 12
	ldr	r3, [sp, #44]
	cmp	r3, #0
	bne	.L157
	.loc 4 1488 6
	add	r3, sp, #20
	mov	r0, r3
	bl	vTaskInternalSetTimeOutState
	.loc 4 1489 20
	movs	r3, #1
	str	r3, [sp, #44]
.L157:
.LBE131:
	.loc 4 1498 3
	bl	vPortExitCritical
	.loc 4 1503 3
	bl	vTaskSuspendAll
	.loc 4 1504 3
	bl	vPortEnterCritical
	.loc 4 1504 42
	ldr	r3, [sp, #36]
	ldrb	r3, [r3, #68]
	sxtb	r3, r3
	.loc 4 1504 29
	cmp	r3, #-1
	bne	.L158
	.loc 4 1504 98 discriminator 1
	ldr	r3, [sp, #36]
	movs	r2, #0
	strb	r2, [r3, #68]
.L158:
	.loc 4 1504 135 discriminator 3
	ldr	r3, [sp, #36]
	ldrb	r3, [r3, #69]
	sxtb	r3, r3
	.loc 4 1504 122 discriminator 3
	cmp	r3, #-1
	bne	.L159
	.loc 4 1504 191 discriminator 4
	ldr	r3, [sp, #36]
	movs	r2, #0
	strb	r2, [r3, #69]
.L159:
	.loc 4 1504 215 discriminator 6
	bl	vPortExitCritical
	.loc 4 1507 7 discriminator 6
	add	r2, sp, #8
	add	r3, sp, #20
	mov	r1, r2
	mov	r0, r3
	bl	xTaskCheckForTimeOut
	mov	r3, r0
	.loc 4 1507 5 discriminator 6
	cmp	r3, #0
	bne	.L160
	.loc 4 1513 8
	ldr	r0, [sp, #36]
	bl	prvIsQueueEmpty
	mov	r3, r0
	.loc 4 1513 6
	cmp	r3, #0
	beq	.L161
	.loc 4 1515 9
	bl	prvTraceGetCurrentTaskHandle
	mov	r3, r0
	mov	r0, r3
	bl	prvTraceGetTaskNumberHigh16
	mov	r3, r0
	mov	r2, r3
	ldr	r3, .L173+4
	ldrh	r3, [r3]
	ands	r3, r3, r2
	uxth	r3, r3
	.loc 4 1515 8
	cmp	r3, #0
	beq	.L172
	.loc 4 1515 101 discriminator 1
	ldr	r0, [sp, #36]
	bl	prvTraceGetQueueNumberHigh16
	mov	r3, r0
	mov	r2, r3
	ldr	r3, .L173+4
	ldrh	r3, [r3]
	ands	r3, r3, r2
	uxth	r3, r3
	.loc 4 1515 100 discriminator 1
	cmp	r3, #0
	beq	.L172
	.loc 4 1515 182 discriminator 2
	ldr	r3, [sp, #36]
	ldrb	r3, [r3, #76]	@ zero_extendqisi2
	cmp	r3, #4
	bhi	.L162
	adr	r2, .L164
	ldr	pc, [r2, r3, lsl #2]
	.p2align 2
.L164:
	.word	.L166+1
	.word	.L163+1
	.word	.L165+1
	.word	.L165+1
	.word	.L163+1
	.p2align 1
.L166:
	.loc 4 1515 224 discriminator 3
	ldr	r1, [sp, #36]
	ldr	r2, [sp, #8]
	.loc 4 1515 310 discriminator 3
	ldr	r3, [sp, #36]
	ldr	r3, [r3, #56]
	.loc 4 1515 224 discriminator 3
	movs	r0, #102
	bl	prvTraceStoreEvent3
	.loc 4 1515 5 discriminator 3
	b	.L162
.L165:
	.loc 4 1515 389 discriminator 5
	ldr	r1, [sp, #36]
	ldr	r2, [sp, #8]
	.loc 4 1515 475 discriminator 5
	ldr	r3, [sp, #36]
	ldr	r3, [r3, #56]
	.loc 4 1515 389 discriminator 5
	movs	r0, #103
	bl	prvTraceStoreEvent3
	.loc 4 1515 5 discriminator 5
	b	.L162
.L163:
	.loc 4 1515 554 discriminator 4
	ldr	r3, [sp, #36]
	ldr	r2, [sp, #8]
	mov	r1, r3
	movs	r0, #104
	bl	prvTraceStoreEvent2
	.loc 4 1515 5 discriminator 4
	b	.L162
.L172:
	.loc 4 1515 642
	nop
.L162:
	.loc 4 1519 17
	ldr	r3, [sp, #36]
	ldr	r3, [r3]
	.loc 4 1519 8
	cmp	r3, #0
	bne	.L167
	.loc 4 1521 7
	bl	vPortEnterCritical
	.loc 4 1523 71
	ldr	r3, [sp, #36]
	ldr	r3, [r3, #4]
	.loc 4 1523 31
	mov	r0, r3
	bl	xTaskPriorityInherit
	str	r0, [sp, #40]
	.loc 4 1525 7
	bl	vPortExitCritical
.L167:
	.loc 4 1534 5
	ldr	r3, [sp, #36]
	adds	r3, r3, #36
	ldr	r2, [sp, #8]
	mov	r1, r2
	mov	r0, r3
	bl	vTaskPlaceOnEventList
	.loc 4 1535 5
	ldr	r0, [sp, #36]
	bl	prvUnlockQueue
	.loc 4 1536 9
	bl	xTaskResumeAll
	mov	r3, r0
	.loc 4 1536 7
	cmp	r3, #0
	bne	.L170
	.loc 4 1538 54
	ldr	r3, .L173
	.loc 4 1538 61
	mov	r2, #268435456
	str	r2, [r3, #4]
.LBB138:
.LBB139:
	.loc 3 406 3
	.syntax unified
@ 406 "../../../../../../components/toolchain/cmsis/include/cmsis_gcc.h" 1
	sev
@ 0 "" 2
	.loc 3 407 1
	.thumb
	.syntax unified
	nop
.LBE139:
.LBE138:
.LBB140:
.LBB141:
	.loc 3 429 3
	.syntax unified
@ 429 "../../../../../../components/toolchain/cmsis/include/cmsis_gcc.h" 1
	dsb 0xF
@ 0 "" 2
	.loc 3 430 1
	.thumb
	.syntax unified
	nop
.LBE141:
.LBE140:
.LBB142:
.LBB143:
	.loc 3 418 3
	.syntax unified
@ 418 "../../../../../../components/toolchain/cmsis/include/cmsis_gcc.h" 1
	isb 0xF
@ 0 "" 2
	.loc 3 419 1
	.thumb
	.syntax unified
	b	.L168
.L161:
.LBE143:
.LBE142:
	.loc 4 1549 5
	ldr	r0, [sp, #36]
	bl	prvUnlockQueue
	.loc 4 1550 14
	bl	xTaskResumeAll
	b	.L170
.L160:
	.loc 4 1556 4
	ldr	r0, [sp, #36]
	bl	prvUnlockQueue
	.loc 4 1557 13
	bl	xTaskResumeAll
	.loc 4 1563 8
	ldr	r0, [sp, #36]
	bl	prvIsQueueEmpty
	mov	r3, r0
	.loc 4 1563 6
	cmp	r3, #0
	beq	.L170
	.loc 4 1570 8
	ldr	r3, [sp, #40]
	cmp	r3, #0
	beq	.L169
	.loc 4 1572 7
	bl	vPortEnterCritical
.LBB144:
	.loc 4 1581 35
	ldr	r0, [sp, #36]
	bl	prvGetDisinheritPriorityAfterTimeout
	str	r0, [sp, #28]
	.loc 4 1582 63
	ldr	r3, [sp, #36]
	ldr	r3, [r3, #4]
	.loc 4 1582 8
	ldr	r1, [sp, #28]
	mov	r0, r3
	bl	vTaskPriorityDisinheritAfterTimeout
.LBE144:
	.loc 4 1584 7
	bl	vPortExitCritical
.L169:
	.loc 4 1589 5
	ldr	r3, [sp, #36]
	mov	r0, r3
	bl	SEGGER_SYSVIEW_ShrinkId
	mov	r4, r0
	movs	r0, #0
	bl	SEGGER_SYSVIEW_ShrinkId
	mov	r2, r0
	ldr	r3, [sp, #8]
	movs	r1, #1
	str	r1, [sp]
	mov	r1, r4
	movs	r0, #92
	bl	SEGGER_SYSVIEW_RecordU32x4
	.loc 4 1590 12
	movs	r3, #0
	b	.L171
.L168:
	.loc 4 1413 3 discriminator 2
	b	.L170
.L171:
	.loc 4 1598 1 discriminator 3
	mov	r0, r3
	add	sp, sp, #48
.LCFI43:
	@ sp needed
	pop	{r4, pc}
.L174:
	.align	2
.L173:
	.word	-536810240
	.word	CurrentFilterMask
.LFE213:
	.size	xQueueSemaphoreTake, .-xQueueSemaphoreTake
	.section	.text.xQueuePeek,"ax",%progbits
	.align	1
	.global	xQueuePeek
	.syntax unified
	.thumb
	.thumb_func
	.fpu fpv4-sp-d16
	.type	xQueuePeek, %function
xQueuePeek:
.LFB214:
	.loc 4 1602 1
	@ args = 0, pretend = 0, frame = 40
	@ frame_needed = 0, uses_anonymous_args = 0
	push	{r4, lr}
.LCFI44:
	sub	sp, sp, #48
.LCFI45:
	str	r0, [sp, #20]
	str	r1, [sp, #16]
	str	r2, [sp, #12]
	.loc 4 1603 12
	movs	r3, #0
	str	r3, [sp, #44]
	.loc 4 1606 17
	ldr	r3, [sp, #20]
	str	r3, [sp, #40]
.L201:
	.loc 4 1629 3
	bl	vPortEnterCritical
.LBB145:
	.loc 4 1631 22
	ldr	r3, [sp, #40]
	ldr	r3, [r3, #56]
	str	r3, [sp, #36]
	.loc 4 1635 6
	ldr	r3, [sp, #36]
	cmp	r3, #0
	beq	.L176
	.loc 4 1640 28
	ldr	r3, [sp, #40]
	ldr	r3, [r3, #12]
	str	r3, [sp, #32]
	.loc 4 1642 5
	ldr	r1, [sp, #16]
	ldr	r0, [sp, #40]
	bl	prvCopyDataFromQueue
	.loc 4 1643 5
	ldr	r3, [sp, #40]
	mov	r0, r3
	bl	SEGGER_SYSVIEW_ShrinkId
	mov	r4, r0
	ldr	r3, [sp, #16]
	mov	r0, r3
	bl	SEGGER_SYSVIEW_ShrinkId
	mov	r2, r0
	ldr	r3, [sp, #12]
	movs	r1, #1
	str	r1, [sp]
	mov	r1, r4
	movs	r0, #92
	bl	SEGGER_SYSVIEW_RecordU32x4
	.loc 4 1646 27
	ldr	r3, [sp, #40]
	ldr	r2, [sp, #32]
	str	r2, [r3, #12]
	.loc 4 1650 68
	ldr	r3, [sp, #40]
	ldr	r3, [r3, #36]
	.loc 4 1650 7
	cmp	r3, #0
	beq	.L177
	.loc 4 1652 36
	ldr	r3, [sp, #40]
	adds	r3, r3, #36
	.loc 4 1652 10
	mov	r0, r3
	bl	xTaskRemoveFromEventList
	mov	r3, r0
	.loc 4 1652 8
	cmp	r3, #0
	beq	.L177
	.loc 4 1655 55
	ldr	r3, .L206
	.loc 4 1655 62
	mov	r2, #268435456
	str	r2, [r3, #4]
.LBB146:
.LBB147:
	.loc 3 406 3
	.syntax unified
@ 406 "../../../../../../components/toolchain/cmsis/include/cmsis_gcc.h" 1
	sev
@ 0 "" 2
	.loc 3 407 1
	.thumb
	.syntax unified
	nop
.LBE147:
.LBE146:
.LBB148:
.LBB149:
	.loc 3 429 3
	.syntax unified
@ 429 "../../../../../../components/toolchain/cmsis/include/cmsis_gcc.h" 1
	dsb 0xF
@ 0 "" 2
	.loc 3 430 1
	.thumb
	.syntax unified
	nop
.LBE149:
.LBE148:
.LBB150:
.LBB151:
	.loc 3 418 3
	.syntax unified
@ 418 "../../../../../../components/toolchain/cmsis/include/cmsis_gcc.h" 1
	isb 0xF
@ 0 "" 2
	.loc 3 419 1
	.thumb
	.syntax unified
	nop
.L177:
.LBE151:
.LBE150:
	.loc 4 1667 5
	bl	vPortExitCritical
	.loc 4 1668 12
	movs	r3, #1
	b	.L202
.L176:
	.loc 4 1672 22
	ldr	r3, [sp, #12]
	.loc 4 1672 7
	cmp	r3, #0
	bne	.L179
	.loc 4 1676 6
	bl	vPortExitCritical
	.loc 4 1677 10
	bl	prvTraceGetCurrentTaskHandle
	mov	r3, r0
	mov	r0, r3
	bl	prvTraceGetTaskNumberHigh16
	mov	r3, r0
	mov	r2, r3
	ldr	r3, .L206+4
	ldrh	r3, [r3]
	ands	r3, r3, r2
	uxth	r3, r3
	.loc 4 1677 9
	cmp	r3, #0
	beq	.L203
	.loc 4 1677 102 discriminator 1
	ldr	r0, [sp, #40]
	bl	prvTraceGetQueueNumberHigh16
	mov	r3, r0
	mov	r2, r3
	ldr	r3, .L206+4
	ldrh	r3, [r3]
	ands	r3, r3, r2
	uxth	r3, r3
	.loc 4 1677 101 discriminator 1
	cmp	r3, #0
	beq	.L203
	.loc 4 1677 183 discriminator 2
	ldr	r3, [sp, #40]
	ldrb	r3, [r3, #76]	@ zero_extendqisi2
	cmp	r3, #4
	bhi	.L180
	adr	r2, .L182
	ldr	pc, [r2, r3, lsl #2]
	.p2align 2
.L182:
	.word	.L184+1
	.word	.L181+1
	.word	.L183+1
	.word	.L183+1
	.word	.L181+1
	.p2align 1
.L184:
	.loc 4 1677 225 discriminator 3
	ldr	r1, [sp, #40]
	ldr	r2, [sp, #12]
	.loc 4 1677 291 discriminator 3
	ldr	r3, [sp, #40]
	ldr	r3, [r3, #56]
	.loc 4 1677 225 discriminator 3
	movs	r0, #115
	bl	prvTraceStoreEvent3
	.loc 4 1677 6 discriminator 3
	b	.L180
.L183:
	.loc 4 1677 370 discriminator 5
	ldr	r1, [sp, #40]
	ldr	r2, [sp, #12]
	.loc 4 1677 436 discriminator 5
	ldr	r3, [sp, #40]
	ldr	r3, [r3, #56]
	.loc 4 1677 370 discriminator 5
	movs	r0, #116
	bl	prvTraceStoreEvent3
	.loc 4 1677 6 discriminator 5
	b	.L180
.L181:
	.loc 4 1677 515 discriminator 4
	ldr	r3, [sp, #40]
	ldr	r2, [sp, #12]
	mov	r1, r3
	movs	r0, #117
	bl	prvTraceStoreEvent2
	.loc 4 1677 6 discriminator 4
	b	.L180
.L203:
	.loc 4 1677 583
	nop
.L180:
	.loc 4 1678 13
	movs	r3, #0
	b	.L202
.L179:
	.loc 4 1680 12
	ldr	r3, [sp, #44]
	cmp	r3, #0
	bne	.L185
	.loc 4 1685 6
	add	r3, sp, #24
	mov	r0, r3
	bl	vTaskInternalSetTimeOutState
	.loc 4 1686 20
	movs	r3, #1
	str	r3, [sp, #44]
.L185:
.LBE145:
	.loc 4 1695 3
	bl	vPortExitCritical
	.loc 4 1700 3
	bl	vTaskSuspendAll
	.loc 4 1701 3
	bl	vPortEnterCritical
	.loc 4 1701 42
	ldr	r3, [sp, #40]
	ldrb	r3, [r3, #68]
	sxtb	r3, r3
	.loc 4 1701 29
	cmp	r3, #-1
	bne	.L186
	.loc 4 1701 98 discriminator 1
	ldr	r3, [sp, #40]
	movs	r2, #0
	strb	r2, [r3, #68]
.L186:
	.loc 4 1701 135 discriminator 3
	ldr	r3, [sp, #40]
	ldrb	r3, [r3, #69]
	sxtb	r3, r3
	.loc 4 1701 122 discriminator 3
	cmp	r3, #-1
	bne	.L187
	.loc 4 1701 191 discriminator 4
	ldr	r3, [sp, #40]
	movs	r2, #0
	strb	r2, [r3, #69]
.L187:
	.loc 4 1701 215 discriminator 6
	bl	vPortExitCritical
	.loc 4 1704 7 discriminator 6
	add	r2, sp, #12
	add	r3, sp, #24
	mov	r1, r2
	mov	r0, r3
	bl	xTaskCheckForTimeOut
	mov	r3, r0
	.loc 4 1704 5 discriminator 6
	cmp	r3, #0
	bne	.L188
	.loc 4 1708 8
	ldr	r0, [sp, #40]
	bl	prvIsQueueEmpty
	mov	r3, r0
	.loc 4 1708 6
	cmp	r3, #0
	beq	.L189
	.loc 4 1710 9
	bl	prvTraceGetCurrentTaskHandle
	mov	r3, r0
	mov	r0, r3
	bl	prvTraceGetTaskNumberHigh16
	mov	r3, r0
	mov	r2, r3
	ldr	r3, .L206+4
	ldrh	r3, [r3]
	ands	r3, r3, r2
	uxth	r3, r3
	.loc 4 1710 8
	cmp	r3, #0
	beq	.L204
	.loc 4 1710 101 discriminator 1
	ldr	r0, [sp, #40]
	bl	prvTraceGetQueueNumberHigh16
	mov	r3, r0
	mov	r2, r3
	ldr	r3, .L206+4
	ldrh	r3, [r3]
	ands	r3, r3, r2
	uxth	r3, r3
	.loc 4 1710 100 discriminator 1
	cmp	r3, #0
	beq	.L204
	.loc 4 1710 182 discriminator 2
	ldr	r3, [sp, #40]
	ldrb	r3, [r3, #76]	@ zero_extendqisi2
	cmp	r3, #4
	bhi	.L190
	adr	r2, .L192
	ldr	pc, [r2, r3, lsl #2]
	.p2align 2
.L192:
	.word	.L194+1
	.word	.L191+1
	.word	.L193+1
	.word	.L193+1
	.word	.L191+1
	.p2align 1
.L194:
	.loc 4 1710 224 discriminator 3
	ldr	r1, [sp, #40]
	ldr	r2, [sp, #12]
	.loc 4 1710 290 discriminator 3
	ldr	r3, [sp, #40]
	ldr	r3, [r3, #56]
	.loc 4 1710 224 discriminator 3
	movs	r0, #118
	bl	prvTraceStoreEvent3
	.loc 4 1710 5 discriminator 3
	b	.L190
.L193:
	.loc 4 1710 369 discriminator 5
	ldr	r1, [sp, #40]
	ldr	r2, [sp, #12]
	.loc 4 1710 435 discriminator 5
	ldr	r3, [sp, #40]
	ldr	r3, [r3, #56]
	.loc 4 1710 369 discriminator 5
	movs	r0, #119
	bl	prvTraceStoreEvent3
	.loc 4 1710 5 discriminator 5
	b	.L190
.L191:
	.loc 4 1710 514 discriminator 4
	ldr	r3, [sp, #40]
	ldr	r2, [sp, #12]
	mov	r1, r3
	movs	r0, #120
	bl	prvTraceStoreEvent2
	.loc 4 1710 5 discriminator 4
	b	.L190
.L204:
	.loc 4 1710 582
	nop
.L190:
	.loc 4 1711 5
	ldr	r3, [sp, #40]
	adds	r3, r3, #36
	ldr	r2, [sp, #12]
	mov	r1, r2
	mov	r0, r3
	bl	vTaskPlaceOnEventList
	.loc 4 1712 5
	ldr	r0, [sp, #40]
	bl	prvUnlockQueue
	.loc 4 1713 9
	bl	xTaskResumeAll
	mov	r3, r0
	.loc 4 1713 7
	cmp	r3, #0
	bne	.L201
	.loc 4 1715 54
	ldr	r3, .L206
	.loc 4 1715 61
	mov	r2, #268435456
	str	r2, [r3, #4]
.LBB152:
.LBB153:
	.loc 3 406 3
	.syntax unified
@ 406 "../../../../../../components/toolchain/cmsis/include/cmsis_gcc.h" 1
	sev
@ 0 "" 2
	.loc 3 407 1
	.thumb
	.syntax unified
	nop
.LBE153:
.LBE152:
.LBB154:
.LBB155:
	.loc 3 429 3
	.syntax unified
@ 429 "../../../../../../components/toolchain/cmsis/include/cmsis_gcc.h" 1
	dsb 0xF
@ 0 "" 2
	.loc 3 430 1
	.thumb
	.syntax unified
	nop
.LBE155:
.LBE154:
.LBB156:
.LBB157:
	.loc 3 418 3
	.syntax unified
@ 418 "../../../../../../components/toolchain/cmsis/include/cmsis_gcc.h" 1
	isb 0xF
@ 0 "" 2
	.loc 3 419 1
	.thumb
	.syntax unified
	b	.L195
.L189:
.LBE157:
.LBE156:
	.loc 4 1726 5
	ldr	r0, [sp, #40]
	bl	prvUnlockQueue
	.loc 4 1727 14
	bl	xTaskResumeAll
	b	.L201
.L188:
	.loc 4 1734 4
	ldr	r0, [sp, #40]
	bl	prvUnlockQueue
	.loc 4 1735 13
	bl	xTaskResumeAll
	.loc 4 1737 8
	ldr	r0, [sp, #40]
	bl	prvIsQueueEmpty
	mov	r3, r0
	.loc 4 1737 6
	cmp	r3, #0
	beq	.L201
	.loc 4 1739 9
	bl	prvTraceGetCurrentTaskHandle
	mov	r3, r0
	mov	r0, r3
	bl	prvTraceGetTaskNumberHigh16
	mov	r3, r0
	mov	r2, r3
	ldr	r3, .L206+4
	ldrh	r3, [r3]
	ands	r3, r3, r2
	uxth	r3, r3
	.loc 4 1739 8
	cmp	r3, #0
	beq	.L205
	.loc 4 1739 101 discriminator 1
	ldr	r0, [sp, #40]
	bl	prvTraceGetQueueNumberHigh16
	mov	r3, r0
	mov	r2, r3
	ldr	r3, .L206+4
	ldrh	r3, [r3]
	ands	r3, r3, r2
	uxth	r3, r3
	.loc 4 1739 100 discriminator 1
	cmp	r3, #0
	beq	.L205
	.loc 4 1739 182 discriminator 2
	ldr	r3, [sp, #40]
	ldrb	r3, [r3, #76]	@ zero_extendqisi2
	cmp	r3, #4
	bhi	.L196
	adr	r2, .L198
	ldr	pc, [r2, r3, lsl #2]
	.p2align 2
.L198:
	.word	.L200+1
	.word	.L197+1
	.word	.L199+1
	.word	.L199+1
	.word	.L197+1
	.p2align 1
.L200:
	.loc 4 1739 224 discriminator 3
	ldr	r1, [sp, #40]
	ldr	r2, [sp, #12]
	.loc 4 1739 290 discriminator 3
	ldr	r3, [sp, #40]
	ldr	r3, [r3, #56]
	.loc 4 1739 224 discriminator 3
	movs	r0, #115
	bl	prvTraceStoreEvent3
	.loc 4 1739 5 discriminator 3
	b	.L196
.L199:
	.loc 4 1739 369 discriminator 5
	ldr	r1, [sp, #40]
	ldr	r2, [sp, #12]
	.loc 4 1739 435 discriminator 5
	ldr	r3, [sp, #40]
	ldr	r3, [r3, #56]
	.loc 4 1739 369 discriminator 5
	movs	r0, #116
	bl	prvTraceStoreEvent3
	.loc 4 1739 5 discriminator 5
	b	.L196
.L197:
	.loc 4 1739 514 discriminator 4
	ldr	r3, [sp, #40]
	ldr	r2, [sp, #12]
	mov	r1, r3
	movs	r0, #117
	bl	prvTraceStoreEvent2
	.loc 4 1739 5 discriminator 4
	b	.L196
.L205:
	.loc 4 1739 582
	nop
.L196:
	.loc 4 1740 12
	movs	r3, #0
	b	.L202
.L195:
	.loc 4 1629 3 discriminator 2
	b	.L201
.L202:
	.loc 4 1748 1 discriminator 3
	mov	r0, r3
	add	sp, sp, #48
.LCFI46:
	@ sp needed
	pop	{r4, pc}
.L207:
	.align	2
.L206:
	.word	-536810240
	.word	CurrentFilterMask
.LFE214:
	.size	xQueuePeek, .-xQueuePeek
	.section	.text.xQueueReceiveFromISR,"ax",%progbits
	.align	1
	.global	xQueueReceiveFromISR
	.syntax unified
	.thumb
	.thumb_func
	.fpu fpv4-sp-d16
	.type	xQueueReceiveFromISR, %function
xQueueReceiveFromISR:
.LFB215:
	.loc 4 1752 1
	@ args = 0, pretend = 0, frame = 40
	@ frame_needed = 0, uses_anonymous_args = 0
	push	{r4, lr}
.LCFI47:
	sub	sp, sp, #40
.LCFI48:
	str	r0, [sp, #12]
	str	r1, [sp, #8]
	str	r2, [sp, #4]
	.loc 4 1755 17
	ldr	r3, [sp, #12]
	str	r3, [sp, #32]
	.loc 4 1776 27
	bl	ulPortRaiseBASEPRI
	str	r0, [sp, #28]
.LBB158:
	.loc 4 1778 21
	ldr	r3, [sp, #32]
	ldr	r3, [r3, #56]
	str	r3, [sp, #24]
	.loc 4 1781 5
	ldr	r3, [sp, #24]
	cmp	r3, #0
	beq	.L209
.LBB159:
	.loc 4 1783 17
	ldr	r3, [sp, #32]
	ldrb	r3, [r3, #68]
	strb	r3, [sp, #23]
	.loc 4 1785 4
	ldr	r3, [sp, #32]
	mov	r0, r3
	bl	SEGGER_SYSVIEW_ShrinkId
	mov	r4, r0
	ldr	r3, [sp, #8]
	mov	r0, r3
	bl	SEGGER_SYSVIEW_ShrinkId
	mov	r2, r0
	ldr	r3, [sp, #4]
	mov	r1, r4
	movs	r0, #98
	bl	SEGGER_SYSVIEW_RecordU32x3
	.loc 4 1787 4
	ldr	r1, [sp, #8]
	ldr	r0, [sp, #32]
	bl	prvCopyDataFromQueue
	.loc 4 1788 51
	ldr	r3, [sp, #24]
	subs	r2, r3, #1
	.loc 4 1788 31
	ldr	r3, [sp, #32]
	str	r2, [r3, #56]
	.loc 4 1794 6
	ldrsb	r3, [sp, #23]
	cmp	r3, #-1
	bne	.L210
	.loc 4 1796 65
	ldr	r3, [sp, #32]
	ldr	r3, [r3, #16]
	.loc 4 1796 7
	cmp	r3, #0
	beq	.L211
	.loc 4 1798 36
	ldr	r3, [sp, #32]
	adds	r3, r3, #16
	.loc 4 1798 10
	mov	r0, r3
	bl	xTaskRemoveFromEventList
	mov	r3, r0
	.loc 4 1798 8
	cmp	r3, #0
	beq	.L211
	.loc 4 1802 9
	ldr	r3, [sp, #4]
	cmp	r3, #0
	beq	.L211
	.loc 4 1804 35
	ldr	r3, [sp, #4]
	movs	r2, #1
	str	r2, [r3]
	b	.L211
.L210:
	.loc 4 1825 45
	ldrb	r3, [sp, #23]	@ zero_extendqisi2
	adds	r3, r3, #1
	uxtb	r3, r3
	.loc 4 1825 24
	sxtb	r2, r3
	.loc 4 1825 22
	ldr	r3, [sp, #32]
	strb	r2, [r3, #68]
.L211:
	.loc 4 1828 12
	movs	r3, #1
	str	r3, [sp, #36]
.LBE159:
	b	.L212
.L209:
	.loc 4 1832 12
	movs	r3, #0
	str	r3, [sp, #36]
	.loc 4 1833 4
	ldr	r3, [sp, #32]
	mov	r0, r3
	bl	SEGGER_SYSVIEW_ShrinkId
	mov	r4, r0
	ldr	r3, [sp, #8]
	mov	r0, r3
	bl	SEGGER_SYSVIEW_ShrinkId
	mov	r2, r0
	ldr	r3, [sp, #4]
	mov	r1, r4
	movs	r0, #98
	bl	SEGGER_SYSVIEW_RecordU32x3
.L212:
	ldr	r3, [sp, #28]
	str	r3, [sp, #16]
.LBE158:
.LBB160:
.LBB161:
	.loc 3 264 3
	ldr	r3, [sp, #16]
	.syntax unified
@ 264 "../../../../../../components/toolchain/cmsis/include/cmsis_gcc.h" 1
	MSR basepri, r3
@ 0 "" 2
	.loc 3 265 1
	.thumb
	.syntax unified
	nop
.LBE161:
.LBE160:
	.loc 4 1838 9
	ldr	r3, [sp, #36]
	.loc 4 1839 1
	mov	r0, r3
	add	sp, sp, #40
.LCFI49:
	@ sp needed
	pop	{r4, pc}
.LFE215:
	.size	xQueueReceiveFromISR, .-xQueueReceiveFromISR
	.section	.text.xQueuePeekFromISR,"ax",%progbits
	.align	1
	.global	xQueuePeekFromISR
	.syntax unified
	.thumb
	.thumb_func
	.fpu fpv4-sp-d16
	.type	xQueuePeekFromISR, %function
xQueuePeekFromISR:
.LFB216:
	.loc 4 1843 1
	@ args = 0, pretend = 0, frame = 32
	@ frame_needed = 0, uses_anonymous_args = 0
	push	{r4, lr}
.LCFI50:
	sub	sp, sp, #32
.LCFI51:
	str	r0, [sp, #4]
	str	r1, [sp]
	.loc 4 1847 17
	ldr	r3, [sp, #4]
	str	r3, [sp, #24]
	.loc 4 1869 27
	bl	ulPortRaiseBASEPRI
	str	r0, [sp, #20]
	.loc 4 1872 14
	ldr	r3, [sp, #24]
	ldr	r3, [r3, #56]
	.loc 4 1872 5
	cmp	r3, #0
	beq	.L215
	.loc 4 1874 4
	ldr	r3, [sp, #24]
	mov	r0, r3
	bl	SEGGER_SYSVIEW_ShrinkId
	mov	r4, r0
	ldr	r3, [sp]
	mov	r0, r3
	bl	SEGGER_SYSVIEW_ShrinkId
	mov	r3, r0
	mov	r2, r3
	mov	r1, r4
	movs	r0, #91
	bl	SEGGER_SYSVIEW_RecordU32x2
	.loc 4 1878 27
	ldr	r3, [sp, #24]
	ldr	r3, [r3, #12]
	str	r3, [sp, #16]
	.loc 4 1879 4
	ldr	r1, [sp]
	ldr	r0, [sp, #24]
	bl	prvCopyDataFromQueue
	.loc 4 1880 26
	ldr	r3, [sp, #24]
	ldr	r2, [sp, #16]
	str	r2, [r3, #12]
	.loc 4 1882 12
	movs	r3, #1
	str	r3, [sp, #28]
	b	.L216
.L215:
	.loc 4 1886 12
	movs	r3, #0
	str	r3, [sp, #28]
	.loc 4 1887 4
	ldr	r3, [sp, #24]
	mov	r0, r3
	bl	SEGGER_SYSVIEW_ShrinkId
	mov	r4, r0
	ldr	r3, [sp]
	mov	r0, r3
	bl	SEGGER_SYSVIEW_ShrinkId
	mov	r3, r0
	mov	r2, r3
	mov	r1, r4
	movs	r0, #91
	bl	SEGGER_SYSVIEW_RecordU32x2
.L216:
	ldr	r3, [sp, #20]
	str	r3, [sp, #12]
.LBB162:
.LBB163:
	.loc 3 264 3
	ldr	r3, [sp, #12]
	.syntax unified
@ 264 "../../../../../../components/toolchain/cmsis/include/cmsis_gcc.h" 1
	MSR basepri, r3
@ 0 "" 2
	.loc 3 265 1
	.thumb
	.syntax unified
	nop
.LBE163:
.LBE162:
	.loc 4 1892 9
	ldr	r3, [sp, #28]
	.loc 4 1893 1
	mov	r0, r3
	add	sp, sp, #32
.LCFI52:
	@ sp needed
	pop	{r4, pc}
.LFE216:
	.size	xQueuePeekFromISR, .-xQueuePeekFromISR
	.section	.text.uxQueueMessagesWaiting,"ax",%progbits
	.align	1
	.global	uxQueueMessagesWaiting
	.syntax unified
	.thumb
	.thumb_func
	.fpu fpv4-sp-d16
	.type	uxQueueMessagesWaiting, %function
uxQueueMessagesWaiting:
.LFB217:
	.loc 4 1897 1
	@ args = 0, pretend = 0, frame = 16
	@ frame_needed = 0, uses_anonymous_args = 0
	push	{lr}
.LCFI53:
	sub	sp, sp, #20
.LCFI54:
	str	r0, [sp, #4]
	.loc 4 1902 2
	bl	vPortEnterCritical
	.loc 4 1904 12
	ldr	r3, [sp, #4]
	ldr	r3, [r3, #56]
	str	r3, [sp, #12]
	.loc 4 1906 2
	bl	vPortExitCritical
	.loc 4 1908 9
	ldr	r3, [sp, #12]
	.loc 4 1909 1
	mov	r0, r3
	add	sp, sp, #20
.LCFI55:
	@ sp needed
	ldr	pc, [sp], #4
.LFE217:
	.size	uxQueueMessagesWaiting, .-uxQueueMessagesWaiting
	.section	.text.uxQueueSpacesAvailable,"ax",%progbits
	.align	1
	.global	uxQueueSpacesAvailable
	.syntax unified
	.thumb
	.thumb_func
	.fpu fpv4-sp-d16
	.type	uxQueueSpacesAvailable, %function
uxQueueSpacesAvailable:
.LFB218:
	.loc 4 1913 1
	@ args = 0, pretend = 0, frame = 16
	@ frame_needed = 0, uses_anonymous_args = 0
	push	{lr}
.LCFI56:
	sub	sp, sp, #20
.LCFI57:
	str	r0, [sp, #4]
	.loc 4 1917 10
	ldr	r3, [sp, #4]
	str	r3, [sp, #12]
	.loc 4 1920 2
	bl	vPortEnterCritical
	.loc 4 1922 21
	ldr	r3, [sp, #12]
	ldr	r2, [r3, #60]
	.loc 4 1922 41
	ldr	r3, [sp, #12]
	ldr	r3, [r3, #56]
	.loc 4 1922 12
	subs	r3, r2, r3
	str	r3, [sp, #8]
	.loc 4 1924 2
	bl	vPortExitCritical
	.loc 4 1926 9
	ldr	r3, [sp, #8]
	.loc 4 1927 1
	mov	r0, r3
	add	sp, sp, #20
.LCFI58:
	@ sp needed
	ldr	pc, [sp], #4
.LFE218:
	.size	uxQueueSpacesAvailable, .-uxQueueSpacesAvailable
	.section	.text.uxQueueMessagesWaitingFromISR,"ax",%progbits
	.align	1
	.global	uxQueueMessagesWaitingFromISR
	.syntax unified
	.thumb
	.thumb_func
	.fpu fpv4-sp-d16
	.type	uxQueueMessagesWaitingFromISR, %function
uxQueueMessagesWaitingFromISR:
.LFB219:
	.loc 4 1931 1
	@ args = 0, pretend = 0, frame = 16
	@ frame_needed = 0, uses_anonymous_args = 0
	@ link register save eliminated.
	sub	sp, sp, #16
.LCFI59:
	str	r0, [sp, #4]
	.loc 4 1936 11
	ldr	r3, [sp, #4]
	ldr	r3, [r3, #56]
	str	r3, [sp, #12]
	.loc 4 1938 9
	ldr	r3, [sp, #12]
	.loc 4 1939 1
	mov	r0, r3
	add	sp, sp, #16
.LCFI60:
	@ sp needed
	bx	lr
.LFE219:
	.size	uxQueueMessagesWaitingFromISR, .-uxQueueMessagesWaitingFromISR
	.section	.text.vQueueDelete,"ax",%progbits
	.align	1
	.global	vQueueDelete
	.syntax unified
	.thumb
	.thumb_func
	.fpu fpv4-sp-d16
	.type	vQueueDelete, %function
vQueueDelete:
.LFB220:
	.loc 4 1943 1
	@ args = 0, pretend = 0, frame = 16
	@ frame_needed = 0, uses_anonymous_args = 0
	push	{lr}
.LCFI61:
	sub	sp, sp, #20
.LCFI62:
	str	r0, [sp, #4]
	.loc 4 1944 17
	ldr	r3, [sp, #4]
	str	r3, [sp, #12]
	.loc 4 1947 2
	ldr	r3, [sp, #12]
	mov	r0, r3
	bl	SEGGER_SYSVIEW_ShrinkId
	mov	r3, r0
	mov	r1, r3
	movs	r0, #95
	bl	SEGGER_SYSVIEW_RecordU32
	.loc 4 1951 3
	ldr	r0, [sp, #12]
	bl	vQueueUnregisterQueue
	.loc 4 1959 3
	ldr	r0, [sp, #12]
	bl	vPortFree
	.loc 4 1981 1
	nop
	add	sp, sp, #20
.LCFI63:
	@ sp needed
	ldr	pc, [sp], #4
.LFE220:
	.size	vQueueDelete, .-vQueueDelete
	.section	.text.uxQueueGetQueueNumber,"ax",%progbits
	.align	1
	.global	uxQueueGetQueueNumber
	.syntax unified
	.thumb
	.thumb_func
	.fpu fpv4-sp-d16
	.type	uxQueueGetQueueNumber, %function
uxQueueGetQueueNumber:
.LFB221:
	.loc 4 1987 2
	@ args = 0, pretend = 0, frame = 8
	@ frame_needed = 0, uses_anonymous_args = 0
	@ link register save eliminated.
	sub	sp, sp, #8
.LCFI64:
	str	r0, [sp, #4]
	.loc 4 1988 34
	ldr	r3, [sp, #4]
	ldr	r3, [r3, #72]
	.loc 4 1989 2
	mov	r0, r3
	add	sp, sp, #8
.LCFI65:
	@ sp needed
	bx	lr
.LFE221:
	.size	uxQueueGetQueueNumber, .-uxQueueGetQueueNumber
	.section	.text.vQueueSetQueueNumber,"ax",%progbits
	.align	1
	.global	vQueueSetQueueNumber
	.syntax unified
	.thumb
	.thumb_func
	.fpu fpv4-sp-d16
	.type	vQueueSetQueueNumber, %function
vQueueSetQueueNumber:
.LFB222:
	.loc 4 1997 2
	@ args = 0, pretend = 0, frame = 8
	@ frame_needed = 0, uses_anonymous_args = 0
	@ link register save eliminated.
	sub	sp, sp, #8
.LCFI66:
	str	r0, [sp, #4]
	str	r1, [sp]
	.loc 4 1998 43
	ldr	r3, [sp, #4]
	ldr	r2, [sp]
	str	r2, [r3, #72]
	.loc 4 1999 2
	nop
	add	sp, sp, #8
.LCFI67:
	@ sp needed
	bx	lr
.LFE222:
	.size	vQueueSetQueueNumber, .-vQueueSetQueueNumber
	.section	.text.ucQueueGetQueueType,"ax",%progbits
	.align	1
	.global	ucQueueGetQueueType
	.syntax unified
	.thumb
	.thumb_func
	.fpu fpv4-sp-d16
	.type	ucQueueGetQueueType, %function
ucQueueGetQueueType:
.LFB223:
	.loc 4 2007 2
	@ args = 0, pretend = 0, frame = 8
	@ frame_needed = 0, uses_anonymous_args = 0
	@ link register save eliminated.
	sub	sp, sp, #8
.LCFI68:
	str	r0, [sp, #4]
	.loc 4 2008 34
	ldr	r3, [sp, #4]
	ldrb	r3, [r3, #76]	@ zero_extendqisi2
	.loc 4 2009 2
	mov	r0, r3
	add	sp, sp, #8
.LCFI69:
	@ sp needed
	bx	lr
.LFE223:
	.size	ucQueueGetQueueType, .-ucQueueGetQueueType
	.section	.text.prvGetDisinheritPriorityAfterTimeout,"ax",%progbits
	.align	1
	.syntax unified
	.thumb
	.thumb_func
	.fpu fpv4-sp-d16
	.type	prvGetDisinheritPriorityAfterTimeout, %function
prvGetDisinheritPriorityAfterTimeout:
.LFB224:
	.loc 4 2017 2
	@ args = 0, pretend = 0, frame = 16
	@ frame_needed = 0, uses_anonymous_args = 0
	@ link register save eliminated.
	sub	sp, sp, #16
.LCFI70:
	str	r0, [sp, #4]
	.loc 4 2026 49
	ldr	r3, [sp, #4]
	ldr	r3, [r3, #36]
	.loc 4 2026 5
	cmp	r3, #0
	beq	.L231
	.loc 4 2028 102
	ldr	r3, [sp, #4]
	ldr	r3, [r3, #48]
	.loc 4 2028 109
	ldr	r3, [r3]
	.loc 4 2028 36
	rsb	r3, r3, #7
	str	r3, [sp, #12]
	b	.L232
.L231:
	.loc 4 2032 36
	movs	r3, #0
	str	r3, [sp, #12]
.L232:
	.loc 4 2035 10
	ldr	r3, [sp, #12]
	.loc 4 2036 2
	mov	r0, r3
	add	sp, sp, #16
.LCFI71:
	@ sp needed
	bx	lr
.LFE224:
	.size	prvGetDisinheritPriorityAfterTimeout, .-prvGetDisinheritPriorityAfterTimeout
	.section	.text.prvCopyDataToQueue,"ax",%progbits
	.align	1
	.syntax unified
	.thumb
	.thumb_func
	.fpu fpv4-sp-d16
	.type	prvCopyDataToQueue, %function
prvCopyDataToQueue:
.LFB225:
	.loc 4 2042 1
	@ args = 0, pretend = 0, frame = 24
	@ frame_needed = 0, uses_anonymous_args = 0
	push	{lr}
.LCFI72:
	sub	sp, sp, #28
.LCFI73:
	str	r0, [sp, #12]
	str	r1, [sp, #8]
	str	r2, [sp, #4]
	.loc 4 2043 12
	movs	r3, #0
	str	r3, [sp, #20]
	.loc 4 2048 20
	ldr	r3, [sp, #12]
	ldr	r3, [r3, #56]
	str	r3, [sp, #16]
	.loc 4 2050 13
	ldr	r3, [sp, #12]
	ldr	r3, [r3, #64]
	.loc 4 2050 4
	cmp	r3, #0
	bne	.L235
	.loc 4 2054 15
	ldr	r3, [sp, #12]
	ldr	r3, [r3]
	.loc 4 2054 6
	cmp	r3, #0
	bne	.L236
	.loc 4 2057 58
	ldr	r3, [sp, #12]
	ldr	r3, [r3, #4]
	.loc 4 2057 15
	mov	r0, r3
	bl	xTaskPriorityDisinherit
	str	r0, [sp, #20]
	.loc 4 2058 21
	ldr	r3, [sp, #12]
	movs	r2, #0
	str	r2, [r3, #4]
	b	.L236
.L235:
	.loc 4 2067 9
	ldr	r3, [sp, #4]
	cmp	r3, #0
	bne	.L237
	.loc 4 2069 38
	ldr	r3, [sp, #12]
	ldr	r0, [r3, #8]
	.loc 4 2069 84
	ldr	r3, [sp, #12]
	ldr	r3, [r3, #64]
	.loc 4 2069 12
	mov	r2, r3
	ldr	r1, [sp, #8]
	bl	memcpy
	.loc 4 2070 22
	ldr	r3, [sp, #12]
	ldr	r2, [r3, #8]
	.loc 4 2070 32
	ldr	r3, [sp, #12]
	ldr	r3, [r3, #64]
	.loc 4 2070 22
	add	r2, r2, r3
	ldr	r3, [sp, #12]
	str	r2, [r3, #8]
	.loc 4 2071 14
	ldr	r3, [sp, #12]
	ldr	r2, [r3, #8]
	.loc 4 2071 36
	ldr	r3, [sp, #12]
	ldr	r3, [r3, #4]
	.loc 4 2071 5
	cmp	r2, r3
	bcc	.L236
	.loc 4 2073 32
	ldr	r3, [sp, #12]
	ldr	r2, [r3]
	.loc 4 2073 23
	ldr	r3, [sp, #12]
	str	r2, [r3, #8]
	b	.L236
.L237:
	.loc 4 2082 41
	ldr	r3, [sp, #12]
	ldr	r0, [r3, #12]
	.loc 4 2082 87
	ldr	r3, [sp, #12]
	ldr	r3, [r3, #64]
	.loc 4 2082 12
	mov	r2, r3
	ldr	r1, [sp, #8]
	bl	memcpy
	.loc 4 2083 25
	ldr	r3, [sp, #12]
	ldr	r2, [r3, #12]
	.loc 4 2083 35
	ldr	r3, [sp, #12]
	ldr	r3, [r3, #64]
	.loc 4 2083 25
	rsbs	r3, r3, #0
	add	r2, r2, r3
	ldr	r3, [sp, #12]
	str	r2, [r3, #12]
	.loc 4 2084 17
	ldr	r3, [sp, #12]
	ldr	r2, [r3, #12]
	.loc 4 2084 38
	ldr	r3, [sp, #12]
	ldr	r3, [r3]
	.loc 4 2084 5
	cmp	r2, r3
	bcs	.L238
	.loc 4 2086 37
	ldr	r3, [sp, #12]
	ldr	r2, [r3, #4]
	.loc 4 2086 55
	ldr	r3, [sp, #12]
	ldr	r3, [r3, #64]
	.loc 4 2086 46
	rsbs	r3, r3, #0
	add	r2, r2, r3
	.loc 4 2086 26
	ldr	r3, [sp, #12]
	str	r2, [r3, #12]
.L238:
	.loc 4 2093 5
	ldr	r3, [sp, #4]
	cmp	r3, #2
	bne	.L236
	.loc 4 2095 6
	ldr	r3, [sp, #16]
	cmp	r3, #0
	beq	.L236
	.loc 4 2101 5
	ldr	r3, [sp, #16]
	subs	r3, r3, #1
	str	r3, [sp, #16]
.L236:
	.loc 4 2114 49
	ldr	r3, [sp, #16]
	adds	r2, r3, #1
	.loc 4 2114 29
	ldr	r3, [sp, #12]
	str	r2, [r3, #56]
	.loc 4 2116 9
	ldr	r3, [sp, #20]
	.loc 4 2117 1
	mov	r0, r3
	add	sp, sp, #28
.LCFI74:
	@ sp needed
	ldr	pc, [sp], #4
.LFE225:
	.size	prvCopyDataToQueue, .-prvCopyDataToQueue
	.section	.text.prvCopyDataFromQueue,"ax",%progbits
	.align	1
	.syntax unified
	.thumb
	.thumb_func
	.fpu fpv4-sp-d16
	.type	prvCopyDataFromQueue, %function
prvCopyDataFromQueue:
.LFB226:
	.loc 4 2121 1
	@ args = 0, pretend = 0, frame = 8
	@ frame_needed = 0, uses_anonymous_args = 0
	push	{lr}
.LCFI75:
	sub	sp, sp, #12
.LCFI76:
	str	r0, [sp, #4]
	str	r1, [sp]
	.loc 4 2122 13
	ldr	r3, [sp, #4]
	ldr	r3, [r3, #64]
	.loc 4 2122 4
	cmp	r3, #0
	beq	.L243
	.loc 4 2124 25
	ldr	r3, [sp, #4]
	ldr	r2, [r3, #12]
	.loc 4 2124 35
	ldr	r3, [sp, #4]
	ldr	r3, [r3, #64]
	.loc 4 2124 25
	add	r2, r2, r3
	ldr	r3, [sp, #4]
	str	r2, [r3, #12]
	.loc 4 2125 17
	ldr	r3, [sp, #4]
	ldr	r2, [r3, #12]
	.loc 4 2125 39
	ldr	r3, [sp, #4]
	ldr	r3, [r3, #4]
	.loc 4 2125 5
	cmp	r2, r3
	bcc	.L242
	.loc 4 2127 35
	ldr	r3, [sp, #4]
	ldr	r2, [r3]
	.loc 4 2127 26
	ldr	r3, [sp, #4]
	str	r2, [r3, #12]
.L242:
	.loc 4 2133 62
	ldr	r3, [sp, #4]
	ldr	r1, [r3, #12]
	.loc 4 2133 93
	ldr	r3, [sp, #4]
	ldr	r3, [r3, #64]
	.loc 4 2133 12
	mov	r2, r3
	ldr	r0, [sp]
	bl	memcpy
.L243:
	.loc 4 2135 1
	nop
	add	sp, sp, #12
.LCFI77:
	@ sp needed
	ldr	pc, [sp], #4
.LFE226:
	.size	prvCopyDataFromQueue, .-prvCopyDataFromQueue
	.section	.text.prvUnlockQueue,"ax",%progbits
	.align	1
	.syntax unified
	.thumb
	.thumb_func
	.fpu fpv4-sp-d16
	.type	prvUnlockQueue, %function
prvUnlockQueue:
.LFB227:
	.loc 4 2139 1
	@ args = 0, pretend = 0, frame = 16
	@ frame_needed = 0, uses_anonymous_args = 0
	push	{lr}
.LCFI78:
	sub	sp, sp, #20
.LCFI79:
	str	r0, [sp, #4]
	.loc 4 2146 2
	bl	vPortEnterCritical
.LBB164:
	.loc 4 2148 10
	ldr	r3, [sp, #4]
	ldrb	r3, [r3, #69]
	strb	r3, [sp, #15]
	.loc 4 2151 8
	b	.L245
.L249:
	.loc 4 2199 68
	ldr	r3, [sp, #4]
	ldr	r3, [r3, #36]
	.loc 4 2199 7
	cmp	r3, #0
	beq	.L255
	.loc 4 2201 36
	ldr	r3, [sp, #4]
	adds	r3, r3, #36
	.loc 4 2201 10
	mov	r0, r3
	bl	xTaskRemoveFromEventList
	mov	r3, r0
	.loc 4 2201 8
	cmp	r3, #0
	beq	.L247
	.loc 4 2205 7
	bl	vTaskMissedYield
.L247:
	.loc 4 2219 4
	ldrb	r3, [sp, #15]	@ zero_extendqisi2
	subs	r3, r3, #1
	uxtb	r3, r3
	strb	r3, [sp, #15]
.L245:
	.loc 4 2151 8
	ldrsb	r3, [sp, #15]
	cmp	r3, #0
	bgt	.L249
	b	.L248
.L255:
	.loc 4 2214 6
	nop
.L248:
	.loc 4 2222 20
	ldr	r3, [sp, #4]
	movs	r2, #255
	strb	r2, [r3, #69]
.LBE164:
	.loc 4 2224 2
	bl	vPortExitCritical
	.loc 4 2227 2
	bl	vPortEnterCritical
.LBB165:
	.loc 4 2229 10
	ldr	r3, [sp, #4]
	ldrb	r3, [r3, #68]
	strb	r3, [sp, #14]
	.loc 4 2231 8
	b	.L250
.L254:
	.loc 4 2233 64
	ldr	r3, [sp, #4]
	ldr	r3, [r3, #16]
	.loc 4 2233 6
	cmp	r3, #0
	beq	.L256
	.loc 4 2235 35
	ldr	r3, [sp, #4]
	adds	r3, r3, #16
	.loc 4 2235 9
	mov	r0, r3
	bl	xTaskRemoveFromEventList
	mov	r3, r0
	.loc 4 2235 7
	cmp	r3, #0
	beq	.L252
	.loc 4 2237 6
	bl	vTaskMissedYield
.L252:
	.loc 4 2244 5
	ldrb	r3, [sp, #14]	@ zero_extendqisi2
	subs	r3, r3, #1
	uxtb	r3, r3
	strb	r3, [sp, #14]
.L250:
	.loc 4 2231 8
	ldrsb	r3, [sp, #14]
	cmp	r3, #0
	bgt	.L254
	b	.L253
.L256:
	.loc 4 2248 5
	nop
.L253:
	.loc 4 2252 20
	ldr	r3, [sp, #4]
	movs	r2, #255
	strb	r2, [r3, #68]
.LBE165:
	.loc 4 2254 2
	bl	vPortExitCritical
	.loc 4 2255 1
	nop
	add	sp, sp, #20
.LCFI80:
	@ sp needed
	ldr	pc, [sp], #4
.LFE227:
	.size	prvUnlockQueue, .-prvUnlockQueue
	.section	.text.prvIsQueueEmpty,"ax",%progbits
	.align	1
	.syntax unified
	.thumb
	.thumb_func
	.fpu fpv4-sp-d16
	.type	prvIsQueueEmpty, %function
prvIsQueueEmpty:
.LFB228:
	.loc 4 2259 1
	@ args = 0, pretend = 0, frame = 16
	@ frame_needed = 0, uses_anonymous_args = 0
	push	{lr}
.LCFI81:
	sub	sp, sp, #20
.LCFI82:
	str	r0, [sp, #4]
	.loc 4 2262 2
	bl	vPortEnterCritical
	.loc 4 2264 14
	ldr	r3, [sp, #4]
	ldr	r3, [r3, #56]
	.loc 4 2264 5
	cmp	r3, #0
	bne	.L258
	.loc 4 2266 12
	movs	r3, #1
	str	r3, [sp, #12]
	b	.L259
.L258:
	.loc 4 2270 12
	movs	r3, #0
	str	r3, [sp, #12]
.L259:
	.loc 4 2273 2
	bl	vPortExitCritical
	.loc 4 2275 9
	ldr	r3, [sp, #12]
	.loc 4 2276 1
	mov	r0, r3
	add	sp, sp, #20
.LCFI83:
	@ sp needed
	ldr	pc, [sp], #4
.LFE228:
	.size	prvIsQueueEmpty, .-prvIsQueueEmpty
	.section	.text.xQueueIsQueueEmptyFromISR,"ax",%progbits
	.align	1
	.global	xQueueIsQueueEmptyFromISR
	.syntax unified
	.thumb
	.thumb_func
	.fpu fpv4-sp-d16
	.type	xQueueIsQueueEmptyFromISR, %function
xQueueIsQueueEmptyFromISR:
.LFB229:
	.loc 4 2280 1
	@ args = 0, pretend = 0, frame = 16
	@ frame_needed = 0, uses_anonymous_args = 0
	@ link register save eliminated.
	sub	sp, sp, #16
.LCFI84:
	str	r0, [sp, #4]
	.loc 4 2284 30
	ldr	r3, [sp, #4]
	ldr	r3, [r3, #56]
	.loc 4 2284 4
	cmp	r3, #0
	bne	.L262
	.loc 4 2286 11
	movs	r3, #1
	str	r3, [sp, #12]
	b	.L263
.L262:
	.loc 4 2290 11
	movs	r3, #0
	str	r3, [sp, #12]
.L263:
	.loc 4 2293 9
	ldr	r3, [sp, #12]
	.loc 4 2294 1
	mov	r0, r3
	add	sp, sp, #16
.LCFI85:
	@ sp needed
	bx	lr
.LFE229:
	.size	xQueueIsQueueEmptyFromISR, .-xQueueIsQueueEmptyFromISR
	.section	.text.prvIsQueueFull,"ax",%progbits
	.align	1
	.syntax unified
	.thumb
	.thumb_func
	.fpu fpv4-sp-d16
	.type	prvIsQueueFull, %function
prvIsQueueFull:
.LFB230:
	.loc 4 2298 1
	@ args = 0, pretend = 0, frame = 16
	@ frame_needed = 0, uses_anonymous_args = 0
	push	{lr}
.LCFI86:
	sub	sp, sp, #20
.LCFI87:
	str	r0, [sp, #4]
	.loc 4 2301 2
	bl	vPortEnterCritical
	.loc 4 2303 14
	ldr	r3, [sp, #4]
	ldr	r2, [r3, #56]
	.loc 4 2303 44
	ldr	r3, [sp, #4]
	ldr	r3, [r3, #60]
	.loc 4 2303 5
	cmp	r2, r3
	bne	.L266
	.loc 4 2305 12
	movs	r3, #1
	str	r3, [sp, #12]
	b	.L267
.L266:
	.loc 4 2309 12
	movs	r3, #0
	str	r3, [sp, #12]
.L267:
	.loc 4 2312 2
	bl	vPortExitCritical
	.loc 4 2314 9
	ldr	r3, [sp, #12]
	.loc 4 2315 1
	mov	r0, r3
	add	sp, sp, #20
.LCFI88:
	@ sp needed
	ldr	pc, [sp], #4
.LFE230:
	.size	prvIsQueueFull, .-prvIsQueueFull
	.section	.text.xQueueIsQueueFullFromISR,"ax",%progbits
	.align	1
	.global	xQueueIsQueueFullFromISR
	.syntax unified
	.thumb
	.thumb_func
	.fpu fpv4-sp-d16
	.type	xQueueIsQueueFullFromISR, %function
xQueueIsQueueFullFromISR:
.LFB231:
	.loc 4 2319 1
	@ args = 0, pretend = 0, frame = 16
	@ frame_needed = 0, uses_anonymous_args = 0
	@ link register save eliminated.
	sub	sp, sp, #16
.LCFI89:
	str	r0, [sp, #4]
	.loc 4 2323 30
	ldr	r3, [sp, #4]
	ldr	r2, [r3, #56]
	.loc 4 2323 77
	ldr	r3, [sp, #4]
	ldr	r3, [r3, #60]
	.loc 4 2323 4
	cmp	r2, r3
	bne	.L270
	.loc 4 2325 11
	movs	r3, #1
	str	r3, [sp, #12]
	b	.L271
.L270:
	.loc 4 2329 11
	movs	r3, #0
	str	r3, [sp, #12]
.L271:
	.loc 4 2332 9
	ldr	r3, [sp, #12]
	.loc 4 2333 1
	mov	r0, r3
	add	sp, sp, #16
.LCFI90:
	@ sp needed
	bx	lr
.LFE231:
	.size	xQueueIsQueueFullFromISR, .-xQueueIsQueueFullFromISR
	.section	.text.vQueueAddToRegistry,"ax",%progbits
	.align	1
	.global	vQueueAddToRegistry
	.syntax unified
	.thumb
	.thumb_func
	.fpu fpv4-sp-d16
	.type	vQueueAddToRegistry, %function
vQueueAddToRegistry:
.LFB232:
	.loc 4 2614 2
	@ args = 0, pretend = 0, frame = 16
	@ frame_needed = 0, uses_anonymous_args = 0
	push	{lr}
.LCFI91:
	sub	sp, sp, #20
.LCFI92:
	str	r0, [sp, #4]
	str	r1, [sp]
	.loc 4 2619 11
	movs	r3, #0
	str	r3, [sp, #12]
	.loc 4 2619 3
	b	.L274
.L277:
	.loc 4 2621 28
	ldr	r2, .L278
	ldr	r3, [sp, #12]
	ldr	r3, [r2, r3, lsl #3]
	.loc 4 2621 6
	cmp	r3, #0
	bne	.L275
	.loc 4 2624 38
	ldr	r1, .L278
	ldr	r3, [sp, #12]
	ldr	r2, [sp]
	str	r2, [r1, r3, lsl #3]
	.loc 4 2625 34
	ldr	r2, .L278
	ldr	r3, [sp, #12]
	lsls	r3, r3, #3
	add	r3, r3, r2
	ldr	r2, [sp, #4]
	str	r2, [r3, #4]
	.loc 4 2627 5
	ldr	r3, [sp, #4]
	mov	r0, r3
	bl	SEGGER_SYSVIEW_ShrinkId
	mov	r1, r0
	ldr	r3, [sp]
	mov	r2, r3
	movs	r0, #113
	bl	SEGGER_SYSVIEW_RecordU32x2
	.loc 4 2628 5
	b	.L276
.L275:
	.loc 4 2619 59 discriminator 2
	ldr	r3, [sp, #12]
	adds	r3, r3, #1
	str	r3, [sp, #12]
.L274:
	.loc 4 2619 3 discriminator 1
	ldr	r3, [sp, #12]
	cmp	r3, #1
	bls	.L277
	.loc 4 2635 2
	nop
.L276:
	nop
	add	sp, sp, #20
.LCFI93:
	@ sp needed
	ldr	pc, [sp], #4
.L279:
	.align	2
.L278:
	.word	xQueueRegistry
.LFE232:
	.size	vQueueAddToRegistry, .-vQueueAddToRegistry
	.section	.text.pcQueueGetName,"ax",%progbits
	.align	1
	.global	pcQueueGetName
	.syntax unified
	.thumb
	.thumb_func
	.fpu fpv4-sp-d16
	.type	pcQueueGetName, %function
pcQueueGetName:
.LFB233:
	.loc 4 2643 2
	@ args = 0, pretend = 0, frame = 16
	@ frame_needed = 0, uses_anonymous_args = 0
	@ link register save eliminated.
	sub	sp, sp, #16
.LCFI94:
	str	r0, [sp, #4]
	.loc 4 2645 14
	movs	r3, #0
	str	r3, [sp, #8]
	.loc 4 2649 11
	movs	r3, #0
	str	r3, [sp, #12]
	.loc 4 2649 3
	b	.L281
.L284:
	.loc 4 2651 28
	ldr	r2, .L286
	ldr	r3, [sp, #12]
	lsls	r3, r3, #3
	add	r3, r3, r2
	ldr	r3, [r3, #4]
	.loc 4 2651 6
	ldr	r2, [sp, #4]
	cmp	r2, r3
	bne	.L282
	.loc 4 2653 14
	ldr	r2, .L286
	ldr	r3, [sp, #12]
	ldr	r3, [r2, r3, lsl #3]
	str	r3, [sp, #8]
	.loc 4 2654 5
	b	.L283
.L282:
	.loc 4 2649 59 discriminator 2
	ldr	r3, [sp, #12]
	adds	r3, r3, #1
	str	r3, [sp, #12]
.L281:
	.loc 4 2649 3 discriminator 1
	ldr	r3, [sp, #12]
	cmp	r3, #1
	bls	.L284
.L283:
	.loc 4 2662 10
	ldr	r3, [sp, #8]
	.loc 4 2663 2
	mov	r0, r3
	add	sp, sp, #16
.LCFI95:
	@ sp needed
	bx	lr
.L287:
	.align	2
.L286:
	.word	xQueueRegistry
.LFE233:
	.size	pcQueueGetName, .-pcQueueGetName
	.section	.text.vQueueUnregisterQueue,"ax",%progbits
	.align	1
	.global	vQueueUnregisterQueue
	.syntax unified
	.thumb
	.thumb_func
	.fpu fpv4-sp-d16
	.type	vQueueUnregisterQueue, %function
vQueueUnregisterQueue:
.LFB234:
	.loc 4 2671 2
	@ args = 0, pretend = 0, frame = 16
	@ frame_needed = 0, uses_anonymous_args = 0
	@ link register save eliminated.
	sub	sp, sp, #16
.LCFI96:
	str	r0, [sp, #4]
	.loc 4 2676 11
	movs	r3, #0
	str	r3, [sp, #12]
	.loc 4 2676 3
	b	.L289
.L292:
	.loc 4 2678 28
	ldr	r2, .L293
	ldr	r3, [sp, #12]
	lsls	r3, r3, #3
	add	r3, r3, r2
	ldr	r3, [r3, #4]
	.loc 4 2678 6
	ldr	r2, [sp, #4]
	cmp	r2, r3
	bne	.L290
	.loc 4 2681 38
	ldr	r2, .L293
	ldr	r3, [sp, #12]
	movs	r1, #0
	str	r1, [r2, r3, lsl #3]
	.loc 4 2686 34
	ldr	r2, .L293
	ldr	r3, [sp, #12]
	lsls	r3, r3, #3
	add	r3, r3, r2
	movs	r2, #0
	str	r2, [r3, #4]
	.loc 4 2687 5
	b	.L291
.L290:
	.loc 4 2676 59 discriminator 2
	ldr	r3, [sp, #12]
	adds	r3, r3, #1
	str	r3, [sp, #12]
.L289:
	.loc 4 2676 3 discriminator 1
	ldr	r3, [sp, #12]
	cmp	r3, #1
	bls	.L292
	.loc 4 2695 2
	nop
.L291:
	nop
	add	sp, sp, #16
.LCFI97:
	@ sp needed
	bx	lr
.L294:
	.align	2
.L293:
	.word	xQueueRegistry
.LFE234:
	.size	vQueueUnregisterQueue, .-vQueueUnregisterQueue
	.section	.text.vQueueWaitForMessageRestricted,"ax",%progbits
	.align	1
	.global	vQueueWaitForMessageRestricted
	.syntax unified
	.thumb
	.thumb_func
	.fpu fpv4-sp-d16
	.type	vQueueWaitForMessageRestricted, %function
vQueueWaitForMessageRestricted:
.LFB235:
	.loc 4 2703 2
	@ args = 0, pretend = 0, frame = 24
	@ frame_needed = 0, uses_anonymous_args = 0
	push	{lr}
.LCFI98:
	sub	sp, sp, #28
.LCFI99:
	str	r0, [sp, #12]
	str	r1, [sp, #8]
	str	r2, [sp, #4]
	.loc 4 2704 18
	ldr	r3, [sp, #12]
	str	r3, [sp, #20]
	.loc 4 2720 3
	bl	vPortEnterCritical
	.loc 4 2720 42
	ldr	r3, [sp, #20]
	ldrb	r3, [r3, #68]
	sxtb	r3, r3
	.loc 4 2720 29
	cmp	r3, #-1
	bne	.L296
	.loc 4 2720 98 discriminator 1
	ldr	r3, [sp, #20]
	movs	r2, #0
	strb	r2, [r3, #68]
.L296:
	.loc 4 2720 135 discriminator 3
	ldr	r3, [sp, #20]
	ldrb	r3, [r3, #69]
	sxtb	r3, r3
	.loc 4 2720 122 discriminator 3
	cmp	r3, #-1
	bne	.L297
	.loc 4 2720 191 discriminator 4
	ldr	r3, [sp, #20]
	movs	r2, #0
	strb	r2, [r3, #69]
.L297:
	.loc 4 2720 215 discriminator 6
	bl	vPortExitCritical
	.loc 4 2721 14 discriminator 6
	ldr	r3, [sp, #20]
	ldr	r3, [r3, #56]
	.loc 4 2721 5 discriminator 6
	cmp	r3, #0
	bne	.L298
	.loc 4 2724 4
	ldr	r3, [sp, #20]
	adds	r3, r3, #36
	ldr	r2, [sp, #4]
	ldr	r1, [sp, #8]
	mov	r0, r3
	bl	vTaskPlaceOnEventListRestricted
.L298:
	.loc 4 2730 3
	ldr	r0, [sp, #20]
	bl	prvUnlockQueue
	.loc 4 2731 2
	nop
	add	sp, sp, #28
.LCFI100:
	@ sp needed
	ldr	pc, [sp], #4
.LFE235:
	.size	vQueueWaitForMessageRestricted, .-vQueueWaitForMessageRestricted
	.section	.debug_frame,"",%progbits
.Lframe0:
	.4byte	.LECIE0-.LSCIE0
.LSCIE0:
	.4byte	0xffffffff
	.byte	0x3
	.ascii	"\000"
	.uleb128 0x1
	.sleb128 -4
	.uleb128 0xe
	.byte	0xc
	.uleb128 0xd
	.uleb128 0
	.align	2
.LECIE0:
.LSFDE0:
	.4byte	.LEFDE0-.LASFDE0
.LASFDE0:
	.4byte	.Lframe0
	.4byte	.LFB124
	.4byte	.LFE124-.LFB124
	.align	2
.LEFDE0:
.LSFDE2:
	.4byte	.LEFDE2-.LASFDE2
.LASFDE2:
	.4byte	.Lframe0
	.4byte	.LFB125
	.4byte	.LFE125-.LFB125
	.align	2
.LEFDE2:
.LSFDE4:
	.4byte	.LEFDE4-.LASFDE4
.LASFDE4:
	.4byte	.Lframe0
	.4byte	.LFB126
	.4byte	.LFE126-.LFB126
	.align	2
.LEFDE4:
.LSFDE6:
	.4byte	.LEFDE6-.LASFDE6
.LASFDE6:
	.4byte	.Lframe0
	.4byte	.LFB127
	.4byte	.LFE127-.LFB127
	.align	2
.LEFDE6:
.LSFDE8:
	.4byte	.LEFDE8-.LASFDE8
.LASFDE8:
	.4byte	.Lframe0
	.4byte	.LFB128
	.4byte	.LFE128-.LFB128
	.align	2
.LEFDE8:
.LSFDE10:
	.4byte	.LEFDE10-.LASFDE10
.LASFDE10:
	.4byte	.Lframe0
	.4byte	.LFB129
	.4byte	.LFE129-.LFB129
	.align	2
.LEFDE10:
.LSFDE12:
	.4byte	.LEFDE12-.LASFDE12
.LASFDE12:
	.4byte	.Lframe0
	.4byte	.LFB130
	.4byte	.LFE130-.LFB130
	.align	2
.LEFDE12:
.LSFDE14:
	.4byte	.LEFDE14-.LASFDE14
.LASFDE14:
	.4byte	.Lframe0
	.4byte	.LFB131
	.4byte	.LFE131-.LFB131
	.align	2
.LEFDE14:
.LSFDE16:
	.4byte	.LEFDE16-.LASFDE16
.LASFDE16:
	.4byte	.Lframe0
	.4byte	.LFB132
	.4byte	.LFE132-.LFB132
	.align	2
.LEFDE16:
.LSFDE18:
	.4byte	.LEFDE18-.LASFDE18
.LASFDE18:
	.4byte	.Lframe0
	.4byte	.LFB133
	.4byte	.LFE133-.LFB133
	.align	2
.LEFDE18:
.LSFDE20:
	.4byte	.LEFDE20-.LASFDE20
.LASFDE20:
	.4byte	.Lframe0
	.4byte	.LFB134
	.4byte	.LFE134-.LFB134
	.align	2
.LEFDE20:
.LSFDE22:
	.4byte	.LEFDE22-.LASFDE22
.LASFDE22:
	.4byte	.Lframe0
	.4byte	.LFB135
	.4byte	.LFE135-.LFB135
	.align	2
.LEFDE22:
.LSFDE24:
	.4byte	.LEFDE24-.LASFDE24
.LASFDE24:
	.4byte	.Lframe0
	.4byte	.LFB136
	.4byte	.LFE136-.LFB136
	.align	2
.LEFDE24:
.LSFDE26:
	.4byte	.LEFDE26-.LASFDE26
.LASFDE26:
	.4byte	.Lframe0
	.4byte	.LFB137
	.4byte	.LFE137-.LFB137
	.align	2
.LEFDE26:
.LSFDE28:
	.4byte	.LEFDE28-.LASFDE28
.LASFDE28:
	.4byte	.Lframe0
	.4byte	.LFB138
	.4byte	.LFE138-.LFB138
	.align	2
.LEFDE28:
.LSFDE30:
	.4byte	.LEFDE30-.LASFDE30
.LASFDE30:
	.4byte	.Lframe0
	.4byte	.LFB139
	.4byte	.LFE139-.LFB139
	.align	2
.LEFDE30:
.LSFDE32:
	.4byte	.LEFDE32-.LASFDE32
.LASFDE32:
	.4byte	.Lframe0
	.4byte	.LFB140
	.4byte	.LFE140-.LFB140
	.align	2
.LEFDE32:
.LSFDE34:
	.4byte	.LEFDE34-.LASFDE34
.LASFDE34:
	.4byte	.Lframe0
	.4byte	.LFB141
	.4byte	.LFE141-.LFB141
	.align	2
.LEFDE34:
.LSFDE36:
	.4byte	.LEFDE36-.LASFDE36
.LASFDE36:
	.4byte	.Lframe0
	.4byte	.LFB142
	.4byte	.LFE142-.LFB142
	.align	2
.LEFDE36:
.LSFDE38:
	.4byte	.LEFDE38-.LASFDE38
.LASFDE38:
	.4byte	.Lframe0
	.4byte	.LFB143
	.4byte	.LFE143-.LFB143
	.align	2
.LEFDE38:
.LSFDE40:
	.4byte	.LEFDE40-.LASFDE40
.LASFDE40:
	.4byte	.Lframe0
	.4byte	.LFB144
	.4byte	.LFE144-.LFB144
	.align	2
.LEFDE40:
.LSFDE42:
	.4byte	.LEFDE42-.LASFDE42
.LASFDE42:
	.4byte	.Lframe0
	.4byte	.LFB145
	.4byte	.LFE145-.LFB145
	.align	2
.LEFDE42:
.LSFDE44:
	.4byte	.LEFDE44-.LASFDE44
.LASFDE44:
	.4byte	.Lframe0
	.4byte	.LFB146
	.4byte	.LFE146-.LFB146
	.align	2
.LEFDE44:
.LSFDE46:
	.4byte	.LEFDE46-.LASFDE46
.LASFDE46:
	.4byte	.Lframe0
	.4byte	.LFB147
	.4byte	.LFE147-.LFB147
	.align	2
.LEFDE46:
.LSFDE48:
	.4byte	.LEFDE48-.LASFDE48
.LASFDE48:
	.4byte	.Lframe0
	.4byte	.LFB148
	.4byte	.LFE148-.LFB148
	.align	2
.LEFDE48:
.LSFDE50:
	.4byte	.LEFDE50-.LASFDE50
.LASFDE50:
	.4byte	.Lframe0
	.4byte	.LFB149
	.4byte	.LFE149-.LFB149
	.align	2
.LEFDE50:
.LSFDE52:
	.4byte	.LEFDE52-.LASFDE52
.LASFDE52:
	.4byte	.Lframe0
	.4byte	.LFB150
	.4byte	.LFE150-.LFB150
	.align	2
.LEFDE52:
.LSFDE54:
	.4byte	.LEFDE54-.LASFDE54
.LASFDE54:
	.4byte	.Lframe0
	.4byte	.LFB151
	.4byte	.LFE151-.LFB151
	.align	2
.LEFDE54:
.LSFDE56:
	.4byte	.LEFDE56-.LASFDE56
.LASFDE56:
	.4byte	.Lframe0
	.4byte	.LFB152
	.4byte	.LFE152-.LFB152
	.align	2
.LEFDE56:
.LSFDE58:
	.4byte	.LEFDE58-.LASFDE58
.LASFDE58:
	.4byte	.Lframe0
	.4byte	.LFB153
	.4byte	.LFE153-.LFB153
	.align	2
.LEFDE58:
.LSFDE60:
	.4byte	.LEFDE60-.LASFDE60
.LASFDE60:
	.4byte	.Lframe0
	.4byte	.LFB154
	.4byte	.LFE154-.LFB154
	.align	2
.LEFDE60:
.LSFDE62:
	.4byte	.LEFDE62-.LASFDE62
.LASFDE62:
	.4byte	.Lframe0
	.4byte	.LFB155
	.4byte	.LFE155-.LFB155
	.align	2
.LEFDE62:
.LSFDE64:
	.4byte	.LEFDE64-.LASFDE64
.LASFDE64:
	.4byte	.Lframe0
	.4byte	.LFB156
	.4byte	.LFE156-.LFB156
	.align	2
.LEFDE64:
.LSFDE66:
	.4byte	.LEFDE66-.LASFDE66
.LASFDE66:
	.4byte	.Lframe0
	.4byte	.LFB157
	.4byte	.LFE157-.LFB157
	.align	2
.LEFDE66:
.LSFDE68:
	.4byte	.LEFDE68-.LASFDE68
.LASFDE68:
	.4byte	.Lframe0
	.4byte	.LFB158
	.4byte	.LFE158-.LFB158
	.align	2
.LEFDE68:
.LSFDE70:
	.4byte	.LEFDE70-.LASFDE70
.LASFDE70:
	.4byte	.Lframe0
	.4byte	.LFB159
	.4byte	.LFE159-.LFB159
	.align	2
.LEFDE70:
.LSFDE72:
	.4byte	.LEFDE72-.LASFDE72
.LASFDE72:
	.4byte	.Lframe0
	.4byte	.LFB160
	.4byte	.LFE160-.LFB160
	.align	2
.LEFDE72:
.LSFDE74:
	.4byte	.LEFDE74-.LASFDE74
.LASFDE74:
	.4byte	.Lframe0
	.4byte	.LFB161
	.4byte	.LFE161-.LFB161
	.align	2
.LEFDE74:
.LSFDE76:
	.4byte	.LEFDE76-.LASFDE76
.LASFDE76:
	.4byte	.Lframe0
	.4byte	.LFB162
	.4byte	.LFE162-.LFB162
	.align	2
.LEFDE76:
.LSFDE78:
	.4byte	.LEFDE78-.LASFDE78
.LASFDE78:
	.4byte	.Lframe0
	.4byte	.LFB163
	.4byte	.LFE163-.LFB163
	.align	2
.LEFDE78:
.LSFDE80:
	.4byte	.LEFDE80-.LASFDE80
.LASFDE80:
	.4byte	.Lframe0
	.4byte	.LFB164
	.4byte	.LFE164-.LFB164
	.align	2
.LEFDE80:
.LSFDE82:
	.4byte	.LEFDE82-.LASFDE82
.LASFDE82:
	.4byte	.Lframe0
	.4byte	.LFB165
	.4byte	.LFE165-.LFB165
	.align	2
.LEFDE82:
.LSFDE84:
	.4byte	.LEFDE84-.LASFDE84
.LASFDE84:
	.4byte	.Lframe0
	.4byte	.LFB166
	.4byte	.LFE166-.LFB166
	.align	2
.LEFDE84:
.LSFDE86:
	.4byte	.LEFDE86-.LASFDE86
.LASFDE86:
	.4byte	.Lframe0
	.4byte	.LFB199
	.4byte	.LFE199-.LFB199
	.byte	0x4
	.4byte	.LCFI0-.LFB199
	.byte	0xe
	.uleb128 0x10
	.byte	0x4
	.4byte	.LCFI1-.LCFI0
	.byte	0xe
	.uleb128 0
	.align	2
.LEFDE86:
.LSFDE88:
	.4byte	.LEFDE88-.LASFDE88
.LASFDE88:
	.4byte	.Lframe0
	.4byte	.LFB200
	.4byte	.LFE200-.LFB200
	.byte	0x4
	.4byte	.LCFI2-.LFB200
	.byte	0xe
	.uleb128 0x4
	.byte	0x8e
	.uleb128 0x1
	.byte	0x4
	.4byte	.LCFI3-.LCFI2
	.byte	0xe
	.uleb128 0x18
	.byte	0x4
	.4byte	.LCFI4-.LCFI3
	.byte	0xe
	.uleb128 0x4
	.align	2
.LEFDE88:
.LSFDE90:
	.4byte	.LEFDE90-.LASFDE90
.LASFDE90:
	.4byte	.Lframe0
	.4byte	.LFB201
	.4byte	.LFE201-.LFB201
	.byte	0x4
	.4byte	.LCFI5-.LFB201
	.byte	0xe
	.uleb128 0x4
	.byte	0x8e
	.uleb128 0x1
	.byte	0x4
	.4byte	.LCFI6-.LCFI5
	.byte	0xe
	.uleb128 0x30
	.byte	0x4
	.4byte	.LCFI7-.LCFI6
	.byte	0xe
	.uleb128 0x4
	.align	2
.LEFDE90:
.LSFDE92:
	.4byte	.LEFDE92-.LASFDE92
.LASFDE92:
	.4byte	.Lframe0
	.4byte	.LFB202
	.4byte	.LFE202-.LFB202
	.byte	0x4
	.4byte	.LCFI8-.LFB202
	.byte	0xe
	.uleb128 0x4
	.byte	0x8e
	.uleb128 0x1
	.byte	0x4
	.4byte	.LCFI9-.LCFI8
	.byte	0xe
	.uleb128 0x18
	.byte	0x4
	.4byte	.LCFI10-.LCFI9
	.byte	0xe
	.uleb128 0x4
	.align	2
.LEFDE92:
.LSFDE94:
	.4byte	.LEFDE94-.LASFDE94
.LASFDE94:
	.4byte	.Lframe0
	.4byte	.LFB203
	.4byte	.LFE203-.LFB203
	.byte	0x4
	.4byte	.LCFI11-.LFB203
	.byte	0xe
	.uleb128 0x4
	.byte	0x8e
	.uleb128 0x1
	.byte	0x4
	.4byte	.LCFI12-.LCFI11
	.byte	0xe
	.uleb128 0x10
	.byte	0x4
	.4byte	.LCFI13-.LCFI12
	.byte	0xe
	.uleb128 0x4
	.align	2
.LEFDE94:
.LSFDE96:
	.4byte	.LEFDE96-.LASFDE96
.LASFDE96:
	.4byte	.Lframe0
	.4byte	.LFB204
	.4byte	.LFE204-.LFB204
	.byte	0x4
	.4byte	.LCFI14-.LFB204
	.byte	0xe
	.uleb128 0x4
	.byte	0x8e
	.uleb128 0x1
	.byte	0x4
	.4byte	.LCFI15-.LCFI14
	.byte	0xe
	.uleb128 0x20
	.byte	0x4
	.4byte	.LCFI16-.LCFI15
	.byte	0xe
	.uleb128 0x4
	.align	2
.LEFDE96:
.LSFDE98:
	.4byte	.LEFDE98-.LASFDE98
.LASFDE98:
	.4byte	.Lframe0
	.4byte	.LFB205
	.4byte	.LFE205-.LFB205
	.byte	0x4
	.4byte	.LCFI17-.LFB205
	.byte	0xe
	.uleb128 0x8
	.byte	0x84
	.uleb128 0x2
	.byte	0x8e
	.uleb128 0x1
	.byte	0x4
	.4byte	.LCFI18-.LCFI17
	.byte	0xe
	.uleb128 0x18
	.byte	0x4
	.4byte	.LCFI19-.LCFI18
	.byte	0xe
	.uleb128 0x8
	.align	2
.LEFDE98:
.LSFDE100:
	.4byte	.LEFDE100-.LASFDE100
.LASFDE100:
	.4byte	.Lframe0
	.4byte	.LFB206
	.4byte	.LFE206-.LFB206
	.byte	0x4
	.4byte	.LCFI20-.LFB206
	.byte	0xe
	.uleb128 0x8
	.byte	0x84
	.uleb128 0x2
	.byte	0x8e
	.uleb128 0x1
	.byte	0x4
	.4byte	.LCFI21-.LCFI20
	.byte	0xe
	.uleb128 0x18
	.byte	0x4
	.4byte	.LCFI22-.LCFI21
	.byte	0xe
	.uleb128 0x8
	.align	2
.LEFDE100:
.LSFDE102:
	.4byte	.LEFDE102-.LASFDE102
.LASFDE102:
	.4byte	.Lframe0
	.4byte	.LFB207
	.4byte	.LFE207-.LFB207
	.byte	0x4
	.4byte	.LCFI23-.LFB207
	.byte	0xe
	.uleb128 0x4
	.byte	0x8e
	.uleb128 0x1
	.byte	0x4
	.4byte	.LCFI24-.LCFI23
	.byte	0xe
	.uleb128 0x18
	.byte	0x4
	.4byte	.LCFI25-.LCFI24
	.byte	0xe
	.uleb128 0x4
	.align	2
.LEFDE102:
.LSFDE104:
	.4byte	.LEFDE104-.LASFDE104
.LASFDE104:
	.4byte	.Lframe0
	.4byte	.LFB208
	.4byte	.LFE208-.LFB208
	.byte	0x4
	.4byte	.LCFI26-.LFB208
	.byte	0xe
	.uleb128 0x4
	.byte	0x8e
	.uleb128 0x1
	.byte	0x4
	.4byte	.LCFI27-.LCFI26
	.byte	0xe
	.uleb128 0x38
	.byte	0x4
	.4byte	.LCFI28-.LCFI27
	.byte	0xe
	.uleb128 0x4
	.align	2
.LEFDE104:
.LSFDE106:
	.4byte	.LEFDE106-.LASFDE106
.LASFDE106:
	.4byte	.Lframe0
	.4byte	.LFB209
	.4byte	.LFE209-.LFB209
	.byte	0x4
	.4byte	.LCFI29-.LFB209
	.byte	0xe
	.uleb128 0x4
	.byte	0x8e
	.uleb128 0x1
	.byte	0x4
	.4byte	.LCFI30-.LCFI29
	.byte	0xe
	.uleb128 0x30
	.byte	0x4
	.4byte	.LCFI31-.LCFI30
	.byte	0xe
	.uleb128 0x4
	.align	2
.LEFDE106:
.LSFDE108:
	.4byte	.LEFDE108-.LASFDE108
.LASFDE108:
	.4byte	.Lframe0
	.4byte	.LFB210
	.4byte	.LFE210-.LFB210
	.byte	0x4
	.4byte	.LCFI32-.LFB210
	.byte	0xe
	.uleb128 0x4
	.byte	0x8e
	.uleb128 0x1
	.byte	0x4
	.4byte	.LCFI33-.LCFI32
	.byte	0xe
	.uleb128 0x10
	.byte	0x4
	.4byte	.LCFI34-.LCFI33
	.byte	0xe
	.uleb128 0x4
	.align	2
.LEFDE108:
.LSFDE110:
	.4byte	.LEFDE110-.LASFDE110
.LASFDE110:
	.4byte	.Lframe0
	.4byte	.LFB211
	.4byte	.LFE211-.LFB211
	.byte	0x4
	.4byte	.LCFI35-.LFB211
	.byte	0xe
	.uleb128 0x4
	.byte	0x8e
	.uleb128 0x1
	.byte	0x4
	.4byte	.LCFI36-.LCFI35
	.byte	0xe
	.uleb128 0x30
	.byte	0x4
	.4byte	.LCFI37-.LCFI36
	.byte	0xe
	.uleb128 0x4
	.align	2
.LEFDE110:
.LSFDE112:
	.4byte	.LEFDE112-.LASFDE112
.LASFDE112:
	.4byte	.Lframe0
	.4byte	.LFB212
	.4byte	.LFE212-.LFB212
	.byte	0x4
	.4byte	.LCFI38-.LFB212
	.byte	0xe
	.uleb128 0x8
	.byte	0x84
	.uleb128 0x2
	.byte	0x8e
	.uleb128 0x1
	.byte	0x4
	.4byte	.LCFI39-.LCFI38
	.byte	0xe
	.uleb128 0x38
	.byte	0x4
	.4byte	.LCFI40-.LCFI39
	.byte	0xe
	.uleb128 0x8
	.align	2
.LEFDE112:
.LSFDE114:
	.4byte	.LEFDE114-.LASFDE114
.LASFDE114:
	.4byte	.Lframe0
	.4byte	.LFB213
	.4byte	.LFE213-.LFB213
	.byte	0x4
	.4byte	.LCFI41-.LFB213
	.byte	0xe
	.uleb128 0x8
	.byte	0x84
	.uleb128 0x2
	.byte	0x8e
	.uleb128 0x1
	.byte	0x4
	.4byte	.LCFI42-.LCFI41
	.byte	0xe
	.uleb128 0x38
	.byte	0x4
	.4byte	.LCFI43-.LCFI42
	.byte	0xe
	.uleb128 0x8
	.align	2
.LEFDE114:
.LSFDE116:
	.4byte	.LEFDE116-.LASFDE116
.LASFDE116:
	.4byte	.Lframe0
	.4byte	.LFB214
	.4byte	.LFE214-.LFB214
	.byte	0x4
	.4byte	.LCFI44-.LFB214
	.byte	0xe
	.uleb128 0x8
	.byte	0x84
	.uleb128 0x2
	.byte	0x8e
	.uleb128 0x1
	.byte	0x4
	.4byte	.LCFI45-.LCFI44
	.byte	0xe
	.uleb128 0x38
	.byte	0x4
	.4byte	.LCFI46-.LCFI45
	.byte	0xe
	.uleb128 0x8
	.align	2
.LEFDE116:
.LSFDE118:
	.4byte	.LEFDE118-.LASFDE118
.LASFDE118:
	.4byte	.Lframe0
	.4byte	.LFB215
	.4byte	.LFE215-.LFB215
	.byte	0x4
	.4byte	.LCFI47-.LFB215
	.byte	0xe
	.uleb128 0x8
	.byte	0x84
	.uleb128 0x2
	.byte	0x8e
	.uleb128 0x1
	.byte	0x4
	.4byte	.LCFI48-.LCFI47
	.byte	0xe
	.uleb128 0x30
	.byte	0x4
	.4byte	.LCFI49-.LCFI48
	.byte	0xe
	.uleb128 0x8
	.align	2
.LEFDE118:
.LSFDE120:
	.4byte	.LEFDE120-.LASFDE120
.LASFDE120:
	.4byte	.Lframe0
	.4byte	.LFB216
	.4byte	.LFE216-.LFB216
	.byte	0x4
	.4byte	.LCFI50-.LFB216
	.byte	0xe
	.uleb128 0x8
	.byte	0x84
	.uleb128 0x2
	.byte	0x8e
	.uleb128 0x1
	.byte	0x4
	.4byte	.LCFI51-.LCFI50
	.byte	0xe
	.uleb128 0x28
	.byte	0x4
	.4byte	.LCFI52-.LCFI51
	.byte	0xe
	.uleb128 0x8
	.align	2
.LEFDE120:
.LSFDE122:
	.4byte	.LEFDE122-.LASFDE122
.LASFDE122:
	.4byte	.Lframe0
	.4byte	.LFB217
	.4byte	.LFE217-.LFB217
	.byte	0x4
	.4byte	.LCFI53-.LFB217
	.byte	0xe
	.uleb128 0x4
	.byte	0x8e
	.uleb128 0x1
	.byte	0x4
	.4byte	.LCFI54-.LCFI53
	.byte	0xe
	.uleb128 0x18
	.byte	0x4
	.4byte	.LCFI55-.LCFI54
	.byte	0xe
	.uleb128 0x4
	.align	2
.LEFDE122:
.LSFDE124:
	.4byte	.LEFDE124-.LASFDE124
.LASFDE124:
	.4byte	.Lframe0
	.4byte	.LFB218
	.4byte	.LFE218-.LFB218
	.byte	0x4
	.4byte	.LCFI56-.LFB218
	.byte	0xe
	.uleb128 0x4
	.byte	0x8e
	.uleb128 0x1
	.byte	0x4
	.4byte	.LCFI57-.LCFI56
	.byte	0xe
	.uleb128 0x18
	.byte	0x4
	.4byte	.LCFI58-.LCFI57
	.byte	0xe
	.uleb128 0x4
	.align	2
.LEFDE124:
.LSFDE126:
	.4byte	.LEFDE126-.LASFDE126
.LASFDE126:
	.4byte	.Lframe0
	.4byte	.LFB219
	.4byte	.LFE219-.LFB219
	.byte	0x4
	.4byte	.LCFI59-.LFB219
	.byte	0xe
	.uleb128 0x10
	.byte	0x4
	.4byte	.LCFI60-.LCFI59
	.byte	0xe
	.uleb128 0
	.align	2
.LEFDE126:
.LSFDE128:
	.4byte	.LEFDE128-.LASFDE128
.LASFDE128:
	.4byte	.Lframe0
	.4byte	.LFB220
	.4byte	.LFE220-.LFB220
	.byte	0x4
	.4byte	.LCFI61-.LFB220
	.byte	0xe
	.uleb128 0x4
	.byte	0x8e
	.uleb128 0x1
	.byte	0x4
	.4byte	.LCFI62-.LCFI61
	.byte	0xe
	.uleb128 0x18
	.byte	0x4
	.4byte	.LCFI63-.LCFI62
	.byte	0xe
	.uleb128 0x4
	.align	2
.LEFDE128:
.LSFDE130:
	.4byte	.LEFDE130-.LASFDE130
.LASFDE130:
	.4byte	.Lframe0
	.4byte	.LFB221
	.4byte	.LFE221-.LFB221
	.byte	0x4
	.4byte	.LCFI64-.LFB221
	.byte	0xe
	.uleb128 0x8
	.byte	0x4
	.4byte	.LCFI65-.LCFI64
	.byte	0xe
	.uleb128 0
	.align	2
.LEFDE130:
.LSFDE132:
	.4byte	.LEFDE132-.LASFDE132
.LASFDE132:
	.4byte	.Lframe0
	.4byte	.LFB222
	.4byte	.LFE222-.LFB222
	.byte	0x4
	.4byte	.LCFI66-.LFB222
	.byte	0xe
	.uleb128 0x8
	.byte	0x4
	.4byte	.LCFI67-.LCFI66
	.byte	0xe
	.uleb128 0
	.align	2
.LEFDE132:
.LSFDE134:
	.4byte	.LEFDE134-.LASFDE134
.LASFDE134:
	.4byte	.Lframe0
	.4byte	.LFB223
	.4byte	.LFE223-.LFB223
	.byte	0x4
	.4byte	.LCFI68-.LFB223
	.byte	0xe
	.uleb128 0x8
	.byte	0x4
	.4byte	.LCFI69-.LCFI68
	.byte	0xe
	.uleb128 0
	.align	2
.LEFDE134:
.LSFDE136:
	.4byte	.LEFDE136-.LASFDE136
.LASFDE136:
	.4byte	.Lframe0
	.4byte	.LFB224
	.4byte	.LFE224-.LFB224
	.byte	0x4
	.4byte	.LCFI70-.LFB224
	.byte	0xe
	.uleb128 0x10
	.byte	0x4
	.4byte	.LCFI71-.LCFI70
	.byte	0xe
	.uleb128 0
	.align	2
.LEFDE136:
.LSFDE138:
	.4byte	.LEFDE138-.LASFDE138
.LASFDE138:
	.4byte	.Lframe0
	.4byte	.LFB225
	.4byte	.LFE225-.LFB225
	.byte	0x4
	.4byte	.LCFI72-.LFB225
	.byte	0xe
	.uleb128 0x4
	.byte	0x8e
	.uleb128 0x1
	.byte	0x4
	.4byte	.LCFI73-.LCFI72
	.byte	0xe
	.uleb128 0x20
	.byte	0x4
	.4byte	.LCFI74-.LCFI73
	.byte	0xe
	.uleb128 0x4
	.align	2
.LEFDE138:
.LSFDE140:
	.4byte	.LEFDE140-.LASFDE140
.LASFDE140:
	.4byte	.Lframe0
	.4byte	.LFB226
	.4byte	.LFE226-.LFB226
	.byte	0x4
	.4byte	.LCFI75-.LFB226
	.byte	0xe
	.uleb128 0x4
	.byte	0x8e
	.uleb128 0x1
	.byte	0x4
	.4byte	.LCFI76-.LCFI75
	.byte	0xe
	.uleb128 0x10
	.byte	0x4
	.4byte	.LCFI77-.LCFI76
	.byte	0xe
	.uleb128 0x4
	.align	2
.LEFDE140:
.LSFDE142:
	.4byte	.LEFDE142-.LASFDE142
.LASFDE142:
	.4byte	.Lframe0
	.4byte	.LFB227
	.4byte	.LFE227-.LFB227
	.byte	0x4
	.4byte	.LCFI78-.LFB227
	.byte	0xe
	.uleb128 0x4
	.byte	0x8e
	.uleb128 0x1
	.byte	0x4
	.4byte	.LCFI79-.LCFI78
	.byte	0xe
	.uleb128 0x18
	.byte	0x4
	.4byte	.LCFI80-.LCFI79
	.byte	0xe
	.uleb128 0x4
	.align	2
.LEFDE142:
.LSFDE144:
	.4byte	.LEFDE144-.LASFDE144
.LASFDE144:
	.4byte	.Lframe0
	.4byte	.LFB228
	.4byte	.LFE228-.LFB228
	.byte	0x4
	.4byte	.LCFI81-.LFB228
	.byte	0xe
	.uleb128 0x4
	.byte	0x8e
	.uleb128 0x1
	.byte	0x4
	.4byte	.LCFI82-.LCFI81
	.byte	0xe
	.uleb128 0x18
	.byte	0x4
	.4byte	.LCFI83-.LCFI82
	.byte	0xe
	.uleb128 0x4
	.align	2
.LEFDE144:
.LSFDE146:
	.4byte	.LEFDE146-.LASFDE146
.LASFDE146:
	.4byte	.Lframe0
	.4byte	.LFB229
	.4byte	.LFE229-.LFB229
	.byte	0x4
	.4byte	.LCFI84-.LFB229
	.byte	0xe
	.uleb128 0x10
	.byte	0x4
	.4byte	.LCFI85-.LCFI84
	.byte	0xe
	.uleb128 0
	.align	2
.LEFDE146:
.LSFDE148:
	.4byte	.LEFDE148-.LASFDE148
.LASFDE148:
	.4byte	.Lframe0
	.4byte	.LFB230
	.4byte	.LFE230-.LFB230
	.byte	0x4
	.4byte	.LCFI86-.LFB230
	.byte	0xe
	.uleb128 0x4
	.byte	0x8e
	.uleb128 0x1
	.byte	0x4
	.4byte	.LCFI87-.LCFI86
	.byte	0xe
	.uleb128 0x18
	.byte	0x4
	.4byte	.LCFI88-.LCFI87
	.byte	0xe
	.uleb128 0x4
	.align	2
.LEFDE148:
.LSFDE150:
	.4byte	.LEFDE150-.LASFDE150
.LASFDE150:
	.4byte	.Lframe0
	.4byte	.LFB231
	.4byte	.LFE231-.LFB231
	.byte	0x4
	.4byte	.LCFI89-.LFB231
	.byte	0xe
	.uleb128 0x10
	.byte	0x4
	.4byte	.LCFI90-.LCFI89
	.byte	0xe
	.uleb128 0
	.align	2
.LEFDE150:
.LSFDE152:
	.4byte	.LEFDE152-.LASFDE152
.LASFDE152:
	.4byte	.Lframe0
	.4byte	.LFB232
	.4byte	.LFE232-.LFB232
	.byte	0x4
	.4byte	.LCFI91-.LFB232
	.byte	0xe
	.uleb128 0x4
	.byte	0x8e
	.uleb128 0x1
	.byte	0x4
	.4byte	.LCFI92-.LCFI91
	.byte	0xe
	.uleb128 0x18
	.byte	0x4
	.4byte	.LCFI93-.LCFI92
	.byte	0xe
	.uleb128 0x4
	.align	2
.LEFDE152:
.LSFDE154:
	.4byte	.LEFDE154-.LASFDE154
.LASFDE154:
	.4byte	.Lframe0
	.4byte	.LFB233
	.4byte	.LFE233-.LFB233
	.byte	0x4
	.4byte	.LCFI94-.LFB233
	.byte	0xe
	.uleb128 0x10
	.byte	0x4
	.4byte	.LCFI95-.LCFI94
	.byte	0xe
	.uleb128 0
	.align	2
.LEFDE154:
.LSFDE156:
	.4byte	.LEFDE156-.LASFDE156
.LASFDE156:
	.4byte	.Lframe0
	.4byte	.LFB234
	.4byte	.LFE234-.LFB234
	.byte	0x4
	.4byte	.LCFI96-.LFB234
	.byte	0xe
	.uleb128 0x10
	.byte	0x4
	.4byte	.LCFI97-.LCFI96
	.byte	0xe
	.uleb128 0
	.align	2
.LEFDE156:
.LSFDE158:
	.4byte	.LEFDE158-.LASFDE158
.LASFDE158:
	.4byte	.Lframe0
	.4byte	.LFB235
	.4byte	.LFE235-.LFB235
	.byte	0x4
	.4byte	.LCFI98-.LFB235
	.byte	0xe
	.uleb128 0x4
	.byte	0x8e
	.uleb128 0x1
	.byte	0x4
	.4byte	.LCFI99-.LCFI98
	.byte	0xe
	.uleb128 0x20
	.byte	0x4
	.4byte	.LCFI100-.LCFI99
	.byte	0xe
	.uleb128 0x4
	.align	2
.LEFDE158:
	.text
.Letext0:
	.file 5 "../../../../../../external/freertos/source/include/queue.h"