	.cpu cortex-m4
	.eabi_attribute 27, 1
	.eabi_attribute 28, 1
	.eabi_attribute 20, 1
	.eabi_attribute 21, 1
	.eabi_attribute 23, 3
	.eabi_attribute 24, 1
	.eabi_attribute 25, 1
	.eabi_attribute 26, 1
	.eabi_attribute 30, 6
	.eabi_attribute 34, 1
	.eabi_attribute 18, 4
	.file	"tasks.c"
	.text
.Ltext0:
	.section	.text.sd_mutex_new,"ax",%progbits
	.align	1
	.syntax unified
	.thumb
	.thumb_func
	.fpu fpv4-sp-d16
	.type	sd_mutex_new, %function
sd_mutex_new:
.LFB124:
	.file 1 "../../../../../../components/softdevice/s132/headers/nrf_soc.h"
	.loc 1 393 101
	@ Naked Function: prologue and epilogue provided by programmer.
	@ args = 0, pretend = 0, frame = 0
	@ frame_needed = 0, uses_anonymous_args = 0
	.loc 1 393 103
	.syntax unified
@ 393 "../../../../../../components/softdevice/s132/headers/nrf_soc.h" 1
	svc #44
bx r14
@ 0 "" 2
	.loc 1 393 2
	.thumb
	.syntax unified
	nop
	mov	r0, r3
.LFE124:
	.size	sd_mutex_new, .-sd_mutex_new
	.section	.text.sd_mutex_acquire,"ax",%progbits
	.align	1
	.syntax unified
	.thumb
	.thumb_func
	.fpu fpv4-sp-d16
	.type	sd_mutex_acquire, %function
sd_mutex_acquire:
.LFB125:
	.loc 1 402 105
	@ Naked Function: prologue and epilogue provided by programmer.
	@ args = 0, pretend = 0, frame = 0
	@ frame_needed = 0, uses_anonymous_args = 0
	.loc 1 402 107
	.syntax unified
@ 402 "../../../../../../components/softdevice/s132/headers/nrf_soc.h" 1
	svc #45
bx r14
@ 0 "" 2
	.loc 1 402 2
	.thumb
	.syntax unified
	nop
	mov	r0, r3
.LFE125:
	.size	sd_mutex_acquire, .-sd_mutex_acquire
	.section	.text.sd_mutex_release,"ax",%progbits
	.align	1
	.syntax unified
	.thumb
	.thumb_func
	.fpu fpv4-sp-d16
	.type	sd_mutex_release, %function
sd_mutex_release:
.LFB126:
	.loc 1 410 105
	@ Naked Function: prologue and epilogue provided by programmer.
	@ args = 0, pretend = 0, frame = 0
	@ frame_needed = 0, uses_anonymous_args = 0
	.loc 1 410 107
	.syntax unified
@ 410 "../../../../../../components/softdevice/s132/headers/nrf_soc.h" 1
	svc #46
bx r14
@ 0 "" 2
	.loc 1 410 2
	.thumb
	.syntax unified
	nop
	mov	r0, r3
.LFE126:
	.size	sd_mutex_release, .-sd_mutex_release
	.section	.text.sd_rand_application_pool_capacity_get,"ax",%progbits
	.align	1
	.syntax unified
	.thumb
	.thumb_func
	.fpu fpv4-sp-d16
	.type	sd_rand_application_pool_capacity_get, %function
sd_rand_application_pool_capacity_get:
.LFB127:
	.loc 1 418 130
	@ Naked Function: prologue and epilogue provided by programmer.
	@ args = 0, pretend = 0, frame = 0
	@ frame_needed = 0, uses_anonymous_args = 0
	.loc 1 418 132
	.syntax unified
@ 418 "../../../../../../components/softdevice/s132/headers/nrf_soc.h" 1
	svc #47
bx r14
@ 0 "" 2
	.loc 1 418 2
	.thumb
	.syntax unified
	nop
	mov	r0, r3
.LFE127:
	.size	sd_rand_application_pool_capacity_get, .-sd_rand_application_pool_capacity_get
	.section	.text.sd_rand_application_bytes_available_get,"ax",%progbits
	.align	1
	.syntax unified
	.thumb
	.thumb_func
	.fpu fpv4-sp-d16
	.type	sd_rand_application_bytes_available_get, %function
sd_rand_application_bytes_available_get:
.LFB128:
	.loc 1 426 134
	@ Naked Function: prologue and epilogue provided by programmer.
	@ args = 0, pretend = 0, frame = 0
	@ frame_needed = 0, uses_anonymous_args = 0
	.loc 1 426 136
	.syntax unified
@ 426 "../../../../../../components/softdevice/s132/headers/nrf_soc.h" 1
	svc #48
bx r14
@ 0 "" 2
	.loc 1 426 2
	.thumb
	.syntax unified
	nop
	mov	r0, r3
.LFE128:
	.size	sd_rand_application_bytes_available_get, .-sd_rand_application_bytes_available_get
	.section	.text.sd_rand_application_vector_get,"ax",%progbits
	.align	1
	.syntax unified
	.thumb
	.thumb_func
	.fpu fpv4-sp-d16
	.type	sd_rand_application_vector_get, %function
sd_rand_application_vector_get:
.LFB129:
	.loc 1 436 130
	@ Naked Function: prologue and epilogue provided by programmer.
	@ args = 0, pretend = 0, frame = 0
	@ frame_needed = 0, uses_anonymous_args = 0
	.loc 1 436 132
	.syntax unified
@ 436 "../../../../../../components/softdevice/s132/headers/nrf_soc.h" 1
	svc #49
bx r14
@ 0 "" 2
	.loc 1 436 2
	.thumb
	.syntax unified
	nop
	mov	r0, r3
.LFE129:
	.size	sd_rand_application_vector_get, .-sd_rand_application_vector_get
	.section	.text.sd_power_reset_reason_get,"ax",%progbits
	.align	1
	.syntax unified
	.thumb
	.thumb_func
	.fpu fpv4-sp-d16
	.type	sd_power_reset_reason_get, %function
sd_power_reset_reason_get:
.LFB130:
	.loc 1 444 118
	@ Naked Function: prologue and epilogue provided by programmer.
	@ args = 0, pretend = 0, frame = 0
	@ frame_needed = 0, uses_anonymous_args = 0
	.loc 1 444 120
	.syntax unified
@ 444 "../../../../../../components/softdevice/s132/headers/nrf_soc.h" 1
	svc #52
bx r14
@ 0 "" 2
	.loc 1 444 2
	.thumb
	.syntax unified
	nop
	mov	r0, r3
.LFE130:
	.size	sd_power_reset_reason_get, .-sd_power_reset_reason_get
	.section	.text.sd_power_reset_reason_clr,"ax",%progbits
	.align	1
	.syntax unified
	.thumb
	.thumb_func
	.fpu fpv4-sp-d16
	.type	sd_power_reset_reason_clr, %function
sd_power_reset_reason_clr:
.LFB131:
	.loc 1 452 122
	@ Naked Function: prologue and epilogue provided by programmer.
	@ args = 0, pretend = 0, frame = 0
	@ frame_needed = 0, uses_anonymous_args = 0
	.loc 1 452 124
	.syntax unified
@ 452 "../../../../../../components/softdevice/s132/headers/nrf_soc.h" 1
	svc #53
bx r14
@ 0 "" 2
	.loc 1 452 2
	.thumb
	.syntax unified
	nop
	mov	r0, r3
.LFE131:
	.size	sd_power_reset_reason_clr, .-sd_power_reset_reason_clr
	.section	.text.sd_power_mode_set,"ax",%progbits
	.align	1
	.syntax unified
	.thumb
	.thumb_func
	.fpu fpv4-sp-d16
	.type	sd_power_mode_set, %function
sd_power_mode_set:
.LFB132:
	.loc 1 461 103
	@ Naked Function: prologue and epilogue provided by programmer.
	@ args = 0, pretend = 0, frame = 0
	@ frame_needed = 0, uses_anonymous_args = 0
	.loc 1 461 105
	.syntax unified
@ 461 "../../../../../../components/softdevice/s132/headers/nrf_soc.h" 1
	svc #50
bx r14
@ 0 "" 2
	.loc 1 461 2
	.thumb
	.syntax unified
	nop
	mov	r0, r3
.LFE132:
	.size	sd_power_mode_set, .-sd_power_mode_set
	.section	.text.sd_power_system_off,"ax",%progbits
	.align	1
	.syntax unified
	.thumb
	.thumb_func
	.fpu fpv4-sp-d16
	.type	sd_power_system_off, %function
sd_power_system_off:
.LFB133:
	.loc 1 467 91
	@ Naked Function: prologue and epilogue provided by programmer.
	@ args = 0, pretend = 0, frame = 0
	@ frame_needed = 0, uses_anonymous_args = 0
	.loc 1 467 93
	.syntax unified
@ 467 "../../../../../../components/softdevice/s132/headers/nrf_soc.h" 1
	svc #51
bx r14
@ 0 "" 2
	.loc 1 467 2
	.thumb
	.syntax unified
	nop
	mov	r0, r3
.LFE133:
	.size	sd_power_system_off, .-sd_power_system_off
	.section	.text.sd_power_pof_enable,"ax",%progbits
	.align	1
	.syntax unified
	.thumb
	.thumb_func
	.fpu fpv4-sp-d16
	.type	sd_power_pof_enable, %function
sd_power_pof_enable:
.LFB134:
	.loc 1 478 105
	@ Naked Function: prologue and epilogue provided by programmer.
	@ args = 0, pretend = 0, frame = 0
	@ frame_needed = 0, uses_anonymous_args = 0
	.loc 1 478 107
	.syntax unified
@ 478 "../../../../../../components/softdevice/s132/headers/nrf_soc.h" 1
	svc #54
bx r14
@ 0 "" 2
	.loc 1 478 2
	.thumb
	.syntax unified
	nop
	mov	r0, r3
.LFE134:
	.size	sd_power_pof_enable, .-sd_power_pof_enable
	.section	.text.sd_power_pof_threshold_set,"ax",%progbits
	.align	1
	.syntax unified
	.thumb
	.thumb_func
	.fpu fpv4-sp-d16
	.type	sd_power_pof_threshold_set, %function
sd_power_pof_threshold_set:
.LFB135:
	.loc 1 489 111
	@ Naked Function: prologue and epilogue provided by programmer.
	@ args = 0, pretend = 0, frame = 0
	@ frame_needed = 0, uses_anonymous_args = 0
	.loc 1 489 113
	.syntax unified
@ 489 "../../../../../../components/softdevice/s132/headers/nrf_soc.h" 1
	svc #55
bx r14
@ 0 "" 2
	.loc 1 489 2
	.thumb
	.syntax unified
	nop
	mov	r0, r3
.LFE135:
	.size	sd_power_pof_threshold_set, .-sd_power_pof_threshold_set
	.section	.text.sd_power_ram_power_set,"ax",%progbits
	.align	1
	.syntax unified
	.thumb
	.thumb_func
	.fpu fpv4-sp-d16
	.type	sd_power_ram_power_set, %function
sd_power_ram_power_set:
.LFB136:
	.loc 1 499 126
	@ Naked Function: prologue and epilogue provided by programmer.
	@ args = 0, pretend = 0, frame = 0
	@ frame_needed = 0, uses_anonymous_args = 0
	.loc 1 499 128
	.syntax unified
@ 499 "../../../../../../components/softdevice/s132/headers/nrf_soc.h" 1
	svc #57
bx r14
@ 0 "" 2
	.loc 1 499 2
	.thumb
	.syntax unified
	nop
	mov	r0, r3
.LFE136:
	.size	sd_power_ram_power_set, .-sd_power_ram_power_set
	.section	.text.sd_power_ram_power_clr,"ax",%progbits
	.align	1
	.syntax unified
	.thumb
	.thumb_func
	.fpu fpv4-sp-d16
	.type	sd_power_ram_power_clr, %function
sd_power_ram_power_clr:
.LFB137:
	.loc 1 508 126
	@ Naked Function: prologue and epilogue provided by programmer.
	@ args = 0, pretend = 0, frame = 0
	@ frame_needed = 0, uses_anonymous_args = 0
	.loc 1 508 128
	.syntax unified
@ 508 "../../../../../../components/softdevice/s132/headers/nrf_soc.h" 1
	svc #58
bx r14
@ 0 "" 2
	.loc 1 508 2
	.thumb
	.syntax unified
	nop
	mov	r0, r3
.LFE137:
	.size	sd_power_ram_power_clr, .-sd_power_ram_power_clr
	.section	.text.sd_power_ram_power_get,"ax",%progbits
	.align	1
	.syntax unified
	.thumb
	.thumb_func
	.fpu fpv4-sp-d16
	.type	sd_power_ram_power_get, %function
sd_power_ram_power_get:
.LFB138:
	.loc 1 517 127
	@ Naked Function: prologue and epilogue provided by programmer.
	@ args = 0, pretend = 0, frame = 0
	@ frame_needed = 0, uses_anonymous_args = 0
	.loc 1 517 129
	.syntax unified
@ 517 "../../../../../../components/softdevice/s132/headers/nrf_soc.h" 1
	svc #59
bx r14
@ 0 "" 2
	.loc 1 517 2
	.thumb
	.syntax unified
	nop
	mov	r0, r3
.LFE138:
	.size	sd_power_ram_power_get, .-sd_power_ram_power_get
	.section	.text.sd_power_gpregret_set,"ax",%progbits
	.align	1
	.syntax unified
	.thumb
	.thumb_func
	.fpu fpv4-sp-d16
	.type	sd_power_gpregret_set, %function
sd_power_gpregret_set:
.LFB139:
	.loc 1 526 132
	@ Naked Function: prologue and epilogue provided by programmer.
	@ args = 0, pretend = 0, frame = 0
	@ frame_needed = 0, uses_anonymous_args = 0
	.loc 1 526 134
	.syntax unified
@ 526 "../../../../../../components/softdevice/s132/headers/nrf_soc.h" 1
	svc #60
bx r14
@ 0 "" 2
	.loc 1 526 2
	.thumb
	.syntax unified
	nop
	mov	r0, r3
.LFE139:
	.size	sd_power_gpregret_set, .-sd_power_gpregret_set
	.section	.text.sd_power_gpregret_clr,"ax",%progbits
	.align	1
	.syntax unified
	.thumb
	.thumb_func
	.fpu fpv4-sp-d16
	.type	sd_power_gpregret_clr, %function
sd_power_gpregret_clr:
.LFB140:
	.loc 1 535 132
	@ Naked Function: prologue and epilogue provided by programmer.
	@ args = 0, pretend = 0, frame = 0
	@ frame_needed = 0, uses_anonymous_args = 0
	.loc 1 535 134
	.syntax unified
@ 535 "../../../../../../components/softdevice/s132/headers/nrf_soc.h" 1
	svc #61
bx r14
@ 0 "" 2
	.loc 1 535 2
	.thumb
	.syntax unified
	nop
	mov	r0, r3
.LFE140:
	.size	sd_power_gpregret_clr, .-sd_power_gpregret_clr
	.section	.text.sd_power_gpregret_get,"ax",%progbits
	.align	1
	.syntax unified
	.thumb
	.thumb_func
	.fpu fpv4-sp-d16
	.type	sd_power_gpregret_get, %function
sd_power_gpregret_get:
.LFB141:
	.loc 1 544 131
	@ Naked Function: prologue and epilogue provided by programmer.
	@ args = 0, pretend = 0, frame = 0
	@ frame_needed = 0, uses_anonymous_args = 0
	.loc 1 544 133
	.syntax unified
@ 544 "../../../../../../components/softdevice/s132/headers/nrf_soc.h" 1
	svc #62
bx r14
@ 0 "" 2
	.loc 1 544 2
	.thumb
	.syntax unified
	nop
	mov	r0, r3
.LFE141:
	.size	sd_power_gpregret_get, .-sd_power_gpregret_get
	.section	.text.sd_power_dcdc_mode_set,"ax",%progbits
	.align	1
	.syntax unified
	.thumb
	.thumb_func
	.fpu fpv4-sp-d16
	.type	sd_power_dcdc_mode_set, %function
sd_power_dcdc_mode_set:
.LFB142:
	.loc 1 553 107
	@ Naked Function: prologue and epilogue provided by programmer.
	@ args = 0, pretend = 0, frame = 0
	@ frame_needed = 0, uses_anonymous_args = 0
	.loc 1 553 109
	.syntax unified
@ 553 "../../../../../../components/softdevice/s132/headers/nrf_soc.h" 1
	svc #63
bx r14
@ 0 "" 2
	.loc 1 553 2
	.thumb
	.syntax unified
	nop
	mov	r0, r3
.LFE142:
	.size	sd_power_dcdc_mode_set, .-sd_power_dcdc_mode_set
	.section	.text.sd_clock_hfclk_request,"ax",%progbits
	.align	1
	.syntax unified
	.thumb
	.thumb_func
	.fpu fpv4-sp-d16
	.type	sd_clock_hfclk_request, %function
sd_clock_hfclk_request:
.LFB143:
	.loc 1 566 94
	@ Naked Function: prologue and epilogue provided by programmer.
	@ args = 0, pretend = 0, frame = 0
	@ frame_needed = 0, uses_anonymous_args = 0
	.loc 1 566 96
	.syntax unified
@ 566 "../../../../../../components/softdevice/s132/headers/nrf_soc.h" 1
	svc #66
bx r14
@ 0 "" 2
	.loc 1 566 2
	.thumb
	.syntax unified
	nop
	mov	r0, r3
.LFE143:
	.size	sd_clock_hfclk_request, .-sd_clock_hfclk_request
	.section	.text.sd_clock_hfclk_release,"ax",%progbits
	.align	1
	.syntax unified
	.thumb
	.thumb_func
	.fpu fpv4-sp-d16
	.type	sd_clock_hfclk_release, %function
sd_clock_hfclk_release:
.LFB144:
	.loc 1 577 94
	@ Naked Function: prologue and epilogue provided by programmer.
	@ args = 0, pretend = 0, frame = 0
	@ frame_needed = 0, uses_anonymous_args = 0
	.loc 1 577 96
	.syntax unified
@ 577 "../../../../../../components/softdevice/s132/headers/nrf_soc.h" 1
	svc #67
bx r14
@ 0 "" 2
	.loc 1 577 2
	.thumb
	.syntax unified
	nop
	mov	r0, r3
.LFE144:
	.size	sd_clock_hfclk_release, .-sd_clock_hfclk_release
	.section	.text.sd_clock_hfclk_is_running,"ax",%progbits
	.align	1
	.syntax unified
	.thumb
	.thumb_func
	.fpu fpv4-sp-d16
	.type	sd_clock_hfclk_is_running, %function
sd_clock_hfclk_is_running:
.LFB145:
	.loc 1 588 116
	@ Naked Function: prologue and epilogue provided by programmer.
	@ args = 0, pretend = 0, frame = 0
	@ frame_needed = 0, uses_anonymous_args = 0
	.loc 1 588 118
	.syntax unified
@ 588 "../../../../../../components/softdevice/s132/headers/nrf_soc.h" 1
	svc #68
bx r14
@ 0 "" 2
	.loc 1 588 2
	.thumb
	.syntax unified
	nop
	mov	r0, r3
.LFE145:
	.size	sd_clock_hfclk_is_running, .-sd_clock_hfclk_is_running
	.section	.text.sd_app_evt_wait,"ax",%progbits
	.align	1
	.syntax unified
	.thumb
	.thumb_func
	.fpu fpv4-sp-d16
	.type	sd_app_evt_wait, %function
sd_app_evt_wait:
.LFB146:
	.loc 1 616 87
	@ Naked Function: prologue and epilogue provided by programmer.
	@ args = 0, pretend = 0, frame = 0
	@ frame_needed = 0, uses_anonymous_args = 0
	.loc 1 616 89
	.syntax unified
@ 616 "../../../../../../components/softdevice/s132/headers/nrf_soc.h" 1
	svc #65
bx r14
@ 0 "" 2
	.loc 1 616 2
	.thumb
	.syntax unified
	nop
	mov	r0, r3
.LFE146:
	.size	sd_app_evt_wait, .-sd_app_evt_wait
	.section	.text.sd_ppi_channel_enable_get,"ax",%progbits
	.align	1
	.syntax unified
	.thumb
	.thumb_func
	.fpu fpv4-sp-d16
	.type	sd_ppi_channel_enable_get, %function
sd_ppi_channel_enable_get:
.LFB147:
	.loc 1 624 120
	@ Naked Function: prologue and epilogue provided by programmer.
	@ args = 0, pretend = 0, frame = 0
	@ frame_needed = 0, uses_anonymous_args = 0
	.loc 1 624 122
	.syntax unified
@ 624 "../../../../../../components/softdevice/s132/headers/nrf_soc.h" 1
	svc #32
bx r14
@ 0 "" 2
	.loc 1 624 2
	.thumb
	.syntax unified
	nop
	mov	r0, r3
.LFE147:
	.size	sd_ppi_channel_enable_get, .-sd_ppi_channel_enable_get
	.section	.text.sd_ppi_channel_enable_set,"ax",%progbits
	.align	1
	.syntax unified
	.thumb
	.thumb_func
	.fpu fpv4-sp-d16
	.type	sd_ppi_channel_enable_set, %function
sd_ppi_channel_enable_set:
.LFB148:
	.loc 1 632 124
	@ Naked Function: prologue and epilogue provided by programmer.
	@ args = 0, pretend = 0, frame = 0
	@ frame_needed = 0, uses_anonymous_args = 0
	.loc 1 632 126
	.syntax unified
@ 632 "../../../../../../components/softdevice/s132/headers/nrf_soc.h" 1
	svc #33
bx r14
@ 0 "" 2
	.loc 1 632 2
	.thumb
	.syntax unified
	nop
	mov	r0, r3
.LFE148:
	.size	sd_ppi_channel_enable_set, .-sd_ppi_channel_enable_set
	.section	.text.sd_ppi_channel_enable_clr,"ax",%progbits
	.align	1
	.syntax unified
	.thumb
	.thumb_func
	.fpu fpv4-sp-d16
	.type	sd_ppi_channel_enable_clr, %function
sd_ppi_channel_enable_clr:
.LFB149:
	.loc 1 640 124
	@ Naked Function: prologue and epilogue provided by programmer.
	@ args = 0, pretend = 0, frame = 0
	@ frame_needed = 0, uses_anonymous_args = 0
	.loc 1 640 126
	.syntax unified
@ 640 "../../../../../../components/softdevice/s132/headers/nrf_soc.h" 1
	svc #34
bx r14
@ 0 "" 2
	.loc 1 640 2
	.thumb
	.syntax unified
	nop
	mov	r0, r3
.LFE149:
	.size	sd_ppi_channel_enable_clr, .-sd_ppi_channel_enable_clr
	.section	.text.sd_ppi_channel_assign,"ax",%progbits
	.align	1
	.syntax unified
	.thumb
	.thumb_func
	.fpu fpv4-sp-d16
	.type	sd_ppi_channel_assign, %function
sd_ppi_channel_assign:
.LFB150:
	.loc 1 651 181
	@ Naked Function: prologue and epilogue provided by programmer.
	@ args = 0, pretend = 0, frame = 0
	@ frame_needed = 0, uses_anonymous_args = 0
	.loc 1 651 183
	.syntax unified
@ 651 "../../../../../../components/softdevice/s132/headers/nrf_soc.h" 1
	svc #35
bx r14
@ 0 "" 2
	.loc 1 651 2
	.thumb
	.syntax unified
	nop
	mov	r0, r3
.LFE150:
	.size	sd_ppi_channel_assign, .-sd_ppi_channel_assign
	.section	.text.sd_ppi_group_task_enable,"ax",%progbits
	.align	1
	.syntax unified
	.thumb
	.thumb_func
	.fpu fpv4-sp-d16
	.type	sd_ppi_group_task_enable, %function
sd_ppi_group_task_enable:
.LFB151:
	.loc 1 660 109
	@ Naked Function: prologue and epilogue provided by programmer.
	@ args = 0, pretend = 0, frame = 0
	@ frame_needed = 0, uses_anonymous_args = 0
	.loc 1 660 111
	.syntax unified
@ 660 "../../../../../../components/softdevice/s132/headers/nrf_soc.h" 1
	svc #36
bx r14
@ 0 "" 2
	.loc 1 660 2
	.thumb
	.syntax unified
	nop
	mov	r0, r3
.LFE151:
	.size	sd_ppi_group_task_enable, .-sd_ppi_group_task_enable
	.section	.text.sd_ppi_group_task_disable,"ax",%progbits
	.align	1
	.syntax unified
	.thumb
	.thumb_func
	.fpu fpv4-sp-d16
	.type	sd_ppi_group_task_disable, %function
sd_ppi_group_task_disable:
.LFB152:
	.loc 1 669 110
	@ Naked Function: prologue and epilogue provided by programmer.
	@ args = 0, pretend = 0, frame = 0
	@ frame_needed = 0, uses_anonymous_args = 0
	.loc 1 669 112
	.syntax unified
@ 669 "../../../../../../components/softdevice/s132/headers/nrf_soc.h" 1
	svc #37
bx r14
@ 0 "" 2
	.loc 1 669 2
	.thumb
	.syntax unified
	nop
	mov	r0, r3
.LFE152:
	.size	sd_ppi_group_task_disable, .-sd_ppi_group_task_disable
	.section	.text.sd_ppi_group_assign,"ax",%progbits
	.align	1
	.syntax unified
	.thumb
	.thumb_func
	.fpu fpv4-sp-d16
	.type	sd_ppi_group_assign, %function
sd_ppi_group_assign:
.LFB153:
	.loc 1 679 126
	@ Naked Function: prologue and epilogue provided by programmer.
	@ args = 0, pretend = 0, frame = 0
	@ frame_needed = 0, uses_anonymous_args = 0
	.loc 1 679 128
	.syntax unified
@ 679 "../../../../../../components/softdevice/s132/headers/nrf_soc.h" 1
	svc #38
bx r14
@ 0 "" 2
	.loc 1 679 2
	.thumb
	.syntax unified
	nop
	mov	r0, r3
.LFE153:
	.size	sd_ppi_group_assign, .-sd_ppi_group_assign
	.section	.text.sd_ppi_group_get,"ax",%progbits
	.align	1
	.syntax unified
	.thumb
	.thumb_func
	.fpu fpv4-sp-d16
	.type	sd_ppi_group_get, %function
sd_ppi_group_get:
.LFB154:
	.loc 1 689 127
	@ Naked Function: prologue and epilogue provided by programmer.
	@ args = 0, pretend = 0, frame = 0
	@ frame_needed = 0, uses_anonymous_args = 0
	.loc 1 689 129
	.syntax unified
@ 689 "../../../../../../components/softdevice/s132/headers/nrf_soc.h" 1
	svc #39
bx r14
@ 0 "" 2
	.loc 1 689 2
	.thumb
	.syntax unified
	nop
	mov	r0, r3
.LFE154:
	.size	sd_ppi_group_get, .-sd_ppi_group_get
	.section	.text.sd_radio_notification_cfg_set,"ax",%progbits
	.align	1
	.syntax unified
	.thumb
	.thumb_func
	.fpu fpv4-sp-d16
	.type	sd_radio_notification_cfg_set, %function
sd_radio_notification_cfg_set:
.LFB155:
	.loc 1 720 127
	@ Naked Function: prologue and epilogue provided by programmer.
	@ args = 0, pretend = 0, frame = 0
	@ frame_needed = 0, uses_anonymous_args = 0
	.loc 1 720 129
	.syntax unified
@ 720 "../../../../../../components/softdevice/s132/headers/nrf_soc.h" 1
	svc #69
bx r14
@ 0 "" 2
	.loc 1 720 2
	.thumb
	.syntax unified
	nop
	mov	r0, r3
.LFE155:
	.size	sd_radio_notification_cfg_set, .-sd_radio_notification_cfg_set
	.section	.text.sd_ecb_block_encrypt,"ax",%progbits
	.align	1
	.syntax unified
	.thumb
	.thumb_func
	.fpu fpv4-sp-d16
	.type	sd_ecb_block_encrypt, %function
sd_ecb_block_encrypt:
.LFB156:
	.loc 1 736 119
	@ Naked Function: prologue and epilogue provided by programmer.
	@ args = 0, pretend = 0, frame = 0
	@ frame_needed = 0, uses_anonymous_args = 0
	.loc 1 736 121
	.syntax unified
@ 736 "../../../../../../components/softdevice/s132/headers/nrf_soc.h" 1
	svc #70
bx r14
@ 0 "" 2
	.loc 1 736 2
	.thumb
	.syntax unified
	nop
	mov	r0, r3
.LFE156:
	.size	sd_ecb_block_encrypt, .-sd_ecb_block_encrypt
	.section	.text.sd_ecb_blocks_encrypt,"ax",%progbits
	.align	1
	.syntax unified
	.thumb
	.thumb_func
	.fpu fpv4-sp-d16
	.type	sd_ecb_blocks_encrypt, %function
sd_ecb_blocks_encrypt:
.LFB157:
	.loc 1 753 150
	@ Naked Function: prologue and epilogue provided by programmer.
	@ args = 0, pretend = 0, frame = 0
	@ frame_needed = 0, uses_anonymous_args = 0
	.loc 1 753 152
	.syntax unified
@ 753 "../../../../../../components/softdevice/s132/headers/nrf_soc.h" 1
	svc #71
bx r14
@ 0 "" 2
	.loc 1 753 2
	.thumb
	.syntax unified
	nop
	mov	r0, r3
.LFE157:
	.size	sd_ecb_blocks_encrypt, .-sd_ecb_blocks_encrypt
	.section	.text.sd_evt_get,"ax",%progbits
	.align	1
	.syntax unified
	.thumb
	.thumb_func
	.fpu fpv4-sp-d16
	.type	sd_evt_get, %function
sd_evt_get:
.LFB158:
	.loc 1 764 97
	@ Naked Function: prologue and epilogue provided by programmer.
	@ args = 0, pretend = 0, frame = 0
	@ frame_needed = 0, uses_anonymous_args = 0
	.loc 1 764 99
	.syntax unified
@ 764 "../../../../../../components/softdevice/s132/headers/nrf_soc.h" 1
	svc #75
bx r14
@ 0 "" 2
	.loc 1 764 2
	.thumb
	.syntax unified
	nop
	mov	r0, r3
.LFE158:
	.size	sd_evt_get, .-sd_evt_get
	.section	.text.sd_temp_get,"ax",%progbits
	.align	1
	.syntax unified
	.thumb
	.thumb_func
	.fpu fpv4-sp-d16
	.type	sd_temp_get, %function
sd_temp_get:
.LFB159:
	.loc 1 775 95
	@ Naked Function: prologue and epilogue provided by programmer.
	@ args = 0, pretend = 0, frame = 0
	@ frame_needed = 0, uses_anonymous_args = 0
	.loc 1 775 97
	.syntax unified
@ 775 "../../../../../../components/softdevice/s132/headers/nrf_soc.h" 1
	svc #76
bx r14
@ 0 "" 2
	.loc 1 775 2
	.thumb
	.syntax unified
	nop
	mov	r0, r3
.LFE159:
	.size	sd_temp_get, .-sd_temp_get
	.section	.text.sd_flash_write,"ax",%progbits
	.align	1
	.syntax unified
	.thumb
	.thumb_func
	.fpu fpv4-sp-d16
	.type	sd_flash_write, %function
sd_flash_write:
.LFB160:
	.loc 1 812 137
	@ Naked Function: prologue and epilogue provided by programmer.
	@ args = 0, pretend = 0, frame = 0
	@ frame_needed = 0, uses_anonymous_args = 0
	.loc 1 812 139
	.syntax unified
@ 812 "../../../../../../components/softdevice/s132/headers/nrf_soc.h" 1
	svc #41
bx r14
@ 0 "" 2
	.loc 1 812 2
	.thumb
	.syntax unified
	nop
	mov	r0, r3
.LFE160:
	.size	sd_flash_write, .-sd_flash_write
	.section	.text.sd_flash_page_erase,"ax",%progbits
	.align	1
	.syntax unified
	.thumb
	.thumb_func
	.fpu fpv4-sp-d16
	.type	sd_flash_page_erase, %function
sd_flash_page_erase:
.LFB161:
	.loc 1 844 107
	@ Naked Function: prologue and epilogue provided by programmer.
	@ args = 0, pretend = 0, frame = 0
	@ frame_needed = 0, uses_anonymous_args = 0
	.loc 1 844 109
	.syntax unified
@ 844 "../../../../../../components/softdevice/s132/headers/nrf_soc.h" 1
	svc #40
bx r14
@ 0 "" 2
	.loc 1 844 2
	.thumb
	.syntax unified
	nop
	mov	r0, r3
.LFE161:
	.size	sd_flash_page_erase, .-sd_flash_page_erase
	.section	.text.sd_flash_protect,"ax",%progbits
	.align	1
	.syntax unified
	.thumb
	.thumb_func
	.fpu fpv4-sp-d16
	.type	sd_flash_protect, %function
sd_flash_protect:
.LFB162:
	.loc 1 867 166
	@ Naked Function: prologue and epilogue provided by programmer.
	@ args = 0, pretend = 0, frame = 0
	@ frame_needed = 0, uses_anonymous_args = 0
	.loc 1 867 168
	.syntax unified
@ 867 "../../../../../../components/softdevice/s132/headers/nrf_soc.h" 1
	svc #42
bx r14
@ 0 "" 2
	.loc 1 867 2
	.thumb
	.syntax unified
	nop
	mov	r0, r3
.LFE162:
	.size	sd_flash_protect, .-sd_flash_protect
	.section	.text.sd_radio_session_open,"ax",%progbits
	.align	1
	.syntax unified
	.thumb
	.thumb_func
	.fpu fpv4-sp-d16
	.type	sd_radio_session_open, %function
sd_radio_session_open:
.LFB163:
	.loc 1 889 140
	@ Naked Function: prologue and epilogue provided by programmer.
	@ args = 0, pretend = 0, frame = 0
	@ frame_needed = 0, uses_anonymous_args = 0
	.loc 1 889 142
	.syntax unified
@ 889 "../../../../../../components/softdevice/s132/headers/nrf_soc.h" 1
	svc #72
bx r14
@ 0 "" 2
	.loc 1 889 2
	.thumb
	.syntax unified
	nop
	mov	r0, r3
.LFE163:
	.size	sd_radio_session_open, .-sd_radio_session_open
	.section	.text.sd_radio_session_close,"ax",%progbits
	.align	1
	.syntax unified
	.thumb
	.thumb_func
	.fpu fpv4-sp-d16
	.type	sd_radio_session_close, %function
sd_radio_session_close:
.LFB164:
	.loc 1 902 94
	@ Naked Function: prologue and epilogue provided by programmer.
	@ args = 0, pretend = 0, frame = 0
	@ frame_needed = 0, uses_anonymous_args = 0
	.loc 1 902 96
	.syntax unified
@ 902 "../../../../../../components/softdevice/s132/headers/nrf_soc.h" 1
	svc #73
bx r14
@ 0 "" 2
	.loc 1 902 2
	.thumb
	.syntax unified
	nop
	mov	r0, r3
.LFE164:
	.size	sd_radio_session_close, .-sd_radio_session_close
	.section	.text.sd_radio_request,"ax",%progbits
	.align	1
	.syntax unified
	.thumb
	.thumb_func
	.fpu fpv4-sp-d16
	.type	sd_radio_request, %function
sd_radio_request:
.LFB165:
	.loc 1 934 121
	@ Naked Function: prologue and epilogue provided by programmer.
	@ args = 0, pretend = 0, frame = 0
	@ frame_needed = 0, uses_anonymous_args = 0
	.loc 1 934 123
	.syntax unified
@ 934 "../../../../../../components/softdevice/s132/headers/nrf_soc.h" 1
	svc #74
bx r14
@ 0 "" 2
	.loc 1 934 2
	.thumb
	.syntax unified
	nop
	mov	r0, r3
.LFE165:
	.size	sd_radio_request, .-sd_radio_request
	.section	.text.sd_protected_register_write,"ax",%progbits
	.align	1
	.syntax unified
	.thumb
	.thumb_func
	.fpu fpv4-sp-d16
	.type	sd_protected_register_write, %function
sd_protected_register_write:
.LFB166:
	.loc 1 955 141
	@ Naked Function: prologue and epilogue provided by programmer.
	@ args = 0, pretend = 0, frame = 0
	@ frame_needed = 0, uses_anonymous_args = 0
	.loc 1 955 143
	.syntax unified
@ 955 "../../../../../../components/softdevice/s132/headers/nrf_soc.h" 1
	svc #43
bx r14
@ 0 "" 2
	.loc 1 955 2
	.thumb
	.syntax unified
	nop
	mov	r0, r3
.LFE166:
	.size	sd_protected_register_write, .-sd_protected_register_write
	.section	.text.ulPortRaiseBASEPRI,"ax",%progbits
	.align	1
	.syntax unified
	.thumb
	.thumb_func
	.fpu fpv4-sp-d16
	.type	ulPortRaiseBASEPRI, %function
ulPortRaiseBASEPRI:
.LFB199:
	.file 2 "../../../../../../external/freertos/portable/CMSIS/nrf52/portmacro_cmsis.h"
	.loc 2 173 1
	@ args = 0, pretend = 0, frame = 16
	@ frame_needed = 0, uses_anonymous_args = 0
	@ link register save eliminated.
	sub	sp, sp, #16
.LCFI0:
.LBB92:
.LBB93:
	.file 3 "../../../../../../components/toolchain/cmsis/include/cmsis_gcc.h"
	.loc 3 252 3
	.syntax unified
@ 252 "../../../../../../components/toolchain/cmsis/include/cmsis_gcc.h" 1
	MRS r3, basepri
@ 0 "" 2
	.thumb
	.syntax unified
	str	r3, [sp, #4]
	.loc 3 253 9
	ldr	r3, [sp, #4]
.LBE93:
.LBE92:
	.loc 2 174 34
	str	r3, [sp, #12]
	movs	r3, #64
	str	r3, [sp, #8]
.LBB94:
.LBB95:
	.loc 3 264 3
	ldr	r3, [sp, #8]
	.syntax unified
@ 264 "../../../../../../components/toolchain/cmsis/include/cmsis_gcc.h" 1
	MSR basepri, r3
@ 0 "" 2
	.loc 3 265 1
	.thumb
	.syntax unified
	nop
.LBE95:
.LBE94:
	.loc 2 176 12
	ldr	r3, [sp, #12]
	.loc 2 177 1
	mov	r0, r3
	add	sp, sp, #16
.LCFI1:
	@ sp needed
	bx	lr
.LFE199:
	.size	ulPortRaiseBASEPRI, .-ulPortRaiseBASEPRI
	.global	pxCurrentTCB
	.section	.bss.pxCurrentTCB,"aw",%nobits
	.align	2
	.type	pxCurrentTCB, %object
	.size	pxCurrentTCB, 4
pxCurrentTCB:
	.space	4
	.section	.bss.pxReadyTasksLists,"aw",%nobits
	.align	2
	.type	pxReadyTasksLists, %object
	.size	pxReadyTasksLists, 140
pxReadyTasksLists:
	.space	140
	.section	.bss.xDelayedTaskList1,"aw",%nobits
	.align	2
	.type	xDelayedTaskList1, %object
	.size	xDelayedTaskList1, 20
xDelayedTaskList1:
	.space	20
	.section	.bss.xDelayedTaskList2,"aw",%nobits
	.align	2
	.type	xDelayedTaskList2, %object
	.size	xDelayedTaskList2, 20
xDelayedTaskList2:
	.space	20
	.section	.bss.pxDelayedTaskList,"aw",%nobits
	.align	2
	.type	pxDelayedTaskList, %object
	.size	pxDelayedTaskList, 4
pxDelayedTaskList:
	.space	4
	.section	.bss.pxOverflowDelayedTaskList,"aw",%nobits
	.align	2
	.type	pxOverflowDelayedTaskList, %object
	.size	pxOverflowDelayedTaskList, 4
pxOverflowDelayedTaskList:
	.space	4
	.section	.bss.xPendingReadyList,"aw",%nobits
	.align	2
	.type	xPendingReadyList, %object
	.size	xPendingReadyList, 20
xPendingReadyList:
	.space	20
	.section	.bss.xTasksWaitingTermination,"aw",%nobits
	.align	2
	.type	xTasksWaitingTermination, %object
	.size	xTasksWaitingTermination, 20
xTasksWaitingTermination:
	.space	20
	.section	.bss.uxDeletedTasksWaitingCleanUp,"aw",%nobits
	.align	2
	.type	uxDeletedTasksWaitingCleanUp, %object
	.size	uxDeletedTasksWaitingCleanUp, 4
uxDeletedTasksWaitingCleanUp:
	.space	4
	.section	.bss.xSuspendedTaskList,"aw",%nobits
	.align	2
	.type	xSuspendedTaskList, %object
	.size	xSuspendedTaskList, 20
xSuspendedTaskList:
	.space	20
	.section	.bss.uxCurrentNumberOfTasks,"aw",%nobits
	.align	2
	.type	uxCurrentNumberOfTasks, %object
	.size	uxCurrentNumberOfTasks, 4
uxCurrentNumberOfTasks:
	.space	4
	.section	.bss.xTickCount,"aw",%nobits
	.align	2
	.type	xTickCount, %object
	.size	xTickCount, 4
xTickCount:
	.space	4
	.section	.bss.uxTopReadyPriority,"aw",%nobits
	.align	2
	.type	uxTopReadyPriority, %object
	.size	uxTopReadyPriority, 4
uxTopReadyPriority:
	.space	4
	.section	.bss.xSchedulerRunning,"aw",%nobits
	.align	2
	.type	xSchedulerRunning, %object
	.size	xSchedulerRunning, 4
xSchedulerRunning:
	.space	4
	.section	.bss.uxPendedTicks,"aw",%nobits
	.align	2
	.type	uxPendedTicks, %object
	.size	uxPendedTicks, 4
uxPendedTicks:
	.space	4
	.section	.bss.xYieldPending,"aw",%nobits
	.align	2
	.type	xYieldPending, %object
	.size	xYieldPending, 4
xYieldPending:
	.space	4
	.section	.bss.xNumOfOverflows,"aw",%nobits
	.align	2
	.type	xNumOfOverflows, %object
	.size	xNumOfOverflows, 4
xNumOfOverflows:
	.space	4
	.section	.bss.uxTaskNumber,"aw",%nobits
	.align	2
	.type	uxTaskNumber, %object
	.size	uxTaskNumber, 4
uxTaskNumber:
	.space	4
	.section	.bss.xNextTaskUnblockTime,"aw",%nobits
	.align	2
	.type	xNextTaskUnblockTime, %object
	.size	xNextTaskUnblockTime, 4
xNextTaskUnblockTime:
	.space	4
	.section	.bss.xIdleTaskHandle,"aw",%nobits
	.align	2
	.type	xIdleTaskHandle, %object
	.size	xIdleTaskHandle, 4
xIdleTaskHandle:
	.space	4
	.section	.bss.uxSchedulerSuspended,"aw",%nobits
	.align	2
	.type	uxSchedulerSuspended, %object
	.size	uxSchedulerSuspended, 4
uxSchedulerSuspended:
	.space	4
	.section	.text.xTaskCreate,"ax",%progbits
	.align	1
	.global	xTaskCreate
	.syntax unified
	.thumb
	.thumb_func
	.fpu fpv4-sp-d16
	.type	xTaskCreate, %function
xTaskCreate:
.LFB200:
	.file 4 "C:\\nRF5_SDK_15.0.0_a53641a\\external\\freertos\\source\\tasks.c"
	.loc 4 738 2
	@ args = 8, pretend = 0, frame = 32
	@ frame_needed = 0, uses_anonymous_args = 0
	push	{lr}
.LCFI2:
	sub	sp, sp, #52
.LCFI3:
	str	r0, [sp, #28]
	str	r1, [sp, #24]
	str	r3, [sp, #16]
	mov	r3, r2	@ movhi
	strh	r3, [sp, #22]	@ movhi
.LBB96:
	.loc 4 772 50
	ldrh	r3, [sp, #22]
	.loc 4 772 32
	lsls	r3, r3, #2
	mov	r0, r3
	bl	pvPortMalloc
	str	r0, [sp, #36]
	.loc 4 774 6
	ldr	r3, [sp, #36]
	cmp	r3, #0
	beq	.L48
	.loc 4 777 28
	movs	r0, #80
	bl	pvPortMalloc
	str	r0, [sp, #44]
	.loc 4 779 7
	ldr	r3, [sp, #44]
	cmp	r3, #0
	beq	.L49
	.loc 4 782 24
	ldr	r3, [sp, #44]
	ldr	r2, [sp, #36]
	str	r2, [r3, #48]
	b	.L50
.L49:
	.loc 4 788 6
	ldr	r0, [sp, #36]
	bl	vPortFree
	b	.L50
.L48:
	.loc 4 793 14
	movs	r3, #0
	str	r3, [sp, #44]
.L50:
.LBE96:
	.loc 4 798 5
	ldr	r3, [sp, #44]
	cmp	r3, #0
	beq	.L51
	.loc 4 808 4
	ldrh	r2, [sp, #22]
	movs	r3, #0
	str	r3, [sp, #12]
	ldr	r3, [sp, #44]
	str	r3, [sp, #8]
	ldr	r3, [sp, #60]
	str	r3, [sp, #4]
	ldr	r3, [sp, #56]
	str	r3, [sp]
	ldr	r3, [sp, #16]
	ldr	r1, [sp, #24]
	ldr	r0, [sp, #28]
	bl	prvInitialiseNewTask
	.loc 4 809 4
	ldr	r0, [sp, #44]
	bl	prvAddNewTaskToReadyList
	.loc 4 810 12
	movs	r3, #1
	str	r3, [sp, #40]
	b	.L52
.L51:
	.loc 4 814 12
	mov	r3, #-1
	str	r3, [sp, #40]
.L52:
	.loc 4 817 10
	ldr	r3, [sp, #40]
	.loc 4 818 2
	mov	r0, r3
	add	sp, sp, #52
.LCFI4:
	@ sp needed
	ldr	pc, [sp], #4
.LFE200:
	.size	xTaskCreate, .-xTaskCreate
	.section	.text.prvInitialiseNewTask,"ax",%progbits
	.align	1
	.syntax unified
	.thumb
	.thumb_func
	.fpu fpv4-sp-d16
	.type	prvInitialiseNewTask, %function
prvInitialiseNewTask:
.LFB201:
	.loc 4 831 1
	@ args = 16, pretend = 0, frame = 24
	@ frame_needed = 0, uses_anonymous_args = 0
	push	{lr}
.LCFI5:
	sub	sp, sp, #28
.LCFI6:
	str	r0, [sp, #12]
	str	r1, [sp, #8]
	str	r2, [sp, #4]
	str	r3, [sp]
	.loc 4 853 28
	ldr	r3, [sp, #40]
	ldr	r0, [r3, #48]
	.loc 4 853 12
	ldr	r3, [sp, #4]
	lsls	r3, r3, #2
	mov	r2, r3
	movs	r1, #165
	bl	memset
	.loc 4 863 26
	ldr	r3, [sp, #40]
	ldr	r2, [r3, #48]
	.loc 4 863 36
	ldr	r3, [sp, #4]
	add	r3, r3, #1073741824
	subs	r3, r3, #1
	lsls	r3, r3, #2
	.loc 4 863 16
	add	r3, r3, r2
	str	r3, [sp, #16]
	.loc 4 864 40
	ldr	r3, [sp, #16]
	.loc 4 864 68
	bic	r3, r3, #7
	.loc 4 864 16
	str	r3, [sp, #16]
	.loc 4 891 9
	movs	r3, #0
	str	r3, [sp, #20]
	.loc 4 891 2
	b	.L55
.L58:
	.loc 4 893 37
	ldr	r2, [sp, #8]
	ldr	r3, [sp, #20]
	add	r3, r3, r2
	ldrb	r1, [r3]	@ zero_extendqisi2
	.loc 4 893 29
	ldr	r2, [sp, #40]
	ldr	r3, [sp, #20]
	add	r3, r3, r2
	adds	r3, r3, #52
	mov	r2, r1
	strb	r2, [r3]
	.loc 4 898 13
	ldr	r2, [sp, #8]
	ldr	r3, [sp, #20]
	add	r3, r3, r2
	ldrb	r3, [r3]	@ zero_extendqisi2
	.loc 4 898 5
	cmp	r3, #0
	beq	.L61
	.loc 4 891 58 discriminator 2
	ldr	r3, [sp, #20]
	adds	r3, r3, #1
	str	r3, [sp, #20]
.L55:
	.loc 4 891 2 discriminator 1
	ldr	r3, [sp, #20]
	cmp	r3, #3
	bls	.L58
	b	.L57
.L61:
	.loc 4 900 4
	nop
.L57:
	.loc 4 910 36
	ldr	r3, [sp, #40]
	movs	r2, #0
	strb	r2, [r3, #55]
	.loc 4 914 4
	ldr	r3, [sp, #32]
	cmp	r3, #6
	bls	.L59
	.loc 4 916 14
	movs	r3, #6
	str	r3, [sp, #32]
.L59:
	.loc 4 923 23
	ldr	r3, [sp, #40]
	ldr	r2, [sp, #32]
	str	r2, [r3, #44]
	.loc 4 926 28
	ldr	r3, [sp, #40]
	ldr	r2, [sp, #32]
	str	r2, [r3, #64]
	.loc 4 927 27
	ldr	r3, [sp, #40]
	movs	r2, #0
	str	r2, [r3, #68]
	.loc 4 931 2
	ldr	r3, [sp, #40]
	adds	r3, r3, #4
	mov	r0, r3
	bl	vListInitialiseItem
	.loc 4 932 2
	ldr	r3, [sp, #40]
	adds	r3, r3, #24
	mov	r0, r3
	bl	vListInitialiseItem
	.loc 4 936 47
	ldr	r3, [sp, #40]
	ldr	r2, [sp, #40]
	str	r2, [r3, #16]
	.loc 4 939 75
	ldr	r3, [sp, #32]
	rsb	r2, r3, #7
	.loc 4 939 50
	ldr	r3, [sp, #40]
	str	r2, [r3, #24]
	.loc 4 940 47
	ldr	r3, [sp, #40]
	ldr	r2, [sp, #40]
	str	r2, [r3, #36]
	.loc 4 982 29
	ldr	r3, [sp, #40]
	movs	r2, #0
	str	r2, [r3, #72]
	.loc 4 983 27
	ldr	r3, [sp, #40]
	movs	r2, #0
	strb	r2, [r3, #76]
	.loc 4 1010 28
	ldr	r2, [sp]
	ldr	r1, [sp, #12]
	ldr	r0, [sp, #16]
	bl	pxPortInitialiseStack
	mov	r2, r0
	.loc 4 1010 26
	ldr	r3, [sp, #40]
	str	r2, [r3]
	.loc 4 1014 4
	ldr	r3, [sp, #36]
	cmp	r3, #0
	beq	.L62
	.loc 4 1018 18
	ldr	r3, [sp, #36]
	ldr	r2, [sp, #40]
	str	r2, [r3]
.L62:
	.loc 4 1024 1
	nop
	add	sp, sp, #28
.LCFI7:
	@ sp needed
	ldr	pc, [sp], #4
.LFE201:
	.size	prvInitialiseNewTask, .-prvInitialiseNewTask
	.section	.text.prvAddNewTaskToReadyList,"ax",%progbits
	.align	1
	.syntax unified
	.thumb
	.thumb_func
	.fpu fpv4-sp-d16
	.type	prvAddNewTaskToReadyList, %function
prvAddNewTaskToReadyList:
.LFB202:
	.loc 4 1028 1
	@ args = 0, pretend = 0, frame = 8
	@ frame_needed = 0, uses_anonymous_args = 0
	push	{r4, r5, lr}
.LCFI8:
	sub	sp, sp, #20
.LCFI9:
	str	r0, [sp, #12]
	.loc 4 1031 2
	bl	vPortEnterCritical
	.loc 4 1033 25
	ldr	r3, .L69
	ldr	r3, [r3]
	adds	r3, r3, #1
	ldr	r2, .L69
	str	r3, [r2]
	.loc 4 1034 20
	ldr	r3, .L69+4
	ldr	r3, [r3]
	.loc 4 1034 5
	cmp	r3, #0
	bne	.L64
	.loc 4 1038 17
	ldr	r2, .L69+4
	ldr	r3, [sp, #12]
	str	r3, [r2]
	.loc 4 1040 31
	ldr	r3, .L69
	ldr	r3, [r3]
	.loc 4 1040 6
	cmp	r3, #1
	bne	.L65
	.loc 4 1045 5
	bl	prvInitialiseTaskLists
	b	.L65
.L64:
	.loc 4 1057 26
	ldr	r3, .L69+8
	ldr	r3, [r3]
	.loc 4 1057 6
	cmp	r3, #0
	bne	.L65
	.loc 4 1059 21
	ldr	r3, .L69+4
	ldr	r3, [r3]
	ldr	r2, [r3, #44]
	.loc 4 1059 45
	ldr	r3, [sp, #12]
	ldr	r3, [r3, #44]
	.loc 4 1059 7
	cmp	r2, r3
	bhi	.L65
	.loc 4 1061 19
	ldr	r2, .L69+4
	ldr	r3, [sp, #12]
	str	r3, [r2]
.L65:
	.loc 4 1074 15
	ldr	r3, .L69+12
	ldr	r3, [r3]
	adds	r3, r3, #1
	ldr	r2, .L69+12
	str	r3, [r2]
	.loc 4 1079 26
	ldr	r3, .L69+12
	ldr	r2, [r3]
	ldr	r3, [sp, #12]
	str	r2, [r3, #56]
	.loc 4 1082 6
	ldr	r3, [sp, #12]
	cmp	r3, #0
	beq	.L66
	.loc 4 1082 6 discriminator 1
	ldr	r3, [sp, #12]
	mov	r0, r3
	bl	SEGGER_SYSVIEW_OnTaskCreate
	.loc 4 1082 60 discriminator 1
	ldr	r0, [sp, #12]
	.loc 4 1082 101 discriminator 1
	ldr	r3, [sp, #12]
	add	r1, r3, #52
	.loc 4 1082 137 discriminator 1
	ldr	r3, [sp, #12]
	ldr	r2, [r3, #44]
	.loc 4 1082 174 discriminator 1
	ldr	r3, [sp, #12]
	ldr	r3, [r3, #48]
	.loc 4 1082 60 discriminator 1
	mov	r5, r3
	.loc 4 1082 209 discriminator 1
	ldr	r3, [sp, #12]
	ldr	r3, [r3]
	.loc 4 1082 186 discriminator 1
	mov	r4, r3
	.loc 4 1082 249 discriminator 1
	ldr	r3, [sp, #12]
	ldr	r3, [r3, #48]
	.loc 4 1082 224 discriminator 1
	subs	r3, r4, r3
	.loc 4 1082 60 discriminator 1
	str	r3, [sp]
	mov	r3, r5
	bl	SYSVIEW_AddTask
.L66:
	.loc 4 1084 3
	ldr	r3, [sp, #12]
	mov	r0, r3
	bl	SEGGER_SYSVIEW_OnTaskStartReady
	.loc 4 1084 110
	ldr	r3, [sp, #12]
	ldr	r3, [r3, #44]
	.loc 4 1084 93
	movs	r2, #1
	lsls	r2, r2, r3
	.loc 4 1084 84
	ldr	r3, .L69+16
	ldr	r3, [r3]
	orrs	r3, r3, r2
	ldr	r2, .L69+16
	str	r3, [r2]
	.loc 4 1084 178
	ldr	r3, [sp, #12]
	ldr	r2, [r3, #44]
	.loc 4 1084 128
	mov	r3, r2
	lsls	r3, r3, #2
	add	r3, r3, r2
	lsls	r3, r3, #2
	ldr	r2, .L69+20
	add	r2, r2, r3
	ldr	r3, [sp, #12]
	adds	r3, r3, #4
	mov	r1, r3
	mov	r0, r2
	bl	vListInsertEnd
	.loc 4 1088 2
	bl	vPortExitCritical
	.loc 4 1090 24
	ldr	r3, .L69+8
	ldr	r3, [r3]
	.loc 4 1090 4
	cmp	r3, #0
	beq	.L68
	.loc 4 1094 19
	ldr	r3, .L69+4
	ldr	r3, [r3]
	ldr	r2, [r3, #44]
	.loc 4 1094 42
	ldr	r3, [sp, #12]
	ldr	r3, [r3, #44]
	.loc 4 1094 5
	cmp	r2, r3
	bcs	.L68
	.loc 4 1096 52
	ldr	r3, .L69+24
	.loc 4 1096 59
	mov	r2, #268435456
	str	r2, [r3, #4]
.LBB97:
.LBB98:
	.loc 3 406 3
	.syntax unified
@ 406 "../../../../../../components/toolchain/cmsis/include/cmsis_gcc.h" 1
	sev
@ 0 "" 2
	.loc 3 407 1
	.thumb
	.syntax unified
	nop
.LBE98:
.LBE97:
.LBB99:
.LBB100:
	.loc 3 429 3
	.syntax unified
@ 429 "../../../../../../components/toolchain/cmsis/include/cmsis_gcc.h" 1
	dsb 0xF
@ 0 "" 2
	.loc 3 430 1
	.thumb
	.syntax unified
	nop
.LBE100:
.LBE99:
.LBB101:
.LBB102:
	.loc 3 418 3
	.syntax unified
@ 418 "../../../../../../components/toolchain/cmsis/include/cmsis_gcc.h" 1
	isb 0xF
@ 0 "" 2
	.loc 3 419 1
	.thumb
	.syntax unified
	nop
.L68:
.LBE102:
.LBE101:
	.loc 4 1107 1
	nop
	add	sp, sp, #20
.LCFI10:
	@ sp needed
	pop	{r4, r5, pc}
.L70:
	.align	2
.L69:
	.word	uxCurrentNumberOfTasks
	.word	pxCurrentTCB
	.word	xSchedulerRunning
	.word	uxTaskNumber
	.word	uxTopReadyPriority
	.word	pxReadyTasksLists
	.word	-536810240
.LFE202:
	.size	prvAddNewTaskToReadyList, .-prvAddNewTaskToReadyList
	.section	.text.vTaskDelete,"ax",%progbits
	.align	1
	.global	vTaskDelete
	.syntax unified
	.thumb
	.thumb_func
	.fpu fpv4-sp-d16
	.type	vTaskDelete, %function
vTaskDelete:
.LFB203:
	.loc 4 1113 2
	@ args = 0, pretend = 0, frame = 16
	@ frame_needed = 0, uses_anonymous_args = 0
	push	{lr}
.LCFI11:
	sub	sp, sp, #20
.LCFI12:
	str	r0, [sp, #4]
	.loc 4 1116 3
	bl	vPortEnterCritical
	.loc 4 1120 40
	ldr	r3, [sp, #4]
	cmp	r3, #0
	bne	.L72
	.loc 4 1120 40 is_stmt 0 discriminator 1
	ldr	r3, .L80
	ldr	r3, [r3]
	b	.L73
.L72:
	.loc 4 1120 40 discriminator 2
	ldr	r3, [sp, #4]
.L73:
	.loc 4 1120 10 is_stmt 1 discriminator 4
	str	r3, [sp, #12]
	.loc 4 1123 8 discriminator 4
	ldr	r3, [sp, #12]
	adds	r3, r3, #4
	mov	r0, r3
	bl	uxListRemove
	mov	r3, r0
	.loc 4 1123 6 discriminator 4
	cmp	r3, #0
	bne	.L74
	.loc 4 1125 44
	ldr	r3, [sp, #12]
	ldr	r2, [r3, #44]
	.loc 4 1125 64
	ldr	r1, .L80+4
	mov	r3, r2
	lsls	r3, r3, #2
	add	r3, r3, r2
	lsls	r3, r3, #2
	add	r3, r3, r1
	ldr	r3, [r3]
	.loc 4 1125 9
	cmp	r3, #0
	bne	.L74
	.loc 4 1125 158 discriminator 1
	ldr	r3, [sp, #12]
	ldr	r3, [r3, #44]
	.loc 4 1125 146 discriminator 1
	movs	r2, #1
	lsl	r3, r2, r3
	.loc 4 1125 139 discriminator 1
	mvns	r2, r3
	.loc 4 1125 136 discriminator 1
	ldr	r3, .L80+8
	ldr	r3, [r3]
	ands	r3, r3, r2
	ldr	r2, .L80+8
	str	r3, [r2]
.L74:
	.loc 4 1133 40
	ldr	r3, [sp, #12]
	ldr	r3, [r3, #40]
	.loc 4 1133 6
	cmp	r3, #0
	beq	.L75
	.loc 4 1135 14
	ldr	r3, [sp, #12]
	adds	r3, r3, #24
	mov	r0, r3
	bl	uxListRemove
.L75:
	.loc 4 1146 16
	ldr	r3, .L80+12
	ldr	r3, [r3]
	adds	r3, r3, #1
	ldr	r2, .L80+12
	str	r3, [r2]
	.loc 4 1148 14
	ldr	r3, .L80
	ldr	r3, [r3]
	.loc 4 1148 6
	ldr	r2, [sp, #12]
	cmp	r2, r3
	bne	.L76
	.loc 4 1155 5
	ldr	r3, [sp, #12]
	adds	r3, r3, #4
	mov	r1, r3
	ldr	r0, .L80+16
	bl	vListInsertEnd
	.loc 4 1160 5
	ldr	r3, .L80+20
	ldr	r3, [r3]
	adds	r3, r3, #1
	ldr	r2, .L80+20
	str	r3, [r2]
	b	.L77
.L76:
	.loc 4 1171 5
	ldr	r3, .L80+24
	ldr	r3, [r3]
	subs	r3, r3, #1
	ldr	r2, .L80+24
	str	r3, [r2]
	.loc 4 1172 5
	ldr	r0, [sp, #12]
	bl	prvDeleteTCB
	.loc 4 1176 5
	bl	prvResetNextTaskUnblockTime
.L77:
	.loc 4 1179 6
	ldr	r3, [sp, #12]
	mov	r0, r3
	bl	SEGGER_SYSVIEW_ShrinkId
	mov	r3, r0
	mov	r1, r3
	movs	r0, #34
	bl	SEGGER_SYSVIEW_RecordU32
	.loc 4 1179 93
	ldr	r3, [sp, #12]
	mov	r0, r3
	bl	SYSVIEW_DeleteTask
	.loc 4 1181 3
	bl	vPortExitCritical
	.loc 4 1185 25
	ldr	r3, .L80+28
	ldr	r3, [r3]
	.loc 4 1185 5
	cmp	r3, #0
	beq	.L79
	.loc 4 1187 14
	ldr	r3, .L80
	ldr	r3, [r3]
	.loc 4 1187 6
	ldr	r2, [sp, #12]
	cmp	r2, r3
	bne	.L79
	.loc 4 1190 53
	ldr	r3, .L80+32
	.loc 4 1190 60
	mov	r2, #268435456
	str	r2, [r3, #4]
.LBB103:
.LBB104:
	.loc 3 406 3
	.syntax unified
@ 406 "../../../../../../components/toolchain/cmsis/include/cmsis_gcc.h" 1
	sev
@ 0 "" 2
	.loc 3 407 1
	.thumb
	.syntax unified
	nop
.LBE104:
.LBE103:
.LBB105:
.LBB106:
	.loc 3 429 3
	.syntax unified
@ 429 "../../../../../../components/toolchain/cmsis/include/cmsis_gcc.h" 1
	dsb 0xF
@ 0 "" 2
	.loc 3 430 1
	.thumb
	.syntax unified
	nop
.LBE106:
.LBE105:
.LBB107:
.LBB108:
	.loc 3 418 3
	.syntax unified
@ 418 "../../../../../../components/toolchain/cmsis/include/cmsis_gcc.h" 1
	isb 0xF
@ 0 "" 2
	.loc 3 419 1
	.thumb
	.syntax unified
	nop
.L79:
.LBE108:
.LBE107:
	.loc 4 1197 2
	nop
	add	sp, sp, #20
.LCFI13:
	@ sp needed
	ldr	pc, [sp], #4
.L81:
	.align	2
.L80:
	.word	pxCurrentTCB
	.word	pxReadyTasksLists
	.word	uxTopReadyPriority
	.word	uxTaskNumber
	.word	xTasksWaitingTermination
	.word	uxDeletedTasksWaitingCleanUp
	.word	uxCurrentNumberOfTasks
	.word	xSchedulerRunning
	.word	-536810240
.LFE203:
	.size	vTaskDelete, .-vTaskDelete
	.section	.text.vTaskDelayUntil,"ax",%progbits
	.align	1
	.global	vTaskDelayUntil
	.syntax unified
	.thumb
	.thumb_func
	.fpu fpv4-sp-d16
	.type	vTaskDelayUntil, %function
vTaskDelayUntil:
.LFB204:
	.loc 4 1205 2
	@ args = 0, pretend = 0, frame = 24
	@ frame_needed = 0, uses_anonymous_args = 0
	push	{lr}
.LCFI14:
	sub	sp, sp, #28
.LCFI15:
	str	r0, [sp, #4]
	str	r1, [sp]
	.loc 4 1207 30
	movs	r3, #0
	str	r3, [sp, #20]
	.loc 4 1213 3
	bl	vTaskSuspendAll
.LBB109:
	.loc 4 1217 21
	ldr	r3, .L89
	ldr	r3, [r3]
	str	r3, [sp, #16]
	.loc 4 1220 18
	ldr	r3, [sp, #4]
	ldr	r3, [r3]
	.loc 4 1220 16
	ldr	r2, [sp]
	add	r3, r3, r2
	str	r3, [sp, #12]
	.loc 4 1222 26
	ldr	r3, [sp, #4]
	ldr	r3, [r3]
	.loc 4 1222 6
	ldr	r2, [sp, #16]
	cmp	r2, r3
	bcs	.L83
	.loc 4 1229 25
	ldr	r3, [sp, #4]
	ldr	r3, [r3]
	.loc 4 1229 7
	ldr	r2, [sp, #12]
	cmp	r2, r3
	bcs	.L84
	.loc 4 1229 47 discriminator 1
	ldr	r2, [sp, #12]
	ldr	r3, [sp, #16]
	cmp	r2, r3
	bls	.L84
	.loc 4 1231 19
	movs	r3, #1
	str	r3, [sp, #20]
	b	.L84
.L83:
	.loc 4 1243 25
	ldr	r3, [sp, #4]
	ldr	r3, [r3]
	.loc 4 1243 7
	ldr	r2, [sp, #12]
	cmp	r2, r3
	bcc	.L85
	.loc 4 1243 47 discriminator 1
	ldr	r2, [sp, #12]
	ldr	r3, [sp, #16]
	cmp	r2, r3
	bls	.L84
.L85:
	.loc 4 1245 19
	movs	r3, #1
	str	r3, [sp, #20]
.L84:
	.loc 4 1254 24
	ldr	r3, [sp, #4]
	ldr	r2, [sp, #12]
	str	r2, [r3]
	.loc 4 1256 6
	ldr	r3, [sp, #20]
	cmp	r3, #0
	beq	.L86
	.loc 4 1258 5
	movs	r0, #36
	bl	SEGGER_SYSVIEW_RecordVoid
	.loc 4 1262 5
	ldr	r2, [sp, #12]
	ldr	r3, [sp, #16]
	subs	r3, r2, r3
	movs	r1, #0
	mov	r0, r3
	bl	prvAddCurrentTaskToDelayedList
.L86:
.LBE109:
	.loc 4 1269 21
	bl	xTaskResumeAll
	str	r0, [sp, #8]
	.loc 4 1273 5
	ldr	r3, [sp, #8]
	cmp	r3, #0
	bne	.L88
	.loc 4 1275 52
	ldr	r3, .L89+4
	.loc 4 1275 59
	mov	r2, #268435456
	str	r2, [r3, #4]
.LBB110:
.LBB111:
	.loc 3 406 3
	.syntax unified
@ 406 "../../../../../../components/toolchain/cmsis/include/cmsis_gcc.h" 1
	sev
@ 0 "" 2
	.loc 3 407 1
	.thumb
	.syntax unified
	nop
.LBE111:
.LBE110:
.LBB112:
.LBB113:
	.loc 3 429 3
	.syntax unified
@ 429 "../../../../../../components/toolchain/cmsis/include/cmsis_gcc.h" 1
	dsb 0xF
@ 0 "" 2
	.loc 3 430 1
	.thumb
	.syntax unified
	nop
.LBE113:
.LBE112:
.LBB114:
.LBB115:
	.loc 3 418 3
	.syntax unified
@ 418 "../../../../../../components/toolchain/cmsis/include/cmsis_gcc.h" 1
	isb 0xF
@ 0 "" 2
	.loc 3 419 1
	.thumb
	.syntax unified
	nop
.L88:
.LBE115:
.LBE114:
	.loc 4 1281 2
	nop
	add	sp, sp, #28
.LCFI16:
	@ sp needed
	ldr	pc, [sp], #4
.L90:
	.align	2
.L89:
	.word	xTickCount
	.word	-536810240
.LFE204:
	.size	vTaskDelayUntil, .-vTaskDelayUntil
	.section	.text.vTaskDelay,"ax",%progbits
	.align	1
	.global	vTaskDelay
	.syntax unified
	.thumb
	.thumb_func
	.fpu fpv4-sp-d16
	.type	vTaskDelay, %function
vTaskDelay:
.LFB205:
	.loc 4 1289 2
	@ args = 0, pretend = 0, frame = 16
	@ frame_needed = 0, uses_anonymous_args = 0
	push	{lr}
.LCFI17:
	sub	sp, sp, #20
.LCFI18:
	str	r0, [sp, #4]
	.loc 4 1290 13
	movs	r3, #0
	str	r3, [sp, #12]
	.loc 4 1293 5
	ldr	r3, [sp, #4]
	cmp	r3, #0
	beq	.L92
	.loc 4 1296 4
	bl	vTaskSuspendAll
	.loc 4 1298 5
	ldr	r1, [sp, #4]
	movs	r0, #35
	bl	SEGGER_SYSVIEW_RecordU32
	.loc 4 1307 5
	movs	r1, #0
	ldr	r0, [sp, #4]
	bl	prvAddCurrentTaskToDelayedList
	.loc 4 1309 22
	bl	xTaskResumeAll
	str	r0, [sp, #12]
.L92:
	.loc 4 1318 5
	ldr	r3, [sp, #12]
	cmp	r3, #0
	bne	.L94
	.loc 4 1320 52
	ldr	r3, .L95
	.loc 4 1320 59
	mov	r2, #268435456
	str	r2, [r3, #4]
.LBB116:
.LBB117:
	.loc 3 406 3
	.syntax unified
@ 406 "../../../../../../components/toolchain/cmsis/include/cmsis_gcc.h" 1
	sev
@ 0 "" 2
	.loc 3 407 1
	.thumb
	.syntax unified
	nop
.LBE117:
.LBE116:
.LBB118:
.LBB119:
	.loc 3 429 3
	.syntax unified
@ 429 "../../../../../../components/toolchain/cmsis/include/cmsis_gcc.h" 1
	dsb 0xF
@ 0 "" 2
	.loc 3 430 1
	.thumb
	.syntax unified
	nop
.LBE119:
.LBE118:
.LBB120:
.LBB121:
	.loc 3 418 3
	.syntax unified
@ 418 "../../../../../../components/toolchain/cmsis/include/cmsis_gcc.h" 1
	isb 0xF
@ 0 "" 2
	.loc 3 419 1
	.thumb
	.syntax unified
	nop
.L94:
.LBE121:
.LBE120:
	.loc 4 1326 2
	nop
	add	sp, sp, #20
.LCFI19:
	@ sp needed
	ldr	pc, [sp], #4
.L96:
	.align	2
.L95:
	.word	-536810240
.LFE205:
	.size	vTaskDelay, .-vTaskDelay
	.section	.text.eTaskGetState,"ax",%progbits
	.align	1
	.global	eTaskGetState
	.syntax unified
	.thumb
	.thumb_func
	.fpu fpv4-sp-d16
	.type	eTaskGetState, %function
eTaskGetState:
.LFB206:
	.loc 4 1334 2
	@ args = 0, pretend = 0, frame = 24
	@ frame_needed = 0, uses_anonymous_args = 0
	push	{lr}
.LCFI20:
	sub	sp, sp, #28
.LCFI21:
	str	r0, [sp, #4]
	.loc 4 1337 22
	ldr	r3, [sp, #4]
	str	r3, [sp, #16]
	.loc 4 1341 13
	ldr	r3, .L107
	ldr	r3, [r3]
	.loc 4 1341 5
	ldr	r2, [sp, #16]
	cmp	r2, r3
	bne	.L98
	.loc 4 1344 12
	movs	r3, #0
	strb	r3, [sp, #23]
	b	.L99
.L98:
	.loc 4 1348 4
	bl	vPortEnterCritical
	.loc 4 1350 17
	ldr	r3, [sp, #16]
	ldr	r3, [r3, #20]
	str	r3, [sp, #12]
	.loc 4 1352 4
	bl	vPortExitCritical
	.loc 4 1354 22
	ldr	r3, .L107+4
	ldr	r3, [r3]
	.loc 4 1354 6
	ldr	r2, [sp, #12]
	cmp	r2, r3
	beq	.L100
	.loc 4 1354 62 discriminator 1
	ldr	r3, .L107+8
	ldr	r3, [r3]
	.loc 4 1354 45 discriminator 1
	ldr	r2, [sp, #12]
	cmp	r2, r3
	bne	.L101
.L100:
	.loc 4 1358 13
	movs	r3, #2
	strb	r3, [sp, #23]
	b	.L99
.L101:
	.loc 4 1362 12
	ldr	r3, [sp, #12]
	ldr	r2, .L107+12
	cmp	r3, r2
	bne	.L102
	.loc 4 1367 42
	ldr	r3, [sp, #16]
	ldr	r3, [r3, #40]
	.loc 4 1367 8
	cmp	r3, #0
	bne	.L103
	.loc 4 1369 15
	movs	r3, #3
	strb	r3, [sp, #23]
	b	.L99
.L103:
	.loc 4 1373 15
	movs	r3, #2
	strb	r3, [sp, #23]
	b	.L99
.L102:
	.loc 4 1379 12
	ldr	r3, [sp, #12]
	ldr	r2, .L107+16
	cmp	r3, r2
	beq	.L104
	.loc 4 1379 59 discriminator 1
	ldr	r3, [sp, #12]
	cmp	r3, #0
	bne	.L105
.L104:
	.loc 4 1384 14
	movs	r3, #4
	strb	r3, [sp, #23]
	b	.L99
.L105:
	.loc 4 1392 13
	movs	r3, #1
	strb	r3, [sp, #23]
.L99:
	.loc 4 1396 10
	ldrb	r3, [sp, #23]	@ zero_extendqisi2
	.loc 4 1397 2
	mov	r0, r3
	add	sp, sp, #28
.LCFI22:
	@ sp needed
	ldr	pc, [sp], #4
.L108:
	.align	2
.L107:
	.word	pxCurrentTCB
	.word	pxDelayedTaskList
	.word	pxOverflowDelayedTaskList
	.word	xSuspendedTaskList
	.word	xTasksWaitingTermination
.LFE206:
	.size	eTaskGetState, .-eTaskGetState
	.section	.text.uxTaskPriorityGet,"ax",%progbits
	.align	1
	.global	uxTaskPriorityGet
	.syntax unified
	.thumb
	.thumb_func
	.fpu fpv4-sp-d16
	.type	uxTaskPriorityGet, %function
uxTaskPriorityGet:
.LFB207:
	.loc 4 1405 2
	@ args = 0, pretend = 0, frame = 16
	@ frame_needed = 0, uses_anonymous_args = 0
	push	{lr}
.LCFI23:
	sub	sp, sp, #20
.LCFI24:
	str	r0, [sp, #4]
	.loc 4 1409 3
	bl	vPortEnterCritical
	.loc 4 1413 40
	ldr	r3, [sp, #4]
	cmp	r3, #0
	bne	.L110
	.loc 4 1413 40 is_stmt 0 discriminator 1
	ldr	r3, .L113
	ldr	r3, [r3]
	b	.L111
.L110:
	.loc 4 1413 40 discriminator 2
	ldr	r3, [sp, #4]
.L111:
	.loc 4 1413 10 is_stmt 1 discriminator 4
	str	r3, [sp, #12]
	.loc 4 1414 13 discriminator 4
	ldr	r3, [sp, #12]
	ldr	r3, [r3, #44]
	str	r3, [sp, #8]
	.loc 4 1416 3 discriminator 4
	bl	vPortExitCritical
	.loc 4 1418 10 discriminator 4
	ldr	r3, [sp, #8]
	.loc 4 1419 2 discriminator 4
	mov	r0, r3
	add	sp, sp, #20
.LCFI25:
	@ sp needed
	ldr	pc, [sp], #4
.L114:
	.align	2
.L113:
	.word	pxCurrentTCB
.LFE207:
	.size	uxTaskPriorityGet, .-uxTaskPriorityGet
	.section	.text.uxTaskPriorityGetFromISR,"ax",%progbits
	.align	1
	.global	uxTaskPriorityGetFromISR
	.syntax unified
	.thumb
	.thumb_func
	.fpu fpv4-sp-d16
	.type	uxTaskPriorityGetFromISR, %function
uxTaskPriorityGetFromISR:
.LFB208:
	.loc 4 1427 2
	@ args = 0, pretend = 0, frame = 24
	@ frame_needed = 0, uses_anonymous_args = 0
	push	{lr}
.LCFI26:
	sub	sp, sp, #28
.LCFI27:
	str	r0, [sp, #4]
	.loc 4 1449 27
	bl	ulPortRaiseBASEPRI
	str	r0, [sp, #20]
	.loc 4 1453 40
	ldr	r3, [sp, #4]
	cmp	r3, #0
	bne	.L116
	.loc 4 1453 40 is_stmt 0 discriminator 1
	ldr	r3, .L119
	ldr	r3, [r3]
	b	.L117
.L116:
	.loc 4 1453 40 discriminator 2
	ldr	r3, [sp, #4]
.L117:
	.loc 4 1453 10 is_stmt 1 discriminator 4
	str	r3, [sp, #16]
	.loc 4 1454 13 discriminator 4
	ldr	r3, [sp, #16]
	ldr	r3, [r3, #44]
	str	r3, [sp, #12]
	ldr	r3, [sp, #20]
	str	r3, [sp, #8]
.LBB122:
.LBB123:
	.loc 3 264 3 discriminator 4
	ldr	r3, [sp, #8]
	.syntax unified
@ 264 "../../../../../../components/toolchain/cmsis/include/cmsis_gcc.h" 1
	MSR basepri, r3
@ 0 "" 2
	.loc 3 265 1 discriminator 4
	.thumb
	.syntax unified
	nop
.LBE123:
.LBE122:
	.loc 4 1458 10 discriminator 4
	ldr	r3, [sp, #12]
	.loc 4 1459 2 discriminator 4
	mov	r0, r3
	add	sp, sp, #28
.LCFI28:
	@ sp needed
	ldr	pc, [sp], #4
.L120:
	.align	2
.L119:
	.word	pxCurrentTCB
.LFE208:
	.size	uxTaskPriorityGetFromISR, .-uxTaskPriorityGetFromISR
	.section	.text.vTaskPrioritySet,"ax",%progbits
	.align	1
	.global	vTaskPrioritySet
	.syntax unified
	.thumb
	.thumb_func
	.fpu fpv4-sp-d16
	.type	vTaskPrioritySet, %function
vTaskPrioritySet:
.LFB209:
	.loc 4 1467 2
	@ args = 0, pretend = 0, frame = 24
	@ frame_needed = 0, uses_anonymous_args = 0
	push	{lr}
.LCFI29:
	sub	sp, sp, #36
.LCFI30:
	str	r0, [sp, #12]
	str	r1, [sp, #8]
	.loc 4 1470 13
	movs	r3, #0
	str	r3, [sp, #28]
	.loc 4 1475 5
	ldr	r3, [sp, #8]
	cmp	r3, #6
	bls	.L122
	.loc 4 1477 18
	movs	r3, #6
	str	r3, [sp, #8]
.L122:
	.loc 4 1484 3
	bl	vPortEnterCritical
	.loc 4 1488 40
	ldr	r3, [sp, #12]
	cmp	r3, #0
	bne	.L123
	.loc 4 1488 40 is_stmt 0 discriminator 1
	ldr	r3, .L134
	ldr	r3, [r3]
	b	.L124
.L123:
	.loc 4 1488 40 discriminator 2
	ldr	r3, [sp, #12]
.L124:
	.loc 4 1488 10 is_stmt 1 discriminator 4
	str	r3, [sp, #24]
	.loc 4 1490 6 discriminator 4
	ldr	r3, [sp, #24]
	mov	r0, r3
	bl	SEGGER_SYSVIEW_ShrinkId
	mov	r3, r0
	ldr	r2, [sp, #8]
	mov	r1, r3
	movs	r0, #40
	bl	SEGGER_SYSVIEW_RecordU32x2
	.loc 4 1490 109 discriminator 4
	ldr	r0, [sp, #24]
	.loc 4 1490 150 discriminator 4
	ldr	r3, [sp, #24]
	add	r1, r3, #52
	.loc 4 1490 210 discriminator 4
	ldr	r3, [sp, #24]
	ldr	r3, [r3, #48]
	.loc 4 1490 109 discriminator 4
	mov	r2, r3
	movs	r3, #0
	str	r3, [sp]
	mov	r3, r2
	ldr	r2, [sp, #8]
	bl	SYSVIEW_UpdateTask
	.loc 4 1494 27 discriminator 4
	ldr	r3, [sp, #24]
	ldr	r3, [r3, #64]
	str	r3, [sp, #20]
	.loc 4 1502 6 discriminator 4
	ldr	r2, [sp, #20]
	ldr	r3, [sp, #8]
	cmp	r2, r3
	beq	.L125
	.loc 4 1506 7
	ldr	r2, [sp, #8]
	ldr	r3, [sp, #20]
	cmp	r2, r3
	bls	.L126
	.loc 4 1508 16
	ldr	r3, .L134
	ldr	r3, [r3]
	.loc 4 1508 8
	ldr	r2, [sp, #24]
	cmp	r2, r3
	beq	.L127
	.loc 4 1513 40
	ldr	r3, .L134
	ldr	r3, [r3]
	ldr	r3, [r3, #44]
	.loc 4 1513 9
	ldr	r2, [sp, #8]
	cmp	r2, r3
	bcc	.L127
	.loc 4 1515 23
	movs	r3, #1
	str	r3, [sp, #28]
	b	.L127
.L126:
	.loc 4 1529 20
	ldr	r3, .L134
	ldr	r3, [r3]
	.loc 4 1529 12
	ldr	r2, [sp, #24]
	cmp	r2, r3
	bne	.L127
	.loc 4 1534 21
	movs	r3, #1
	str	r3, [sp, #28]
.L127:
	.loc 4 1546 27
	ldr	r3, [sp, #24]
	ldr	r3, [r3, #44]
	str	r3, [sp, #16]
	.loc 4 1552 15
	ldr	r3, [sp, #24]
	ldr	r2, [r3, #64]
	.loc 4 1552 40
	ldr	r3, [sp, #24]
	ldr	r3, [r3, #44]
	.loc 4 1552 8
	cmp	r2, r3
	bne	.L128
	.loc 4 1554 25
	ldr	r3, [sp, #24]
	ldr	r2, [sp, #8]
	str	r2, [r3, #44]
.L128:
	.loc 4 1562 28
	ldr	r3, [sp, #24]
	ldr	r2, [sp, #8]
	str	r2, [r3, #64]
	.loc 4 1572 43
	ldr	r3, [sp, #24]
	ldr	r3, [r3, #24]
	.loc 4 1572 7
	cmp	r3, #0
	blt	.L129
	.loc 4 1574 78
	ldr	r3, [sp, #8]
	rsb	r2, r3, #7
	.loc 4 1574 51
	ldr	r3, [sp, #24]
	str	r2, [r3, #24]
.L129:
	.loc 4 1585 58
	ldr	r3, [sp, #24]
	ldr	r1, [r3, #20]
	.loc 4 1585 88
	ldr	r2, [sp, #16]
	mov	r3, r2
	lsls	r3, r3, #2
	add	r3, r3, r2
	lsls	r3, r3, #2
	ldr	r2, .L134+4
	add	r3, r3, r2
	.loc 4 1585 142
	cmp	r1, r3
	bne	.L130
	.loc 4 1585 142 is_stmt 0 discriminator 1
	movs	r3, #1
	b	.L131
.L130:
	.loc 4 1585 142 discriminator 2
	movs	r3, #0
.L131:
	.loc 4 1585 7 is_stmt 1 discriminator 4
	cmp	r3, #0
	beq	.L132
	.loc 4 1590 10
	ldr	r3, [sp, #24]
	adds	r3, r3, #4
	mov	r0, r3
	bl	uxListRemove
	mov	r3, r0
	.loc 4 1590 8
	cmp	r3, #0
	bne	.L133
	.loc 4 1595 40
	movs	r2, #1
	ldr	r3, [sp, #16]
	lsl	r3, r2, r3
	.loc 4 1595 33
	mvns	r2, r3
	.loc 4 1595 30
	ldr	r3, .L134+8
	ldr	r3, [r3]
	ands	r3, r3, r2
	ldr	r2, .L134+8
	str	r3, [r2]
.L133:
	.loc 4 1601 6
	ldr	r3, [sp, #24]
	mov	r0, r3
	bl	SEGGER_SYSVIEW_OnTaskStartReady
	.loc 4 1601 107
	ldr	r3, [sp, #24]
	ldr	r3, [r3, #44]
	.loc 4 1601 93
	movs	r2, #1
	lsls	r2, r2, r3
	.loc 4 1601 84
	ldr	r3, .L134+8
	ldr	r3, [r3]
	orrs	r3, r3, r2
	ldr	r2, .L134+8
	str	r3, [r2]
	.loc 4 1601 172
	ldr	r3, [sp, #24]
	ldr	r2, [r3, #44]
	.loc 4 1601 125
	mov	r3, r2
	lsls	r3, r3, #2
	add	r3, r3, r2
	lsls	r3, r3, #2
	ldr	r2, .L134+4
	add	r2, r2, r3
	ldr	r3, [sp, #24]
	adds	r3, r3, #4
	mov	r1, r3
	mov	r0, r2
	bl	vListInsertEnd
.L132:
	.loc 4 1608 7
	ldr	r3, [sp, #28]
	cmp	r3, #0
	beq	.L125
	.loc 4 1610 54
	ldr	r3, .L134+12
	.loc 4 1610 61
	mov	r2, #268435456
	str	r2, [r3, #4]
.LBB124:
.LBB125:
	.loc 3 406 3
	.syntax unified
@ 406 "../../../../../../components/toolchain/cmsis/include/cmsis_gcc.h" 1
	sev
@ 0 "" 2
	.loc 3 407 1
	.thumb
	.syntax unified
	nop
.LBE125:
.LBE124:
.LBB126:
.LBB127:
	.loc 3 429 3
	.syntax unified
@ 429 "../../../../../../components/toolchain/cmsis/include/cmsis_gcc.h" 1
	dsb 0xF
@ 0 "" 2
	.loc 3 430 1
	.thumb
	.syntax unified
	nop
.LBE127:
.LBE126:
.LBB128:
.LBB129:
	.loc 3 418 3
	.syntax unified
@ 418 "../../../../../../components/toolchain/cmsis/include/cmsis_gcc.h" 1
	isb 0xF
@ 0 "" 2
	.loc 3 419 1
	.thumb
	.syntax unified
	nop
.L125:
.LBE129:
.LBE128:
	.loc 4 1622 3
	bl	vPortExitCritical
	.loc 4 1623 2
	nop
	add	sp, sp, #36
.LCFI31:
	@ sp needed
	ldr	pc, [sp], #4
.L135:
	.align	2
.L134:
	.word	pxCurrentTCB
	.word	pxReadyTasksLists
	.word	uxTopReadyPriority
	.word	-536810240
.LFE209:
	.size	vTaskPrioritySet, .-vTaskPrioritySet
	.section	.text.vTaskSuspend,"ax",%progbits
	.align	1
	.global	vTaskSuspend
	.syntax unified
	.thumb
	.thumb_func
	.fpu fpv4-sp-d16
	.type	vTaskSuspend, %function
vTaskSuspend:
.LFB210:
	.loc 4 1631 2
	@ args = 0, pretend = 0, frame = 16
	@ frame_needed = 0, uses_anonymous_args = 0
	push	{lr}
.LCFI32:
	sub	sp, sp, #20
.LCFI33:
	str	r0, [sp, #4]
	.loc 4 1634 3
	bl	vPortEnterCritical
	.loc 4 1638 40
	ldr	r3, [sp, #4]
	cmp	r3, #0
	bne	.L137
	.loc 4 1638 40 is_stmt 0 discriminator 1
	ldr	r3, .L147
	ldr	r3, [r3]
	b	.L138
.L137:
	.loc 4 1638 40 discriminator 2
	ldr	r3, [sp, #4]
.L138:
	.loc 4 1638 10 is_stmt 1 discriminator 4
	str	r3, [sp, #12]
	.loc 4 1640 4 discriminator 4
	ldr	r3, [sp, #12]
	mov	r0, r3
	bl	SEGGER_SYSVIEW_ShrinkId
	mov	r3, r0
	mov	r1, r3
	movs	r0, #41
	bl	SEGGER_SYSVIEW_RecordU32
	.loc 4 1644 8 discriminator 4
	ldr	r3, [sp, #12]
	adds	r3, r3, #4
	mov	r0, r3
	bl	uxListRemove
	mov	r3, r0
	.loc 4 1644 6 discriminator 4
	cmp	r3, #0
	bne	.L139
	.loc 4 1646 44
	ldr	r3, [sp, #12]
	ldr	r2, [r3, #44]
	.loc 4 1646 64
	ldr	r1, .L147+4
	mov	r3, r2
	lsls	r3, r3, #2
	add	r3, r3, r2
	lsls	r3, r3, #2
	add	r3, r3, r1
	ldr	r3, [r3]
	.loc 4 1646 9
	cmp	r3, #0
	bne	.L139
	.loc 4 1646 158 discriminator 1
	ldr	r3, [sp, #12]
	ldr	r3, [r3, #44]
	.loc 4 1646 146 discriminator 1
	movs	r2, #1
	lsl	r3, r2, r3
	.loc 4 1646 139 discriminator 1
	mvns	r2, r3
	.loc 4 1646 136 discriminator 1
	ldr	r3, .L147+8
	ldr	r3, [r3]
	ands	r3, r3, r2
	ldr	r2, .L147+8
	str	r3, [r2]
.L139:
	.loc 4 1654 40
	ldr	r3, [sp, #12]
	ldr	r3, [r3, #40]
	.loc 4 1654 6
	cmp	r3, #0
	beq	.L140
	.loc 4 1656 14
	ldr	r3, [sp, #12]
	adds	r3, r3, #24
	mov	r0, r3
	bl	uxListRemove
.L140:
	.loc 4 1663 4
	ldr	r3, [sp, #12]
	adds	r3, r3, #4
	mov	r1, r3
	ldr	r0, .L147+12
	bl	vListInsertEnd
	.loc 4 1667 14
	ldr	r3, [sp, #12]
	ldrb	r3, [r3, #76]
	uxtb	r3, r3
	.loc 4 1667 7
	cmp	r3, #1
	bne	.L141
	.loc 4 1671 27
	ldr	r3, [sp, #12]
	movs	r2, #0
	strb	r2, [r3, #76]
.L141:
	.loc 4 1676 3
	bl	vPortExitCritical
	.loc 4 1678 25
	ldr	r3, .L147+16
	ldr	r3, [r3]
	.loc 4 1678 5
	cmp	r3, #0
	beq	.L142
	.loc 4 1682 4
	bl	vPortEnterCritical
	.loc 4 1684 5
	bl	prvResetNextTaskUnblockTime
	.loc 4 1686 4
	bl	vPortExitCritical
.L142:
	.loc 4 1693 13
	ldr	r3, .L147
	ldr	r3, [r3]
	.loc 4 1693 5
	ldr	r2, [sp, #12]
	cmp	r2, r3
	bne	.L146
	.loc 4 1695 26
	ldr	r3, .L147+16
	ldr	r3, [r3]
	.loc 4 1695 6
	cmp	r3, #0
	beq	.L144
	.loc 4 1699 53
	ldr	r3, .L147+20
	.loc 4 1699 60
	mov	r2, #268435456
	str	r2, [r3, #4]
.LBB130:
.LBB131:
	.loc 3 406 3
	.syntax unified
@ 406 "../../../../../../components/toolchain/cmsis/include/cmsis_gcc.h" 1
	sev
@ 0 "" 2
	.loc 3 407 1
	.thumb
	.syntax unified
	nop
.LBE131:
.LBE130:
.LBB132:
.LBB133:
	.loc 3 429 3
	.syntax unified
@ 429 "../../../../../../components/toolchain/cmsis/include/cmsis_gcc.h" 1
	dsb 0xF
@ 0 "" 2
	.loc 3 430 1
	.thumb
	.syntax unified
	nop
.LBE133:
.LBE132:
.LBB134:
.LBB135:
	.loc 3 418 3
	.syntax unified
@ 418 "../../../../../../components/toolchain/cmsis/include/cmsis_gcc.h" 1
	isb 0xF
@ 0 "" 2
	.loc 3 419 1
	.thumb
	.syntax unified
	nop
.LBE135:
.LBE134:
	.loc 4 1724 2
	b	.L146
.L144:
	.loc 4 1706 34
	ldr	r3, .L147+12
	ldr	r2, [r3]
	.loc 4 1706 54
	ldr	r3, .L147+24
	ldr	r3, [r3]
	.loc 4 1706 7
	cmp	r2, r3
	bne	.L145
	.loc 4 1712 19
	ldr	r3, .L147
	movs	r2, #0
	str	r2, [r3]
	.loc 4 1724 2
	b	.L146
.L145:
	.loc 4 1716 6
	bl	vTaskSwitchContext
.L146:
	.loc 4 1724 2
	nop
	add	sp, sp, #20
.LCFI34:
	@ sp needed
	ldr	pc, [sp], #4
.L148:
	.align	2
.L147:
	.word	pxCurrentTCB
	.word	pxReadyTasksLists
	.word	uxTopReadyPriority
	.word	xSuspendedTaskList
	.word	xSchedulerRunning
	.word	-536810240
	.word	uxCurrentNumberOfTasks
.LFE210:
	.size	vTaskSuspend, .-vTaskSuspend
	.section	.text.prvTaskIsTaskSuspended,"ax",%progbits
	.align	1
	.syntax unified
	.thumb
	.thumb_func
	.fpu fpv4-sp-d16
	.type	prvTaskIsTaskSuspended, %function
prvTaskIsTaskSuspended:
.LFB211:
	.loc 4 1732 2
	@ args = 0, pretend = 0, frame = 16
	@ frame_needed = 0, uses_anonymous_args = 0
	@ link register save eliminated.
	sub	sp, sp, #16
.LCFI35:
	str	r0, [sp, #4]
	.loc 4 1733 13
	movs	r3, #0
	str	r3, [sp, #12]
	.loc 4 1734 22
	ldr	r3, [sp, #4]
	str	r3, [sp, #8]
	.loc 4 1743 56
	ldr	r3, [sp, #8]
	ldr	r3, [r3, #20]
	.loc 4 1743 112
	ldr	r2, .L156
	cmp	r3, r2
	bne	.L150
	.loc 4 1743 112 is_stmt 0 discriminator 1
	movs	r3, #1
	b	.L151
.L150:
	.loc 4 1743 112 discriminator 2
	movs	r3, #0
.L151:
	.loc 4 1743 5 is_stmt 1 discriminator 4
	cmp	r3, #0
	beq	.L152
	.loc 4 1746 57
	ldr	r3, [sp, #8]
	ldr	r3, [r3, #40]
	.loc 4 1746 6
	ldr	r2, .L156+4
	cmp	r3, r2
	beq	.L152
	.loc 4 1750 58
	ldr	r3, [sp, #8]
	ldr	r3, [r3, #40]
	.loc 4 1750 14
	cmp	r3, #0
	bne	.L153
	.loc 4 1750 14 is_stmt 0 discriminator 1
	movs	r3, #1
	b	.L154
.L153:
	.loc 4 1750 14 discriminator 2
	movs	r3, #0
.L154:
	.loc 4 1750 7 is_stmt 1 discriminator 4
	cmp	r3, #0
	beq	.L152
	.loc 4 1752 14
	movs	r3, #1
	str	r3, [sp, #12]
.L152:
	.loc 4 1769 10
	ldr	r3, [sp, #12]
	.loc 4 1770 2
	mov	r0, r3
	add	sp, sp, #16
.LCFI36:
	@ sp needed
	bx	lr
.L157:
	.align	2
.L156:
	.word	xSuspendedTaskList
	.word	xPendingReadyList
.LFE211:
	.size	prvTaskIsTaskSuspended, .-prvTaskIsTaskSuspended
	.section	.text.vTaskResume,"ax",%progbits
	.align	1
	.global	vTaskResume
	.syntax unified
	.thumb
	.thumb_func
	.fpu fpv4-sp-d16
	.type	vTaskResume, %function
vTaskResume:
.LFB212:
	.loc 4 1778 2
	@ args = 0, pretend = 0, frame = 16
	@ frame_needed = 0, uses_anonymous_args = 0
	push	{lr}
.LCFI37:
	sub	sp, sp, #20
.LCFI38:
	str	r0, [sp, #4]
	.loc 4 1779 16
	ldr	r3, [sp, #4]
	str	r3, [sp, #12]
	.loc 4 1786 5
	ldr	r3, [sp, #12]
	cmp	r3, #0
	beq	.L161
	.loc 4 1786 35 discriminator 1
	ldr	r3, .L162
	ldr	r3, [r3]
	.loc 4 1786 24 discriminator 1
	ldr	r2, [sp, #12]
	cmp	r2, r3
	beq	.L161
	.loc 4 1788 4
	bl	vPortEnterCritical
	.loc 4 1790 9
	ldr	r0, [sp, #12]
	bl	prvTaskIsTaskSuspended
	mov	r3, r0
	.loc 4 1790 7
	cmp	r3, #0
	beq	.L160
	.loc 4 1792 6
	ldr	r3, [sp, #12]
	mov	r0, r3
	bl	SEGGER_SYSVIEW_ShrinkId
	mov	r3, r0
	mov	r1, r3
	movs	r0, #42
	bl	SEGGER_SYSVIEW_RecordU32
	.loc 4 1796 15
	ldr	r3, [sp, #12]
	adds	r3, r3, #4
	mov	r0, r3
	bl	uxListRemove
	.loc 4 1797 6
	ldr	r3, [sp, #12]
	mov	r0, r3
	bl	SEGGER_SYSVIEW_OnTaskStartReady
	.loc 4 1797 107
	ldr	r3, [sp, #12]
	ldr	r3, [r3, #44]
	.loc 4 1797 93
	movs	r2, #1
	lsls	r2, r2, r3
	.loc 4 1797 84
	ldr	r3, .L162+4
	ldr	r3, [r3]
	orrs	r3, r3, r2
	ldr	r2, .L162+4
	str	r3, [r2]
	.loc 4 1797 172
	ldr	r3, [sp, #12]
	ldr	r2, [r3, #44]
	.loc 4 1797 125
	mov	r3, r2
	lsls	r3, r3, #2
	add	r3, r3, r2
	lsls	r3, r3, #2
	ldr	r2, .L162+8
	add	r2, r2, r3
	ldr	r3, [sp, #12]
	adds	r3, r3, #4
	mov	r1, r3
	mov	r0, r2
	bl	vListInsertEnd
	.loc 4 1800 15
	ldr	r3, [sp, #12]
	ldr	r2, [r3, #44]
	.loc 4 1800 43
	ldr	r3, .L162
	ldr	r3, [r3]
	ldr	r3, [r3, #44]
	.loc 4 1800 8
	cmp	r2, r3
	bcc	.L160
	.loc 4 1805 55
	ldr	r3, .L162+12
	.loc 4 1805 62
	mov	r2, #268435456
	str	r2, [r3, #4]
.LBB136:
.LBB137:
	.loc 3 406 3
	.syntax unified
@ 406 "../../../../../../components/toolchain/cmsis/include/cmsis_gcc.h" 1
	sev
@ 0 "" 2
	.loc 3 407 1
	.thumb
	.syntax unified
	nop
.LBE137:
.LBE136:
.LBB138:
.LBB139:
	.loc 3 429 3
	.syntax unified
@ 429 "../../../../../../components/toolchain/cmsis/include/cmsis_gcc.h" 1
	dsb 0xF
@ 0 "" 2
	.loc 3 430 1
	.thumb
	.syntax unified
	nop
.LBE139:
.LBE138:
.LBB140:
.LBB141:
	.loc 3 418 3
	.syntax unified
@ 418 "../../../../../../components/toolchain/cmsis/include/cmsis_gcc.h" 1
	isb 0xF
@ 0 "" 2
	.loc 3 419 1
	.thumb
	.syntax unified
	nop
.L160:
.LBE141:
.LBE140:
	.loc 4 1817 4
	bl	vPortExitCritical
.L161:
	.loc 4 1823 2
	nop
	add	sp, sp, #20
.LCFI39:
	@ sp needed
	ldr	pc, [sp], #4
.L163:
	.align	2
.L162:
	.word	pxCurrentTCB
	.word	uxTopReadyPriority
	.word	pxReadyTasksLists
	.word	-536810240
.LFE212:
	.size	vTaskResume, .-vTaskResume
	.section	.text.xTaskResumeFromISR,"ax",%progbits
	.align	1
	.global	xTaskResumeFromISR
	.syntax unified
	.thumb
	.thumb_func
	.fpu fpv4-sp-d16
	.type	xTaskResumeFromISR, %function
xTaskResumeFromISR:
.LFB213:
	.loc 4 1832 2
	@ args = 0, pretend = 0, frame = 24
	@ frame_needed = 0, uses_anonymous_args = 0
	push	{lr}
.LCFI40:
	sub	sp, sp, #28
.LCFI41:
	str	r0, [sp, #4]
	.loc 4 1833 13
	movs	r3, #0
	str	r3, [sp, #20]
	.loc 4 1834 16
	ldr	r3, [sp, #4]
	str	r3, [sp, #16]
	.loc 4 1857 28
	bl	ulPortRaiseBASEPRI
	str	r0, [sp, #12]
	.loc 4 1859 8
	ldr	r0, [sp, #16]
	bl	prvTaskIsTaskSuspended
	mov	r3, r0
	.loc 4 1859 6
	cmp	r3, #0
	beq	.L165
	.loc 4 1861 5
	ldr	r3, [sp, #16]
	mov	r0, r3
	bl	SEGGER_SYSVIEW_ShrinkId
	mov	r3, r0
	mov	r1, r3
	movs	r0, #43
	bl	SEGGER_SYSVIEW_RecordU32
	.loc 4 1864 30
	ldr	r3, .L169
	ldr	r3, [r3]
	.loc 4 1864 7
	cmp	r3, #0
	bne	.L166
	.loc 4 1868 15
	ldr	r3, [sp, #16]
	ldr	r2, [r3, #44]
	.loc 4 1868 43
	ldr	r3, .L169+4
	ldr	r3, [r3]
	ldr	r3, [r3, #44]
	.loc 4 1868 8
	cmp	r2, r3
	bcc	.L167
	.loc 4 1870 22
	movs	r3, #1
	str	r3, [sp, #20]
.L167:
	.loc 4 1877 15
	ldr	r3, [sp, #16]
	adds	r3, r3, #4
	mov	r0, r3
	bl	uxListRemove
	.loc 4 1878 6
	ldr	r3, [sp, #16]
	mov	r0, r3
	bl	SEGGER_SYSVIEW_OnTaskStartReady
	.loc 4 1878 107
	ldr	r3, [sp, #16]
	ldr	r3, [r3, #44]
	.loc 4 1878 93
	movs	r2, #1
	lsls	r2, r2, r3
	.loc 4 1878 84
	ldr	r3, .L169+8
	ldr	r3, [r3]
	orrs	r3, r3, r2
	ldr	r2, .L169+8
	str	r3, [r2]
	.loc 4 1878 172
	ldr	r3, [sp, #16]
	ldr	r2, [r3, #44]
	.loc 4 1878 125
	mov	r3, r2
	lsls	r3, r3, #2
	add	r3, r3, r2
	lsls	r3, r3, #2
	ldr	r2, .L169+12
	add	r2, r2, r3
	ldr	r3, [sp, #16]
	adds	r3, r3, #4
	mov	r1, r3
	mov	r0, r2
	bl	vListInsertEnd
	b	.L165
.L166:
	.loc 4 1885 6
	ldr	r3, [sp, #16]
	adds	r3, r3, #24
	mov	r1, r3
	ldr	r0, .L169+16
	bl	vListInsertEnd
.L165:
	ldr	r3, [sp, #12]
	str	r3, [sp, #8]
.LBB142:
.LBB143:
	.loc 3 264 3
	ldr	r3, [sp, #8]
	.syntax unified
@ 264 "../../../../../../components/toolchain/cmsis/include/cmsis_gcc.h" 1
	MSR basepri, r3
@ 0 "" 2
	.loc 3 265 1
	.thumb
	.syntax unified
	nop
.LBE143:
.LBE142:
	.loc 4 1895 10
	ldr	r3, [sp, #20]
	.loc 4 1896 2
	mov	r0, r3
	add	sp, sp, #28
.LCFI42:
	@ sp needed
	ldr	pc, [sp], #4
.L170:
	.align	2
.L169:
	.word	uxSchedulerSuspended
	.word	pxCurrentTCB
	.word	uxTopReadyPriority
	.word	pxReadyTasksLists
	.word	xPendingReadyList
.LFE213:
	.size	xTaskResumeFromISR, .-xTaskResumeFromISR
	.section .rodata
	.align	2
.LC0:
	.ascii	"IDLE\000"
	.section	.text.vTaskStartScheduler,"ax",%progbits
	.align	1
	.global	vTaskStartScheduler
	.syntax unified
	.thumb
	.thumb_func
	.fpu fpv4-sp-d16
	.type	vTaskStartScheduler, %function
vTaskStartScheduler:
.LFB214:
	.loc 4 1902 1
	@ args = 0, pretend = 0, frame = 8
	@ frame_needed = 0, uses_anonymous_args = 0
	push	{lr}
.LCFI43:
	sub	sp, sp, #20
.LCFI44:
	.loc 4 1935 13
	ldr	r3, .L175
	str	r3, [sp, #4]
	movs	r3, #0
	str	r3, [sp]
	movs	r3, #0
	mov	r2, #256
	ldr	r1, .L175+4
	ldr	r0, .L175+8
	bl	xTaskCreate
	str	r0, [sp, #12]
	.loc 4 1946 5
	ldr	r3, [sp, #12]
	cmp	r3, #1
	bne	.L172
	.loc 4 1948 14
	bl	xTimerCreateTimerTask
	str	r0, [sp, #12]
.L172:
	.loc 4 1957 4
	ldr	r3, [sp, #12]
	cmp	r3, #1
	bne	.L174
	movs	r3, #64
	str	r3, [sp, #8]
.LBB144:
.LBB145:
	.loc 3 264 3
	ldr	r3, [sp, #8]
	.syntax unified
@ 264 "../../../../../../components/toolchain/cmsis/include/cmsis_gcc.h" 1
	MSR basepri, r3
@ 0 "" 2
	.loc 3 265 1
	.thumb
	.syntax unified
	nop
.LBE145:
.LBE144:
	.loc 4 1983 24
	ldr	r3, .L175+12
	mov	r2, #-1
	str	r2, [r3]
	.loc 4 1984 21
	ldr	r3, .L175+16
	movs	r2, #1
	str	r2, [r3]
	.loc 4 1985 14
	ldr	r3, .L175+20
	movs	r2, #0
	str	r2, [r3]
	.loc 4 1997 7
	bl	xPortStartScheduler
.L174:
	.loc 4 2018 1
	nop
	add	sp, sp, #20
.LCFI45:
	@ sp needed
	ldr	pc, [sp], #4
.L176:
	.align	2
.L175:
	.word	xIdleTaskHandle
	.word	.LC0
	.word	prvIdleTask
	.word	xNextTaskUnblockTime
	.word	xSchedulerRunning
	.word	xTickCount
.LFE214:
	.size	vTaskStartScheduler, .-vTaskStartScheduler
	.section	.text.vTaskEndScheduler,"ax",%progbits
	.align	1
	.global	vTaskEndScheduler
	.syntax unified
	.thumb
	.thumb_func
	.fpu fpv4-sp-d16
	.type	vTaskEndScheduler, %function
vTaskEndScheduler:
.LFB215:
	.loc 4 2022 1
	@ args = 0, pretend = 0, frame = 8
	@ frame_needed = 0, uses_anonymous_args = 0
	push	{lr}
.LCFI46:
	sub	sp, sp, #12
.LCFI47:
	movs	r3, #64
	str	r3, [sp, #4]
.LBB146:
.LBB147:
	.loc 3 264 3
	ldr	r3, [sp, #4]
	.syntax unified
@ 264 "../../../../../../components/toolchain/cmsis/include/cmsis_gcc.h" 1
	MSR basepri, r3
@ 0 "" 2
	.loc 3 265 1
	.thumb
	.syntax unified
	nop
.LBE147:
.LBE146:
	.loc 4 2027 20
	ldr	r3, .L178
	movs	r2, #0
	str	r2, [r3]
	.loc 4 2028 2
	bl	vPortEndScheduler
	.loc 4 2029 1
	nop
	add	sp, sp, #12
.LCFI48:
	@ sp needed
	ldr	pc, [sp], #4
.L179:
	.align	2
.L178:
	.word	xSchedulerRunning
.LFE215:
	.size	vTaskEndScheduler, .-vTaskEndScheduler
	.section	.text.vTaskSuspendAll,"ax",%progbits
	.align	1
	.global	vTaskSuspendAll
	.syntax unified
	.thumb
	.thumb_func
	.fpu fpv4-sp-d16
	.type	vTaskSuspendAll, %function
vTaskSuspendAll:
.LFB216:
	.loc 4 2033 1
	@ args = 0, pretend = 0, frame = 0
	@ frame_needed = 0, uses_anonymous_args = 0
	@ link register save eliminated.
	.loc 4 2038 2
	ldr	r3, .L181
	ldr	r3, [r3]
	adds	r3, r3, #1
	ldr	r2, .L181
	str	r3, [r2]
	.loc 4 2039 1
	nop
	bx	lr
.L182:
	.align	2
.L181:
	.word	uxSchedulerSuspended
.LFE216:
	.size	vTaskSuspendAll, .-vTaskSuspendAll
	.section	.text.xTaskResumeAll,"ax",%progbits
	.align	1
	.global	xTaskResumeAll
	.syntax unified
	.thumb
	.thumb_func
	.fpu fpv4-sp-d16
	.type	xTaskResumeAll, %function
xTaskResumeAll:
.LFB217:
	.loc 4 2106 1
	@ args = 0, pretend = 0, frame = 16
	@ frame_needed = 0, uses_anonymous_args = 0
	push	{lr}
.LCFI49:
	sub	sp, sp, #20
.LCFI50:
	.loc 4 2107 8
	movs	r3, #0
	str	r3, [sp, #12]
	.loc 4 2108 12
	movs	r3, #0
	str	r3, [sp, #8]
	.loc 4 2119 2
	bl	vPortEnterCritical
	.loc 4 2121 3
	ldr	r3, .L192
	ldr	r3, [r3]
	subs	r3, r3, #1
	ldr	r2, .L192
	str	r3, [r2]
	.loc 4 2123 28
	ldr	r3, .L192
	ldr	r3, [r3]
	.loc 4 2123 5
	cmp	r3, #0
	bne	.L184
	.loc 4 2125 31
	ldr	r3, .L192+4
	ldr	r3, [r3]
	.loc 4 2125 6
	cmp	r3, #0
	beq	.L184
	.loc 4 2129 10
	b	.L185
.L186:
	.loc 4 2131 71
	ldr	r3, .L192+8
	ldr	r3, [r3, #12]
	.loc 4 2131 12
	ldr	r3, [r3, #12]
	str	r3, [sp, #12]
	.loc 4 2132 15
	ldr	r3, [sp, #12]
	adds	r3, r3, #24
	mov	r0, r3
	bl	uxListRemove
	.loc 4 2133 15
	ldr	r3, [sp, #12]
	adds	r3, r3, #4
	mov	r0, r3
	bl	uxListRemove
	.loc 4 2134 6
	ldr	r3, [sp, #12]
	mov	r0, r3
	bl	SEGGER_SYSVIEW_OnTaskStartReady
	.loc 4 2134 107
	ldr	r3, [sp, #12]
	ldr	r3, [r3, #44]
	.loc 4 2134 93
	movs	r2, #1
	lsls	r2, r2, r3
	.loc 4 2134 84
	ldr	r3, .L192+12
	ldr	r3, [r3]
	orrs	r3, r3, r2
	ldr	r2, .L192+12
	str	r3, [r2]
	.loc 4 2134 172
	ldr	r3, [sp, #12]
	ldr	r2, [r3, #44]
	.loc 4 2134 125
	mov	r3, r2
	lsls	r3, r3, #2
	add	r3, r3, r2
	lsls	r3, r3, #2
	ldr	r2, .L192+16
	add	r2, r2, r3
	ldr	r3, [sp, #12]
	adds	r3, r3, #4
	mov	r1, r3
	mov	r0, r2
	bl	vListInsertEnd
	.loc 4 2138 15
	ldr	r3, [sp, #12]
	ldr	r2, [r3, #44]
	.loc 4 2138 43
	ldr	r3, .L192+20
	ldr	r3, [r3]
	ldr	r3, [r3, #44]
	.loc 4 2138 8
	cmp	r2, r3
	bcc	.L185
	.loc 4 2140 21
	ldr	r3, .L192+24
	movs	r2, #1
	str	r2, [r3]
.L185:
	.loc 4 2129 53
	ldr	r3, .L192+8
	ldr	r3, [r3]
	.loc 4 2129 10
	cmp	r3, #0
	bne	.L186
	.loc 4 2148 7
	ldr	r3, [sp, #12]
	cmp	r3, #0
	beq	.L187
	.loc 4 2156 6
	bl	prvResetNextTaskUnblockTime
.L187:
.LBB148:
	.loc 4 2164 18
	ldr	r3, .L192+28
	ldr	r3, [r3]
	str	r3, [sp, #4]
	.loc 4 2166 8
	ldr	r3, [sp, #4]
	cmp	r3, #0
	beq	.L188
.L190:
	.loc 4 2170 12
	bl	xTaskIncrementTick
	mov	r3, r0
	.loc 4 2170 10
	cmp	r3, #0
	beq	.L189
	.loc 4 2172 23
	ldr	r3, .L192+24
	movs	r2, #1
	str	r2, [r3]
.L189:
	.loc 4 2178 8
	ldr	r3, [sp, #4]
	subs	r3, r3, #1
	str	r3, [sp, #4]
	.loc 4 2179 7
	ldr	r3, [sp, #4]
	cmp	r3, #0
	bne	.L190
	.loc 4 2181 21
	ldr	r3, .L192+28
	movs	r2, #0
	str	r2, [r3]
.L188:
.LBE148:
	.loc 4 2189 23
	ldr	r3, .L192+24
	ldr	r3, [r3]
	.loc 4 2189 7
	cmp	r3, #0
	beq	.L184
	.loc 4 2193 23
	movs	r3, #1
	str	r3, [sp, #8]
	.loc 4 2196 54
	ldr	r3, .L192+32
	.loc 4 2196 61
	mov	r2, #268435456
	str	r2, [r3, #4]
.LBB149:
.LBB150:
	.loc 3 406 3
	.syntax unified
@ 406 "../../../../../../components/toolchain/cmsis/include/cmsis_gcc.h" 1
	sev
@ 0 "" 2
	.loc 3 407 1
	.thumb
	.syntax unified
	nop
.LBE150:
.LBE149:
.LBB151:
.LBB152:
	.loc 3 429 3
	.syntax unified
@ 429 "../../../../../../components/toolchain/cmsis/include/cmsis_gcc.h" 1
	dsb 0xF
@ 0 "" 2
	.loc 3 430 1
	.thumb
	.syntax unified
	nop
.LBE152:
.LBE151:
.LBB153:
.LBB154:
	.loc 3 418 3
	.syntax unified
@ 418 "../../../../../../components/toolchain/cmsis/include/cmsis_gcc.h" 1
	isb 0xF
@ 0 "" 2
	.loc 3 419 1
	.thumb
	.syntax unified
	nop
.L184:
.LBE154:
.LBE153:
	.loc 4 2209 2
	bl	vPortExitCritical
	.loc 4 2211 9
	ldr	r3, [sp, #8]
	.loc 4 2212 1
	mov	r0, r3
	add	sp, sp, #20
.LCFI51:
	@ sp needed
	ldr	pc, [sp], #4
.L193:
	.align	2
.L192:
	.word	uxSchedulerSuspended
	.word	uxCurrentNumberOfTasks
	.word	xPendingReadyList
	.word	uxTopReadyPriority
	.word	pxReadyTasksLists
	.word	pxCurrentTCB
	.word	xYieldPending
	.word	uxPendedTicks
	.word	-536810240
.LFE217:
	.size	xTaskResumeAll, .-xTaskResumeAll
	.section	.text.xTaskGetTickCount,"ax",%progbits
	.align	1
	.global	xTaskGetTickCount
	.syntax unified
	.thumb
	.thumb_func
	.fpu fpv4-sp-d16
	.type	xTaskGetTickCount, %function
xTaskGetTickCount:
.LFB218:
	.loc 4 2216 1
	@ args = 0, pretend = 0, frame = 8
	@ frame_needed = 0, uses_anonymous_args = 0
	@ link register save eliminated.
	sub	sp, sp, #8
.LCFI52:
	.loc 4 2222 10
	ldr	r3, .L196
	ldr	r3, [r3]
	str	r3, [sp, #4]
	.loc 4 2226 9
	ldr	r3, [sp, #4]
	.loc 4 2227 1
	mov	r0, r3
	add	sp, sp, #8
.LCFI53:
	@ sp needed
	bx	lr
.L197:
	.align	2
.L196:
	.word	xTickCount
.LFE218:
	.size	xTaskGetTickCount, .-xTaskGetTickCount
	.section	.text.xTaskGetTickCountFromISR,"ax",%progbits
	.align	1
	.global	xTaskGetTickCountFromISR
	.syntax unified
	.thumb
	.thumb_func
	.fpu fpv4-sp-d16
	.type	xTaskGetTickCountFromISR, %function
xTaskGetTickCountFromISR:
.LFB219:
	.loc 4 2231 1
	@ args = 0, pretend = 0, frame = 8
	@ frame_needed = 0, uses_anonymous_args = 0
	@ link register save eliminated.
	sub	sp, sp, #8
.LCFI54:
	.loc 4 2251 25
	movs	r3, #0
	str	r3, [sp, #4]
	.loc 4 2253 11
	ldr	r3, .L200
	ldr	r3, [r3]
	str	r3, [sp]
	.loc 4 2257 9
	ldr	r3, [sp]
	.loc 4 2258 1
	mov	r0, r3
	add	sp, sp, #8
.LCFI55:
	@ sp needed
	bx	lr
.L201:
	.align	2
.L200:
	.word	xTickCount
.LFE219:
	.size	xTaskGetTickCountFromISR, .-xTaskGetTickCountFromISR
	.section	.text.uxTaskGetNumberOfTasks,"ax",%progbits
	.align	1
	.global	uxTaskGetNumberOfTasks
	.syntax unified
	.thumb
	.thumb_func
	.fpu fpv4-sp-d16
	.type	uxTaskGetNumberOfTasks, %function
uxTaskGetNumberOfTasks:
.LFB220:
	.loc 4 2262 1
	@ args = 0, pretend = 0, frame = 0
	@ frame_needed = 0, uses_anonymous_args = 0
	@ link register save eliminated.
	.loc 4 2265 9
	ldr	r3, .L204
	ldr	r3, [r3]
	.loc 4 2266 1
	mov	r0, r3
	bx	lr
.L205:
	.align	2
.L204:
	.word	uxCurrentNumberOfTasks
.LFE220:
	.size	uxTaskGetNumberOfTasks, .-uxTaskGetNumberOfTasks
	.section	.text.pcTaskGetName,"ax",%progbits
	.align	1
	.global	pcTaskGetName
	.syntax unified
	.thumb
	.thumb_func
	.fpu fpv4-sp-d16
	.type	pcTaskGetName, %function
pcTaskGetName:
.LFB221:
	.loc 4 2270 1
	@ args = 0, pretend = 0, frame = 16
	@ frame_needed = 0, uses_anonymous_args = 0
	@ link register save eliminated.
	sub	sp, sp, #16
.LCFI56:
	str	r0, [sp, #4]
	.loc 4 2275 38
	ldr	r3, [sp, #4]
	cmp	r3, #0
	bne	.L207
	.loc 4 2275 38 is_stmt 0 discriminator 1
	ldr	r3, .L210
	ldr	r3, [r3]
	b	.L208
.L207:
	.loc 4 2275 38 discriminator 2
	ldr	r3, [sp, #4]
.L208:
	.loc 4 2275 8 is_stmt 1 discriminator 4
	str	r3, [sp, #12]
	.loc 4 2277 9 discriminator 4
	ldr	r3, [sp, #12]
	adds	r3, r3, #52
	.loc 4 2278 1 discriminator 4
	mov	r0, r3
	add	sp, sp, #16
.LCFI57:
	@ sp needed
	bx	lr
.L211:
	.align	2
.L210:
	.word	pxCurrentTCB
.LFE221:
	.size	pcTaskGetName, .-pcTaskGetName
	.section	.text.uxTaskGetSystemState,"ax",%progbits
	.align	1
	.global	uxTaskGetSystemState
	.syntax unified
	.thumb
	.thumb_func
	.fpu fpv4-sp-d16
	.type	uxTaskGetSystemState, %function
uxTaskGetSystemState:
.LFB222:
	.loc 4 2410 2
	@ args = 0, pretend = 0, frame = 24
	@ frame_needed = 0, uses_anonymous_args = 0
	push	{lr}
.LCFI58:
	sub	sp, sp, #28
.LCFI59:
	str	r0, [sp, #12]
	str	r1, [sp, #8]
	str	r2, [sp, #4]
	.loc 4 2411 14
	movs	r3, #0
	str	r3, [sp, #20]
	.loc 4 2411 26
	movs	r3, #7
	str	r3, [sp, #16]
	.loc 4 2413 3
	bl	vTaskSuspendAll
	.loc 4 2416 20
	ldr	r3, .L216
	ldr	r3, [r3]
	.loc 4 2416 6
	ldr	r2, [sp, #8]
	cmp	r2, r3
	bcc	.L213
.L214:
	.loc 4 2422 13 discriminator 1
	ldr	r3, [sp, #16]
	subs	r3, r3, #1
	str	r3, [sp, #16]
	.loc 4 2423 66 discriminator 1
	ldr	r2, [sp, #20]
	mov	r3, r2
	lsls	r3, r3, #3
	add	r3, r3, r2
	lsls	r3, r3, #2
	mov	r2, r3
	.loc 4 2423 16 discriminator 1
	ldr	r3, [sp, #12]
	adds	r0, r3, r2
	ldr	r2, [sp, #16]
	mov	r3, r2
	lsls	r3, r3, #2
	add	r3, r3, r2
	lsls	r3, r3, #2
	ldr	r2, .L216+4
	add	r3, r3, r2
	movs	r2, #1
	mov	r1, r3
	bl	prvListTasksWithinSingleList
	mov	r2, r0
	.loc 4 2423 13 discriminator 1
	ldr	r3, [sp, #20]
	add	r3, r3, r2
	str	r3, [sp, #20]
	.loc 4 2425 5 discriminator 1
	ldr	r3, [sp, #16]
	cmp	r3, #0
	bne	.L214
	.loc 4 2429 65
	ldr	r2, [sp, #20]
	mov	r3, r2
	lsls	r3, r3, #3
	add	r3, r3, r2
	lsls	r3, r3, #2
	mov	r2, r3
	.loc 4 2429 15
	ldr	r3, [sp, #12]
	add	r3, r3, r2
	ldr	r2, .L216+8
	ldr	r1, [r2]
	movs	r2, #2
	mov	r0, r3
	bl	prvListTasksWithinSingleList
	mov	r2, r0
	.loc 4 2429 12
	ldr	r3, [sp, #20]
	add	r3, r3, r2
	str	r3, [sp, #20]
	.loc 4 2430 65
	ldr	r2, [sp, #20]
	mov	r3, r2
	lsls	r3, r3, #3
	add	r3, r3, r2
	lsls	r3, r3, #2
	mov	r2, r3
	.loc 4 2430 15
	ldr	r3, [sp, #12]
	add	r3, r3, r2
	ldr	r2, .L216+12
	ldr	r1, [r2]
	movs	r2, #2
	mov	r0, r3
	bl	prvListTasksWithinSingleList
	mov	r2, r0
	.loc 4 2430 12
	ldr	r3, [sp, #20]
	add	r3, r3, r2
	str	r3, [sp, #20]
	.loc 4 2436 66
	ldr	r2, [sp, #20]
	mov	r3, r2
	lsls	r3, r3, #3
	add	r3, r3, r2
	lsls	r3, r3, #2
	mov	r2, r3
	.loc 4 2436 16
	ldr	r3, [sp, #12]
	add	r3, r3, r2
	movs	r2, #4
	ldr	r1, .L216+16
	mov	r0, r3
	bl	prvListTasksWithinSingleList
	mov	r2, r0
	.loc 4 2436 13
	ldr	r3, [sp, #20]
	add	r3, r3, r2
	str	r3, [sp, #20]
	.loc 4 2444 66
	ldr	r2, [sp, #20]
	mov	r3, r2
	lsls	r3, r3, #3
	add	r3, r3, r2
	lsls	r3, r3, #2
	mov	r2, r3
	.loc 4 2444 16
	ldr	r3, [sp, #12]
	add	r3, r3, r2
	movs	r2, #3
	ldr	r1, .L216+20
	mov	r0, r3
	bl	prvListTasksWithinSingleList
	mov	r2, r0
	.loc 4 2444 13
	ldr	r3, [sp, #20]
	add	r3, r3, r2
	str	r3, [sp, #20]
	.loc 4 2461 8
	ldr	r3, [sp, #4]
	cmp	r3, #0
	beq	.L213
	.loc 4 2463 24
	ldr	r3, [sp, #4]
	movs	r2, #0
	str	r2, [r3]
.L213:
	.loc 4 2473 12
	bl	xTaskResumeAll
	.loc 4 2475 10
	ldr	r3, [sp, #20]
	.loc 4 2476 2
	mov	r0, r3
	add	sp, sp, #28
.LCFI60:
	@ sp needed
	ldr	pc, [sp], #4
.L217:
	.align	2
.L216:
	.word	uxCurrentNumberOfTasks
	.word	pxReadyTasksLists
	.word	pxDelayedTaskList
	.word	pxOverflowDelayedTaskList
	.word	xTasksWaitingTermination
	.word	xSuspendedTaskList
.LFE222:
	.size	uxTaskGetSystemState, .-uxTaskGetSystemState
	.section	.text.xTaskGetIdleTaskHandle,"ax",%progbits
	.align	1
	.global	xTaskGetIdleTaskHandle
	.syntax unified
	.thumb
	.thumb_func
	.fpu fpv4-sp-d16
	.type	xTaskGetIdleTaskHandle, %function
xTaskGetIdleTaskHandle:
.LFB223:
	.loc 4 2484 2
	@ args = 0, pretend = 0, frame = 0
	@ frame_needed = 0, uses_anonymous_args = 0
	@ link register save eliminated.
	.loc 4 2488 10
	ldr	r3, .L220
	ldr	r3, [r3]
	.loc 4 2489 2
	mov	r0, r3
	bx	lr
.L221:
	.align	2
.L220:
	.word	xIdleTaskHandle
.LFE223:
	.size	xTaskGetIdleTaskHandle, .-xTaskGetIdleTaskHandle
	.section	.text.xTaskIncrementTick,"ax",%progbits
	.align	1
	.global	xTaskIncrementTick
	.syntax unified
	.thumb
	.thumb_func
	.fpu fpv4-sp-d16
	.type	xTaskIncrementTick, %function
xTaskIncrementTick:
.LFB224:
	.loc 4 2590 1
	@ args = 0, pretend = 0, frame = 24
	@ frame_needed = 0, uses_anonymous_args = 0
	push	{lr}
.LCFI61:
	sub	sp, sp, #28
.LCFI62:
	.loc 4 2593 12
	movs	r3, #0
	str	r3, [sp, #20]
	.loc 4 2598 27
	ldr	r3, .L239
	ldr	r3, [r3]
	.loc 4 2598 5
	cmp	r3, #1
	beq	.L223
	.loc 4 2598 86 discriminator 2
	ldr	r3, .L239+4
	ldr	r3, [r3]
	.loc 4 2598 69 discriminator 2
	cmp	r3, #0
	bne	.L224
.L223:
.LBB155:
	.loc 4 2598 144 discriminator 3
	ldr	r3, .L239+8
	ldr	r3, [r3]
	adds	r3, r3, #1
	ldr	r2, .L239+8
	str	r3, [r2]
.L224:
.LBE155:
	.loc 4 2598 175 discriminator 5
	ldr	r3, .L239
	ldr	r3, [r3]
	.loc 4 2598 153 discriminator 5
	cmp	r3, #0
	bne	.L225
	.loc 4 2598 218 discriminator 6
	ldr	r3, .L239+12
	ldr	r3, [r3]
	adds	r3, r3, #1
	mov	r1, r3
	movs	r0, #49
	bl	prvTraceStoreEvent1
.L225:
	.loc 4 2599 27
	ldr	r3, .L239
	ldr	r3, [r3]
	.loc 4 2599 4
	cmp	r3, #0
	bne	.L226
.LBB156:
	.loc 4 2603 49
	ldr	r3, .L239+12
	ldr	r3, [r3]
	.loc 4 2603 20
	adds	r3, r3, #1
	str	r3, [sp, #16]
	.loc 4 2607 14
	ldr	r2, .L239+12
	ldr	r3, [sp, #16]
	str	r3, [r2]
	.loc 4 2609 5
	ldr	r3, [sp, #16]
	cmp	r3, #0
	bne	.L227
.LBB157:
	.loc 4 2611 31
	ldr	r3, .L239+16
	ldr	r3, [r3]
	str	r3, [sp, #12]
	.loc 4 2611 70
	ldr	r3, .L239+20
	ldr	r3, [r3]
	ldr	r2, .L239+16
	str	r3, [r2]
	.loc 4 2611 125
	ldr	r2, .L239+20
	ldr	r3, [sp, #12]
	str	r3, [r2]
	.loc 4 2611 150
	ldr	r3, .L239+24
	ldr	r3, [r3]
	adds	r3, r3, #1
	ldr	r2, .L239+24
	str	r3, [r2]
	.loc 4 2611 154
	bl	prvResetNextTaskUnblockTime
.L227:
.LBE157:
	.loc 4 2622 23
	ldr	r3, .L239+28
	ldr	r3, [r3]
	.loc 4 2622 5
	ldr	r2, [sp, #16]
	cmp	r2, r3
	bcc	.L236
.L235:
	.loc 4 2626 49
	ldr	r3, .L239+16
	ldr	r3, [r3]
	ldr	r3, [r3]
	.loc 4 2626 92
	cmp	r3, #0
	bne	.L229
	.loc 4 2626 92 is_stmt 0 discriminator 1
	movs	r3, #1
	b	.L230
.L229:
	.loc 4 2626 92 discriminator 2
	movs	r3, #0
.L230:
	.loc 4 2626 7 is_stmt 1 discriminator 4
	cmp	r3, #0
	beq	.L231
	.loc 4 2633 27
	ldr	r3, .L239+28
	mov	r2, #-1
	str	r2, [r3]
	.loc 4 2634 6
	b	.L236
.L231:
	.loc 4 2642 53
	ldr	r3, .L239+16
	ldr	r3, [r3]
	.loc 4 2642 66
	ldr	r3, [r3, #12]
	.loc 4 2642 12
	ldr	r3, [r3, #12]
	str	r3, [sp, #8]
	.loc 4 2643 17
	ldr	r3, [sp, #8]
	ldr	r3, [r3, #4]
	str	r3, [sp, #4]
	.loc 4 2645 8
	ldr	r2, [sp, #16]
	ldr	r3, [sp, #4]
	cmp	r2, r3
	bcs	.L232
	.loc 4 2652 28
	ldr	r2, .L239+28
	ldr	r3, [sp, #4]
	str	r3, [r2]
	.loc 4 2653 7
	b	.L236
.L232:
	.loc 4 2661 15
	ldr	r3, [sp, #8]
	adds	r3, r3, #4
	mov	r0, r3
	bl	uxListRemove
	.loc 4 2665 42
	ldr	r3, [sp, #8]
	ldr	r3, [r3, #40]
	.loc 4 2665 8
	cmp	r3, #0
	beq	.L233
	.loc 4 2667 16
	ldr	r3, [sp, #8]
	adds	r3, r3, #24
	mov	r0, r3
	bl	uxListRemove
.L233:
	.loc 4 2676 6
	ldr	r3, [sp, #8]
	mov	r0, r3
	bl	SEGGER_SYSVIEW_OnTaskStartReady
	.loc 4 2676 107
	ldr	r3, [sp, #8]
	ldr	r3, [r3, #44]
	.loc 4 2676 93
	movs	r2, #1
	lsls	r2, r2, r3
	.loc 4 2676 84
	ldr	r3, .L239+32
	ldr	r3, [r3]
	orrs	r3, r3, r2
	ldr	r2, .L239+32
	str	r3, [r2]
	.loc 4 2676 172
	ldr	r3, [sp, #8]
	ldr	r2, [r3, #44]
	.loc 4 2676 125
	mov	r3, r2
	lsls	r3, r3, #2
	add	r3, r3, r2
	lsls	r3, r3, #2
	ldr	r2, .L239+36
	add	r2, r2, r3
	ldr	r3, [sp, #8]
	adds	r3, r3, #4
	mov	r1, r3
	mov	r0, r2
	bl	vListInsertEnd
	.loc 4 2686 16
	ldr	r3, [sp, #8]
	ldr	r2, [r3, #44]
	.loc 4 2686 44
	ldr	r3, .L239+40
	ldr	r3, [r3]
	ldr	r3, [r3, #44]
	.loc 4 2686 9
	cmp	r2, r3
	bcc	.L235
	.loc 4 2688 24
	movs	r3, #1
	str	r3, [sp, #20]
	.loc 4 2626 7
	b	.L235
.L226:
.LBE156:
	.loc 4 2733 3
	ldr	r3, .L239+4
	ldr	r3, [r3]
	adds	r3, r3, #1
	ldr	r2, .L239+4
	str	r3, [r2]
.L236:
	.loc 4 2746 21
	ldr	r3, .L239+44
	ldr	r3, [r3]
	.loc 4 2746 5
	cmp	r3, #0
	beq	.L237
	.loc 4 2748 20
	movs	r3, #1
	str	r3, [sp, #20]
.L237:
	.loc 4 2757 9
	ldr	r3, [sp, #20]
	.loc 4 2758 1
	mov	r0, r3
	add	sp, sp, #28
.LCFI63:
	@ sp needed
	ldr	pc, [sp], #4
.L240:
	.align	2
.L239:
	.word	uxSchedulerSuspended
	.word	uxPendedTicks
	.word	uiTraceTickCount
	.word	xTickCount
	.word	pxDelayedTaskList
	.word	pxOverflowDelayedTaskList
	.word	xNumOfOverflows
	.word	xNextTaskUnblockTime
	.word	uxTopReadyPriority
	.word	pxReadyTasksLists
	.word	pxCurrentTCB
	.word	xYieldPending
.LFE224:
	.size	xTaskIncrementTick, .-xTaskIncrementTick
	.section	.text.vTaskSwitchContext,"ax",%progbits
	.align	1
	.global	vTaskSwitchContext
	.syntax unified
	.thumb
	.thumb_func
	.fpu fpv4-sp-d16
	.type	vTaskSwitchContext, %function
vTaskSwitchContext:
.LFB225:
	.loc 4 2852 1
	@ args = 0, pretend = 0, frame = 8
	@ frame_needed = 0, uses_anonymous_args = 0
	push	{lr}
.LCFI64:
	sub	sp, sp, #12
.LCFI65:
	.loc 4 2853 27
	ldr	r3, .L247
	ldr	r3, [r3]
	.loc 4 2853 4
	cmp	r3, #0
	beq	.L242
	.loc 4 2857 17
	ldr	r3, .L247+4
	movs	r2, #1
	str	r2, [r3]
	.loc 4 2907 1
	b	.L246
.L242:
	.loc 4 2861 17
	ldr	r3, .L247+4
	movs	r2, #0
	str	r2, [r3]
.LBB158:
	.loc 4 2896 55
	ldr	r3, .L247+8
	ldr	r3, [r3]
	clz	r3, r3
	.loc 4 2896 53
	rsb	r3, r3, #31
	.loc 4 2896 46
	str	r3, [sp, #4]
.LBB159:
	.loc 4 2896 117
	ldr	r2, [sp, #4]
	mov	r3, r2
	lsls	r3, r3, #2
	add	r3, r3, r2
	lsls	r3, r3, #2
	ldr	r2, .L247+12
	add	r3, r3, r2
	str	r3, [sp]
	.loc 4 2896 218
	ldr	r3, [sp]
	ldr	r3, [r3, #4]
	.loc 4 2896 227
	ldr	r2, [r3, #4]
	.loc 4 2896 201
	ldr	r3, [sp]
	str	r2, [r3, #4]
	.loc 4 2896 267
	ldr	r3, [sp]
	ldr	r2, [r3, #4]
	.loc 4 2896 291
	ldr	r3, [sp]
	adds	r3, r3, #8
	.loc 4 2896 239
	cmp	r2, r3
	bne	.L244
	.loc 4 2896 368 discriminator 1
	ldr	r3, [sp]
	ldr	r3, [r3, #4]
	.loc 4 2896 377 discriminator 1
	ldr	r2, [r3, #4]
	.loc 4 2896 351 discriminator 1
	ldr	r3, [sp]
	str	r2, [r3, #4]
.L244:
	.loc 4 2896 423 discriminator 3
	ldr	r3, [sp]
	ldr	r3, [r3, #4]
	.loc 4 2896 432 discriminator 3
	ldr	r3, [r3, #12]
	.loc 4 2896 406 discriminator 3
	ldr	r2, .L247+16
	str	r3, [r2]
.LBE159:
.LBE158:
	.loc 4 2897 31 discriminator 3
	ldr	r3, .L247+16
	ldr	r2, [r3]
	.loc 4 2897 6 discriminator 3
	ldr	r3, .L247+20
	ldr	r3, [r3]
	.loc 4 2897 5 discriminator 3
	cmp	r2, r3
	bne	.L245
	.loc 4 2897 28 discriminator 1
	bl	SEGGER_SYSVIEW_OnIdle
	.loc 4 2907 1 discriminator 1
	b	.L246
.L245:
	.loc 4 2897 62 discriminator 2
	ldr	r3, .L247+16
	ldr	r3, [r3]
	mov	r0, r3
	bl	SEGGER_SYSVIEW_OnTaskStartExec
.L246:
	.loc 4 2907 1
	nop
	add	sp, sp, #12
.LCFI66:
	@ sp needed
	ldr	pc, [sp], #4
.L248:
	.align	2
.L247:
	.word	uxSchedulerSuspended
	.word	xYieldPending
	.word	uxTopReadyPriority
	.word	pxReadyTasksLists
	.word	pxCurrentTCB
	.word	xIdleTaskHandle
.LFE225:
	.size	vTaskSwitchContext, .-vTaskSwitchContext
	.section	.text.vTaskPlaceOnEventList,"ax",%progbits
	.align	1
	.global	vTaskPlaceOnEventList
	.syntax unified
	.thumb
	.thumb_func
	.fpu fpv4-sp-d16
	.type	vTaskPlaceOnEventList, %function
vTaskPlaceOnEventList:
.LFB226:
	.loc 4 2911 1
	@ args = 0, pretend = 0, frame = 8
	@ frame_needed = 0, uses_anonymous_args = 0
	push	{lr}
.LCFI67:
	sub	sp, sp, #12
.LCFI68:
	str	r0, [sp, #4]
	str	r1, [sp]
	.loc 4 2921 43
	ldr	r3, .L250
	ldr	r3, [r3]
	.loc 4 2921 2
	adds	r3, r3, #24
	mov	r1, r3
	ldr	r0, [sp, #4]
	bl	vListInsert
	.loc 4 2923 2
	movs	r1, #1
	ldr	r0, [sp]
	bl	prvAddCurrentTaskToDelayedList
	.loc 4 2924 1
	nop
	add	sp, sp, #12
.LCFI69:
	@ sp needed
	ldr	pc, [sp], #4
.L251:
	.align	2
.L250:
	.word	pxCurrentTCB
.LFE226:
	.size	vTaskPlaceOnEventList, .-vTaskPlaceOnEventList
	.section	.text.vTaskPlaceOnUnorderedEventList,"ax",%progbits
	.align	1
	.global	vTaskPlaceOnUnorderedEventList
	.syntax unified
	.thumb
	.thumb_func
	.fpu fpv4-sp-d16
	.type	vTaskPlaceOnUnorderedEventList, %function
vTaskPlaceOnUnorderedEventList:
.LFB227:
	.loc 4 2928 1
	@ args = 0, pretend = 0, frame = 16
	@ frame_needed = 0, uses_anonymous_args = 0
	push	{lr}
.LCFI70:
	sub	sp, sp, #20
.LCFI71:
	str	r0, [sp, #12]
	str	r1, [sp, #8]
	str	r2, [sp, #4]
	.loc 4 2938 21
	ldr	r3, .L253
	ldr	r3, [r3]
	.loc 4 2938 69
	ldr	r2, [sp, #8]
	orr	r2, r2, #-2147483648
	.loc 4 2938 54
	str	r2, [r3, #24]
	.loc 4 2945 46
	ldr	r3, .L253
	ldr	r3, [r3]
	.loc 4 2945 2
	adds	r3, r3, #24
	mov	r1, r3
	ldr	r0, [sp, #12]
	bl	vListInsertEnd
	.loc 4 2947 2
	movs	r1, #1
	ldr	r0, [sp, #4]
	bl	prvAddCurrentTaskToDelayedList
	.loc 4 2948 1
	nop
	add	sp, sp, #20
.LCFI72:
	@ sp needed
	ldr	pc, [sp], #4
.L254:
	.align	2
.L253:
	.word	pxCurrentTCB
.LFE227:
	.size	vTaskPlaceOnUnorderedEventList, .-vTaskPlaceOnUnorderedEventList
	.section	.text.vTaskPlaceOnEventListRestricted,"ax",%progbits
	.align	1
	.global	vTaskPlaceOnEventListRestricted
	.syntax unified
	.thumb
	.thumb_func
	.fpu fpv4-sp-d16
	.type	vTaskPlaceOnEventListRestricted, %function
vTaskPlaceOnEventListRestricted:
.LFB228:
	.loc 4 2954 2
	@ args = 0, pretend = 0, frame = 16
	@ frame_needed = 0, uses_anonymous_args = 0
	push	{lr}
.LCFI73:
	sub	sp, sp, #20
.LCFI74:
	str	r0, [sp, #12]
	str	r1, [sp, #8]
	str	r2, [sp, #4]
	.loc 4 2967 47
	ldr	r3, .L257
	ldr	r3, [r3]
	.loc 4 2967 3
	adds	r3, r3, #24
	mov	r1, r3
	ldr	r0, [sp, #12]
	bl	vListInsertEnd
	.loc 4 2972 5
	ldr	r3, [sp, #4]
	cmp	r3, #0
	beq	.L256
	.loc 4 2974 17
	mov	r3, #-1
	str	r3, [sp, #8]
.L256:
	.loc 4 2977 3
	movs	r0, #36
	bl	SEGGER_SYSVIEW_RecordVoid
	.loc 4 2978 3
	ldr	r1, [sp, #4]
	ldr	r0, [sp, #8]
	bl	prvAddCurrentTaskToDelayedList
	.loc 4 2979 2
	nop
	add	sp, sp, #20
.LCFI75:
	@ sp needed
	ldr	pc, [sp], #4
.L258:
	.align	2
.L257:
	.word	pxCurrentTCB
.LFE228:
	.size	vTaskPlaceOnEventListRestricted, .-vTaskPlaceOnEventListRestricted
	.section	.text.xTaskRemoveFromEventList,"ax",%progbits
	.align	1
	.global	xTaskRemoveFromEventList
	.syntax unified
	.thumb
	.thumb_func
	.fpu fpv4-sp-d16
	.type	xTaskRemoveFromEventList, %function
xTaskRemoveFromEventList:
.LFB229:
	.loc 4 2985 1
	@ args = 0, pretend = 0, frame = 16
	@ frame_needed = 0, uses_anonymous_args = 0
	push	{lr}
.LCFI76:
	sub	sp, sp, #20
.LCFI77:
	str	r0, [sp, #4]
	.loc 4 3002 65
	ldr	r3, [sp, #4]
	ldr	r3, [r3, #12]
	.loc 4 3002 17
	ldr	r3, [r3, #12]
	str	r3, [sp, #8]
	.loc 4 3004 11
	ldr	r3, [sp, #8]
	adds	r3, r3, #24
	mov	r0, r3
	bl	uxListRemove
	.loc 4 3006 27
	ldr	r3, .L265
	ldr	r3, [r3]
	.loc 4 3006 4
	cmp	r3, #0
	bne	.L260
	.loc 4 3008 12
	ldr	r3, [sp, #8]
	adds	r3, r3, #4
	mov	r0, r3
	bl	uxListRemove
	.loc 4 3009 3
	ldr	r3, [sp, #8]
	mov	r0, r3
	bl	SEGGER_SYSVIEW_OnTaskStartReady
	.loc 4 3009 122
	ldr	r3, [sp, #8]
	ldr	r3, [r3, #44]
	.loc 4 3009 99
	movs	r2, #1
	lsls	r2, r2, r3
	.loc 4 3009 90
	ldr	r3, .L265+4
	ldr	r3, [r3]
	orrs	r3, r3, r2
	ldr	r2, .L265+4
	str	r3, [r2]
	.loc 4 3009 196
	ldr	r3, [sp, #8]
	ldr	r2, [r3, #44]
	.loc 4 3009 140
	mov	r3, r2
	lsls	r3, r3, #2
	add	r3, r3, r2
	lsls	r3, r3, #2
	ldr	r2, .L265+8
	add	r2, r2, r3
	ldr	r3, [sp, #8]
	adds	r3, r3, #4
	mov	r1, r3
	mov	r0, r2
	bl	vListInsertEnd
	b	.L261
.L260:
	.loc 4 3015 3
	ldr	r3, [sp, #8]
	adds	r3, r3, #24
	mov	r1, r3
	ldr	r0, .L265+12
	bl	vListInsertEnd
.L261:
	.loc 4 3018 20
	ldr	r3, [sp, #8]
	ldr	r2, [r3, #44]
	.loc 4 3018 47
	ldr	r3, .L265+16
	ldr	r3, [r3]
	ldr	r3, [r3, #44]
	.loc 4 3018 4
	cmp	r2, r3
	bls	.L262
	.loc 4 3023 11
	movs	r3, #1
	str	r3, [sp, #12]
	.loc 4 3027 17
	ldr	r3, .L265+20
	movs	r2, #1
	str	r2, [r3]
	b	.L263
.L262:
	.loc 4 3031 11
	movs	r3, #0
	str	r3, [sp, #12]
.L263:
	.loc 4 3048 9
	ldr	r3, [sp, #12]
	.loc 4 3049 1
	mov	r0, r3
	add	sp, sp, #20
.LCFI78:
	@ sp needed
	ldr	pc, [sp], #4
.L266:
	.align	2
.L265:
	.word	uxSchedulerSuspended
	.word	uxTopReadyPriority
	.word	pxReadyTasksLists
	.word	xPendingReadyList
	.word	pxCurrentTCB
	.word	xYieldPending
.LFE229:
	.size	xTaskRemoveFromEventList, .-xTaskRemoveFromEventList
	.section	.text.vTaskRemoveFromUnorderedEventList,"ax",%progbits
	.align	1
	.global	vTaskRemoveFromUnorderedEventList
	.syntax unified
	.thumb
	.thumb_func
	.fpu fpv4-sp-d16
	.type	vTaskRemoveFromUnorderedEventList, %function
vTaskRemoveFromUnorderedEventList:
.LFB230:
	.loc 4 3053 1
	@ args = 0, pretend = 0, frame = 16
	@ frame_needed = 0, uses_anonymous_args = 0
	push	{lr}
.LCFI79:
	sub	sp, sp, #20
.LCFI80:
	str	r0, [sp, #4]
	str	r1, [sp]
	.loc 4 3061 51
	ldr	r3, [sp]
	orr	r2, r3, #-2147483648
	.loc 4 3061 36
	ldr	r3, [sp, #4]
	str	r2, [r3]
	.loc 4 3065 17
	ldr	r3, [sp, #4]
	ldr	r3, [r3, #12]
	str	r3, [sp, #12]
	.loc 4 3067 11
	ldr	r0, [sp, #4]
	bl	uxListRemove
	.loc 4 3072 11
	ldr	r3, [sp, #12]
	adds	r3, r3, #4
	mov	r0, r3
	bl	uxListRemove
	.loc 4 3073 2
	ldr	r3, [sp, #12]
	mov	r0, r3
	bl	SEGGER_SYSVIEW_OnTaskStartReady
	.loc 4 3073 121
	ldr	r3, [sp, #12]
	ldr	r3, [r3, #44]
	.loc 4 3073 98
	movs	r2, #1
	lsls	r2, r2, r3
	.loc 4 3073 89
	ldr	r3, .L270
	ldr	r3, [r3]
	orrs	r3, r3, r2
	ldr	r2, .L270
	str	r3, [r2]
	.loc 4 3073 195
	ldr	r3, [sp, #12]
	ldr	r2, [r3, #44]
	.loc 4 3073 139
	mov	r3, r2
	lsls	r3, r3, #2
	add	r3, r3, r2
	lsls	r3, r3, #2
	ldr	r2, .L270+4
	add	r2, r2, r3
	ldr	r3, [sp, #12]
	adds	r3, r3, #4
	mov	r1, r3
	mov	r0, r2
	bl	vListInsertEnd
	.loc 4 3075 20
	ldr	r3, [sp, #12]
	ldr	r2, [r3, #44]
	.loc 4 3075 47
	ldr	r3, .L270+8
	ldr	r3, [r3]
	ldr	r3, [r3, #44]
	.loc 4 3075 4
	cmp	r2, r3
	bls	.L269
	.loc 4 3081 17
	ldr	r3, .L270+12
	movs	r2, #1
	str	r2, [r3]
.L269:
	.loc 4 3083 1
	nop
	add	sp, sp, #20
.LCFI81:
	@ sp needed
	ldr	pc, [sp], #4
.L271:
	.align	2
.L270:
	.word	uxTopReadyPriority
	.word	pxReadyTasksLists
	.word	pxCurrentTCB
	.word	xYieldPending
.LFE230:
	.size	vTaskRemoveFromUnorderedEventList, .-vTaskRemoveFromUnorderedEventList
	.section	.text.vTaskSetTimeOutState,"ax",%progbits
	.align	1
	.global	vTaskSetTimeOutState
	.syntax unified
	.thumb
	.thumb_func
	.fpu fpv4-sp-d16
	.type	vTaskSetTimeOutState, %function
vTaskSetTimeOutState:
.LFB231:
	.loc 4 3087 1
	@ args = 0, pretend = 0, frame = 8
	@ frame_needed = 0, uses_anonymous_args = 0
	push	{lr}
.LCFI82:
	sub	sp, sp, #12
.LCFI83:
	str	r0, [sp, #4]
	.loc 4 3089 2
	bl	vPortEnterCritical
	.loc 4 3091 29
	ldr	r3, .L273
	ldr	r2, [r3]
	ldr	r3, [sp, #4]
	str	r2, [r3]
	.loc 4 3092 30
	ldr	r3, .L273+4
	ldr	r2, [r3]
	ldr	r3, [sp, #4]
	str	r2, [r3, #4]
	.loc 4 3094 2
	bl	vPortExitCritical
	.loc 4 3095 1
	nop
	add	sp, sp, #12
.LCFI84:
	@ sp needed
	ldr	pc, [sp], #4
.L274:
	.align	2
.L273:
	.word	xNumOfOverflows
	.word	xTickCount
.LFE231:
	.size	vTaskSetTimeOutState, .-vTaskSetTimeOutState
	.section	.text.vTaskInternalSetTimeOutState,"ax",%progbits
	.align	1
	.global	vTaskInternalSetTimeOutState
	.syntax unified
	.thumb
	.thumb_func
	.fpu fpv4-sp-d16
	.type	vTaskInternalSetTimeOutState, %function
vTaskInternalSetTimeOutState:
.LFB232:
	.loc 4 3099 1
	@ args = 0, pretend = 0, frame = 8
	@ frame_needed = 0, uses_anonymous_args = 0
	@ link register save eliminated.
	sub	sp, sp, #8
.LCFI85:
	str	r0, [sp, #4]
	.loc 4 3101 28
	ldr	r3, .L276
	ldr	r2, [r3]
	ldr	r3, [sp, #4]
	str	r2, [r3]
	.loc 4 3102 29
	ldr	r3, .L276+4
	ldr	r2, [r3]
	ldr	r3, [sp, #4]
	str	r2, [r3, #4]
	.loc 4 3103 1
	nop
	add	sp, sp, #8
.LCFI86:
	@ sp needed
	bx	lr
.L277:
	.align	2
.L276:
	.word	xNumOfOverflows
	.word	xTickCount
.LFE232:
	.size	vTaskInternalSetTimeOutState, .-vTaskInternalSetTimeOutState
	.section	.text.xTaskCheckForTimeOut,"ax",%progbits
	.align	1
	.global	xTaskCheckForTimeOut
	.syntax unified
	.thumb
	.thumb_func
	.fpu fpv4-sp-d16
	.type	xTaskCheckForTimeOut, %function
xTaskCheckForTimeOut:
.LFB233:
	.loc 4 3107 1
	@ args = 0, pretend = 0, frame = 24
	@ frame_needed = 0, uses_anonymous_args = 0
	push	{lr}
.LCFI87:
	sub	sp, sp, #28
.LCFI88:
	str	r0, [sp, #4]
	str	r1, [sp]
	.loc 4 3113 2
	bl	vPortEnterCritical
.LBB160:
	.loc 4 3116 20
	ldr	r3, .L284
	ldr	r3, [r3]
	str	r3, [sp, #16]
	.loc 4 3117 62
	ldr	r3, [sp, #4]
	ldr	r3, [r3, #4]
	.loc 4 3117 20
	ldr	r2, [sp, #16]
	subs	r3, r2, r3
	str	r3, [sp, #12]
	.loc 4 3131 8
	ldr	r3, [sp]
	ldr	r3, [r3]
	.loc 4 3131 6
	cmp	r3, #-1
	bne	.L279
	.loc 4 3136 13
	movs	r3, #0
	str	r3, [sp, #20]
	b	.L280
.L279:
	.loc 4 3141 37
	ldr	r3, [sp, #4]
	ldr	r2, [r3]
	.loc 4 3141 25
	ldr	r3, .L284+4
	ldr	r3, [r3]
	.loc 4 3141 5
	cmp	r2, r3
	beq	.L281
	.loc 4 3141 89 discriminator 1
	ldr	r3, [sp, #4]
	ldr	r3, [r3, #4]
	.loc 4 3141 56 discriminator 1
	ldr	r2, [sp, #16]
	cmp	r2, r3
	bcc	.L281
	.loc 4 3148 12
	movs	r3, #1
	str	r3, [sp, #20]
	b	.L280
.L281:
	.loc 4 3150 27
	ldr	r3, [sp]
	ldr	r3, [r3]
	.loc 4 3150 10
	ldr	r2, [sp, #12]
	cmp	r2, r3
	bcs	.L282
	.loc 4 3153 19
	ldr	r3, [sp]
	ldr	r2, [r3]
	ldr	r3, [sp, #12]
	subs	r2, r2, r3
	ldr	r3, [sp]
	str	r2, [r3]
	.loc 4 3154 4
	ldr	r0, [sp, #4]
	bl	vTaskInternalSetTimeOutState
	.loc 4 3155 12
	movs	r3, #0
	str	r3, [sp, #20]
	b	.L280
.L282:
	.loc 4 3159 19
	ldr	r3, [sp]
	movs	r2, #0
	str	r2, [r3]
	.loc 4 3160 12
	movs	r3, #1
	str	r3, [sp, #20]
.L280:
.LBE160:
	.loc 4 3163 2
	bl	vPortExitCritical
	.loc 4 3165 9
	ldr	r3, [sp, #20]
	.loc 4 3166 1
	mov	r0, r3
	add	sp, sp, #28
.LCFI89:
	@ sp needed
	ldr	pc, [sp], #4
.L285:
	.align	2
.L284:
	.word	xTickCount
	.word	xNumOfOverflows
.LFE233:
	.size	xTaskCheckForTimeOut, .-xTaskCheckForTimeOut
	.section	.text.vTaskMissedYield,"ax",%progbits
	.align	1
	.global	vTaskMissedYield
	.syntax unified
	.thumb
	.thumb_func
	.fpu fpv4-sp-d16
	.type	vTaskMissedYield, %function
vTaskMissedYield:
.LFB234:
	.loc 4 3170 1
	@ args = 0, pretend = 0, frame = 0
	@ frame_needed = 0, uses_anonymous_args = 0
	@ link register save eliminated.
	.loc 4 3171 16
	ldr	r3, .L287
	movs	r2, #1
	str	r2, [r3]
	.loc 4 3172 1
	nop
	bx	lr
.L288:
	.align	2
.L287:
	.word	xYieldPending
.LFE234:
	.size	vTaskMissedYield, .-vTaskMissedYield
	.section	.text.uxTaskGetTaskNumber,"ax",%progbits
	.align	1
	.global	uxTaskGetTaskNumber
	.syntax unified
	.thumb
	.thumb_func
	.fpu fpv4-sp-d16
	.type	uxTaskGetTaskNumber, %function
uxTaskGetTaskNumber:
.LFB235:
	.loc 4 3178 2
	@ args = 0, pretend = 0, frame = 16
	@ frame_needed = 0, uses_anonymous_args = 0
	@ link register save eliminated.
	sub	sp, sp, #16
.LCFI90:
	str	r0, [sp, #4]
	.loc 4 3182 5
	ldr	r3, [sp, #4]
	cmp	r3, #0
	beq	.L290
	.loc 4 3184 10
	ldr	r3, [sp, #4]
	str	r3, [sp, #8]
	.loc 4 3185 13
	ldr	r3, [sp, #8]
	ldr	r3, [r3, #60]
	str	r3, [sp, #12]
	b	.L291
.L290:
	.loc 4 3189 13
	movs	r3, #0
	str	r3, [sp, #12]
.L291:
	.loc 4 3192 10
	ldr	r3, [sp, #12]
	.loc 4 3193 2
	mov	r0, r3
	add	sp, sp, #16
.LCFI91:
	@ sp needed
	bx	lr
.LFE235:
	.size	uxTaskGetTaskNumber, .-uxTaskGetTaskNumber
	.section	.text.vTaskSetTaskNumber,"ax",%progbits
	.align	1
	.global	vTaskSetTaskNumber
	.syntax unified
	.thumb
	.thumb_func
	.fpu fpv4-sp-d16
	.type	vTaskSetTaskNumber, %function
vTaskSetTaskNumber:
.LFB236:
	.loc 4 3201 2
	@ args = 0, pretend = 0, frame = 16
	@ frame_needed = 0, uses_anonymous_args = 0
	@ link register save eliminated.
	sub	sp, sp, #16
.LCFI92:
	str	r0, [sp, #4]
	str	r1, [sp]
	.loc 4 3204 5
	ldr	r3, [sp, #4]
	cmp	r3, #0
	beq	.L295
	.loc 4 3206 10
	ldr	r3, [sp, #4]
	str	r3, [sp, #12]
	.loc 4 3207 24
	ldr	r3, [sp, #12]
	ldr	r2, [sp]
	str	r2, [r3, #60]
.L295:
	.loc 4 3209 2
	nop
	add	sp, sp, #16
.LCFI93:
	@ sp needed
	bx	lr
.LFE236:
	.size	vTaskSetTaskNumber, .-vTaskSetTaskNumber
	.section	.text.prvIdleTask,"ax",%progbits
	.align	1
	.syntax unified
	.thumb
	.thumb_func
	.fpu fpv4-sp-d16
	.type	prvIdleTask, %function
prvIdleTask:
.LFB237:
	.loc 4 3225 1
	@ args = 0, pretend = 0, frame = 8
	@ frame_needed = 0, uses_anonymous_args = 0
	push	{lr}
.LCFI94:
	sub	sp, sp, #12
.LCFI95:
	str	r0, [sp, #4]
.L298:
	.loc 4 3241 3
	bl	prvCheckTasksWaitingTermination
	.loc 4 3264 62
	ldr	r3, .L299
	ldr	r3, [r3]
	.loc 4 3264 6
	cmp	r3, #1
	bls	.L298
	.loc 4 3266 53
	ldr	r3, .L299+4
	.loc 4 3266 60
	mov	r2, #268435456
	str	r2, [r3, #4]
.LBB161:
.LBB162:
	.loc 3 406 3
	.syntax unified
@ 406 "../../../../../../components/toolchain/cmsis/include/cmsis_gcc.h" 1
	sev
@ 0 "" 2
	.loc 3 407 1
	.thumb
	.syntax unified
	nop
.LBE162:
.LBE161:
.LBB163:
.LBB164:
	.loc 3 429 3
	.syntax unified
@ 429 "../../../../../../components/toolchain/cmsis/include/cmsis_gcc.h" 1
	dsb 0xF
@ 0 "" 2
	.loc 3 430 1
	.thumb
	.syntax unified
	nop
.LBE164:
.LBE163:
.LBB165:
.LBB166:
	.loc 3 418 3
	.syntax unified
@ 418 "../../../../../../components/toolchain/cmsis/include/cmsis_gcc.h" 1
	isb 0xF
@ 0 "" 2
	.loc 3 419 1
	.thumb
	.syntax unified
	nop
.LBE166:
.LBE165:
	.loc 4 3241 3
	b	.L298
.L300:
	.align	2
.L299:
	.word	pxReadyTasksLists
	.word	-536810240
.LFE237:
	.size	prvIdleTask, .-prvIdleTask
	.section	.text.prvInitialiseTaskLists,"ax",%progbits
	.align	1
	.syntax unified
	.thumb
	.thumb_func
	.fpu fpv4-sp-d16
	.type	prvInitialiseTaskLists, %function
prvInitialiseTaskLists:
.LFB238:
	.loc 4 3437 1
	@ args = 0, pretend = 0, frame = 8
	@ frame_needed = 0, uses_anonymous_args = 0
	push	{lr}
.LCFI96:
	sub	sp, sp, #12
.LCFI97:
	.loc 4 3440 18
	movs	r3, #0
	str	r3, [sp, #4]
	.loc 4 3440 2
	b	.L302
.L303:
	.loc 4 3442 3 discriminator 3
	ldr	r2, [sp, #4]
	mov	r3, r2
	lsls	r3, r3, #2
	add	r3, r3, r2
	lsls	r3, r3, #2
	ldr	r2, .L304
	add	r3, r3, r2
	mov	r0, r3
	bl	vListInitialise
	.loc 4 3440 86 discriminator 3
	ldr	r3, [sp, #4]
	adds	r3, r3, #1
	str	r3, [sp, #4]
.L302:
	.loc 4 3440 2 discriminator 1
	ldr	r3, [sp, #4]
	cmp	r3, #6
	bls	.L303
	.loc 4 3445 2
	ldr	r0, .L304+4
	bl	vListInitialise
	.loc 4 3446 2
	ldr	r0, .L304+8
	bl	vListInitialise
	.loc 4 3447 2
	ldr	r0, .L304+12
	bl	vListInitialise
	.loc 4 3451 3
	ldr	r0, .L304+16
	bl	vListInitialise
	.loc 4 3457 3
	ldr	r0, .L304+20
	bl	vListInitialise
	.loc 4 3463 20
	ldr	r3, .L304+24
	ldr	r2, .L304+4
	str	r2, [r3]
	.loc 4 3464 28
	ldr	r3, .L304+28
	ldr	r2, .L304+8
	str	r2, [r3]
	.loc 4 3465 1
	nop
	add	sp, sp, #12
.LCFI98:
	@ sp needed
	ldr	pc, [sp], #4
.L305:
	.align	2
.L304:
	.word	pxReadyTasksLists
	.word	xDelayedTaskList1
	.word	xDelayedTaskList2
	.word	xPendingReadyList
	.word	xTasksWaitingTermination
	.word	xSuspendedTaskList
	.word	pxDelayedTaskList
	.word	pxOverflowDelayedTaskList
.LFE238:
	.size	prvInitialiseTaskLists, .-prvInitialiseTaskLists
	.section	.text.prvCheckTasksWaitingTermination,"ax",%progbits
	.align	1
	.syntax unified
	.thumb
	.thumb_func
	.fpu fpv4-sp-d16
	.type	prvCheckTasksWaitingTermination, %function
prvCheckTasksWaitingTermination:
.LFB239:
	.loc 4 3469 1
	@ args = 0, pretend = 0, frame = 8
	@ frame_needed = 0, uses_anonymous_args = 0
	push	{lr}
.LCFI99:
	sub	sp, sp, #12
.LCFI100:
.LBB167:
	.loc 4 3479 8
	b	.L307
.L308:
	.loc 4 3481 4
	bl	vPortEnterCritical
	.loc 4 3483 77
	ldr	r3, .L309
	ldr	r3, [r3, #12]
	.loc 4 3483 11
	ldr	r3, [r3, #12]
	str	r3, [sp, #4]
	.loc 4 3484 14
	ldr	r3, [sp, #4]
	adds	r3, r3, #4
	mov	r0, r3
	bl	uxListRemove
	.loc 4 3485 5
	ldr	r3, .L309+4
	ldr	r3, [r3]
	subs	r3, r3, #1
	ldr	r2, .L309+4
	str	r3, [r2]
	.loc 4 3486 5
	ldr	r3, .L309+8
	ldr	r3, [r3]
	subs	r3, r3, #1
	ldr	r2, .L309+8
	str	r3, [r2]
	.loc 4 3488 4
	bl	vPortExitCritical
	.loc 4 3490 4
	ldr	r0, [sp, #4]
	bl	prvDeleteTCB
.L307:
	.loc 4 3479 39
	ldr	r3, .L309+8
	ldr	r3, [r3]
	.loc 4 3479 8
	cmp	r3, #0
	bne	.L308
.LBE167:
	.loc 4 3494 1
	nop
	nop
	add	sp, sp, #12
.LCFI101:
	@ sp needed
	ldr	pc, [sp], #4
.L310:
	.align	2
.L309:
	.word	xTasksWaitingTermination
	.word	uxCurrentNumberOfTasks
	.word	uxDeletedTasksWaitingCleanUp
.LFE239:
	.size	prvCheckTasksWaitingTermination, .-prvCheckTasksWaitingTermination
	.section	.text.vTaskGetInfo,"ax",%progbits
	.align	1
	.global	vTaskGetInfo
	.syntax unified
	.thumb
	.thumb_func
	.fpu fpv4-sp-d16
	.type	vTaskGetInfo, %function
vTaskGetInfo:
.LFB240:
	.loc 4 3500 2
	@ args = 0, pretend = 0, frame = 24
	@ frame_needed = 0, uses_anonymous_args = 0
	push	{lr}
.LCFI102:
	sub	sp, sp, #28
.LCFI103:
	str	r0, [sp, #12]
	str	r1, [sp, #8]
	str	r2, [sp, #4]
	strb	r3, [sp, #3]
	.loc 4 3504 39
	ldr	r3, [sp, #12]
	cmp	r3, #0
	bne	.L312
	.loc 4 3504 39 is_stmt 0 discriminator 1
	ldr	r3, .L321
	ldr	r3, [r3]
	b	.L313
.L312:
	.loc 4 3504 39 discriminator 2
	ldr	r3, [sp, #12]
.L313:
	.loc 4 3504 9 is_stmt 1 discriminator 4
	str	r3, [sp, #20]
	.loc 4 3506 25 discriminator 4
	ldr	r3, [sp, #8]
	ldr	r2, [sp, #20]
	str	r2, [r3]
	.loc 4 3507 47 discriminator 4
	ldr	r3, [sp, #20]
	add	r2, r3, #52
	.loc 4 3507 28 discriminator 4
	ldr	r3, [sp, #8]
	str	r2, [r3, #4]
	.loc 4 3508 42 discriminator 4
	ldr	r3, [sp, #20]
	ldr	r2, [r3, #44]
	.loc 4 3508 35 discriminator 4
	ldr	r3, [sp, #8]
	str	r2, [r3, #16]
	.loc 4 3509 36 discriminator 4
	ldr	r3, [sp, #20]
	ldr	r2, [r3, #48]
	.loc 4 3509 29 discriminator 4
	ldr	r3, [sp, #8]
	str	r2, [r3, #28]
	.loc 4 3510 36 discriminator 4
	ldr	r3, [sp, #20]
	ldr	r2, [r3, #56]
	.loc 4 3510 29 discriminator 4
	ldr	r3, [sp, #8]
	str	r2, [r3, #8]
	.loc 4 3514 40 discriminator 4
	ldr	r3, [sp, #20]
	ldr	r2, [r3, #64]
	.loc 4 3514 33 discriminator 4
	ldr	r3, [sp, #8]
	str	r2, [r3, #20]
	.loc 4 3528 35 discriminator 4
	ldr	r3, [sp, #8]
	movs	r2, #0
	str	r2, [r3, #24]
	.loc 4 3535 5 discriminator 4
	ldrb	r3, [sp, #3]	@ zero_extendqisi2
	cmp	r3, #5
	beq	.L314
	.loc 4 3537 14
	ldr	r3, .L321
	ldr	r3, [r3]
	.loc 4 3537 6
	ldr	r2, [sp, #20]
	cmp	r2, r3
	bne	.L315
	.loc 4 3539 33
	ldr	r3, [sp, #8]
	movs	r2, #0
	strb	r2, [r3, #12]
	b	.L316
.L315:
	.loc 4 3543 33
	ldr	r3, [sp, #8]
	ldrb	r2, [sp, #3]
	strb	r2, [r3, #12]
	.loc 4 3550 8
	ldrb	r3, [sp, #3]	@ zero_extendqisi2
	cmp	r3, #3
	bne	.L316
	.loc 4 3552 7
	bl	vTaskSuspendAll
	.loc 4 3554 44
	ldr	r3, [sp, #20]
	ldr	r3, [r3, #40]
	.loc 4 3554 10
	cmp	r3, #0
	beq	.L317
	.loc 4 3556 37
	ldr	r3, [sp, #8]
	movs	r2, #2
	strb	r2, [r3, #12]
.L317:
	.loc 4 3559 16
	bl	xTaskResumeAll
	b	.L316
.L314:
	.loc 4 3567 34
	ldr	r0, [sp, #20]
	bl	eTaskGetState
	mov	r3, r0
	mov	r2, r3
	.loc 4 3567 32
	ldr	r3, [sp, #8]
	strb	r2, [r3, #12]
.L316:
	.loc 4 3572 5
	ldr	r3, [sp, #4]
	cmp	r3, #0
	beq	.L318
	.loc 4 3580 89
	ldr	r3, [sp, #20]
	ldr	r3, [r3, #48]
	.loc 4 3580 42
	mov	r0, r3
	bl	prvTaskCheckFreeStackSpace
	mov	r3, r0
	mov	r2, r3
	.loc 4 3580 40
	ldr	r3, [sp, #8]
	strh	r2, [r3, #32]	@ movhi
	.loc 4 3588 2
	b	.L320
.L318:
	.loc 4 3586 39
	ldr	r3, [sp, #8]
	movs	r2, #0
	strh	r2, [r3, #32]	@ movhi
.L320:
	.loc 4 3588 2
	nop
	add	sp, sp, #28
.LCFI104:
	@ sp needed
	ldr	pc, [sp], #4
.L322:
	.align	2
.L321:
	.word	pxCurrentTCB
.LFE240:
	.size	vTaskGetInfo, .-vTaskGetInfo
	.section	.text.prvListTasksWithinSingleList,"ax",%progbits
	.align	1
	.syntax unified
	.thumb
	.thumb_func
	.fpu fpv4-sp-d16
	.type	prvListTasksWithinSingleList, %function
prvListTasksWithinSingleList:
.LFB241:
	.loc 4 3596 2
	@ args = 0, pretend = 0, frame = 40
	@ frame_needed = 0, uses_anonymous_args = 0
	push	{lr}
.LCFI105:
	sub	sp, sp, #44
.LCFI106:
	str	r0, [sp, #12]
	str	r1, [sp, #8]
	mov	r3, r2
	strb	r3, [sp, #7]
	.loc 4 3598 14
	movs	r3, #0
	str	r3, [sp, #36]
	.loc 4 3600 19
	ldr	r3, [sp, #8]
	ldr	r3, [r3]
	.loc 4 3600 5
	cmp	r3, #0
	beq	.L324
.LBB168:
	.loc 4 3602 21
	ldr	r3, [sp, #8]
	str	r3, [sp, #32]
	.loc 4 3602 89
	ldr	r3, [sp, #32]
	ldr	r3, [r3, #4]
	.loc 4 3602 98
	ldr	r2, [r3, #4]
	.loc 4 3602 72
	ldr	r3, [sp, #32]
	str	r2, [r3, #4]
	.loc 4 3602 138
	ldr	r3, [sp, #32]
	ldr	r2, [r3, #4]
	.loc 4 3602 162
	ldr	r3, [sp, #32]
	adds	r3, r3, #8
	.loc 4 3602 110
	cmp	r2, r3
	bne	.L325
	.loc 4 3602 239 discriminator 1
	ldr	r3, [sp, #32]
	ldr	r3, [r3, #4]
	.loc 4 3602 248 discriminator 1
	ldr	r2, [r3, #4]
	.loc 4 3602 222 discriminator 1
	ldr	r3, [sp, #32]
	str	r2, [r3, #4]
.L325:
	.loc 4 3602 292 discriminator 3
	ldr	r3, [sp, #32]
	ldr	r3, [r3, #4]
	.loc 4 3602 275 discriminator 3
	ldr	r3, [r3, #12]
	str	r3, [sp, #28]
.L327:
.LBE168:
.LBB169:
	.loc 4 3610 22
	ldr	r3, [sp, #8]
	str	r3, [sp, #24]
	.loc 4 3610 90
	ldr	r3, [sp, #24]
	ldr	r3, [r3, #4]
	.loc 4 3610 99
	ldr	r2, [r3, #4]
	.loc 4 3610 73
	ldr	r3, [sp, #24]
	str	r2, [r3, #4]
	.loc 4 3610 139
	ldr	r3, [sp, #24]
	ldr	r2, [r3, #4]
	.loc 4 3610 163
	ldr	r3, [sp, #24]
	adds	r3, r3, #8
	.loc 4 3610 111
	cmp	r2, r3
	bne	.L326
	.loc 4 3610 240 discriminator 1
	ldr	r3, [sp, #24]
	ldr	r3, [r3, #4]
	.loc 4 3610 249 discriminator 1
	ldr	r2, [r3, #4]
	.loc 4 3610 223 discriminator 1
	ldr	r3, [sp, #24]
	str	r2, [r3, #4]
.L326:
	.loc 4 3610 292 discriminator 3
	ldr	r3, [sp, #24]
	ldr	r3, [r3, #4]
	.loc 4 3610 275 discriminator 3
	ldr	r3, [r3, #12]
	str	r3, [sp, #20]
.LBE169:
	.loc 4 3611 67 discriminator 3
	ldr	r2, [sp, #36]
	mov	r3, r2
	lsls	r3, r3, #3
	add	r3, r3, r2
	lsls	r3, r3, #2
	mov	r2, r3
	.loc 4 3611 5 discriminator 3
	ldr	r3, [sp, #12]
	adds	r1, r3, r2
	ldrb	r3, [sp, #7]	@ zero_extendqisi2
	movs	r2, #1
	ldr	r0, [sp, #20]
	bl	vTaskGetInfo
	.loc 4 3612 11 discriminator 3
	ldr	r3, [sp, #36]
	adds	r3, r3, #1
	str	r3, [sp, #36]
	.loc 4 3613 4 discriminator 3
	ldr	r2, [sp, #20]
	ldr	r3, [sp, #28]
	cmp	r2, r3
	bne	.L327
.L324:
	.loc 4 3620 10
	ldr	r3, [sp, #36]
	.loc 4 3621 2
	mov	r0, r3
	add	sp, sp, #44
.LCFI107:
	@ sp needed
	ldr	pc, [sp], #4
.LFE241:
	.size	prvListTasksWithinSingleList, .-prvListTasksWithinSingleList
	.section	.text.prvTaskCheckFreeStackSpace,"ax",%progbits
	.align	1
	.syntax unified
	.thumb
	.thumb_func
	.fpu fpv4-sp-d16
	.type	prvTaskCheckFreeStackSpace, %function
prvTaskCheckFreeStackSpace:
.LFB242:
	.loc 4 3629 2
	@ args = 0, pretend = 0, frame = 16
	@ frame_needed = 0, uses_anonymous_args = 0
	@ link register save eliminated.
	sub	sp, sp, #16
.LCFI108:
	str	r0, [sp, #4]
	.loc 4 3630 11
	movs	r3, #0
	str	r3, [sp, #12]
	.loc 4 3632 8
	b	.L330
.L331:
	.loc 4 3634 17
	ldr	r3, [sp, #4]
	adds	r3, r3, #1
	str	r3, [sp, #4]
	.loc 4 3635 11
	ldr	r3, [sp, #12]
	adds	r3, r3, #1
	str	r3, [sp, #12]
.L330:
	.loc 4 3632 10
	ldr	r3, [sp, #4]
	ldrb	r3, [r3]	@ zero_extendqisi2
	.loc 4 3632 8
	cmp	r3, #165
	beq	.L331
	.loc 4 3638 11
	ldr	r3, [sp, #12]
	lsrs	r3, r3, #2
	str	r3, [sp, #12]
	.loc 4 3640 10
	ldr	r3, [sp, #12]
	uxth	r3, r3
	.loc 4 3641 2
	mov	r0, r3
	add	sp, sp, #16
.LCFI109:
	@ sp needed
	bx	lr
.LFE242:
	.size	prvTaskCheckFreeStackSpace, .-prvTaskCheckFreeStackSpace
	.section	.text.uxTaskGetStackHighWaterMark,"ax",%progbits
	.align	1
	.global	uxTaskGetStackHighWaterMark
	.syntax unified
	.thumb
	.thumb_func
	.fpu fpv4-sp-d16
	.type	uxTaskGetStackHighWaterMark, %function
uxTaskGetStackHighWaterMark:
.LFB243:
	.loc 4 3649 2
	@ args = 0, pretend = 0, frame = 24
	@ frame_needed = 0, uses_anonymous_args = 0
	push	{lr}
.LCFI110:
	sub	sp, sp, #28
.LCFI111:
	str	r0, [sp, #4]
	.loc 4 3654 39
	ldr	r3, [sp, #4]
	cmp	r3, #0
	bne	.L334
	.loc 4 3654 39 is_stmt 0 discriminator 1
	ldr	r3, .L337
	ldr	r3, [r3]
	b	.L335
.L334:
	.loc 4 3654 39 discriminator 2
	ldr	r3, [sp, #4]
.L335:
	.loc 4 3654 9 is_stmt 1 discriminator 4
	str	r3, [sp, #20]
	.loc 4 3658 18 discriminator 4
	ldr	r3, [sp, #20]
	ldr	r3, [r3, #48]
	str	r3, [sp, #16]
	.loc 4 3666 30 discriminator 4
	ldr	r0, [sp, #16]
	bl	prvTaskCheckFreeStackSpace
	mov	r3, r0
	.loc 4 3666 12 discriminator 4
	str	r3, [sp, #12]
	.loc 4 3668 10 discriminator 4
	ldr	r3, [sp, #12]
	.loc 4 3669 2 discriminator 4
	mov	r0, r3
	add	sp, sp, #28
.LCFI112:
	@ sp needed
	ldr	pc, [sp], #4
.L338:
	.align	2
.L337:
	.word	pxCurrentTCB
.LFE243:
	.size	uxTaskGetStackHighWaterMark, .-uxTaskGetStackHighWaterMark
	.section	.text.prvDeleteTCB,"ax",%progbits
	.align	1
	.syntax unified
	.thumb
	.thumb_func
	.fpu fpv4-sp-d16
	.type	prvDeleteTCB, %function
prvDeleteTCB:
.LFB244:
	.loc 4 3677 2
	@ args = 0, pretend = 0, frame = 8
	@ frame_needed = 0, uses_anonymous_args = 0
	push	{lr}
.LCFI113:
	sub	sp, sp, #12
.LCFI114:
	str	r0, [sp, #4]
	.loc 4 3695 20
	ldr	r3, [sp, #4]
	ldr	r3, [r3, #48]
	.loc 4 3695 4
	mov	r0, r3
	bl	vPortFree
	.loc 4 3696 4
	ldr	r0, [sp, #4]
	bl	vPortFree
	.loc 4 3725 2
	nop
	add	sp, sp, #12
.LCFI115:
	@ sp needed
	ldr	pc, [sp], #4
.LFE244:
	.size	prvDeleteTCB, .-prvDeleteTCB
	.section	.text.prvResetNextTaskUnblockTime,"ax",%progbits
	.align	1
	.syntax unified
	.thumb
	.thumb_func
	.fpu fpv4-sp-d16
	.type	prvResetNextTaskUnblockTime, %function
prvResetNextTaskUnblockTime:
.LFB245:
	.loc 4 3731 1
	@ args = 0, pretend = 0, frame = 8
	@ frame_needed = 0, uses_anonymous_args = 0
	@ link register save eliminated.
	sub	sp, sp, #8
.LCFI116:
	.loc 4 3734 46
	ldr	r3, .L346
	ldr	r3, [r3]
	ldr	r3, [r3]
	.loc 4 3734 89
	cmp	r3, #0
	bne	.L341
	.loc 4 3734 89 is_stmt 0 discriminator 1
	movs	r3, #1
	b	.L342
.L341:
	.loc 4 3734 89 discriminator 2
	movs	r3, #0
.L342:
	.loc 4 3734 4 is_stmt 1 discriminator 4
	cmp	r3, #0
	beq	.L343
	.loc 4 3740 24
	ldr	r3, .L346+4
	mov	r2, #-1
	str	r2, [r3]
	.loc 4 3751 1
	b	.L345
.L343:
	.loc 4 3748 54
	ldr	r3, .L346
	ldr	r3, [r3]
	.loc 4 3748 67
	ldr	r3, [r3, #12]
	.loc 4 3748 13
	ldr	r3, [r3, #12]
	str	r3, [sp, #4]
	.loc 4 3749 62
	ldr	r3, [sp, #4]
	ldr	r3, [r3, #4]
	.loc 4 3749 24
	ldr	r2, .L346+4
	str	r3, [r2]
.L345:
	.loc 4 3751 1
	nop
	add	sp, sp, #8
.LCFI117:
	@ sp needed
	bx	lr
.L347:
	.align	2
.L346:
	.word	pxDelayedTaskList
	.word	xNextTaskUnblockTime
.LFE245:
	.size	prvResetNextTaskUnblockTime, .-prvResetNextTaskUnblockTime
	.section	.text.xTaskGetCurrentTaskHandle,"ax",%progbits
	.align	1
	.global	xTaskGetCurrentTaskHandle
	.syntax unified
	.thumb
	.thumb_func
	.fpu fpv4-sp-d16
	.type	xTaskGetCurrentTaskHandle, %function
xTaskGetCurrentTaskHandle:
.LFB246:
	.loc 4 3757 2
	@ args = 0, pretend = 0, frame = 8
	@ frame_needed = 0, uses_anonymous_args = 0
	@ link register save eliminated.
	sub	sp, sp, #8
.LCFI118:
	.loc 4 3763 11
	ldr	r3, .L350
	ldr	r3, [r3]
	str	r3, [sp, #4]
	.loc 4 3765 10
	ldr	r3, [sp, #4]
	.loc 4 3766 2
	mov	r0, r3
	add	sp, sp, #8
.LCFI119:
	@ sp needed
	bx	lr
.L351:
	.align	2
.L350:
	.word	pxCurrentTCB
.LFE246:
	.size	xTaskGetCurrentTaskHandle, .-xTaskGetCurrentTaskHandle
	.section	.text.xTaskGetSchedulerState,"ax",%progbits
	.align	1
	.global	xTaskGetSchedulerState
	.syntax unified
	.thumb
	.thumb_func
	.fpu fpv4-sp-d16
	.type	xTaskGetSchedulerState, %function
xTaskGetSchedulerState:
.LFB247:
	.loc 4 3774 2
	@ args = 0, pretend = 0, frame = 8
	@ frame_needed = 0, uses_anonymous_args = 0
	@ link register save eliminated.
	sub	sp, sp, #8
.LCFI120:
	.loc 4 3777 25
	ldr	r3, .L357
	ldr	r3, [r3]
	.loc 4 3777 5
	cmp	r3, #0
	bne	.L353
	.loc 4 3779 12
	movs	r3, #1
	str	r3, [sp, #4]
	b	.L354
.L353:
	.loc 4 3783 29
	ldr	r3, .L357+4
	ldr	r3, [r3]
	.loc 4 3783 6
	cmp	r3, #0
	bne	.L355
	.loc 4 3785 13
	movs	r3, #2
	str	r3, [sp, #4]
	b	.L354
.L355:
	.loc 4 3789 13
	movs	r3, #0
	str	r3, [sp, #4]
.L354:
	.loc 4 3793 10
	ldr	r3, [sp, #4]
	.loc 4 3794 2
	mov	r0, r3
	add	sp, sp, #8
.LCFI121:
	@ sp needed
	bx	lr
.L358:
	.align	2
.L357:
	.word	xSchedulerRunning
	.word	uxSchedulerSuspended
.LFE247:
	.size	xTaskGetSchedulerState, .-xTaskGetSchedulerState
	.section	.text.xTaskPriorityInherit,"ax",%progbits
	.align	1
	.global	xTaskPriorityInherit
	.syntax unified
	.thumb
	.thumb_func
	.fpu fpv4-sp-d16
	.type	xTaskPriorityInherit, %function
xTaskPriorityInherit:
.LFB248:
	.loc 4 3802 2
	@ args = 0, pretend = 0, frame = 16
	@ frame_needed = 0, uses_anonymous_args = 0
	push	{lr}
.LCFI122:
	sub	sp, sp, #20
.LCFI123:
	str	r0, [sp, #4]
	.loc 4 3803 16
	ldr	r3, [sp, #4]
	str	r3, [sp, #8]
	.loc 4 3804 13
	movs	r3, #0
	str	r3, [sp, #12]
	.loc 4 3809 5
	ldr	r3, [sp, #4]
	cmp	r3, #0
	beq	.L360
	.loc 4 3814 24
	ldr	r3, [sp, #8]
	ldr	r2, [r3, #44]
	.loc 4 3814 51
	ldr	r3, .L369
	ldr	r3, [r3]
	ldr	r3, [r3, #44]
	.loc 4 3814 6
	cmp	r2, r3
	bcs	.L361
	.loc 4 3819 54
	ldr	r3, [sp, #8]
	ldr	r3, [r3, #24]
	.loc 4 3819 7
	cmp	r3, #0
	blt	.L362
	.loc 4 3821 116
	ldr	r3, .L369
	ldr	r3, [r3]
	ldr	r3, [r3, #44]
	.loc 4 3821 87
	rsb	r2, r3, #7
	.loc 4 3821 62
	ldr	r3, [sp, #8]
	str	r2, [r3, #24]
.L362:
	.loc 4 3830 69
	ldr	r3, [sp, #8]
	ldr	r1, [r3, #20]
	.loc 4 3830 137
	ldr	r3, [sp, #8]
	ldr	r2, [r3, #44]
	.loc 4 3830 99
	mov	r3, r2
	lsls	r3, r3, #2
	add	r3, r3, r2
	lsls	r3, r3, #2
	ldr	r2, .L369+4
	add	r3, r3, r2
	.loc 4 3830 160
	cmp	r1, r3
	bne	.L363
	.loc 4 3830 160 is_stmt 0 discriminator 1
	movs	r3, #1
	b	.L364
.L363:
	.loc 4 3830 160 discriminator 2
	movs	r3, #0
.L364:
	.loc 4 3830 7 is_stmt 1 discriminator 4
	cmp	r3, #0
	beq	.L365
	.loc 4 3832 10
	ldr	r3, [sp, #8]
	adds	r3, r3, #4
	mov	r0, r3
	bl	uxListRemove
	mov	r3, r0
	.loc 4 3832 8
	cmp	r3, #0
	bne	.L366
	.loc 4 3834 57
	ldr	r3, [sp, #8]
	ldr	r2, [r3, #44]
	.loc 4 3834 77
	ldr	r1, .L369+4
	mov	r3, r2
	lsls	r3, r3, #2
	add	r3, r3, r2
	lsls	r3, r3, #2
	add	r3, r3, r1
	ldr	r3, [r3]
	.loc 4 3834 11
	cmp	r3, #0
	bne	.L366
	.loc 4 3834 182 discriminator 1
	ldr	r3, [sp, #8]
	ldr	r3, [r3, #44]
	.loc 4 3834 159 discriminator 1
	movs	r2, #1
	lsl	r3, r2, r3
	.loc 4 3834 152 discriminator 1
	mvns	r2, r3
	.loc 4 3834 149 discriminator 1
	ldr	r3, .L369+8
	ldr	r3, [r3]
	ands	r3, r3, r2
	ldr	r2, .L369+8
	str	r3, [r2]
.L366:
	.loc 4 3842 49
	ldr	r3, .L369
	ldr	r3, [r3]
	ldr	r2, [r3, #44]
	.loc 4 3842 35
	ldr	r3, [sp, #8]
	str	r2, [r3, #44]
	.loc 4 3843 6
	ldr	r3, [sp, #8]
	mov	r0, r3
	bl	SEGGER_SYSVIEW_OnTaskStartReady
	.loc 4 3843 129
	ldr	r3, [sp, #8]
	ldr	r3, [r3, #44]
	.loc 4 3843 104
	movs	r2, #1
	lsls	r2, r2, r3
	.loc 4 3843 95
	ldr	r3, .L369+8
	ldr	r3, [r3]
	orrs	r3, r3, r2
	ldr	r2, .L369+8
	str	r3, [r2]
	.loc 4 3843 205
	ldr	r3, [sp, #8]
	ldr	r2, [r3, #44]
	.loc 4 3843 147
	mov	r3, r2
	lsls	r3, r3, #2
	add	r3, r3, r2
	lsls	r3, r3, #2
	ldr	r2, .L369+4
	add	r2, r2, r3
	ldr	r3, [sp, #8]
	adds	r3, r3, #4
	mov	r1, r3
	mov	r0, r2
	bl	vListInsertEnd
	b	.L367
.L365:
	.loc 4 3848 49
	ldr	r3, .L369
	ldr	r3, [r3]
	ldr	r2, [r3, #44]
	.loc 4 3848 35
	ldr	r3, [sp, #8]
	str	r2, [r3, #44]
.L367:
	.loc 4 3851 5
	ldr	r3, [sp, #4]
	mov	r1, r3
	movs	r0, #73
	bl	SEGGER_SYSVIEW_RecordU32
	.loc 4 3854 13
	movs	r3, #1
	str	r3, [sp, #12]
	b	.L360
.L361:
	.loc 4 3858 25
	ldr	r3, [sp, #8]
	ldr	r2, [r3, #64]
	.loc 4 3858 56
	ldr	r3, .L369
	ldr	r3, [r3]
	ldr	r3, [r3, #44]
	.loc 4 3858 7
	cmp	r2, r3
	bcs	.L360
	.loc 4 3867 14
	movs	r3, #1
	str	r3, [sp, #12]
.L360:
	.loc 4 3880 10
	ldr	r3, [sp, #12]
	.loc 4 3881 2
	mov	r0, r3
	add	sp, sp, #20
.LCFI124:
	@ sp needed
	ldr	pc, [sp], #4
.L370:
	.align	2
.L369:
	.word	pxCurrentTCB
	.word	pxReadyTasksLists
	.word	uxTopReadyPriority
.LFE248:
	.size	xTaskPriorityInherit, .-xTaskPriorityInherit
	.section	.text.xTaskPriorityDisinherit,"ax",%progbits
	.align	1
	.global	xTaskPriorityDisinherit
	.syntax unified
	.thumb
	.thumb_func
	.fpu fpv4-sp-d16
	.type	xTaskPriorityDisinherit, %function
xTaskPriorityDisinherit:
.LFB249:
	.loc 4 3889 2
	@ args = 0, pretend = 0, frame = 16
	@ frame_needed = 0, uses_anonymous_args = 0
	push	{lr}
.LCFI125:
	sub	sp, sp, #20
.LCFI126:
	str	r0, [sp, #4]
	.loc 4 3890 16
	ldr	r3, [sp, #4]
	str	r3, [sp, #8]
	.loc 4 3891 13
	movs	r3, #0
	str	r3, [sp, #12]
	.loc 4 3893 5
	ldr	r3, [sp, #4]
	cmp	r3, #0
	beq	.L372
	.loc 4 3901 11
	ldr	r3, [sp, #8]
	ldr	r3, [r3, #68]
	.loc 4 3901 28
	subs	r2, r3, #1
	ldr	r3, [sp, #8]
	str	r2, [r3, #68]
	.loc 4 3905 13
	ldr	r3, [sp, #8]
	ldr	r2, [r3, #44]
	.loc 4 3905 34
	ldr	r3, [sp, #8]
	ldr	r3, [r3, #64]
	.loc 4 3905 6
	cmp	r2, r3
	beq	.L372
	.loc 4 3908 14
	ldr	r3, [sp, #8]
	ldr	r3, [r3, #68]
	.loc 4 3908 7
	cmp	r3, #0
	bne	.L372
	.loc 4 3915 10
	ldr	r3, [sp, #8]
	adds	r3, r3, #4
	mov	r0, r3
	bl	uxListRemove
	mov	r3, r0
	.loc 4 3915 8
	cmp	r3, #0
	bne	.L373
	.loc 4 3917 46
	ldr	r3, [sp, #8]
	ldr	r2, [r3, #44]
	.loc 4 3917 66
	ldr	r1, .L375
	mov	r3, r2
	lsls	r3, r3, #2
	add	r3, r3, r2
	lsls	r3, r3, #2
	add	r3, r3, r1
	ldr	r3, [r3]
	.loc 4 3917 11
	cmp	r3, #0
	bne	.L373
	.loc 4 3917 160 discriminator 1
	ldr	r3, [sp, #8]
	ldr	r3, [r3, #44]
	.loc 4 3917 148 discriminator 1
	movs	r2, #1
	lsl	r3, r2, r3
	.loc 4 3917 141 discriminator 1
	mvns	r2, r3
	.loc 4 3917 138 discriminator 1
	ldr	r3, .L375+4
	ldr	r3, [r3]
	ands	r3, r3, r2
	ldr	r2, .L375+4
	str	r3, [r2]
.L373:
	.loc 4 3926 6
	ldr	r3, [sp, #4]
	mov	r1, r3
	movs	r0, #74
	bl	SEGGER_SYSVIEW_RecordU32
	.loc 4 3927 31
	ldr	r3, [sp, #8]
	ldr	r2, [r3, #64]
	.loc 4 3927 24
	ldr	r3, [sp, #8]
	str	r2, [r3, #44]
	.loc 4 3932 98
	ldr	r3, [sp, #8]
	ldr	r3, [r3, #44]
	.loc 4 3932 76
	rsb	r2, r3, #7
	.loc 4 3932 51
	ldr	r3, [sp, #8]
	str	r2, [r3, #24]
	.loc 4 3933 6
	ldr	r3, [sp, #8]
	mov	r0, r3
	bl	SEGGER_SYSVIEW_OnTaskStartReady
	.loc 4 3933 107
	ldr	r3, [sp, #8]
	ldr	r3, [r3, #44]
	.loc 4 3933 93
	movs	r2, #1
	lsls	r2, r2, r3
	.loc 4 3933 84
	ldr	r3, .L375+4
	ldr	r3, [r3]
	orrs	r3, r3, r2
	ldr	r2, .L375+4
	str	r3, [r2]
	.loc 4 3933 172
	ldr	r3, [sp, #8]
	ldr	r2, [r3, #44]
	.loc 4 3933 125
	mov	r3, r2
	lsls	r3, r3, #2
	add	r3, r3, r2
	lsls	r3, r3, #2
	ldr	r2, .L375
	add	r2, r2, r3
	ldr	r3, [sp, #8]
	adds	r3, r3, #4
	mov	r1, r3
	mov	r0, r2
	bl	vListInsertEnd
	.loc 4 3943 14
	movs	r3, #1
	str	r3, [sp, #12]
.L372:
	.loc 4 3960 10
	ldr	r3, [sp, #12]
	.loc 4 3961 2
	mov	r0, r3
	add	sp, sp, #20
.LCFI127:
	@ sp needed
	ldr	pc, [sp], #4
.L376:
	.align	2
.L375:
	.word	pxReadyTasksLists
	.word	uxTopReadyPriority
.LFE249:
	.size	xTaskPriorityDisinherit, .-xTaskPriorityDisinherit
	.section	.text.vTaskPriorityDisinheritAfterTimeout,"ax",%progbits
	.align	1
	.global	vTaskPriorityDisinheritAfterTimeout
	.syntax unified
	.thumb
	.thumb_func
	.fpu fpv4-sp-d16
	.type	vTaskPriorityDisinheritAfterTimeout, %function
vTaskPriorityDisinheritAfterTimeout:
.LFB250:
	.loc 4 3969 2
	@ args = 0, pretend = 0, frame = 24
	@ frame_needed = 0, uses_anonymous_args = 0
	push	{lr}
.LCFI128:
	sub	sp, sp, #28
.LCFI129:
	str	r0, [sp, #4]
	str	r1, [sp]
	.loc 4 3970 16
	ldr	r3, [sp, #4]
	str	r3, [sp, #16]
	.loc 4 3972 20
	movs	r3, #1
	str	r3, [sp, #12]
	.loc 4 3974 5
	ldr	r3, [sp, #4]
	cmp	r3, #0
	beq	.L385
	.loc 4 3984 13
	ldr	r3, [sp, #16]
	ldr	r3, [r3, #64]
	.loc 4 3984 6
	ldr	r2, [sp]
	cmp	r2, r3
	bls	.L379
	.loc 4 3986 21
	ldr	r3, [sp]
	str	r3, [sp, #20]
	b	.L380
.L379:
	.loc 4 3990 21
	ldr	r3, [sp, #16]
	ldr	r3, [r3, #64]
	str	r3, [sp, #20]
.L380:
	.loc 4 3994 13
	ldr	r3, [sp, #16]
	ldr	r3, [r3, #44]
	.loc 4 3994 6
	ldr	r2, [sp, #20]
	cmp	r2, r3
	beq	.L385
	.loc 4 4000 14
	ldr	r3, [sp, #16]
	ldr	r3, [r3, #68]
	.loc 4 4000 7
	ldr	r2, [sp, #12]
	cmp	r2, r3
	bne	.L385
	.loc 4 4010 6
	ldr	r3, [sp, #4]
	mov	r1, r3
	movs	r0, #74
	bl	SEGGER_SYSVIEW_RecordU32
	.loc 4 4011 28
	ldr	r3, [sp, #16]
	ldr	r3, [r3, #44]
	str	r3, [sp, #8]
	.loc 4 4012 24
	ldr	r3, [sp, #16]
	ldr	r2, [sp, #20]
	str	r2, [r3, #44]
	.loc 4 4016 44
	ldr	r3, [sp, #16]
	ldr	r3, [r3, #24]
	.loc 4 4016 8
	cmp	r3, #0
	blt	.L381
	.loc 4 4018 77
	ldr	r3, [sp, #20]
	rsb	r2, r3, #7
	.loc 4 4018 52
	ldr	r3, [sp, #16]
	str	r2, [r3, #24]
.L381:
	.loc 4 4031 59
	ldr	r3, [sp, #16]
	ldr	r1, [r3, #20]
	.loc 4 4031 89
	ldr	r2, [sp, #8]
	mov	r3, r2
	lsls	r3, r3, #2
	add	r3, r3, r2
	lsls	r3, r3, #2
	ldr	r2, .L386
	add	r3, r3, r2
	.loc 4 4031 143
	cmp	r1, r3
	bne	.L382
	.loc 4 4031 143 is_stmt 0 discriminator 1
	movs	r3, #1
	b	.L383
.L382:
	.loc 4 4031 143 discriminator 2
	movs	r3, #0
.L383:
	.loc 4 4031 8 is_stmt 1 discriminator 4
	cmp	r3, #0
	beq	.L385
	.loc 4 4033 11
	ldr	r3, [sp, #16]
	adds	r3, r3, #4
	mov	r0, r3
	bl	uxListRemove
	mov	r3, r0
	.loc 4 4033 9
	cmp	r3, #0
	bne	.L384
	.loc 4 4035 47
	ldr	r3, [sp, #16]
	ldr	r2, [r3, #44]
	.loc 4 4035 67
	ldr	r1, .L386
	mov	r3, r2
	lsls	r3, r3, #2
	add	r3, r3, r2
	lsls	r3, r3, #2
	add	r3, r3, r1
	ldr	r3, [r3]
	.loc 4 4035 12
	cmp	r3, #0
	bne	.L384
	.loc 4 4035 161 discriminator 1
	ldr	r3, [sp, #16]
	ldr	r3, [r3, #44]
	.loc 4 4035 149 discriminator 1
	movs	r2, #1
	lsl	r3, r2, r3
	.loc 4 4035 142 discriminator 1
	mvns	r2, r3
	.loc 4 4035 139 discriminator 1
	ldr	r3, .L386+4
	ldr	r3, [r3]
	ands	r3, r3, r2
	ldr	r2, .L386+4
	str	r3, [r2]
.L384:
	.loc 4 4042 7
	ldr	r3, [sp, #16]
	mov	r0, r3
	bl	SEGGER_SYSVIEW_OnTaskStartReady
	.loc 4 4042 108
	ldr	r3, [sp, #16]
	ldr	r3, [r3, #44]
	.loc 4 4042 94
	movs	r2, #1
	lsls	r2, r2, r3
	.loc 4 4042 85
	ldr	r3, .L386+4
	ldr	r3, [r3]
	orrs	r3, r3, r2
	ldr	r2, .L386+4
	str	r3, [r2]
	.loc 4 4042 173
	ldr	r3, [sp, #16]
	ldr	r2, [r3, #44]
	.loc 4 4042 126
	mov	r3, r2
	lsls	r3, r3, #2
	add	r3, r3, r2
	lsls	r3, r3, #2
	ldr	r2, .L386
	add	r2, r2, r3
	ldr	r3, [sp, #16]
	adds	r3, r3, #4
	mov	r1, r3
	mov	r0, r2
	bl	vListInsertEnd
.L385:
	.loc 4 4063 2
	nop
	add	sp, sp, #28
.LCFI130:
	@ sp needed
	ldr	pc, [sp], #4
.L387:
	.align	2
.L386:
	.word	pxReadyTasksLists
	.word	uxTopReadyPriority
.LFE250:
	.size	vTaskPriorityDisinheritAfterTimeout, .-vTaskPriorityDisinheritAfterTimeout
	.section	.text.uxTaskResetEventItemValue,"ax",%progbits
	.align	1
	.global	uxTaskResetEventItemValue
	.syntax unified
	.thumb
	.thumb_func
	.fpu fpv4-sp-d16
	.type	uxTaskResetEventItemValue, %function
uxTaskResetEventItemValue:
.LFB251:
	.loc 4 4380 1
	@ args = 0, pretend = 0, frame = 8
	@ frame_needed = 0, uses_anonymous_args = 0
	@ link register save eliminated.
	sub	sp, sp, #8
.LCFI131:
	.loc 4 4383 32
	ldr	r3, .L390
	ldr	r3, [r3]
	.loc 4 4383 11
	ldr	r3, [r3, #24]
	str	r3, [sp, #4]
	.loc 4 4387 110
	ldr	r3, .L390
	ldr	r3, [r3]
	ldr	r2, [r3, #44]
	.loc 4 4387 21
	ldr	r3, .L390
	ldr	r3, [r3]
	.loc 4 4387 81
	rsb	r2, r2, #7
	.loc 4 4387 54
	str	r2, [r3, #24]
	.loc 4 4389 9
	ldr	r3, [sp, #4]
	.loc 4 4390 1
	mov	r0, r3
	add	sp, sp, #8
.LCFI132:
	@ sp needed
	bx	lr
.L391:
	.align	2
.L390:
	.word	pxCurrentTCB
.LFE251:
	.size	uxTaskResetEventItemValue, .-uxTaskResetEventItemValue
	.section	.text.pvTaskIncrementMutexHeldCount,"ax",%progbits
	.align	1
	.global	pvTaskIncrementMutexHeldCount
	.syntax unified
	.thumb
	.thumb_func
	.fpu fpv4-sp-d16
	.type	pvTaskIncrementMutexHeldCount, %function
pvTaskIncrementMutexHeldCount:
.LFB252:
	.loc 4 4396 2
	@ args = 0, pretend = 0, frame = 0
	@ frame_needed = 0, uses_anonymous_args = 0
	@ link register save eliminated.
	.loc 4 4399 20
	ldr	r3, .L395
	ldr	r3, [r3]
	.loc 4 4399 5
	cmp	r3, #0
	beq	.L393
	.loc 4 4401 18
	ldr	r3, .L395
	ldr	r3, [r3]
	ldr	r2, [r3, #68]
	.loc 4 4401 35
	adds	r2, r2, #1
	str	r2, [r3, #68]
.L393:
	.loc 4 4404 10
	ldr	r3, .L395
	ldr	r3, [r3]
	.loc 4 4405 2
	mov	r0, r3
	bx	lr
.L396:
	.align	2
.L395:
	.word	pxCurrentTCB
.LFE252:
	.size	pvTaskIncrementMutexHeldCount, .-pvTaskIncrementMutexHeldCount
	.section	.text.ulTaskNotifyTake,"ax",%progbits
	.align	1
	.global	ulTaskNotifyTake
	.syntax unified
	.thumb
	.thumb_func
	.fpu fpv4-sp-d16
	.type	ulTaskNotifyTake, %function
ulTaskNotifyTake:
.LFB253:
	.loc 4 4413 2
	@ args = 0, pretend = 0, frame = 16
	@ frame_needed = 0, uses_anonymous_args = 0
	push	{lr}
.LCFI133:
	sub	sp, sp, #20
.LCFI134:
	str	r0, [sp, #4]
	str	r1, [sp]
	.loc 4 4416 3
	bl	vPortEnterCritical
	.loc 4 4419 20
	ldr	r3, .L403
	ldr	r3, [r3]
	ldr	r3, [r3, #72]
	.loc 4 4419 6
	cmp	r3, #0
	bne	.L398
	.loc 4 4422 17
	ldr	r3, .L403
	ldr	r3, [r3]
	.loc 4 4422 33
	movs	r2, #1
	strb	r2, [r3, #76]
	.loc 4 4424 7
	ldr	r3, [sp]
	cmp	r3, #0
	beq	.L398
	.loc 4 4426 6
	movs	r1, #1
	ldr	r0, [sp]
	bl	prvAddCurrentTaskToDelayedList
	.loc 4 4427 10
	bl	prvTraceGetCurrentTaskHandle
	mov	r3, r0
	mov	r0, r3
	bl	prvTraceGetTaskNumberHigh16
	mov	r3, r0
	mov	r2, r3
	ldr	r3, .L403+4
	ldrh	r3, [r3]
	ands	r3, r3, r2
	uxth	r3, r3
	.loc 4 4427 9
	cmp	r3, #0
	beq	.L399
	.loc 4 4427 98 discriminator 1
	ldr	r3, .L403
	ldr	r3, [r3]
	ldr	r2, [sp]
	mov	r1, r3
	movs	r0, #203
	bl	prvTraceStoreEvent2
.L399:
	.loc 4 4433 54
	ldr	r3, .L403+8
	.loc 4 4433 61
	mov	r2, #268435456
	str	r2, [r3, #4]
.LBB170:
.LBB171:
	.loc 3 406 3
	.syntax unified
@ 406 "../../../../../../components/toolchain/cmsis/include/cmsis_gcc.h" 1
	sev
@ 0 "" 2
	.loc 3 407 1
	.thumb
	.syntax unified
	nop
.LBE171:
.LBE170:
.LBB172:
.LBB173:
	.loc 3 429 3
	.syntax unified
@ 429 "../../../../../../components/toolchain/cmsis/include/cmsis_gcc.h" 1
	dsb 0xF
@ 0 "" 2
	.loc 3 430 1
	.thumb
	.syntax unified
	nop
.LBE173:
.LBE172:
.LBB174:
.LBB175:
	.loc 3 418 3
	.syntax unified
@ 418 "../../../../../../components/toolchain/cmsis/include/cmsis_gcc.h" 1
	isb 0xF
@ 0 "" 2
	.loc 3 419 1
	.thumb
	.syntax unified
	nop
.L398:
.LBE175:
.LBE174:
	.loc 4 4445 3
	bl	vPortExitCritical
	.loc 4 4447 3
	bl	vPortEnterCritical
	.loc 4 4449 4
	ldr	r3, [sp, #4]
	ldr	r2, [sp]
	mov	r1, r3
	movs	r0, #66
	bl	SEGGER_SYSVIEW_RecordU32x2
	.loc 4 4450 27
	ldr	r3, .L403
	ldr	r3, [r3]
	.loc 4 4450 13
	ldr	r3, [r3, #72]
	str	r3, [sp, #12]
	.loc 4 4452 6
	ldr	r3, [sp, #12]
	cmp	r3, #0
	beq	.L400
	.loc 4 4454 7
	ldr	r3, [sp, #4]
	cmp	r3, #0
	beq	.L401
	.loc 4 4456 18
	ldr	r3, .L403
	ldr	r3, [r3]
	.loc 4 4456 36
	movs	r2, #0
	str	r2, [r3, #72]
	b	.L400
.L401:
	.loc 4 4460 18
	ldr	r3, .L403
	ldr	r3, [r3]
	.loc 4 4460 47
	ldr	r2, [sp, #12]
	subs	r2, r2, #1
	.loc 4 4460 36
	str	r2, [r3, #72]
.L400:
	.loc 4 4468 16
	ldr	r3, .L403
	ldr	r3, [r3]
	.loc 4 4468 32
	movs	r2, #0
	strb	r2, [r3, #76]
	.loc 4 4470 3
	bl	vPortExitCritical
	.loc 4 4472 10
	ldr	r3, [sp, #12]
	.loc 4 4473 2
	mov	r0, r3
	add	sp, sp, #20
.LCFI135:
	@ sp needed
	ldr	pc, [sp], #4
.L404:
	.align	2
.L403:
	.word	pxCurrentTCB
	.word	CurrentFilterMask
	.word	-536810240
.LFE253:
	.size	ulTaskNotifyTake, .-ulTaskNotifyTake
	.section	.text.xTaskNotifyWait,"ax",%progbits
	.align	1
	.global	xTaskNotifyWait
	.syntax unified
	.thumb
	.thumb_func
	.fpu fpv4-sp-d16
	.type	xTaskNotifyWait, %function
xTaskNotifyWait:
.LFB254:
	.loc 4 4481 2
	@ args = 0, pretend = 0, frame = 24
	@ frame_needed = 0, uses_anonymous_args = 0
	push	{lr}
.LCFI136:
	sub	sp, sp, #36
.LCFI137:
	str	r0, [sp, #20]
	str	r1, [sp, #16]
	str	r2, [sp, #12]
	str	r3, [sp, #8]
	.loc 4 4484 3
	bl	vPortEnterCritical
	.loc 4 4487 20
	ldr	r3, .L412
	ldr	r3, [r3]
	ldrb	r3, [r3, #76]
	uxtb	r3, r3
	.loc 4 4487 6
	cmp	r3, #2
	beq	.L406
	.loc 4 4492 35
	ldr	r3, .L412
	ldr	r3, [r3]
	ldr	r1, [r3, #72]
	.loc 4 4492 38
	ldr	r2, [sp, #20]
	mvns	r2, r2
	.loc 4 4492 35
	ands	r2, r2, r1
	str	r2, [r3, #72]
	.loc 4 4495 17
	ldr	r3, .L412
	ldr	r3, [r3]
	.loc 4 4495 33
	movs	r2, #1
	strb	r2, [r3, #76]
	.loc 4 4497 7
	ldr	r3, [sp, #8]
	cmp	r3, #0
	beq	.L406
	.loc 4 4499 6
	movs	r1, #1
	ldr	r0, [sp, #8]
	bl	prvAddCurrentTaskToDelayedList
	.loc 4 4500 10
	bl	prvTraceGetCurrentTaskHandle
	mov	r3, r0
	mov	r0, r3
	bl	prvTraceGetTaskNumberHigh16
	mov	r3, r0
	mov	r2, r3
	ldr	r3, .L412+4
	ldrh	r3, [r3]
	ands	r3, r3, r2
	uxth	r3, r3
	.loc 4 4500 9
	cmp	r3, #0
	beq	.L407
	.loc 4 4500 98 discriminator 1
	ldr	r3, .L412
	ldr	r3, [r3]
	ldr	r2, [sp, #8]
	mov	r1, r3
	movs	r0, #206
	bl	prvTraceStoreEvent2
.L407:
	.loc 4 4506 54
	ldr	r3, .L412+8
	.loc 4 4506 61
	mov	r2, #268435456
	str	r2, [r3, #4]
.LBB176:
.LBB177:
	.loc 3 406 3
	.syntax unified
@ 406 "../../../../../../components/toolchain/cmsis/include/cmsis_gcc.h" 1
	sev
@ 0 "" 2
	.loc 3 407 1
	.thumb
	.syntax unified
	nop
.LBE177:
.LBE176:
.LBB178:
.LBB179:
	.loc 3 429 3
	.syntax unified
@ 429 "../../../../../../components/toolchain/cmsis/include/cmsis_gcc.h" 1
	dsb 0xF
@ 0 "" 2
	.loc 3 430 1
	.thumb
	.syntax unified
	nop
.LBE179:
.LBE178:
.LBB180:
.LBB181:
	.loc 3 418 3
	.syntax unified
@ 418 "../../../../../../components/toolchain/cmsis/include/cmsis_gcc.h" 1
	isb 0xF
@ 0 "" 2
	.loc 3 419 1
	.thumb
	.syntax unified
	nop
.L406:
.LBE181:
.LBE180:
	.loc 4 4518 3
	bl	vPortExitCritical
	.loc 4 4520 3
	bl	vPortEnterCritical
	.loc 4 4522 4
	ldr	r2, [sp, #12]
	ldr	r3, [sp, #8]
	str	r3, [sp]
	mov	r3, r2
	ldr	r2, [sp, #16]
	ldr	r1, [sp, #20]
	movs	r0, #64
	bl	SEGGER_SYSVIEW_RecordU32x4
	.loc 4 4524 6
	ldr	r3, [sp, #12]
	cmp	r3, #0
	beq	.L408
	.loc 4 4528 41
	ldr	r3, .L412
	ldr	r3, [r3]
	ldr	r2, [r3, #72]
	.loc 4 4528 27
	ldr	r3, [sp, #12]
	str	r2, [r3]
.L408:
	.loc 4 4535 20
	ldr	r3, .L412
	ldr	r3, [r3]
	ldrb	r3, [r3, #76]
	uxtb	r3, r3
	.loc 4 4535 6
	cmp	r3, #2
	beq	.L409
	.loc 4 4538 13
	movs	r3, #0
	str	r3, [sp, #28]
	b	.L410
.L409:
	.loc 4 4544 35
	ldr	r3, .L412
	ldr	r3, [r3]
	ldr	r1, [r3, #72]
	.loc 4 4544 38
	ldr	r2, [sp, #16]
	mvns	r2, r2
	.loc 4 4544 35
	ands	r2, r2, r1
	str	r2, [r3, #72]
	.loc 4 4545 13
	movs	r3, #1
	str	r3, [sp, #28]
.L410:
	.loc 4 4548 16
	ldr	r3, .L412
	ldr	r3, [r3]
	.loc 4 4548 32
	movs	r2, #0
	strb	r2, [r3, #76]
	.loc 4 4550 3
	bl	vPortExitCritical
	.loc 4 4552 10
	ldr	r3, [sp, #28]
	.loc 4 4553 2
	mov	r0, r3
	add	sp, sp, #36
.LCFI138:
	@ sp needed
	ldr	pc, [sp], #4
.L413:
	.align	2
.L412:
	.word	pxCurrentTCB
	.word	CurrentFilterMask
	.word	-536810240
.LFE254:
	.size	xTaskNotifyWait, .-xTaskNotifyWait
	.section	.text.xTaskGenericNotify,"ax",%progbits
	.align	1
	.global	xTaskGenericNotify
	.syntax unified
	.thumb
	.thumb_func
	.fpu fpv4-sp-d16
	.type	xTaskGenericNotify, %function
xTaskGenericNotify:
.LFB255:
	.loc 4 4561 2
	@ args = 0, pretend = 0, frame = 32
	@ frame_needed = 0, uses_anonymous_args = 0
	push	{lr}
.LCFI139:
	sub	sp, sp, #44
.LCFI140:
	str	r0, [sp, #20]
	str	r1, [sp, #16]
	str	r3, [sp, #8]
	mov	r3, r2
	strb	r3, [sp, #15]
	.loc 4 4563 13
	movs	r3, #1
	str	r3, [sp, #36]
	.loc 4 4567 9
	ldr	r3, [sp, #20]
	str	r3, [sp, #32]
	.loc 4 4569 3
	bl	vPortEnterCritical
	.loc 4 4571 6
	ldr	r3, [sp, #8]
	cmp	r3, #0
	beq	.L415
	.loc 4 4573 42
	ldr	r3, [sp, #32]
	ldr	r2, [r3, #72]
	.loc 4 4573 35
	ldr	r3, [sp, #8]
	str	r2, [r3]
.L415:
	.loc 4 4576 26
	ldr	r3, [sp, #32]
	ldrb	r3, [r3, #76]
	strb	r3, [sp, #31]
	.loc 4 4578 25
	ldr	r3, [sp, #32]
	movs	r2, #2
	strb	r2, [r3, #76]
	.loc 4 4580 4
	ldrb	r3, [sp, #15]	@ zero_extendqisi2
	cmp	r3, #4
	bhi	.L416
	adr	r2, .L418
	ldr	pc, [r2, r3, lsl #2]
	.p2align 2
.L418:
	.word	.L416+1
	.word	.L421+1
	.word	.L420+1
	.word	.L419+1
	.word	.L417+1
	.p2align 1
.L421:
	.loc 4 4583 29
	ldr	r3, [sp, #32]
	ldr	r2, [r3, #72]
	ldr	r3, [sp, #16]
	orrs	r2, r2, r3
	ldr	r3, [sp, #32]
	str	r2, [r3, #72]
	.loc 4 4584 6
	b	.L416
.L420:
	.loc 4 4587 13
	ldr	r3, [sp, #32]
	ldr	r3, [r3, #72]
	.loc 4 4587 32
	adds	r2, r3, #1
	ldr	r3, [sp, #32]
	str	r2, [r3, #72]
	.loc 4 4588 6
	b	.L416
.L419:
	.loc 4 4591 29
	ldr	r3, [sp, #32]
	ldr	r2, [sp, #16]
	str	r2, [r3, #72]
	.loc 4 4592 6
	b	.L416
.L417:
	.loc 4 4595 8
	ldrb	r3, [sp, #31]	@ zero_extendqisi2
	cmp	r3, #2
	beq	.L423
	.loc 4 4597 30
	ldr	r3, [sp, #32]
	ldr	r2, [sp, #16]
	str	r2, [r3, #72]
	.loc 4 4604 6
	b	.L427
.L423:
	.loc 4 4602 15
	movs	r3, #0
	str	r3, [sp, #36]
.L427:
	.loc 4 4604 6
	nop
.L416:
	.loc 4 4612 4
	ldr	r3, [sp, #32]
	mov	r0, r3
	bl	SEGGER_SYSVIEW_ShrinkId
	mov	r1, r0
	ldrb	r2, [sp, #15]	@ zero_extendqisi2
	ldr	r3, [sp, #8]
	str	r3, [sp]
	mov	r3, r2
	ldr	r2, [sp, #16]
	movs	r0, #62
	bl	SEGGER_SYSVIEW_RecordU32x4
	.loc 4 4616 6
	ldrb	r3, [sp, #31]	@ zero_extendqisi2
	cmp	r3, #1
	bne	.L425
	.loc 4 4618 14
	ldr	r3, [sp, #32]
	adds	r3, r3, #4
	mov	r0, r3
	bl	uxListRemove
	.loc 4 4619 5
	ldr	r3, [sp, #32]
	mov	r0, r3
	bl	SEGGER_SYSVIEW_OnTaskStartReady
	.loc 4 4619 106
	ldr	r3, [sp, #32]
	ldr	r3, [r3, #44]
	.loc 4 4619 92
	movs	r2, #1
	lsls	r2, r2, r3
	.loc 4 4619 83
	ldr	r3, .L428
	ldr	r3, [r3]
	orrs	r3, r3, r2
	ldr	r2, .L428
	str	r3, [r2]
	.loc 4 4619 171
	ldr	r3, [sp, #32]
	ldr	r2, [r3, #44]
	.loc 4 4619 124
	mov	r3, r2
	lsls	r3, r3, #2
	add	r3, r3, r2
	lsls	r3, r3, #2
	ldr	r2, .L428+4
	add	r2, r2, r3
	ldr	r3, [sp, #32]
	adds	r3, r3, #4
	mov	r1, r3
	mov	r0, r2
	bl	vListInsertEnd
	.loc 4 4640 14
	ldr	r3, [sp, #32]
	ldr	r2, [r3, #44]
	.loc 4 4640 41
	ldr	r3, .L428+8
	ldr	r3, [r3]
	ldr	r3, [r3, #44]
	.loc 4 4640 7
	cmp	r2, r3
	bls	.L425
	.loc 4 4644 54
	ldr	r3, .L428+12
	.loc 4 4644 61
	mov	r2, #268435456
	str	r2, [r3, #4]
.LBB182:
.LBB183:
	.loc 3 406 3
	.syntax unified
@ 406 "../../../../../../components/toolchain/cmsis/include/cmsis_gcc.h" 1
	sev
@ 0 "" 2
	.loc 3 407 1
	.thumb
	.syntax unified
	nop
.LBE183:
.LBE182:
.LBB184:
.LBB185:
	.loc 3 429 3
	.syntax unified
@ 429 "../../../../../../components/toolchain/cmsis/include/cmsis_gcc.h" 1
	dsb 0xF
@ 0 "" 2
	.loc 3 430 1
	.thumb
	.syntax unified
	nop
.LBE185:
.LBE184:
.LBB186:
.LBB187:
	.loc 3 418 3
	.syntax unified
@ 418 "../../../../../../components/toolchain/cmsis/include/cmsis_gcc.h" 1
	isb 0xF
@ 0 "" 2
	.loc 3 419 1
	.thumb
	.syntax unified
	nop
.L425:
.LBE187:
.LBE186:
	.loc 4 4656 3
	bl	vPortExitCritical
	.loc 4 4658 10
	ldr	r3, [sp, #36]
	.loc 4 4659 2
	mov	r0, r3
	add	sp, sp, #44
.LCFI141:
	@ sp needed
	ldr	pc, [sp], #4
.L429:
	.align	2
.L428:
	.word	uxTopReadyPriority
	.word	pxReadyTasksLists
	.word	pxCurrentTCB
	.word	-536810240
.LFE255:
	.size	xTaskGenericNotify, .-xTaskGenericNotify
	.section	.text.xTaskGenericNotifyFromISR,"ax",%progbits
	.align	1
	.global	xTaskGenericNotifyFromISR
	.syntax unified
	.thumb
	.thumb_func
	.fpu fpv4-sp-d16
	.type	xTaskGenericNotifyFromISR, %function
xTaskGenericNotifyFromISR:
.LFB256:
	.loc 4 4667 2
	@ args = 4, pretend = 0, frame = 40
	@ frame_needed = 0, uses_anonymous_args = 0
	push	{lr}
.LCFI142:
	sub	sp, sp, #52
.LCFI143:
	str	r0, [sp, #20]
	str	r1, [sp, #16]
	str	r3, [sp, #8]
	mov	r3, r2
	strb	r3, [sp, #15]
	.loc 4 4670 13
	movs	r3, #1
	str	r3, [sp, #44]
	.loc 4 4693 9
	ldr	r3, [sp, #20]
	str	r3, [sp, #40]
	.loc 4 4695 28
	bl	ulPortRaiseBASEPRI
	str	r0, [sp, #36]
	.loc 4 4697 6
	ldr	r3, [sp, #8]
	cmp	r3, #0
	beq	.L431
	.loc 4 4699 42
	ldr	r3, [sp, #40]
	ldr	r2, [r3, #72]
	.loc 4 4699 35
	ldr	r3, [sp, #8]
	str	r2, [r3]
.L431:
	.loc 4 4702 26
	ldr	r3, [sp, #40]
	ldrb	r3, [r3, #76]
	strb	r3, [sp, #35]
	.loc 4 4703 25
	ldr	r3, [sp, #40]
	movs	r2, #2
	strb	r2, [r3, #76]
	.loc 4 4705 4
	ldrb	r3, [sp, #15]	@ zero_extendqisi2
	cmp	r3, #4
	bhi	.L432
	adr	r2, .L434
	ldr	pc, [r2, r3, lsl #2]
	.p2align 2
.L434:
	.word	.L432+1
	.word	.L437+1
	.word	.L436+1
	.word	.L435+1
	.word	.L433+1
	.p2align 1
.L437:
	.loc 4 4708 29
	ldr	r3, [sp, #40]
	ldr	r2, [r3, #72]
	ldr	r3, [sp, #16]
	orrs	r2, r2, r3
	ldr	r3, [sp, #40]
	str	r2, [r3, #72]
	.loc 4 4709 6
	b	.L432
.L436:
	.loc 4 4712 13
	ldr	r3, [sp, #40]
	ldr	r3, [r3, #72]
	.loc 4 4712 32
	adds	r2, r3, #1
	ldr	r3, [sp, #40]
	str	r2, [r3, #72]
	.loc 4 4713 6
	b	.L432
.L435:
	.loc 4 4716 29
	ldr	r3, [sp, #40]
	ldr	r2, [sp, #16]
	str	r2, [r3, #72]
	.loc 4 4717 6
	b	.L432
.L433:
	.loc 4 4720 8
	ldrb	r3, [sp, #35]	@ zero_extendqisi2
	cmp	r3, #2
	beq	.L439
	.loc 4 4722 30
	ldr	r3, [sp, #40]
	ldr	r2, [sp, #16]
	str	r2, [r3, #72]
	.loc 4 4729 6
	b	.L446
.L439:
	.loc 4 4727 15
	movs	r3, #0
	str	r3, [sp, #44]
.L446:
	.loc 4 4729 6
	nop
.L432:
	.loc 4 4737 4
	ldr	r3, [sp, #40]
	mov	r0, r3
	bl	SEGGER_SYSVIEW_ShrinkId
	ldrb	r1, [sp, #15]	@ zero_extendqisi2
	ldr	r3, [sp, #8]
	ldr	r2, [sp, #56]
	str	r2, [sp, #4]
	str	r3, [sp]
	mov	r3, r1
	ldr	r2, [sp, #16]
	mov	r1, r0
	movs	r0, #63
	bl	SEGGER_SYSVIEW_RecordU32x5
	.loc 4 4741 6
	ldrb	r3, [sp, #35]	@ zero_extendqisi2
	cmp	r3, #1
	bne	.L441
	.loc 4 4746 30
	ldr	r3, .L447
	ldr	r3, [r3]
	.loc 4 4746 7
	cmp	r3, #0
	bne	.L442
	.loc 4 4748 15
	ldr	r3, [sp, #40]
	adds	r3, r3, #4
	mov	r0, r3
	bl	uxListRemove
	.loc 4 4749 6
	ldr	r3, [sp, #40]
	mov	r0, r3
	bl	SEGGER_SYSVIEW_OnTaskStartReady
	.loc 4 4749 107
	ldr	r3, [sp, #40]
	ldr	r3, [r3, #44]
	.loc 4 4749 93
	movs	r2, #1
	lsls	r2, r2, r3
	.loc 4 4749 84
	ldr	r3, .L447+4
	ldr	r3, [r3]
	orrs	r3, r3, r2
	ldr	r2, .L447+4
	str	r3, [r2]
	.loc 4 4749 172
	ldr	r3, [sp, #40]
	ldr	r2, [r3, #44]
	.loc 4 4749 125
	mov	r3, r2
	lsls	r3, r3, #2
	add	r3, r3, r2
	lsls	r3, r3, #2
	ldr	r2, .L447+8
	add	r2, r2, r3
	ldr	r3, [sp, #40]
	adds	r3, r3, #4
	mov	r1, r3
	mov	r0, r2
	bl	vListInsertEnd
	b	.L443
.L442:
	.loc 4 4755 6
	ldr	r3, [sp, #40]
	adds	r3, r3, #24
	mov	r1, r3
	ldr	r0, .L447+12
	bl	vListInsertEnd
.L443:
	.loc 4 4758 14
	ldr	r3, [sp, #40]
	ldr	r2, [r3, #44]
	.loc 4 4758 41
	ldr	r3, .L447+16
	ldr	r3, [r3]
	ldr	r3, [r3, #44]
	.loc 4 4758 7
	cmp	r2, r3
	bls	.L441
	.loc 4 4762 8
	ldr	r3, [sp, #56]
	cmp	r3, #0
	beq	.L444
	.loc 4 4764 34
	ldr	r3, [sp, #56]
	movs	r2, #1
	str	r2, [r3]
	b	.L441
.L444:
	.loc 4 4771 21
	ldr	r3, .L447+20
	movs	r2, #1
	str	r2, [r3]
.L441:
	ldr	r3, [sp, #36]
	str	r3, [sp, #28]
.LBB188:
.LBB189:
	.loc 3 264 3
	ldr	r3, [sp, #28]
	.syntax unified
@ 264 "../../../../../../components/toolchain/cmsis/include/cmsis_gcc.h" 1
	MSR basepri, r3
@ 0 "" 2
	.loc 3 265 1
	.thumb
	.syntax unified
	nop
.LBE189:
.LBE188:
	.loc 4 4782 10
	ldr	r3, [sp, #44]
	.loc 4 4783 2
	mov	r0, r3
	add	sp, sp, #52
.LCFI144:
	@ sp needed
	ldr	pc, [sp], #4
.L448:
	.align	2
.L447:
	.word	uxSchedulerSuspended
	.word	uxTopReadyPriority
	.word	pxReadyTasksLists
	.word	xPendingReadyList
	.word	pxCurrentTCB
	.word	xYieldPending
.LFE256:
	.size	xTaskGenericNotifyFromISR, .-xTaskGenericNotifyFromISR
	.section	.text.vTaskNotifyGiveFromISR,"ax",%progbits
	.align	1
	.global	vTaskNotifyGiveFromISR
	.syntax unified
	.thumb
	.thumb_func
	.fpu fpv4-sp-d16
	.type	vTaskNotifyGiveFromISR, %function
vTaskNotifyGiveFromISR:
.LFB257:
	.loc 4 4791 2
	@ args = 0, pretend = 0, frame = 24
	@ frame_needed = 0, uses_anonymous_args = 0
	push	{lr}
.LCFI145:
	sub	sp, sp, #28
.LCFI146:
	str	r0, [sp, #4]
	str	r1, [sp]
	.loc 4 4816 9
	ldr	r3, [sp, #4]
	str	r3, [sp, #20]
	.loc 4 4818 28
	bl	ulPortRaiseBASEPRI
	str	r0, [sp, #16]
	.loc 4 4820 26
	ldr	r3, [sp, #20]
	ldrb	r3, [r3, #76]
	strb	r3, [sp, #15]
	.loc 4 4821 25
	ldr	r3, [sp, #20]
	movs	r2, #2
	strb	r2, [r3, #76]
	.loc 4 4825 11
	ldr	r3, [sp, #20]
	ldr	r3, [r3, #72]
	.loc 4 4825 30
	adds	r2, r3, #1
	ldr	r3, [sp, #20]
	str	r2, [r3, #72]
	.loc 4 4827 4
	ldr	r3, [sp, #20]
	mov	r0, r3
	bl	SEGGER_SYSVIEW_ShrinkId
	mov	r1, r0
	ldr	r3, [sp]
	mov	r2, r3
	movs	r0, #65
	bl	SEGGER_SYSVIEW_RecordU32x2
	.loc 4 4831 6
	ldrb	r3, [sp, #15]	@ zero_extendqisi2
	cmp	r3, #1
	bne	.L450
	.loc 4 4836 30
	ldr	r3, .L454
	ldr	r3, [r3]
	.loc 4 4836 7
	cmp	r3, #0
	bne	.L451
	.loc 4 4838 15
	ldr	r3, [sp, #20]
	adds	r3, r3, #4
	mov	r0, r3
	bl	uxListRemove
	.loc 4 4839 6
	ldr	r3, [sp, #20]
	mov	r0, r3
	bl	SEGGER_SYSVIEW_OnTaskStartReady
	.loc 4 4839 107
	ldr	r3, [sp, #20]
	ldr	r3, [r3, #44]
	.loc 4 4839 93
	movs	r2, #1
	lsls	r2, r2, r3
	.loc 4 4839 84
	ldr	r3, .L454+4
	ldr	r3, [r3]
	orrs	r3, r3, r2
	ldr	r2, .L454+4
	str	r3, [r2]
	.loc 4 4839 172
	ldr	r3, [sp, #20]
	ldr	r2, [r3, #44]
	.loc 4 4839 125
	mov	r3, r2
	lsls	r3, r3, #2
	add	r3, r3, r2
	lsls	r3, r3, #2
	ldr	r2, .L454+8
	add	r2, r2, r3
	ldr	r3, [sp, #20]
	adds	r3, r3, #4
	mov	r1, r3
	mov	r0, r2
	bl	vListInsertEnd
	b	.L452
.L451:
	.loc 4 4845 6
	ldr	r3, [sp, #20]
	adds	r3, r3, #24
	mov	r1, r3
	ldr	r0, .L454+12
	bl	vListInsertEnd
.L452:
	.loc 4 4848 14
	ldr	r3, [sp, #20]
	ldr	r2, [r3, #44]
	.loc 4 4848 41
	ldr	r3, .L454+16
	ldr	r3, [r3]
	ldr	r3, [r3, #44]
	.loc 4 4848 7
	cmp	r2, r3
	bls	.L450
	.loc 4 4852 8
	ldr	r3, [sp]
	cmp	r3, #0
	beq	.L453
	.loc 4 4854 34
	ldr	r3, [sp]
	movs	r2, #1
	str	r2, [r3]
	b	.L450
.L453:
	.loc 4 4861 21
	ldr	r3, .L454+20
	movs	r2, #1
	str	r2, [r3]
.L450:
	ldr	r3, [sp, #16]
	str	r3, [sp, #8]
.LBB190:
.LBB191:
	.loc 3 264 3
	ldr	r3, [sp, #8]
	.syntax unified
@ 264 "../../../../../../components/toolchain/cmsis/include/cmsis_gcc.h" 1
	MSR basepri, r3
@ 0 "" 2
	.loc 3 265 1
	.thumb
	.syntax unified
	nop
.LBE191:
.LBE190:
	.loc 4 4871 2
	nop
	add	sp, sp, #28
.LCFI147:
	@ sp needed
	ldr	pc, [sp], #4
.L455:
	.align	2
.L454:
	.word	uxSchedulerSuspended
	.word	uxTopReadyPriority
	.word	pxReadyTasksLists
	.word	xPendingReadyList
	.word	pxCurrentTCB
	.word	xYieldPending
.LFE257:
	.size	vTaskNotifyGiveFromISR, .-vTaskNotifyGiveFromISR
	.section	.text.xTaskNotifyStateClear,"ax",%progbits
	.align	1
	.global	xTaskNotifyStateClear
	.syntax unified
	.thumb
	.thumb_func
	.fpu fpv4-sp-d16
	.type	xTaskNotifyStateClear, %function
xTaskNotifyStateClear:
.LFB258:
	.loc 4 4880 2
	@ args = 0, pretend = 0, frame = 16
	@ frame_needed = 0, uses_anonymous_args = 0
	push	{lr}
.LCFI148:
	sub	sp, sp, #20
.LCFI149:
	str	r0, [sp, #4]
	.loc 4 4886 39
	ldr	r3, [sp, #4]
	cmp	r3, #0
	bne	.L457
	.loc 4 4886 39 is_stmt 0 discriminator 1
	ldr	r3, .L462
	ldr	r3, [r3]
	b	.L458
.L457:
	.loc 4 4886 39 discriminator 2
	ldr	r3, [sp, #4]
.L458:
	.loc 4 4886 9 is_stmt 1 discriminator 4
	str	r3, [sp, #8]
	.loc 4 4888 3 discriminator 4
	bl	vPortEnterCritical
	.loc 4 4890 13 discriminator 4
	ldr	r3, [sp, #8]
	ldrb	r3, [r3, #76]
	uxtb	r3, r3
	.loc 4 4890 6 discriminator 4
	cmp	r3, #2
	bne	.L459
	.loc 4 4892 26
	ldr	r3, [sp, #8]
	movs	r2, #0
	strb	r2, [r3, #76]
	.loc 4 4893 13
	movs	r3, #1
	str	r3, [sp, #12]
	b	.L460
.L459:
	.loc 4 4897 13
	movs	r3, #0
	str	r3, [sp, #12]
.L460:
	.loc 4 4900 3
	bl	vPortExitCritical
	.loc 4 4902 10
	ldr	r3, [sp, #12]
	.loc 4 4903 2
	mov	r0, r3
	add	sp, sp, #20
.LCFI150:
	@ sp needed
	ldr	pc, [sp], #4
.L463:
	.align	2
.L462:
	.word	pxCurrentTCB
.LFE258:
	.size	xTaskNotifyStateClear, .-xTaskNotifyStateClear
	.section	.text.prvAddCurrentTaskToDelayedList,"ax",%progbits
	.align	1
	.syntax unified
	.thumb
	.thumb_func
	.fpu fpv4-sp-d16
	.type	prvAddCurrentTaskToDelayedList, %function
prvAddCurrentTaskToDelayedList:
.LFB259:
	.loc 4 4910 1
	@ args = 0, pretend = 0, frame = 16
	@ frame_needed = 0, uses_anonymous_args = 0
	push	{lr}
.LCFI151:
	sub	sp, sp, #20
.LCFI152:
	str	r0, [sp, #4]
	str	r1, [sp]
	.loc 4 4912 18
	ldr	r3, .L470
	ldr	r3, [r3]
	str	r3, [sp, #12]
	.loc 4 4925 35
	ldr	r3, .L470+4
	ldr	r3, [r3]
	.loc 4 4925 6
	adds	r3, r3, #4
	mov	r0, r3
	bl	uxListRemove
	mov	r3, r0
	.loc 4 4925 4
	cmp	r3, #0
	bne	.L465
	.loc 4 4929 53
	ldr	r3, .L470+4
	ldr	r3, [r3]
	ldr	r3, [r3, #44]
	.loc 4 4929 36
	movs	r2, #1
	lsl	r3, r2, r3
	.loc 4 4929 29
	mvns	r2, r3
	.loc 4 4929 26
	ldr	r3, .L470+8
	ldr	r3, [r3]
	ands	r3, r3, r2
	ldr	r2, .L470+8
	str	r3, [r2]
.L465:
	.loc 4 4938 5
	ldr	r3, [sp, #4]
	cmp	r3, #-1
	bne	.L466
	.loc 4 4938 55 discriminator 1
	ldr	r3, [sp]
	cmp	r3, #0
	beq	.L466
	.loc 4 4943 56
	ldr	r3, .L470+4
	ldr	r3, [r3]
	.loc 4 4943 4
	adds	r3, r3, #4
	mov	r1, r3
	ldr	r0, .L470+12
	bl	vListInsertEnd
	.loc 4 5018 1
	b	.L469
.L466:
	.loc 4 4950 16
	ldr	r2, [sp, #12]
	ldr	r3, [sp, #4]
	add	r3, r3, r2
	str	r3, [sp, #8]
	.loc 4 4953 23
	ldr	r3, .L470+4
	ldr	r3, [r3]
	.loc 4 4953 56
	ldr	r2, [sp, #8]
	str	r2, [r3, #4]
	.loc 4 4955 6
	ldr	r2, [sp, #8]
	ldr	r3, [sp, #12]
	cmp	r2, r3
	bcs	.L468
	.loc 4 4959 5
	ldr	r3, .L470+16
	ldr	r2, [r3]
	.loc 4 4959 60
	ldr	r3, .L470+4
	ldr	r3, [r3]
	.loc 4 4959 5
	adds	r3, r3, #4
	mov	r1, r3
	mov	r0, r2
	bl	vListInsert
	.loc 4 5018 1
	b	.L469
.L468:
	.loc 4 4965 5
	ldr	r3, .L470+20
	ldr	r2, [r3]
	.loc 4 4965 52
	ldr	r3, .L470+4
	ldr	r3, [r3]
	.loc 4 4965 5
	adds	r3, r3, #4
	mov	r1, r3
	mov	r0, r2
	bl	vListInsert
	.loc 4 4970 21
	ldr	r3, .L470+24
	ldr	r3, [r3]
	.loc 4 4970 7
	ldr	r2, [sp, #8]
	cmp	r2, r3
	bcs	.L469
	.loc 4 4972 27
	ldr	r2, .L470+24
	ldr	r3, [sp, #8]
	str	r3, [r2]
.L469:
	.loc 4 5018 1
	nop
	add	sp, sp, #20
.LCFI153:
	@ sp needed
	ldr	pc, [sp], #4
.L471:
	.align	2
.L470:
	.word	xTickCount
	.word	pxCurrentTCB
	.word	uxTopReadyPriority
	.word	xSuspendedTaskList
	.word	pxOverflowDelayedTaskList
	.word	pxDelayedTaskList
	.word	xNextTaskUnblockTime
.LFE259:
	.size	prvAddCurrentTaskToDelayedList, .-prvAddCurrentTaskToDelayedList
	.section	.debug_frame,"",%progbits
.Lframe0:
	.4byte	.LECIE0-.LSCIE0
.LSCIE0:
	.4byte	0xffffffff
	.byte	0x3
	.ascii	"\000"
	.uleb128 0x1
	.sleb128 -4
	.uleb128 0xe
	.byte	0xc
	.uleb128 0xd
	.uleb128 0
	.align	2
.LECIE0:
.LSFDE0:
	.4byte	.LEFDE0-.LASFDE0
.LASFDE0:
	.4byte	.Lframe0
	.4byte	.LFB124
	.4byte	.LFE124-.LFB124
	.align	2
.LEFDE0:
.LSFDE2:
	.4byte	.LEFDE2-.LASFDE2
.LASFDE2:
	.4byte	.Lframe0
	.4byte	.LFB125
	.4byte	.LFE125-.LFB125
	.align	2
.LEFDE2:
.LSFDE4:
	.4byte	.LEFDE4-.LASFDE4
.LASFDE4:
	.4byte	.Lframe0
	.4byte	.LFB126
	.4byte	.LFE126-.LFB126
	.align	2
.LEFDE4:
.LSFDE6:
	.4byte	.LEFDE6-.LASFDE6
.LASFDE6:
	.4byte	.Lframe0
	.4byte	.LFB127
	.4byte	.LFE127-.LFB127
	.align	2
.LEFDE6:
.LSFDE8:
	.4byte	.LEFDE8-.LASFDE8
.LASFDE8:
	.4byte	.Lframe0
	.4byte	.LFB128
	.4byte	.LFE128-.LFB128
	.align	2
.LEFDE8:
.LSFDE10:
	.4byte	.LEFDE10-.LASFDE10
.LASFDE10:
	.4byte	.Lframe0
	.4byte	.LFB129
	.4byte	.LFE129-.LFB129
	.align	2
.LEFDE10:
.LSFDE12:
	.4byte	.LEFDE12-.LASFDE12
.LASFDE12:
	.4byte	.Lframe0
	.4byte	.LFB130
	.4byte	.LFE130-.LFB130
	.align	2
.LEFDE12:
.LSFDE14:
	.4byte	.LEFDE14-.LASFDE14
.LASFDE14:
	.4byte	.Lframe0
	.4byte	.LFB131
	.4byte	.LFE131-.LFB131
	.align	2
.LEFDE14:
.LSFDE16:
	.4byte	.LEFDE16-.LASFDE16
.LASFDE16:
	.4byte	.Lframe0
	.4byte	.LFB132
	.4byte	.LFE132-.LFB132
	.align	2
.LEFDE16:
.LSFDE18:
	.4byte	.LEFDE18-.LASFDE18
.LASFDE18:
	.4byte	.Lframe0
	.4byte	.LFB133
	.4byte	.LFE133-.LFB133
	.align	2
.LEFDE18:
.LSFDE20:
	.4byte	.LEFDE20-.LASFDE20
.LASFDE20:
	.4byte	.Lframe0
	.4byte	.LFB134
	.4byte	.LFE134-.LFB134
	.align	2
.LEFDE20:
.LSFDE22:
	.4byte	.LEFDE22-.LASFDE22
.LASFDE22:
	.4byte	.Lframe0
	.4byte	.LFB135
	.4byte	.LFE135-.LFB135
	.align	2
.LEFDE22:
.LSFDE24:
	.4byte	.LEFDE24-.LASFDE24
.LASFDE24:
	.4byte	.Lframe0
	.4byte	.LFB136
	.4byte	.LFE136-.LFB136
	.align	2
.LEFDE24:
.LSFDE26:
	.4byte	.LEFDE26-.LASFDE26
.LASFDE26:
	.4byte	.Lframe0
	.4byte	.LFB137
	.4byte	.LFE137-.LFB137
	.align	2
.LEFDE26:
.LSFDE28:
	.4byte	.LEFDE28-.LASFDE28
.LASFDE28:
	.4byte	.Lframe0
	.4byte	.LFB138
	.4byte	.LFE138-.LFB138
	.align	2
.LEFDE28:
.LSFDE30:
	.4byte	.LEFDE30-.LASFDE30
.LASFDE30:
	.4byte	.Lframe0
	.4byte	.LFB139
	.4byte	.LFE139-.LFB139
	.align	2
.LEFDE30:
.LSFDE32:
	.4byte	.LEFDE32-.LASFDE32
.LASFDE32:
	.4byte	.Lframe0
	.4byte	.LFB140
	.4byte	.LFE140-.LFB140
	.align	2
.LEFDE32:
.LSFDE34:
	.4byte	.LEFDE34-.LASFDE34
.LASFDE34:
	.4byte	.Lframe0
	.4byte	.LFB141
	.4byte	.LFE141-.LFB141
	.align	2
.LEFDE34:
.LSFDE36:
	.4byte	.LEFDE36-.LASFDE36
.LASFDE36:
	.4byte	.Lframe0
	.4byte	.LFB142
	.4byte	.LFE142-.LFB142
	.align	2
.LEFDE36:
.LSFDE38:
	.4byte	.LEFDE38-.LASFDE38
.LASFDE38:
	.4byte	.Lframe0
	.4byte	.LFB143
	.4byte	.LFE143-.LFB143
	.align	2
.LEFDE38:
.LSFDE40:
	.4byte	.LEFDE40-.LASFDE40
.LASFDE40:
	.4byte	.Lframe0
	.4byte	.LFB144
	.4byte	.LFE144-.LFB144
	.align	2
.LEFDE40:
.LSFDE42:
	.4byte	.LEFDE42-.LASFDE42
.LASFDE42:
	.4byte	.Lframe0
	.4byte	.LFB145
	.4byte	.LFE145-.LFB145
	.align	2
.LEFDE42:
.LSFDE44:
	.4byte	.LEFDE44-.LASFDE44
.LASFDE44:
	.4byte	.Lframe0
	.4byte	.LFB146
	.4byte	.LFE146-.LFB146
	.align	2
.LEFDE44:
.LSFDE46:
	.4byte	.LEFDE46-.LASFDE46
.LASFDE46:
	.4byte	.Lframe0
	.4byte	.LFB147
	.4byte	.LFE147-.LFB147
	.align	2
.LEFDE46:
.LSFDE48:
	.4byte	.LEFDE48-.LASFDE48
.LASFDE48:
	.4byte	.Lframe0
	.4byte	.LFB148
	.4byte	.LFE148-.LFB148
	.align	2
.LEFDE48:
.LSFDE50:
	.4byte	.LEFDE50-.LASFDE50
.LASFDE50:
	.4byte	.Lframe0
	.4byte	.LFB149
	.4byte	.LFE149-.LFB149
	.align	2
.LEFDE50:
.LSFDE52:
	.4byte	.LEFDE52-.LASFDE52
.LASFDE52:
	.4byte	.Lframe0
	.4byte	.LFB150
	.4byte	.LFE150-.LFB150
	.align	2
.LEFDE52:
.LSFDE54:
	.4byte	.LEFDE54-.LASFDE54
.LASFDE54:
	.4byte	.Lframe0
	.4byte	.LFB151
	.4byte	.LFE151-.LFB151
	.align	2
.LEFDE54:
.LSFDE56:
	.4byte	.LEFDE56-.LASFDE56
.LASFDE56:
	.4byte	.Lframe0
	.4byte	.LFB152
	.4byte	.LFE152-.LFB152
	.align	2
.LEFDE56:
.LSFDE58:
	.4byte	.LEFDE58-.LASFDE58
.LASFDE58:
	.4byte	.Lframe0
	.4byte	.LFB153
	.4byte	.LFE153-.LFB153
	.align	2
.LEFDE58:
.LSFDE60:
	.4byte	.LEFDE60-.LASFDE60
.LASFDE60:
	.4byte	.Lframe0
	.4byte	.LFB154
	.4byte	.LFE154-.LFB154
	.align	2
.LEFDE60:
.LSFDE62:
	.4byte	.LEFDE62-.LASFDE62
.LASFDE62:
	.4byte	.Lframe0
	.4byte	.LFB155
	.4byte	.LFE155-.LFB155
	.align	2
.LEFDE62:
.LSFDE64:
	.4byte	.LEFDE64-.LASFDE64
.LASFDE64:
	.4byte	.Lframe0
	.4byte	.LFB156
	.4byte	.LFE156-.LFB156
	.align	2
.LEFDE64:
.LSFDE66:
	.4byte	.LEFDE66-.LASFDE66
.LASFDE66:
	.4byte	.Lframe0
	.4byte	.LFB157
	.4byte	.LFE157-.LFB157
	.align	2
.LEFDE66:
.LSFDE68:
	.4byte	.LEFDE68-.LASFDE68
.LASFDE68:
	.4byte	.Lframe0
	.4byte	.LFB158
	.4byte	.LFE158-.LFB158
	.align	2
.LEFDE68:
.LSFDE70:
	.4byte	.LEFDE70-.LASFDE70
.LASFDE70:
	.4byte	.Lframe0
	.4byte	.LFB159
	.4byte	.LFE159-.LFB159
	.align	2
.LEFDE70:
.LSFDE72:
	.4byte	.LEFDE72-.LASFDE72
.LASFDE72:
	.4byte	.Lframe0
	.4byte	.LFB160
	.4byte	.LFE160-.LFB160
	.align	2
.LEFDE72:
.LSFDE74:
	.4byte	.LEFDE74-.LASFDE74
.LASFDE74:
	.4byte	.Lframe0
	.4byte	.LFB161
	.4byte	.LFE161-.LFB161
	.align	2
.LEFDE74:
.LSFDE76:
	.4byte	.LEFDE76-.LASFDE76
.LASFDE76:
	.4byte	.Lframe0
	.4byte	.LFB162
	.4byte	.LFE162-.LFB162
	.align	2
.LEFDE76:
.LSFDE78:
	.4byte	.LEFDE78-.LASFDE78
.LASFDE78:
	.4byte	.Lframe0
	.4byte	.LFB163
	.4byte	.LFE163-.LFB163
	.align	2
.LEFDE78:
.LSFDE80:
	.4byte	.LEFDE80-.LASFDE80
.LASFDE80:
	.4byte	.Lframe0
	.4byte	.LFB164
	.4byte	.LFE164-.LFB164
	.align	2
.LEFDE80:
.LSFDE82:
	.4byte	.LEFDE82-.LASFDE82
.LASFDE82:
	.4byte	.Lframe0
	.4byte	.LFB165
	.4byte	.LFE165-.LFB165
	.align	2
.LEFDE82:
.LSFDE84:
	.4byte	.LEFDE84-.LASFDE84
.LASFDE84:
	.4byte	.Lframe0
	.4byte	.LFB166
	.4byte	.LFE166-.LFB166
	.align	2
.LEFDE84:
.LSFDE86:
	.4byte	.LEFDE86-.LASFDE86
.LASFDE86:
	.4byte	.Lframe0
	.4byte	.LFB199
	.4byte	.LFE199-.LFB199
	.byte	0x4
	.4byte	.LCFI0-.LFB199
	.byte	0xe
	.uleb128 0x10
	.byte	0x4
	.4byte	.LCFI1-.LCFI0
	.byte	0xe
	.uleb128 0
	.align	2
.LEFDE86:
.LSFDE88:
	.4byte	.LEFDE88-.LASFDE88
.LASFDE88:
	.4byte	.Lframe0
	.4byte	.LFB200
	.4byte	.LFE200-.LFB200
	.byte	0x4
	.4byte	.LCFI2-.LFB200
	.byte	0xe
	.uleb128 0x4
	.byte	0x8e
	.uleb128 0x1
	.byte	0x4
	.4byte	.LCFI3-.LCFI2
	.byte	0xe
	.uleb128 0x38
	.byte	0x4
	.4byte	.LCFI4-.LCFI3
	.byte	0xe
	.uleb128 0x4
	.align	2
.LEFDE88:
.LSFDE90:
	.4byte	.LEFDE90-.LASFDE90
.LASFDE90:
	.4byte	.Lframe0
	.4byte	.LFB201
	.4byte	.LFE201-.LFB201
	.byte	0x4
	.4byte	.LCFI5-.LFB201
	.byte	0xe
	.uleb128 0x4
	.byte	0x8e
	.uleb128 0x1
	.byte	0x4
	.4byte	.LCFI6-.LCFI5
	.byte	0xe
	.uleb128 0x20
	.byte	0x4
	.4byte	.LCFI7-.LCFI6
	.byte	0xe
	.uleb128 0x4
	.align	2
.LEFDE90:
.LSFDE92:
	.4byte	.LEFDE92-.LASFDE92
.LASFDE92:
	.4byte	.Lframe0
	.4byte	.LFB202
	.4byte	.LFE202-.LFB202
	.byte	0x4
	.4byte	.LCFI8-.LFB202
	.byte	0xe
	.uleb128 0xc
	.byte	0x84
	.uleb128 0x3
	.byte	0x85
	.uleb128 0x2
	.byte	0x8e
	.uleb128 0x1
	.byte	0x4
	.4byte	.LCFI9-.LCFI8
	.byte	0xe
	.uleb128 0x20
	.byte	0x4
	.4byte	.LCFI10-.LCFI9
	.byte	0xe
	.uleb128 0xc
	.align	2
.LEFDE92:
.LSFDE94:
	.4byte	.LEFDE94-.LASFDE94
.LASFDE94:
	.4byte	.Lframe0
	.4byte	.LFB203
	.4byte	.LFE203-.LFB203
	.byte	0x4
	.4byte	.LCFI11-.LFB203
	.byte	0xe
	.uleb128 0x4
	.byte	0x8e
	.uleb128 0x1
	.byte	0x4
	.4byte	.LCFI12-.LCFI11
	.byte	0xe
	.uleb128 0x18
	.byte	0x4
	.4byte	.LCFI13-.LCFI12
	.byte	0xe
	.uleb128 0x4
	.align	2
.LEFDE94:
.LSFDE96:
	.4byte	.LEFDE96-.LASFDE96
.LASFDE96:
	.4byte	.Lframe0
	.4byte	.LFB204
	.4byte	.LFE204-.LFB204
	.byte	0x4
	.4byte	.LCFI14-.LFB204
	.byte	0xe
	.uleb128 0x4
	.byte	0x8e
	.uleb128 0x1
	.byte	0x4
	.4byte	.LCFI15-.LCFI14
	.byte	0xe
	.uleb128 0x20
	.byte	0x4
	.4byte	.LCFI16-.LCFI15
	.byte	0xe
	.uleb128 0x4
	.align	2
.LEFDE96:
.LSFDE98:
	.4byte	.LEFDE98-.LASFDE98
.LASFDE98:
	.4byte	.Lframe0
	.4byte	.LFB205
	.4byte	.LFE205-.LFB205
	.byte	0x4
	.4byte	.LCFI17-.LFB205
	.byte	0xe
	.uleb128 0x4
	.byte	0x8e
	.uleb128 0x1
	.byte	0x4
	.4byte	.LCFI18-.LCFI17
	.byte	0xe
	.uleb128 0x18
	.byte	0x4
	.4byte	.LCFI19-.LCFI18
	.byte	0xe
	.uleb128 0x4
	.align	2
.LEFDE98:
.LSFDE100:
	.4byte	.LEFDE100-.LASFDE100
.LASFDE100:
	.4byte	.Lframe0
	.4byte	.LFB206
	.4byte	.LFE206-.LFB206
	.byte	0x4
	.4byte	.LCFI20-.LFB206
	.byte	0xe
	.uleb128 0x4
	.byte	0x8e
	.uleb128 0x1
	.byte	0x4
	.4byte	.LCFI21-.LCFI20
	.byte	0xe
	.uleb128 0x20
	.byte	0x4
	.4byte	.LCFI22-.LCFI21
	.byte	0xe
	.uleb128 0x4
	.align	2
.LEFDE100:
.LSFDE102:
	.4byte	.LEFDE102-.LASFDE102
.LASFDE102:
	.4byte	.Lframe0
	.4byte	.LFB207
	.4byte	.LFE207-.LFB207
	.byte	0x4
	.4byte	.LCFI23-.LFB207
	.byte	0xe
	.uleb128 0x4
	.byte	0x8e
	.uleb128 0x1
	.byte	0x4
	.4byte	.LCFI24-.LCFI23
	.byte	0xe
	.uleb128 0x18
	.byte	0x4
	.4byte	.LCFI25-.LCFI24
	.byte	0xe
	.uleb128 0x4
	.align	2
.LEFDE102:
.LSFDE104:
	.4byte	.LEFDE104-.LASFDE104
.LASFDE104:
	.4byte	.Lframe0
	.4byte	.LFB208
	.4byte	.LFE208-.LFB208
	.byte	0x4
	.4byte	.LCFI26-.LFB208
	.byte	0xe
	.uleb128 0x4
	.byte	0x8e
	.uleb128 0x1
	.byte	0x4
	.4byte	.LCFI27-.LCFI26
	.byte	0xe
	.uleb128 0x20
	.byte	0x4
	.4byte	.LCFI28-.LCFI27
	.byte	0xe
	.uleb128 0x4
	.align	2
.LEFDE104:
.LSFDE106:
	.4byte	.LEFDE106-.LASFDE106
.LASFDE106:
	.4byte	.Lframe0
	.4byte	.LFB209
	.4byte	.LFE209-.LFB209
	.byte	0x4
	.4byte	.LCFI29-.LFB209
	.byte	0xe
	.uleb128 0x4
	.byte	0x8e
	.uleb128 0x1
	.byte	0x4
	.4byte	.LCFI30-.LCFI29
	.byte	0xe
	.uleb128 0x28
	.byte	0x4
	.4byte	.LCFI31-.LCFI30
	.byte	0xe
	.uleb128 0x4
	.align	2
.LEFDE106:
.LSFDE108:
	.4byte	.LEFDE108-.LASFDE108
.LASFDE108:
	.4byte	.Lframe0
	.4byte	.LFB210
	.4byte	.LFE210-.LFB210
	.byte	0x4
	.4byte	.LCFI32-.LFB210
	.byte	0xe
	.uleb128 0x4
	.byte	0x8e
	.uleb128 0x1
	.byte	0x4
	.4byte	.LCFI33-.LCFI32
	.byte	0xe
	.uleb128 0x18
	.byte	0x4
	.4byte	.LCFI34-.LCFI33
	.byte	0xe
	.uleb128 0x4
	.align	2
.LEFDE108:
.LSFDE110:
	.4byte	.LEFDE110-.LASFDE110
.LASFDE110:
	.4byte	.Lframe0
	.4byte	.LFB211
	.4byte	.LFE211-.LFB211
	.byte	0x4
	.4byte	.LCFI35-.LFB211
	.byte	0xe
	.uleb128 0x10
	.byte	0x4
	.4byte	.LCFI36-.LCFI35
	.byte	0xe
	.uleb128 0
	.align	2
.LEFDE110:
.LSFDE112:
	.4byte	.LEFDE112-.LASFDE112
.LASFDE112:
	.4byte	.Lframe0
	.4byte	.LFB212
	.4byte	.LFE212-.LFB212
	.byte	0x4
	.4byte	.LCFI37-.LFB212
	.byte	0xe
	.uleb128 0x4
	.byte	0x8e
	.uleb128 0x1
	.byte	0x4
	.4byte	.LCFI38-.LCFI37
	.byte	0xe
	.uleb128 0x18
	.byte	0x4
	.4byte	.LCFI39-.LCFI38
	.byte	0xe
	.uleb128 0x4
	.align	2
.LEFDE112:
.LSFDE114:
	.4byte	.LEFDE114-.LASFDE114
.LASFDE114:
	.4byte	.Lframe0
	.4byte	.LFB213
	.4byte	.LFE213-.LFB213
	.byte	0x4
	.4byte	.LCFI40-.LFB213
	.byte	0xe
	.uleb128 0x4
	.byte	0x8e
	.uleb128 0x1
	.byte	0x4
	.4byte	.LCFI41-.LCFI40
	.byte	0xe
	.uleb128 0x20
	.byte	0x4
	.4byte	.LCFI42-.LCFI41
	.byte	0xe
	.uleb128 0x4
	.align	2
.LEFDE114:
.LSFDE116:
	.4byte	.LEFDE116-.LASFDE116
.LASFDE116:
	.4byte	.Lframe0
	.4byte	.LFB214
	.4byte	.LFE214-.LFB214
	.byte	0x4
	.4byte	.LCFI43-.LFB214
	.byte	0xe
	.uleb128 0x4
	.byte	0x8e
	.uleb128 0x1
	.byte	0x4
	.4byte	.LCFI44-.LCFI43
	.byte	0xe
	.uleb128 0x18
	.byte	0x4
	.4byte	.LCFI45-.LCFI44
	.byte	0xe
	.uleb128 0x4
	.align	2
.LEFDE116:
.LSFDE118:
	.4byte	.LEFDE118-.LASFDE118
.LASFDE118:
	.4byte	.Lframe0
	.4byte	.LFB215
	.4byte	.LFE215-.LFB215
	.byte	0x4
	.4byte	.LCFI46-.LFB215
	.byte	0xe
	.uleb128 0x4
	.byte	0x8e
	.uleb128 0x1
	.byte	0x4
	.4byte	.LCFI47-.LCFI46
	.byte	0xe
	.uleb128 0x10
	.byte	0x4
	.4byte	.LCFI48-.LCFI47
	.byte	0xe
	.uleb128 0x4
	.align	2
.LEFDE118:
.LSFDE120:
	.4byte	.LEFDE120-.LASFDE120
.LASFDE120:
	.4byte	.Lframe0
	.4byte	.LFB216
	.4byte	.LFE216-.LFB216
	.align	2
.LEFDE120:
.LSFDE122:
	.4byte	.LEFDE122-.LASFDE122
.LASFDE122:
	.4byte	.Lframe0
	.4byte	.LFB217
	.4byte	.LFE217-.LFB217
	.byte	0x4
	.4byte	.LCFI49-.LFB217
	.byte	0xe
	.uleb128 0x4
	.byte	0x8e
	.uleb128 0x1
	.byte	0x4
	.4byte	.LCFI50-.LCFI49
	.byte	0xe
	.uleb128 0x18
	.byte	0x4
	.4byte	.LCFI51-.LCFI50
	.byte	0xe
	.uleb128 0x4
	.align	2
.LEFDE122:
.LSFDE124:
	.4byte	.LEFDE124-.LASFDE124
.LASFDE124:
	.4byte	.Lframe0
	.4byte	.LFB218
	.4byte	.LFE218-.LFB218
	.byte	0x4
	.4byte	.LCFI52-.LFB218
	.byte	0xe
	.uleb128 0x8
	.byte	0x4
	.4byte	.LCFI53-.LCFI52
	.byte	0xe
	.uleb128 0
	.align	2
.LEFDE124:
.LSFDE126:
	.4byte	.LEFDE126-.LASFDE126
.LASFDE126:
	.4byte	.Lframe0
	.4byte	.LFB219
	.4byte	.LFE219-.LFB219
	.byte	0x4
	.4byte	.LCFI54-.LFB219
	.byte	0xe
	.uleb128 0x8
	.byte	0x4
	.4byte	.LCFI55-.LCFI54
	.byte	0xe
	.uleb128 0
	.align	2
.LEFDE126:
.LSFDE128:
	.4byte	.LEFDE128-.LASFDE128
.LASFDE128:
	.4byte	.Lframe0
	.4byte	.LFB220
	.4byte	.LFE220-.LFB220
	.align	2
.LEFDE128:
.LSFDE130:
	.4byte	.LEFDE130-.LASFDE130
.LASFDE130:
	.4byte	.Lframe0
	.4byte	.LFB221
	.4byte	.LFE221-.LFB221
	.byte	0x4
	.4byte	.LCFI56-.LFB221
	.byte	0xe
	.uleb128 0x10
	.byte	0x4
	.4byte	.LCFI57-.LCFI56
	.byte	0xe
	.uleb128 0
	.align	2
.LEFDE130:
.LSFDE132:
	.4byte	.LEFDE132-.LASFDE132
.LASFDE132:
	.4byte	.Lframe0
	.4byte	.LFB222
	.4byte	.LFE222-.LFB222
	.byte	0x4
	.4byte	.LCFI58-.LFB222
	.byte	0xe
	.uleb128 0x4
	.byte	0x8e
	.uleb128 0x1
	.byte	0x4
	.4byte	.LCFI59-.LCFI58
	.byte	0xe
	.uleb128 0x20
	.byte	0x4
	.4byte	.LCFI60-.LCFI59
	.byte	0xe
	.uleb128 0x4
	.align	2
.LEFDE132:
.LSFDE134:
	.4byte	.LEFDE134-.LASFDE134
.LASFDE134:
	.4byte	.Lframe0
	.4byte	.LFB223
	.4byte	.LFE223-.LFB223
	.align	2
.LEFDE134:
.LSFDE136:
	.4byte	.LEFDE136-.LASFDE136
.LASFDE136:
	.4byte	.Lframe0
	.4byte	.LFB224
	.4byte	.LFE224-.LFB224
	.byte	0x4
	.4byte	.LCFI61-.LFB224
	.byte	0xe
	.uleb128 0x4
	.byte	0x8e
	.uleb128 0x1
	.byte	0x4
	.4byte	.LCFI62-.LCFI61
	.byte	0xe
	.uleb128 0x20
	.byte	0x4
	.4byte	.LCFI63-.LCFI62
	.byte	0xe
	.uleb128 0x4
	.align	2
.LEFDE136:
.LSFDE138:
	.4byte	.LEFDE138-.LASFDE138
.LASFDE138:
	.4byte	.Lframe0
	.4byte	.LFB225
	.4byte	.LFE225-.LFB225
	.byte	0x4
	.4byte	.LCFI64-.LFB225
	.byte	0xe
	.uleb128 0x4
	.byte	0x8e
	.uleb128 0x1
	.byte	0x4
	.4byte	.LCFI65-.LCFI64
	.byte	0xe
	.uleb128 0x10
	.byte	0x4
	.4byte	.LCFI66-.LCFI65
	.byte	0xe
	.uleb128 0x4
	.align	2
.LEFDE138:
.LSFDE140:
	.4byte	.LEFDE140-.LASFDE140
.LASFDE140:
	.4byte	.Lframe0
	.4byte	.LFB226
	.4byte	.LFE226-.LFB226
	.byte	0x4
	.4byte	.LCFI67-.LFB226
	.byte	0xe
	.uleb128 0x4
	.byte	0x8e
	.uleb128 0x1
	.byte	0x4
	.4byte	.LCFI68-.LCFI67
	.byte	0xe
	.uleb128 0x10
	.byte	0x4
	.4byte	.LCFI69-.LCFI68
	.byte	0xe
	.uleb128 0x4
	.align	2
.LEFDE140:
.LSFDE142:
	.4byte	.LEFDE142-.LASFDE142
.LASFDE142:
	.4byte	.Lframe0
	.4byte	.LFB227
	.4byte	.LFE227-.LFB227
	.byte	0x4
	.4byte	.LCFI70-.LFB227
	.byte	0xe
	.uleb128 0x4
	.byte	0x8e
	.uleb128 0x1
	.byte	0x4
	.4byte	.LCFI71-.LCFI70
	.byte	0xe
	.uleb128 0x18
	.byte	0x4
	.4byte	.LCFI72-.LCFI71
	.byte	0xe
	.uleb128 0x4
	.align	2
.LEFDE142:
.LSFDE144:
	.4byte	.LEFDE144-.LASFDE144
.LASFDE144:
	.4byte	.Lframe0
	.4byte	.LFB228
	.4byte	.LFE228-.LFB228
	.byte	0x4
	.4byte	.LCFI73-.LFB228
	.byte	0xe
	.uleb128 0x4
	.byte	0x8e
	.uleb128 0x1
	.byte	0x4
	.4byte	.LCFI74-.LCFI73
	.byte	0xe
	.uleb128 0x18
	.byte	0x4
	.4byte	.LCFI75-.LCFI74
	.byte	0xe
	.uleb128 0x4
	.align	2
.LEFDE144:
.LSFDE146:
	.4byte	.LEFDE146-.LASFDE146
.LASFDE146:
	.4byte	.Lframe0
	.4byte	.LFB229
	.4byte	.LFE229-.LFB229
	.byte	0x4
	.4byte	.LCFI76-.LFB229
	.byte	0xe
	.uleb128 0x4
	.byte	0x8e
	.uleb128 0x1
	.byte	0x4
	.4byte	.LCFI77-.LCFI76
	.byte	0xe
	.uleb128 0x18
	.byte	0x4
	.4byte	.LCFI78-.LCFI77
	.byte	0xe
	.uleb128 0x4
	.align	2
.LEFDE146:
.LSFDE148:
	.4byte	.LEFDE148-.LASFDE148
.LASFDE148:
	.4byte	.Lframe0
	.4byte	.LFB230
	.4byte	.LFE230-.LFB230
	.byte	0x4
	.4byte	.LCFI79-.LFB230
	.byte	0xe
	.uleb128 0x4
	.byte	0x8e
	.uleb128 0x1
	.byte	0x4
	.4byte	.LCFI80-.LCFI79
	.byte	0xe
	.uleb128 0x18
	.byte	0x4
	.4byte	.LCFI81-.LCFI80
	.byte	0xe
	.uleb128 0x4
	.align	2
.LEFDE148:
.LSFDE150:
	.4byte	.LEFDE150-.LASFDE150
.LASFDE150:
	.4byte	.Lframe0
	.4byte	.LFB231
	.4byte	.LFE231-.LFB231
	.byte	0x4
	.4byte	.LCFI82-.LFB231
	.byte	0xe
	.uleb128 0x4
	.byte	0x8e
	.uleb128 0x1
	.byte	0x4
	.4byte	.LCFI83-.LCFI82
	.byte	0xe
	.uleb128 0x10
	.byte	0x4
	.4byte	.LCFI84-.LCFI83
	.byte	0xe
	.uleb128 0x4
	.align	2
.LEFDE150:
.LSFDE152:
	.4byte	.LEFDE152-.LASFDE152
.LASFDE152:
	.4byte	.Lframe0
	.4byte	.LFB232
	.4byte	.LFE232-.LFB232
	.byte	0x4
	.4byte	.LCFI85-.LFB232
	.byte	0xe
	.uleb128 0x8
	.byte	0x4
	.4byte	.LCFI86-.LCFI85
	.byte	0xe
	.uleb128 0
	.align	2
.LEFDE152:
.LSFDE154:
	.4byte	.LEFDE154-.LASFDE154
.LASFDE154:
	.4byte	.Lframe0
	.4byte	.LFB233
	.4byte	.LFE233-.LFB233
	.byte	0x4
	.4byte	.LCFI87-.LFB233
	.byte	0xe
	.uleb128 0x4
	.byte	0x8e
	.uleb128 0x1
	.byte	0x4
	.4byte	.LCFI88-.LCFI87
	.byte	0xe
	.uleb128 0x20
	.byte	0x4
	.4byte	.LCFI89-.LCFI88
	.byte	0xe
	.uleb128 0x4
	.align	2
.LEFDE154:
.LSFDE156:
	.4byte	.LEFDE156-.LASFDE156
.LASFDE156:
	.4byte	.Lframe0
	.4byte	.LFB234
	.4byte	.LFE234-.LFB234
	.align	2
.LEFDE156:
.LSFDE158:
	.4byte	.LEFDE158-.LASFDE158
.LASFDE158:
	.4byte	.Lframe0
	.4byte	.LFB235
	.4byte	.LFE235-.LFB235
	.byte	0x4
	.4byte	.LCFI90-.LFB235
	.byte	0xe
	.uleb128 0x10
	.byte	0x4
	.4byte	.LCFI91-.LCFI90
	.byte	0xe
	.uleb128 0
	.align	2
.LEFDE158:
.LSFDE160:
	.4byte	.LEFDE160-.LASFDE160
.LASFDE160:
	.4byte	.Lframe0
	.4byte	.LFB236
	.4byte	.LFE236-.LFB236
	.byte	0x4
	.4byte	.LCFI92-.LFB236
	.byte	0xe
	.uleb128 0x10
	.byte	0x4
	.4byte	.LCFI93-.LCFI92
	.byte	0xe
	.uleb128 0
	.align	2
.LEFDE160:
.LSFDE162:
	.4byte	.LEFDE162-.LASFDE162
.LASFDE162:
	.4byte	.Lframe0
	.4byte	.LFB237
	.4byte	.LFE237-.LFB237
	.byte	0x4
	.4byte	.LCFI94-.LFB237
	.byte	0xe
	.uleb128 0x4
	.byte	0x8e
	.uleb128 0x1
	.byte	0x4
	.4byte	.LCFI95-.LCFI94
	.byte	0xe
	.uleb128 0x10
	.align	2
.LEFDE162:
.LSFDE164:
	.4byte	.LEFDE164-.LASFDE164
.LASFDE164:
	.4byte	.Lframe0
	.4byte	.LFB238
	.4byte	.LFE238-.LFB238
	.byte	0x4
	.4byte	.LCFI96-.LFB238
	.byte	0xe
	.uleb128 0x4
	.byte	0x8e
	.uleb128 0x1
	.byte	0x4
	.4byte	.LCFI97-.LCFI96
	.byte	0xe
	.uleb128 0x10
	.byte	0x4
	.4byte	.LCFI98-.LCFI97
	.byte	0xe
	.uleb128 0x4
	.align	2
.LEFDE164:
.LSFDE166:
	.4byte	.LEFDE166-.LASFDE166
.LASFDE166:
	.4byte	.Lframe0
	.4byte	.LFB239
	.4byte	.LFE239-.LFB239
	.byte	0x4
	.4byte	.LCFI99-.LFB239
	.byte	0xe
	.uleb128 0x4
	.byte	0x8e
	.uleb128 0x1
	.byte	0x4
	.4byte	.LCFI100-.LCFI99
	.byte	0xe
	.uleb128 0x10
	.byte	0x4
	.4byte	.LCFI101-.LCFI100
	.byte	0xe
	.uleb128 0x4
	.align	2
.LEFDE166:
.LSFDE168:
	.4byte	.LEFDE168-.LASFDE168
.LASFDE168:
	.4byte	.Lframe0
	.4byte	.LFB240
	.4byte	.LFE240-.LFB240
	.byte	0x4
	.4byte	.LCFI102-.LFB240
	.byte	0xe
	.uleb128 0x4
	.byte	0x8e
	.uleb128 0x1
	.byte	0x4
	.4byte	.LCFI103-.LCFI102
	.byte	0xe
	.uleb128 0x20
	.byte	0x4
	.4byte	.LCFI104-.LCFI103
	.byte	0xe
	.uleb128 0x4
	.align	2
.LEFDE168:
.LSFDE170:
	.4byte	.LEFDE170-.LASFDE170
.LASFDE170:
	.4byte	.Lframe0
	.4byte	.LFB241
	.4byte	.LFE241-.LFB241
	.byte	0x4
	.4byte	.LCFI105-.LFB241
	.byte	0xe
	.uleb128 0x4
	.byte	0x8e
	.uleb128 0x1
	.byte	0x4
	.4byte	.LCFI106-.LCFI105
	.byte	0xe
	.uleb128 0x30
	.byte	0x4
	.4byte	.LCFI107-.LCFI106
	.byte	0xe
	.uleb128 0x4
	.align	2
.LEFDE170:
.LSFDE172:
	.4byte	.LEFDE172-.LASFDE172
.LASFDE172:
	.4byte	.Lframe0
	.4byte	.LFB242
	.4byte	.LFE242-.LFB242
	.byte	0x4
	.4byte	.LCFI108-.LFB242
	.byte	0xe
	.uleb128 0x10
	.byte	0x4
	.4byte	.LCFI109-.LCFI108
	.byte	0xe
	.uleb128 0
	.align	2
.LEFDE172:
.LSFDE174:
	.4byte	.LEFDE174-.LASFDE174
.LASFDE174:
	.4byte	.Lframe0
	.4byte	.LFB243
	.4byte	.LFE243-.LFB243
	.byte	0x4
	.4byte	.LCFI110-.LFB243
	.byte	0xe
	.uleb128 0x4
	.byte	0x8e
	.uleb128 0x1
	.byte	0x4
	.4byte	.LCFI111-.LCFI110
	.byte	0xe
	.uleb128 0x20
	.byte	0x4
	.4byte	.LCFI112-.LCFI111
	.byte	0xe
	.uleb128 0x4
	.align	2
.LEFDE174:
.LSFDE176:
	.4byte	.LEFDE176-.LASFDE176
.LASFDE176:
	.4byte	.Lframe0
	.4byte	.LFB244
	.4byte	.LFE244-.LFB244
	.byte	0x4
	.4byte	.LCFI113-.LFB244
	.byte	0xe
	.uleb128 0x4
	.byte	0x8e
	.uleb128 0x1
	.byte	0x4
	.4byte	.LCFI114-.LCFI113
	.byte	0xe
	.uleb128 0x10
	.byte	0x4
	.4byte	.LCFI115-.LCFI114
	.byte	0xe
	.uleb128 0x4
	.align	2
.LEFDE176:
.LSFDE178:
	.4byte	.LEFDE178-.LASFDE178
.LASFDE178:
	.4byte	.Lframe0
	.4byte	.LFB245
	.4byte	.LFE245-.LFB245
	.byte	0x4
	.4byte	.LCFI116-.LFB245
	.byte	0xe
	.uleb128 0x8
	.byte	0x4
	.4byte	.LCFI117-.LCFI116
	.byte	0xe
	.uleb128 0
	.align	2
.LEFDE178:
.LSFDE180:
	.4byte	.LEFDE180-.LASFDE180
.LASFDE180:
	.4byte	.Lframe0
	.4byte	.LFB246
	.4byte	.LFE246-.LFB246
	.byte	0x4
	.4byte	.LCFI118-.LFB246
	.byte	0xe
	.uleb128 0x8
	.byte	0x4
	.4byte	.LCFI119-.LCFI118
	.byte	0xe
	.uleb128 0
	.align	2
.LEFDE180:
.LSFDE182:
	.4byte	.LEFDE182-.LASFDE182
.LASFDE182:
	.4byte	.Lframe0
	.4byte	.LFB247
	.4byte	.LFE247-.LFB247
	.byte	0x4
	.4byte	.LCFI120-.LFB247
	.byte	0xe
	.uleb128 0x8
	.byte	0x4
	.4byte	.LCFI121-.LCFI120
	.byte	0xe
	.uleb128 0
	.align	2
.LEFDE182:
.LSFDE184:
	.4byte	.LEFDE184-.LASFDE184
.LASFDE184:
	.4byte	.Lframe0
	.4byte	.LFB248
	.4byte	.LFE248-.LFB248
	.byte	0x4
	.4byte	.LCFI122-.LFB248
	.byte	0xe
	.uleb128 0x4
	.byte	0x8e
	.uleb128 0x1
	.byte	0x4
	.4byte	.LCFI123-.LCFI122
	.byte	0xe
	.uleb128 0x18
	.byte	0x4
	.4byte	.LCFI124-.LCFI123
	.byte	0xe
	.uleb128 0x4
	.align	2
.LEFDE184:
.LSFDE186:
	.4byte	.LEFDE186-.LASFDE186
.LASFDE186:
	.4byte	.Lframe0
	.4byte	.LFB249
	.4byte	.LFE249-.LFB249
	.byte	0x4
	.4byte	.LCFI125-.LFB249
	.byte	0xe
	.uleb128 0x4
	.byte	0x8e
	.uleb128 0x1
	.byte	0x4
	.4byte	.LCFI126-.LCFI125
	.byte	0xe
	.uleb128 0x18
	.byte	0x4
	.4byte	.LCFI127-.LCFI126
	.byte	0xe
	.uleb128 0x4
	.align	2
.LEFDE186:
.LSFDE188:
	.4byte	.LEFDE188-.LASFDE188
.LASFDE188:
	.4byte	.Lframe0
	.4byte	.LFB250
	.4byte	.LFE250-.LFB250
	.byte	0x4
	.4byte	.LCFI128-.LFB250
	.byte	0xe
	.uleb128 0x4
	.byte	0x8e
	.uleb128 0x1
	.byte	0x4
	.4byte	.LCFI129-.LCFI128
	.byte	0xe
	.uleb128 0x20
	.byte	0x4
	.4byte	.LCFI130-.LCFI129
	.byte	0xe
	.uleb128 0x4
	.align	2
.LEFDE188:
.LSFDE190:
	.4byte	.LEFDE190-.LASFDE190
.LASFDE190:
	.4byte	.Lframe0
	.4byte	.LFB251
	.4byte	.LFE251-.LFB251
	.byte	0x4
	.4byte	.LCFI131-.LFB251
	.byte	0xe
	.uleb128 0x8
	.byte	0x4
	.4byte	.LCFI132-.LCFI131
	.byte	0xe
	.uleb128 0
	.align	2
.LEFDE190:
.LSFDE192:
	.4byte	.LEFDE192-.LASFDE192
.LASFDE192:
	.4byte	.Lframe0
	.4byte	.LFB252
	.4byte	.LFE252-.LFB252
	.align	2
.LEFDE192:
.LSFDE194:
	.4byte	.LEFDE194-.LASFDE194
.LASFDE194:
	.4byte	.Lframe0
	.4byte	.LFB253
	.4byte	.LFE253-.LFB253
	.byte	0x4
	.4byte	.LCFI133-.LFB253
	.byte	0xe
	.uleb128 0x4
	.byte	0x8e
	.uleb128 0x1
	.byte	0x4
	.4byte	.LCFI134-.LCFI133
	.byte	0xe
	.uleb128 0x18
	.byte	0x4
	.4byte	.LCFI135-.LCFI134
	.byte	0xe
	.uleb128 0x4
	.align	2
.LEFDE194:
.LSFDE196:
	.4byte	.LEFDE196-.LASFDE196
.LASFDE196:
	.4byte	.Lframe0
	.4byte	.LFB254
	.4byte	.LFE254-.LFB254
	.byte	0x4
	.4byte	.LCFI136-.LFB254
	.byte	0xe
	.uleb128 0x4
	.byte	0x8e
	.uleb128 0x1
	.byte	0x4
	.4byte	.LCFI137-.LCFI136
	.byte	0xe
	.uleb128 0x28
	.byte	0x4
	.4byte	.LCFI138-.LCFI137
	.byte	0xe
	.uleb128 0x4
	.align	2
.LEFDE196:
.LSFDE198:
	.4byte	.LEFDE198-.LASFDE198
.LASFDE198:
	.4byte	.Lframe0
	.4byte	.LFB255
	.4byte	.LFE255-.LFB255
	.byte	0x4
	.4byte	.LCFI139-.LFB255
	.byte	0xe
	.uleb128 0x4
	.byte	0x8e
	.uleb128 0x1
	.byte	0x4
	.4byte	.LCFI140-.LCFI139
	.byte	0xe
	.uleb128 0x30
	.byte	0x4
	.4byte	.LCFI141-.LCFI140
	.byte	0xe
	.uleb128 0x4
	.align	2
.LEFDE198:
.LSFDE200:
	.4byte	.LEFDE200-.LASFDE200
.LASFDE200:
	.4byte	.Lframe0
	.4byte	.LFB256
	.4byte	.LFE256-.LFB256
	.byte	0x4
	.4byte	.LCFI142-.LFB256
	.byte	0xe
	.uleb128 0x4
	.byte	0x8e
	.uleb128 0x1
	.byte	0x4
	.4byte	.LCFI143-.LCFI142
	.byte	0xe
	.uleb128 0x38
	.byte	0x4
	.4byte	.LCFI144-.LCFI143
	.byte	0xe
	.uleb128 0x4
	.align	2
.LEFDE200:
.LSFDE202:
	.4byte	.LEFDE202-.LASFDE202
.LASFDE202:
	.4byte	.Lframe0
	.4byte	.LFB257
	.4byte	.LFE257-.LFB257
	.byte	0x4
	.4byte	.LCFI145-.LFB257
	.byte	0xe
	.uleb128 0x4
	.byte	0x8e
	.uleb128 0x1
	.byte	0x4
	.4byte	.LCFI146-.LCFI145
	.byte	0xe
	.uleb128 0x20
	.byte	0x4
	.4byte	.LCFI147-.LCFI146
	.byte	0xe
	.uleb128 0x4
	.align	2
.LEFDE202:
.LSFDE204:
	.4byte	.LEFDE204-.LASFDE204
.LASFDE204:
	.4byte	.Lframe0
	.4byte	.LFB258
	.4byte	.LFE258-.LFB258
	.byte	0x4
	.4byte	.LCFI148-.LFB258
	.byte	0xe
	.uleb128 0x4
	.byte	0x8e
	.uleb128 0x1
	.byte	0x4
	.4byte	.LCFI149-.LCFI148
	.byte	0xe
	.uleb128 0x18
	.byte	0x4
	.4byte	.LCFI150-.LCFI149
	.byte	0xe
	.uleb128 0x4
	.align	2
.LEFDE204:
.LSFDE206:
	.4byte	.LEFDE206-.LASFDE206
.LASFDE206:
	.4byte	.Lframe0
	.4byte	.LFB259
	.4byte	.LFE259-.LFB259
	.byte	0x4
	.4byte	.LCFI151-.LFB259
	.byte	0xe
	.uleb128 0x4
	.byte	0x8e
	.uleb128 0x1
	.byte	0x4
	.4byte	.LCFI152-.LCFI151
	.byte	0xe
	.uleb128 0x18
	.byte	0x4
	.4byte	.LCFI153-.LCFI152
	.byte	0xe
	.uleb128 0x4
	.align	2
.LEFDE206:
	.text
.Letext0:
	.file 5 "../../../../../../external/freertos/source/include/list.h"
	.file 6 "C:/Program Files (x86)/SEGGER/SEGGER Embedded Studio for ARM 4.50/include/stdint.h"