	.cpu cortex-m4
	.eabi_attribute 27, 1
	.eabi_attribute 28, 1
	.eabi_attribute 20, 1
	.eabi_attribute 21, 1
	.eabi_attribute 23, 3
	.eabi_attribute 24, 1
	.eabi_attribute 25, 1
	.eabi_attribute 26, 1
	.eabi_attribute 30, 1
	.eabi_attribute 34, 1
	.eabi_attribute 18, 4
	.file	"app_button.c"
	.text
.Ltext0:
	.section	.text.detection_delay_timeout_handler,"ax",%progbits
	.align	1
	.syntax unified
	.thumb
	.thumb_func
	.fpu fpv4-sp-d16
	.type	detection_delay_timeout_handler, %function
detection_delay_timeout_handler:
.LVL0:
.LFB261:
	.file 1 "C:\\nRF5_SDK_15.0.0_a53641a\\components\\libraries\\button\\app_button.c"
	.loc 1 71 1 view -0
	@ args = 0, pretend = 0, frame = 8
	@ frame_needed = 0, uses_anonymous_args = 0
	.loc 1 71 1 is_stmt 0 view .LVU1
	push	{r4, r5, r6, r7, r8, r9, r10, lr}
.LCFI0:
	sub	sp, sp, #8
.LCFI1:
	.loc 1 72 5 is_stmt 1 view .LVU2
	.loc 1 75 5 view .LVU3
.LVL1:
	.loc 1 75 12 is_stmt 0 view .LVU4
	movs	r4, #0
	.loc 1 75 5 view .LVU5
	b	.L2
.LVL2:
.L3:
	.loc 1 75 37 is_stmt 1 discriminator 2 view .LVU6
	.loc 1 75 38 is_stmt 0 discriminator 2 view .LVU7
	adds	r4, r4, #1
.LVL3:
	.loc 1 75 38 discriminator 2 view .LVU8
	uxtb	r4, r4
.LVL4:
.L2:
	.loc 1 75 17 is_stmt 1 discriminator 1 view .LVU9
	.loc 1 75 19 is_stmt 0 discriminator 1 view .LVU10
	ldr	r3, .L7
	ldrb	r3, [r3]	@ zero_extendqisi2
	.loc 1 75 5 discriminator 1 view .LVU11
	cmp	r3, r4
	bls	.L6
.LBB2:
	.loc 1 77 9 is_stmt 1 view .LVU12
	.loc 1 77 42 is_stmt 0 view .LVU13
	ldr	r3, .L7+4
	ldr	r5, [r3]
	.loc 1 77 34 view .LVU14
	add	r10, r5, r4, lsl #3
.LVL5:
	.loc 1 78 9 is_stmt 1 view .LVU15
	.loc 1 78 42 is_stmt 0 view .LVU16
	ldrb	r0, [r5, r4, lsl #3]	@ zero_extendqisi2
	.loc 1 78 18 view .LVU17
	movs	r2, #1
	sub	r3, r0, #32
	rsb	r1, r0, #32
	lsl	r3, r2, r3
	lsr	r1, r2, r1
	orrs	r3, r3, r1
	lsls	r2, r2, r0
.LVL6:
	.loc 1 79 9 is_stmt 1 view .LVU18
	.loc 1 79 22 is_stmt 0 view .LVU19
	ldr	r1, .L7+8
	ldr	ip, [r1]
	ldr	r1, [r1, #4]
	and	r6, ip, r2
	and	r7, r1, r3
	.loc 1 79 12 view .LVU20
	orrs	lr, r6, r7
	beq	.L3
.LBB3:
	.loc 1 81 13 is_stmt 1 view .LVU21
	.loc 1 81 30 is_stmt 0 view .LVU22
	ldr	lr, .L7+8
	bic	r2, ip, r2
.LVL7:
	.loc 1 81 30 view .LVU23
	bic	r3, r1, r3
.LVL8:
	.loc 1 81 30 view .LVU24
	str	r2, [lr]
	str	r3, [lr, #4]
	.loc 1 82 12 is_stmt 1 view .LVU25
	.loc 1 82 30 is_stmt 0 view .LVU26
	bl	nrfx_gpiote_in_is_set
.LVL9:
	.loc 1 82 30 view .LVU27
	mov	r1, r0
.LVL10:
	.loc 1 83 13 is_stmt 1 view .LVU28
	.loc 1 83 46 is_stmt 0 view .LVU29
	ldrb	r0, [r5, r4, lsl #3]	@ zero_extendqisi2
	.loc 1 83 38 view .LVU30
	movs	r2, #1
	.loc 1 83 38 view .LVU31
	sub	r3, r0, #32
	rsb	r5, r0, #32
	lsl	r3, r2, r3
	lsr	r5, r2, r5
	orrs	r3, r3, r5
	lsls	r2, r2, r0
	.loc 1 83 30 view .LVU32
	ldr	r5, .L7+12
	ldr	ip, [r5]
	ldr	r5, [r5, #4]
	and	r2, r2, ip
	str	r2, [sp]
	ands	r3, r3, r5
	str	r3, [sp, #4]
	.loc 1 83 84 view .LVU33
	sub	r2, r0, #32
	rsb	r3, r0, #32
	mov	r9, #0
	lsl	r2, r1, r2
	orr	r9, r9, r2
	lsr	r3, r1, r3
	orr	r9, r9, r3
	lsl	r8, r1, r0
	.loc 1 83 16 view .LVU34
	ldrd	r2, [sp]
	cmp	r3, r9
	it	eq
	cmpeq	r2, r8
	bne	.L3
.LBB4:
	.loc 1 85 17 is_stmt 1 view .LVU35
	.loc 1 85 60 is_stmt 0 view .LVU36
	ldrb	r3, [r10, #1]	@ zero_extendqisi2
	.loc 1 85 75 view .LVU37
	cmp	r3, #1
	ite	ne
	movne	r3, #0
	moveq	r3, #1
	.loc 1 85 39 view .LVU38
	cmp	r3, r1
	ite	ne
	movne	r1, #0
.LVL11:
	.loc 1 85 39 view .LVU39
	moveq	r1, #1
.LVL12:
	.loc 1 87 17 is_stmt 1 view .LVU40
	.loc 1 87 26 is_stmt 0 view .LVU41
	ldr	r3, [r10, #4]
	.loc 1 87 20 view .LVU42
	cmp	r3, #0
	beq	.L3
	.loc 1 89 21 is_stmt 1 view .LVU43
	blx	r3
.LVL13:
	.loc 1 89 21 is_stmt 0 view .LVU44
	b	.L3
.LVL14:
.L6:
	.loc 1 89 21 view .LVU45
.LBE4:
.LBE3:
.LBE2:
	.loc 1 94 1 view .LVU46
	add	sp, sp, #8
.LCFI2:
	@ sp needed
	pop	{r4, r5, r6, r7, r8, r9, r10, pc}
.LVL15:
.L8:
	.loc 1 94 1 view .LVU47
	.align	2
.L7:
	.word	.LANCHOR3
	.word	.LANCHOR0
	.word	.LANCHOR1
	.word	.LANCHOR2
.LFE261:
	.size	detection_delay_timeout_handler, .-detection_delay_timeout_handler
	.section	.text.gpiote_event_handler,"ax",%progbits
	.align	1
	.syntax unified
	.thumb
	.thumb_func
	.fpu fpv4-sp-d16
	.type	gpiote_event_handler, %function
gpiote_event_handler:
.LVL16:
.LFB262:
	.loc 1 97 1 is_stmt 1 view -0
	@ args = 0, pretend = 0, frame = 0
	@ frame_needed = 0, uses_anonymous_args = 0
	.loc 1 97 1 is_stmt 0 view .LVU49
	push	{r4, r5, r6, lr}
.LCFI3:
	mov	r6, r0
	.loc 1 98 5 is_stmt 1 view .LVU50
	.loc 1 99 5 view .LVU51
	.loc 1 99 14 is_stmt 0 view .LVU52
	movs	r3, #1
	sub	r4, r0, #32
	rsb	r2, r0, #32
	lsl	r4, r3, r4
	lsr	r2, r3, r2
	orrs	r4, r4, r2
	lsl	r5, r3, r0
.LVL17:
	.loc 1 105 5 is_stmt 1 view .LVU53
	.loc 1 105 16 is_stmt 0 view .LVU54
	ldr	r0, .L16
.LVL18:
	.loc 1 105 16 view .LVU55
	bl	app_timer_stop
.LVL19:
	.loc 1 106 5 is_stmt 1 view .LVU56
	.loc 1 106 8 is_stmt 0 view .LVU57
	cbnz	r0, .L9
	.loc 1 113 5 is_stmt 1 view .LVU58
	.loc 1 113 28 is_stmt 0 view .LVU59
	ldr	r2, .L16+4
	ldr	r3, [r2]
	ldr	r2, [r2, #4]
	and	r0, r3, r5
.LVL20:
	.loc 1 113 28 view .LVU60
	and	r1, r2, r4
	.loc 1 113 8 view .LVU61
	orrs	r1, r0, r1
	beq	.L15
	.loc 1 134 9 is_stmt 1 view .LVU62
	.loc 1 134 26 is_stmt 0 view .LVU63
	ldr	r1, .L16+4
	bic	r3, r3, r5
	bic	r4, r2, r4
.LVL21:
	.loc 1 134 26 view .LVU64
	str	r3, [r1]
	str	r4, [r1, #4]
.L9:
	.loc 1 136 1 view .LVU65
	pop	{r4, r5, r6, pc}
.LVL22:
.L15:
	.loc 1 115 9 is_stmt 1 view .LVU66
	.loc 1 115 13 is_stmt 0 view .LVU67
	mov	r0, r6
	bl	nrfx_gpiote_in_is_set
.LVL23:
	.loc 1 115 12 view .LVU68
	cbz	r0, .L12
	.loc 1 117 13 is_stmt 1 view .LVU69
	.loc 1 117 25 is_stmt 0 view .LVU70
	ldr	r3, .L16+8
	ldr	r1, [r3]
	ldr	r2, [r3, #4]
	orrs	r1, r1, r5
	orrs	r2, r2, r4
	str	r1, [r3]
	str	r2, [r3, #4]
.L13:
	.loc 1 123 9 is_stmt 1 view .LVU71
	.loc 1 123 26 is_stmt 0 view .LVU72
	ldr	r2, .L16+4
	ldr	r3, [r2]
	ldr	r1, [r2, #4]
	orrs	r3, r3, r5
	orrs	r4, r4, r1
.LVL24:
	.loc 1 123 26 view .LVU73
	str	r3, [r2]
	str	r4, [r2, #4]
	.loc 1 125 9 is_stmt 1 view .LVU74
	.loc 1 125 20 is_stmt 0 view .LVU75
	movs	r2, #0
	ldr	r3, .L16+12
	ldr	r1, [r3]
	ldr	r0, .L16
	bl	app_timer_start
.LVL25:
	.loc 1 126 9 is_stmt 1 view .LVU76
	.loc 1 130 9 view .LVU77
	b	.L9
.LVL26:
.L12:
	.loc 1 121 13 view .LVU78
	.loc 1 121 25 is_stmt 0 view .LVU79
	ldr	r3, .L16+8
	ldr	r1, [r3]
	ldr	r2, [r3, #4]
	bic	r1, r1, r5
	bic	r2, r2, r4
	str	r1, [r3]
	str	r2, [r3, #4]
	b	.L13
.L17:
	.align	2
.L16:
	.word	.LANCHOR4
	.word	.LANCHOR1
	.word	.LANCHOR2
	.word	.LANCHOR5
.LFE262:
	.size	gpiote_event_handler, .-gpiote_event_handler
	.section	.text.app_button_init,"ax",%progbits
	.align	1
	.global	app_button_init
	.syntax unified
	.thumb
	.thumb_func
	.fpu fpv4-sp-d16
	.type	app_button_init, %function
app_button_init:
.LVL27:
.LFB263:
	.loc 1 141 1 is_stmt 1 view -0
	@ args = 0, pretend = 0, frame = 8
	@ frame_needed = 0, uses_anonymous_args = 0
	.loc 1 142 5 view .LVU81
	.loc 1 144 5 view .LVU82
	.loc 1 144 8 is_stmt 0 view .LVU83
	cmp	r2, #4
	bls	.L24
	.loc 1 141 1 view .LVU84
	push	{r4, r5, r6, lr}
.LCFI4:
	sub	sp, sp, #8
.LCFI5:
	mov	r6, r0
	mov	r5, r1
	mov	r4, r2
	.loc 1 149 5 is_stmt 1 view .LVU85
	.loc 1 149 10 is_stmt 0 view .LVU86
	bl	nrfx_gpiote_is_init
.LVL28:
	.loc 1 149 8 view .LVU87
	cbz	r0, .L29
.L20:
	.loc 1 152 117 is_stmt 1 discriminator 2 view .LVU88
	.loc 1 156 5 discriminator 2 view .LVU89
	.loc 1 156 16 is_stmt 0 discriminator 2 view .LVU90
	ldr	r3, .L31
	str	r6, [r3]
	.loc 1 157 5 is_stmt 1 discriminator 2 view .LVU91
	.loc 1 157 20 is_stmt 0 discriminator 2 view .LVU92
	ldr	r3, .L31+4
	strb	r5, [r3]
	.loc 1 158 5 is_stmt 1 discriminator 2 view .LVU93
	.loc 1 158 23 is_stmt 0 discriminator 2 view .LVU94
	ldr	r3, .L31+8
	str	r4, [r3]
	.loc 1 160 5 is_stmt 1 discriminator 2 view .LVU95
	.loc 1 160 17 is_stmt 0 discriminator 2 view .LVU96
	movs	r2, #0
	movs	r3, #0
	ldr	r1, .L31+12
	strd	r2, [r1]
	.loc 1 161 5 is_stmt 1 discriminator 2 view .LVU97
	.loc 1 161 22 is_stmt 0 discriminator 2 view .LVU98
	ldr	r1, .L31+16
	strd	r2, [r1]
	.loc 1 163 5 is_stmt 1 discriminator 2 view .LVU99
.LVL29:
.L21:
	.loc 1 163 11 view .LVU100
	.loc 1 163 24 is_stmt 0 view .LVU101
	subs	r4, r5, #1
	uxtb	r4, r4
.LVL30:
	.loc 1 163 11 view .LVU102
	cbz	r5, .L30
.LBB5:
	.loc 1 165 9 is_stmt 1 view .LVU103
	.loc 1 165 34 is_stmt 0 view .LVU104
	add	r3, r6, r4, lsl #3
	.loc 1 170 9 is_stmt 1 view .LVU105
	.loc 1 170 36 is_stmt 0 view .LVU106
	movs	r2, #0
	strh	r2, [sp, #5]	@ unaligned
	movs	r2, #3
	strb	r2, [sp, #4]
	.loc 1 172 9 is_stmt 1 view .LVU107
	.loc 1 172 28 is_stmt 0 view .LVU108
	ldrb	r3, [r3, #2]	@ zero_extendqisi2
	.loc 1 172 21 view .LVU109
	strb	r3, [sp, #5]
	.loc 1 174 9 is_stmt 1 view .LVU110
	.loc 1 174 20 is_stmt 0 view .LVU111
	ldr	r2, .L31+20
	add	r1, sp, #4
	ldrb	r0, [r6, r4, lsl #3]	@ zero_extendqisi2
	bl	nrfx_gpiote_in_init
.LVL31:
	.loc 1 175 9 is_stmt 1 view .LVU112
.LBB6:
	.loc 1 175 14 view .LVU113
	.loc 1 175 58 view .LVU114
	.loc 1 175 61 is_stmt 0 view .LVU115
	mov	r3, r0
	cbnz	r0, .L18
.LBE6:
	.loc 1 175 117 is_stmt 1 discriminator 2 view .LVU116
.LBE5:
	.loc 1 163 24 is_stmt 0 discriminator 2 view .LVU117
	mov	r5, r4
.LBB7:
	b	.L21
.LVL32:
.L29:
	.loc 1 163 24 discriminator 2 view .LVU118
.LBE7:
	.loc 1 151 9 is_stmt 1 view .LVU119
	.loc 1 151 20 is_stmt 0 view .LVU120
	bl	nrfx_gpiote_init
.LVL33:
	.loc 1 152 9 is_stmt 1 view .LVU121
.LBB8:
	.loc 1 152 14 view .LVU122
	.loc 1 152 58 view .LVU123
	.loc 1 152 61 is_stmt 0 view .LVU124
	mov	r3, r0
	cmp	r0, #0
	beq	.L20
	b	.L18
.LVL34:
.L30:
	.loc 1 152 61 view .LVU125
.LBE8:
	.loc 1 179 5 is_stmt 1 view .LVU126
	.loc 1 179 12 is_stmt 0 view .LVU127
	ldr	r2, .L31+24
	movs	r1, #0
	ldr	r0, .L31+28
	bl	app_timer_create
.LVL35:
	mov	r3, r0
.LVL36:
.L18:
	.loc 1 182 1 view .LVU128
	mov	r0, r3
	add	sp, sp, #8
.LCFI6:
	@ sp needed
	pop	{r4, r5, r6, pc}
.LVL37:
.L24:
.LCFI7:
	.loc 1 146 16 view .LVU129
	movs	r3, #7
	.loc 1 182 1 view .LVU130
	mov	r0, r3
.LVL38:
	.loc 1 182 1 view .LVU131
	bx	lr
.L32:
	.align	2
.L31:
	.word	.LANCHOR0
	.word	.LANCHOR3
	.word	.LANCHOR5
	.word	.LANCHOR2
	.word	.LANCHOR1
	.word	gpiote_event_handler
	.word	detection_delay_timeout_handler
	.word	.LANCHOR6
.LFE263:
	.size	app_button_init, .-app_button_init
	.section	.rodata.app_button_enable.str1.4,"aMS",%progbits,1
	.align	2
.LC0:
	.ascii	"C:\\nRF5_SDK_15.0.0_a53641a\\components\\libraries\\"
	.ascii	"button\\app_button.c\000"
	.section	.text.app_button_enable,"ax",%progbits
	.align	1
	.global	app_button_enable
	.syntax unified
	.thumb
	.thumb_func
	.fpu fpv4-sp-d16
	.type	app_button_enable, %function
app_button_enable:
.LFB264:
	.loc 1 185 1 is_stmt 1 view -0
	@ args = 0, pretend = 0, frame = 0
	@ frame_needed = 0, uses_anonymous_args = 0
	push	{r4, lr}
.LCFI8:
	.loc 1 186 5 view .LVU133
	.loc 1 186 14 view .LVU134
	.loc 1 186 18 is_stmt 0 view .LVU135
	ldr	r3, .L40
	ldr	r3, [r3]
	.loc 1 186 17 view .LVU136
	cbz	r3, .L38
.L34:
	.loc 1 185 1 discriminator 1 view .LVU137
	movs	r4, #0
.L35:
.LVL39:
	.loc 1 189 17 is_stmt 1 discriminator 1 view .LVU138
	.loc 1 189 19 is_stmt 0 discriminator 1 view .LVU139
	ldr	r3, .L40+4
	ldrb	r3, [r3]	@ zero_extendqisi2
	.loc 1 189 5 discriminator 1 view .LVU140
	cmp	r3, r4
	bls	.L39
	.loc 1 191 9 is_stmt 1 discriminator 3 view .LVU141
	.loc 1 191 47 is_stmt 0 discriminator 3 view .LVU142
	ldr	r3, .L40
	ldr	r3, [r3]
	.loc 1 191 9 discriminator 3 view .LVU143
	movs	r1, #1
	ldrb	r0, [r3, r4, lsl #3]	@ zero_extendqisi2
	bl	nrfx_gpiote_in_event_enable
.LVL40:
	.loc 1 189 37 is_stmt 1 discriminator 3 view .LVU144
	.loc 1 189 38 is_stmt 0 discriminator 3 view .LVU145
	adds	r4, r4, #1
.LVL41:
	.loc 1 189 38 discriminator 3 view .LVU146
	b	.L35
.LVL42:
.L38:
	.loc 1 186 41 is_stmt 1 discriminator 4 view .LVU147
	ldr	r1, .L40+8
	movs	r0, #186
	bl	assert_nrf_callback
.LVL43:
	b	.L34
.LVL44:
.L39:
	.loc 1 194 5 view .LVU148
	.loc 1 195 1 is_stmt 0 view .LVU149
	movs	r0, #0
	pop	{r4, pc}
.LVL45:
.L41:
	.loc 1 195 1 view .LVU150
	.align	2
.L40:
	.word	.LANCHOR0
	.word	.LANCHOR3
	.word	.LC0
.LFE264:
	.size	app_button_enable, .-app_button_enable
	.section	.text.app_button_disable,"ax",%progbits
	.align	1
	.global	app_button_disable
	.syntax unified
	.thumb
	.thumb_func
	.fpu fpv4-sp-d16
	.type	app_button_disable, %function
app_button_disable:
.LFB265:
	.loc 1 199 1 is_stmt 1 view -0
	@ args = 0, pretend = 0, frame = 0
	@ frame_needed = 0, uses_anonymous_args = 0
	push	{r4, lr}
.LCFI9:
	.loc 1 200 5 view .LVU152
	.loc 1 200 14 view .LVU153
	.loc 1 200 18 is_stmt 0 view .LVU154
	ldr	r3, .L49
	ldr	r3, [r3]
	.loc 1 200 17 view .LVU155
	cbz	r3, .L47
.L43:
	.loc 1 199 1 discriminator 1 view .LVU156
	movs	r4, #0
.L44:
.LVL46:
	.loc 1 203 17 is_stmt 1 discriminator 1 view .LVU157
	.loc 1 203 19 is_stmt 0 discriminator 1 view .LVU158
	ldr	r3, .L49+4
	ldrb	r3, [r3]	@ zero_extendqisi2
	.loc 1 203 5 discriminator 1 view .LVU159
	cmp	r3, r4
	bls	.L48
	.loc 1 205 8 is_stmt 1 discriminator 3 view .LVU160
	.loc 1 205 47 is_stmt 0 discriminator 3 view .LVU161
	ldr	r3, .L49
	ldr	r3, [r3]
	.loc 1 205 8 discriminator 3 view .LVU162
	ldrb	r0, [r3, r4, lsl #3]	@ zero_extendqisi2
	bl	nrfx_gpiote_in_event_disable
.LVL47:
	.loc 1 203 37 is_stmt 1 discriminator 3 view .LVU163
	.loc 1 203 38 is_stmt 0 discriminator 3 view .LVU164
	adds	r4, r4, #1
.LVL48:
	.loc 1 203 38 discriminator 3 view .LVU165
	b	.L44
.LVL49:
.L47:
	.loc 1 200 41 is_stmt 1 discriminator 4 view .LVU166
	ldr	r1, .L49+8
	movs	r0, #200
	bl	assert_nrf_callback
.LVL50:
	b	.L43
.LVL51:
.L48:
	.loc 1 209 5 view .LVU167
	.loc 1 209 12 is_stmt 0 view .LVU168
	ldr	r0, .L49+12
	bl	app_timer_stop
.LVL52:
	.loc 1 210 1 view .LVU169
	pop	{r4, pc}
.LVL53:
.L50:
	.loc 1 210 1 view .LVU170
	.align	2
.L49:
	.word	.LANCHOR0
	.word	.LANCHOR3
	.word	.LC0
	.word	.LANCHOR4
.LFE265:
	.size	app_button_disable, .-app_button_disable
	.section	.text.app_button_is_pushed,"ax",%progbits
	.align	1
	.global	app_button_is_pushed
	.syntax unified
	.thumb
	.thumb_func
	.fpu fpv4-sp-d16
	.type	app_button_is_pushed, %function
app_button_is_pushed:
.LVL54:
.LFB266:
	.loc 1 214 1 is_stmt 1 view -0
	@ args = 0, pretend = 0, frame = 0
	@ frame_needed = 0, uses_anonymous_args = 0
	.loc 1 214 1 is_stmt 0 view .LVU172
	push	{r3, r4, r5, lr}
.LCFI10:
	mov	r4, r0
	.loc 1 215 5 is_stmt 1 view .LVU173
	.loc 1 215 14 view .LVU174
	.loc 1 215 28 is_stmt 0 view .LVU175
	ldr	r3, .L57
	ldrb	r3, [r3]	@ zero_extendqisi2
	.loc 1 215 17 view .LVU176
	cmp	r3, r0
	bcc	.L55
.LVL55:
.L52:
	.loc 1 215 184 is_stmt 1 discriminator 1 view .LVU177
	.loc 1 216 5 discriminator 1 view .LVU178
	.loc 1 216 14 discriminator 1 view .LVU179
	.loc 1 216 29 is_stmt 0 discriminator 1 view .LVU180
	ldr	r3, .L57+4
	ldr	r3, [r3]
	.loc 1 216 17 discriminator 1 view .LVU181
	cbz	r3, .L56
.L53:
	.loc 1 216 143 is_stmt 1 discriminator 5 view .LVU182
	.loc 1 218 5 discriminator 5 view .LVU183
	.loc 1 218 38 is_stmt 0 discriminator 5 view .LVU184
	ldr	r3, .L57+4
	ldr	r3, [r3]
	.loc 1 218 30 discriminator 5 view .LVU185
	add	r5, r3, r4, lsl #3
.LVL56:
	.loc 1 219 4 is_stmt 1 discriminator 5 view .LVU186
	.loc 1 219 18 is_stmt 0 discriminator 5 view .LVU187
	ldrb	r0, [r3, r4, lsl #3]	@ zero_extendqisi2
	bl	nrfx_gpiote_in_is_set
.LVL57:
	.loc 1 221 5 is_stmt 1 discriminator 5 view .LVU188
	.loc 1 221 29 is_stmt 0 discriminator 5 view .LVU189
	ldrb	r3, [r5, #1]	@ zero_extendqisi2
	.loc 1 221 44 discriminator 5 view .LVU190
	cmp	r3, #1
	ite	ne
	movne	r3, #0
	moveq	r3, #1
	.loc 1 222 1 discriminator 5 view .LVU191
	cmp	r3, r0
	ite	ne
	movne	r0, #0
.LVL58:
	.loc 1 222 1 discriminator 5 view .LVU192
	moveq	r0, #1
	pop	{r3, r4, r5, pc}
.LVL59:
.L55:
	.loc 1 215 58 is_stmt 1 discriminator 4 view .LVU193
	ldr	r1, .L57+8
	movs	r0, #215
.LVL60:
	.loc 1 215 58 is_stmt 0 discriminator 4 view .LVU194
	bl	assert_nrf_callback
.LVL61:
	b	.L52
.L56:
	.loc 1 216 17 is_stmt 1 discriminator 4 view .LVU195
	ldr	r1, .L57+8
	movs	r0, #216
	bl	assert_nrf_callback
.LVL62:
	b	.L53
.L58:
	.align	2
.L57:
	.word	.LANCHOR3
	.word	.LANCHOR0
	.word	.LC0
.LFE266:
	.size	app_button_is_pushed, .-app_button_is_pushed
	.section	.bss.m_button_count,"aw",%nobits
	.set	.LANCHOR3,. + 0
	.type	m_button_count, %object
	.size	m_button_count, 1
m_button_count:
	.space	1
	.section	.bss.m_detection_delay,"aw",%nobits
	.align	2
	.set	.LANCHOR5,. + 0
	.type	m_detection_delay, %object
	.size	m_detection_delay, 4
m_detection_delay:
	.space	4
	.section	.bss.m_detection_delay_timer_id_data,"aw",%nobits
	.align	2
	.set	.LANCHOR4,. + 0
	.type	m_detection_delay_timer_id_data, %object
	.size	m_detection_delay_timer_id_data, 32
m_detection_delay_timer_id_data:
	.space	32
	.section	.bss.m_pin_state,"aw",%nobits
	.align	3
	.set	.LANCHOR2,. + 0
	.type	m_pin_state, %object
	.size	m_pin_state, 8
m_pin_state:
	.space	8
	.section	.bss.m_pin_transition,"aw",%nobits
	.align	3
	.set	.LANCHOR1,. + 0
	.type	m_pin_transition, %object
	.size	m_pin_transition, 8
m_pin_transition:
	.space	8
	.section	.bss.mp_buttons,"aw",%nobits
	.align	2
	.set	.LANCHOR0,. + 0
	.type	mp_buttons, %object
	.size	mp_buttons, 4
mp_buttons:
	.space	4
	.section	.rodata.m_detection_delay_timer_id,"a"
	.align	2
	.set	.LANCHOR6,. + 0
	.type	m_detection_delay_timer_id, %object
	.size	m_detection_delay_timer_id, 4
m_detection_delay_timer_id:
	.word	m_detection_delay_timer_id_data
	.section	.debug_frame,"",%progbits
.Lframe0:
	.4byte	.LECIE0-.LSCIE0
.LSCIE0:
	.4byte	0xffffffff
	.byte	0x3
	.ascii	"\000"
	.uleb128 0x1
	.sleb128 -4
	.uleb128 0xe
	.byte	0xc
	.uleb128 0xd
	.uleb128 0
	.align	2
.LECIE0:
.LSFDE0:
	.4byte	.LEFDE0-.LASFDE0
.LASFDE0:
	.4byte	.Lframe0
	.4byte	.LFB261
	.4byte	.LFE261-.LFB261
	.byte	0x4
	.4byte	.LCFI0-.LFB261
	.byte	0xe
	.uleb128 0x20
	.byte	0x84
	.uleb128 0x8
	.byte	0x85
	.uleb128 0x7
	.byte	0x86
	.uleb128 0x6
	.byte	0x87
	.uleb128 0x5
	.byte	0x88
	.uleb128 0x4
	.byte	0x89
	.uleb128 0x3
	.byte	0x8a
	.uleb128 0x2
	.byte	0x8e
	.uleb128 0x1
	.byte	0x4
	.4byte	.LCFI1-.LCFI0
	.byte	0xe
	.uleb128 0x28
	.byte	0x4
	.4byte	.LCFI2-.LCFI1
	.byte	0xe
	.uleb128 0x20
	.align	2
.LEFDE0:
.LSFDE2:
	.4byte	.LEFDE2-.LASFDE2
.LASFDE2:
	.4byte	.Lframe0
	.4byte	.LFB262
	.4byte	.LFE262-.LFB262
	.byte	0x4
	.4byte	.LCFI3-.LFB262
	.byte	0xe
	.uleb128 0x10
	.byte	0x84
	.uleb128 0x4
	.byte	0x85
	.uleb128 0x3
	.byte	0x86
	.uleb128 0x2
	.byte	0x8e
	.uleb128 0x1
	.align	2
.LEFDE2:
.LSFDE4:
	.4byte	.LEFDE4-.LASFDE4
.LASFDE4:
	.4byte	.Lframe0
	.4byte	.LFB263
	.4byte	.LFE263-.LFB263
	.byte	0x4
	.4byte	.LCFI4-.LFB263
	.byte	0xe
	.uleb128 0x10
	.byte	0x84
	.uleb128 0x4
	.byte	0x85
	.uleb128 0x3
	.byte	0x86
	.uleb128 0x2
	.byte	0x8e
	.uleb128 0x1
	.byte	0x4
	.4byte	.LCFI5-.LCFI4
	.byte	0xe
	.uleb128 0x18
	.byte	0x4
	.4byte	.LCFI6-.LCFI5
	.byte	0xe
	.uleb128 0x10
	.byte	0x4
	.4byte	.LCFI7-.LCFI6
	.byte	0xe
	.uleb128 0
	.byte	0xc4
	.byte	0xc5
	.byte	0xc6
	.byte	0xce
	.align	2
.LEFDE4:
.LSFDE6:
	.4byte	.LEFDE6-.LASFDE6
.LASFDE6:
	.4byte	.Lframe0
	.4byte	.LFB264
	.4byte	.LFE264-.LFB264
	.byte	0x4
	.4byte	.LCFI8-.LFB264
	.byte	0xe
	.uleb128 0x8
	.byte	0x84
	.uleb128 0x2
	.byte	0x8e
	.uleb128 0x1
	.align	2
.LEFDE6:
.LSFDE8:
	.4byte	.LEFDE8-.LASFDE8
.LASFDE8:
	.4byte	.Lframe0
	.4byte	.LFB265
	.4byte	.LFE265-.LFB265
	.byte	0x4
	.4byte	.LCFI9-.LFB265
	.byte	0xe
	.uleb128 0x8
	.byte	0x84
	.uleb128 0x2
	.byte	0x8e
	.uleb128 0x1
	.align	2
.LEFDE8:
.LSFDE10:
	.4byte	.LEFDE10-.LASFDE10
.LASFDE10:
	.4byte	.Lframe0
	.4byte	.LFB266
	.4byte	.LFE266-.LFB266
	.byte	0x4
	.4byte	.LCFI10-.LFB266
	.byte	0xe
	.uleb128 0x10
	.byte	0x83
	.uleb128 0x4
	.byte	0x84
	.uleb128 0x3
	.byte	0x85
	.uleb128 0x2
	.byte	0x8e
	.uleb128 0x1
	.align	2
.LEFDE10:
	.text
.Letext0:
	.file 2 "../../../../../../modules/nrfx/drivers/include/nrfx_gpiote.h"
	.file 3 "../../../../../../modules/nrfx/hal/nrf_gpiote.h"
	.file 4 "../../../../../../modules/nrfx/hal/nrf_gpio.h"