	.cpu cortex-m4
	.eabi_attribute 27, 1
	.eabi_attribute 28, 1
	.eabi_attribute 20, 1
	.eabi_attribute 21, 1
	.eabi_attribute 23, 3
	.eabi_attribute 24, 1
	.eabi_attribute 25, 1
	.eabi_attribute 26, 1
	.eabi_attribute 30, 1
	.eabi_attribute 34, 1
	.eabi_attribute 18, 4
	.file	"arq.c"
	.text
.Ltext0:
	.section	.text.arq_init,"ax",%progbits
	.align	1
	.global	arq_init
	.syntax unified
	.thumb
	.thumb_func
	.fpu fpv4-sp-d16
	.type	arq_init, %function
arq_init:
.LFB200:
	.file 1 "C:\\nRF5_SDK_15.0.0_a53641a\\examples\\ble_peripheral\\slam_application-master\\communication\\arq.c"
	.loc 1 62 21 view -0
	@ args = 0, pretend = 0, frame = 0
	@ frame_needed = 0, uses_anonymous_args = 0
	push	{r3, r4, r5, r6, r7, lr}
.LCFI0:
	.loc 1 63 3 view .LVU1
	ldr	r1, .L5
	movs	r0, #1
	bl	network_set_callback
.LVL0:
	.loc 1 64 3 view .LVU2
	.loc 1 64 18 is_stmt 0 view .LVU3
	movs	r4, #0
	ldr	r3, .L5+4
	str	r4, [r3]
	.loc 1 65 3 is_stmt 1 view .LVU4
.LVL1:
	.loc 1 66 3 view .LVU5
.L2:
	.loc 1 66 11 discriminator 1 view .LVU6
	.loc 1 66 3 is_stmt 0 discriminator 1 view .LVU7
	cbz	r4, .L3
	.loc 1 71 1 view .LVU8
	pop	{r3, r4, r5, r6, r7, pc}
.LVL2:
.L3:
	.loc 1 67 5 is_stmt 1 discriminator 3 view .LVU9
	.loc 1 67 12 is_stmt 0 discriminator 3 view .LVU10
	ldr	r6, .L5+8
	movs	r2, #156
	mul	r5, r2, r4
	adds	r7, r6, r5
	.loc 1 67 5 discriminator 3 view .LVU11
	movs	r1, #0
	mov	r0, r7
	bl	memset
.LVL3:
	.loc 1 68 5 is_stmt 1 discriminator 3 view .LVU12
	.loc 1 68 28 is_stmt 0 discriminator 3 view .LVU13
	movs	r0, #1
	bl	xQueueCreateMutex
.LVL4:
	.loc 1 68 26 discriminator 3 view .LVU14
	str	r0, [r7, #148]
	.loc 1 69 5 is_stmt 1 discriminator 3 view .LVU15
	.loc 1 69 27 is_stmt 0 discriminator 3 view .LVU16
	movs	r3, #0
	strb	r3, [r6, r5]
	.loc 1 66 15 is_stmt 1 discriminator 3 view .LVU17
	.loc 1 66 16 is_stmt 0 discriminator 3 view .LVU18
	adds	r4, r4, #1
.LVL5:
	.loc 1 66 16 discriminator 3 view .LVU19
	uxtb	r4, r4
.LVL6:
	.loc 1 66 16 discriminator 3 view .LVU20
	b	.L2
.L6:
	.align	2
.L5:
	.word	receiver
	.word	.LANCHOR0
	.word	.LANCHOR1
.LFE200:
	.size	arq_init, .-arq_init
	.section	.text.arq_new_connection,"ax",%progbits
	.align	1
	.global	arq_new_connection
	.syntax unified
	.thumb
	.thumb_func
	.fpu fpv4-sp-d16
	.type	arq_new_connection, %function
arq_new_connection:
.LFB201:
	.loc 1 73 41 is_stmt 1 view -0
	@ args = 0, pretend = 0, frame = 0
	@ frame_needed = 0, uses_anonymous_args = 0
	@ link register save eliminated.
	push	{r4}
.LCFI1:
	.loc 1 74 3 view .LVU22
.LVL7:
	.loc 1 75 3 view .LVU23
	.loc 1 77 3 view .LVU24
	.loc 1 77 8 is_stmt 0 view .LVU25
	movs	r2, #0
.LVL8:
.L8:
	.loc 1 77 11 is_stmt 1 discriminator 1 view .LVU26
	.loc 1 77 3 is_stmt 0 discriminator 1 view .LVU27
	cbz	r2, .L11
	.loc 1 74 21 view .LVU28
	movs	r3, #0
.LVL9:
.L10:
	.loc 1 84 3 is_stmt 1 view .LVU29
	.loc 1 84 5 is_stmt 0 view .LVU30
	cbz	r3, .L13
	.loc 1 86 3 is_stmt 1 view .LVU31
	.loc 1 86 102 is_stmt 0 view .LVU32
	movs	r2, #0
.LVL10:
	.loc 1 86 102 view .LVU33
	strh	r2, [r3, #40]	@ movhi
	.loc 1 86 87 view .LVU34
	strh	r2, [r3, #28]	@ movhi
	.loc 1 86 57 view .LVU35
	strh	r2, [r3, #46]	@ movhi
	.loc 1 86 27 view .LVU36
	strh	r2, [r3, #44]	@ movhi
	.loc 1 87 3 is_stmt 1 view .LVU37
	.loc 1 87 101 is_stmt 0 view .LVU38
	strb	r2, [r3, #42]
	.loc 1 87 80 view .LVU39
	strb	r2, [r3, #39]
	.loc 1 87 67 view .LVU40
	strb	r2, [r3, #37]
	.loc 1 87 45 view .LVU41
	strb	r2, [r3, #36]
	.loc 1 87 22 view .LVU42
	strb	r2, [r3, #38]
	.loc 1 88 3 is_stmt 1 view .LVU43
	.loc 1 88 21 is_stmt 0 view .LVU44
	str	r2, [r3, #152]
	.loc 1 90 3 is_stmt 1 view .LVU45
	.loc 1 90 15 is_stmt 0 view .LVU46
	movs	r2, #1
	strb	r2, [r3]
	.loc 1 92 3 is_stmt 1 view .LVU47
.LVL11:
.L12:
	.loc 1 93 1 is_stmt 0 view .LVU48
	ldr	r4, [sp], #4
.LCFI2:
	bx	lr
.LVL12:
.L11:
.LCFI3:
	.loc 1 78 5 is_stmt 1 view .LVU49
	.loc 1 78 22 is_stmt 0 view .LVU50
	movs	r1, #156
	mul	r1, r1, r2
	ldr	r4, .L16
	ldrb	r1, [r4, r1]	@ zero_extendqisi2
	.loc 1 78 7 view .LVU51
	cbz	r1, .L15
	.loc 1 77 15 is_stmt 1 discriminator 2 view .LVU52
	.loc 1 77 16 is_stmt 0 discriminator 2 view .LVU53
	adds	r2, r2, #1
.LVL13:
	.loc 1 77 16 discriminator 2 view .LVU54
	uxtb	r2, r2
.LVL14:
	.loc 1 77 16 discriminator 2 view .LVU55
	b	.L8
.L15:
	.loc 1 79 7 is_stmt 1 view .LVU56
	.loc 1 79 11 is_stmt 0 view .LVU57
	movs	r0, #156
	mla	r3, r0, r2, r4
.LVL15:
	.loc 1 80 7 is_stmt 1 view .LVU58
	.loc 1 81 7 view .LVU59
	.loc 1 80 10 is_stmt 0 view .LVU60
	mov	r0, r2
	.loc 1 81 7 view .LVU61
	b	.L10
.LVL16:
.L13:
	.loc 1 84 25 view .LVU62
	movs	r0, #255
.LVL17:
	.loc 1 84 25 view .LVU63
	b	.L12
.L17:
	.align	2
.L16:
	.word	.LANCHOR1
.LFE201:
	.size	arq_new_connection, .-arq_new_connection
	.section	.text.arq_listen,"ax",%progbits
	.align	1
	.global	arq_listen
	.syntax unified
	.thumb
	.thumb_func
	.fpu fpv4-sp-d16
	.type	arq_listen, %function
arq_listen:
.LVL18:
.LFB202:
	.loc 1 95 61 is_stmt 1 view -0
	@ args = 0, pretend = 0, frame = 8
	@ frame_needed = 0, uses_anonymous_args = 0
	.loc 1 95 61 is_stmt 0 view .LVU65
	push	{r4, r5, r6, lr}
.LCFI4:
	sub	sp, sp, #8
.LCFI5:
	.loc 1 96 3 is_stmt 1 view .LVU66
	.loc 1 96 21 is_stmt 0 view .LVU67
	ldr	r3, .L25
	ldr	r3, [r3]
	.loc 1 96 5 view .LVU68
	cbz	r3, .L24
	.loc 1 96 36 view .LVU69
	movs	r4, #255
.LVL19:
.L19:
	.loc 1 119 1 view .LVU70
	mov	r0, r4
	add	sp, sp, #8
.LCFI6:
	@ sp needed
	pop	{r4, r5, r6, pc}
.LVL20:
.L24:
.LCFI7:
	.loc 1 119 1 view .LVU71
	mov	r5, r0
	.loc 1 97 3 is_stmt 1 view .LVU72
	.loc 1 98 3 view .LVU73
	.loc 1 98 20 is_stmt 0 view .LVU74
	bl	xTaskGetCurrentTaskHandle
.LVL21:
	.loc 1 98 18 view .LVU75
	ldr	r3, .L25
	str	r0, [r3]
	.loc 1 99 3 is_stmt 1 view .LVU76
	bl	xTaskNotifyStateClear
.LVL22:
	.loc 1 100 3 view .LVU77
	mov	r3, #-1
	add	r2, sp, #4
	movs	r1, #0
	mov	r0, r3
	bl	xTaskNotifyWait
.LVL23:
	.loc 1 102 3 view .LVU78
	.loc 1 102 23 is_stmt 0 view .LVU79
	bl	arq_new_connection
.LVL24:
	mov	r4, r0
.LVL25:
	.loc 1 103 3 is_stmt 1 view .LVU80
	.loc 1 103 5 is_stmt 0 view .LVU81
	cmp	r0, #255
	beq	.L19
	.loc 1 104 3 is_stmt 1 view .LVU82
	.loc 1 104 42 is_stmt 0 view .LVU83
	ldr	r2, .L25+4
	movs	r3, #156
	mul	r3, r3, r0
	adds	r1, r2, r3
	str	r5, [r1, #32]
	.loc 1 105 3 is_stmt 1 view .LVU84
	.loc 1 105 34 is_stmt 0 view .LVU85
	ldrb	r0, [sp, #4]	@ zero_extendqisi2
.LVL26:
	.loc 1 105 34 view .LVU86
	strb	r0, [r1, #43]
	.loc 1 106 3 is_stmt 1 view .LVU87
	.loc 1 106 26 is_stmt 0 view .LVU88
	movs	r1, #2
	strb	r1, [r2, r3]
	.loc 1 107 3 is_stmt 1 view .LVU89
	.loc 1 107 11 is_stmt 0 view .LVU90
	movs	r3, #3
	strb	r3, [sp, #3]
	.loc 1 108 3 is_stmt 1 view .LVU91
	movs	r3, #1
	add	r2, sp, #3
	mov	r1, r3
	bl	network_send
.LVL27:
	.loc 1 110 3 view .LVU92
	.loc 1 110 18 is_stmt 0 view .LVU93
	mov	r0, #256
	bl	pvPortMalloc
.LVL28:
	.loc 1 111 3 is_stmt 1 view .LVU94
	.loc 1 111 5 is_stmt 0 view .LVU95
	mov	r1, r0
	cbz	r0, .L21
	.loc 1 112 3 is_stmt 1 view .LVU96
	ldr	r3, .L25+4
	movs	r0, #156
.LVL29:
	.loc 1 112 3 is_stmt 0 view .LVU97
	mla	r0, r0, r4, r3
	mov	r2, #256
	adds	r0, r0, #4
	bl	buffer_init
.LVL30:
	.loc 1 114 3 is_stmt 1 view .LVU98
	.loc 1 114 9 is_stmt 0 view .LVU99
	movs	r0, #20
	bl	pvPortMalloc
.LVL31:
	.loc 1 115 3 is_stmt 1 view .LVU100
	.loc 1 115 5 is_stmt 0 view .LVU101
	mov	r1, r0
	cbz	r0, .L22
	.loc 1 116 3 is_stmt 1 view .LVU102
	movs	r3, #156
	mul	r3, r3, r4
	adds	r3, r3, #16
	movs	r2, #20
	ldr	r0, .L25+4
.LVL32:
	.loc 1 116 3 is_stmt 0 view .LVU103
	add	r0, r0, r3
	bl	buffer_init
.LVL33:
	.loc 1 118 3 is_stmt 1 view .LVU104
	.loc 1 118 10 is_stmt 0 view .LVU105
	b	.L19
.LVL34:
.L21:
	.loc 1 111 25 view .LVU106
	movs	r4, #255
	b	.L19
.L22:
	.loc 1 115 25 view .LVU107
	movs	r4, #255
	b	.L19
.L26:
	.align	2
.L25:
	.word	.LANCHOR0
	.word	.LANCHOR1
.LFE202:
	.size	arq_listen, .-arq_listen
	.section	.text.arq_connect,"ax",%progbits
	.align	1
	.global	arq_connect
	.syntax unified
	.thumb
	.thumb_func
	.fpu fpv4-sp-d16
	.type	arq_connect, %function
arq_connect:
.LVL35:
.LFB203:
	.loc 1 121 113 is_stmt 1 view -0
	@ args = 0, pretend = 0, frame = 8
	@ frame_needed = 0, uses_anonymous_args = 0
	.loc 1 121 113 is_stmt 0 view .LVU109
	push	{r4, r5, r6, r7, lr}
.LCFI8:
	sub	sp, sp, #12
.LCFI9:
	mov	r4, r0
	mov	r6, r3
	.loc 1 122 3 is_stmt 1 view .LVU110
.LVL36:
	.loc 1 123 3 view .LVU111
	.loc 1 123 15 is_stmt 0 view .LVU112
	ldr	r3, .L33
.LVL37:
	.loc 1 123 15 view .LVU113
	movs	r0, #156
.LVL38:
	.loc 1 123 15 view .LVU114
	mul	r0, r0, r4
	adds	r5, r3, r0
	movs	r7, #3
	strb	r7, [r3, r0]
	.loc 1 124 3 is_stmt 1 view .LVU115
	.loc 1 124 31 is_stmt 0 view .LVU116
	str	r2, [r5, #32]
	.loc 1 125 3 is_stmt 1 view .LVU117
	.loc 1 125 23 is_stmt 0 view .LVU118
	strb	r1, [r5, #43]
	.loc 1 127 3 is_stmt 1 view .LVU119
	.loc 1 127 11 is_stmt 0 view .LVU120
	movs	r3, #2
	strb	r3, [sp, #7]
	.loc 1 129 3 is_stmt 1 view .LVU121
	.loc 1 129 23 is_stmt 0 view .LVU122
	bl	xTaskGetCurrentTaskHandle
.LVL39:
	.loc 1 129 21 view .LVU123
	str	r0, [r5, #152]
	.loc 1 130 3 is_stmt 1 view .LVU124
	bl	xTaskNotifyStateClear
.LVL40:
	.loc 1 131 3 view .LVU125
	movs	r3, #1
	add	r2, sp, #7
	mov	r1, r3
	ldrb	r0, [r5, #43]	@ zero_extendqisi2
	bl	network_send
.LVL41:
	.loc 1 133 3 view .LVU126
	.loc 1 133 6 is_stmt 0 view .LVU127
	mov	r1, r6
	movs	r0, #1
	bl	ulTaskNotifyTake
.LVL42:
	.loc 1 133 5 view .LVU128
	cbnz	r0, .L28
	.loc 1 135 5 is_stmt 1 view .LVU129
	.loc 1 135 17 is_stmt 0 view .LVU130
	movs	r0, #156
	mul	r4, r0, r4
.LVL43:
	.loc 1 135 17 view .LVU131
	ldr	r3, .L33
	movs	r2, #1
	strb	r2, [r3, r4]
	.loc 1 136 5 is_stmt 1 view .LVU132
.LVL44:
	.loc 1 137 5 view .LVU133
	.loc 1 137 12 is_stmt 0 view .LVU134
	movs	r0, #0
.LVL45:
.L29:
	.loc 1 151 1 view .LVU135
	add	sp, sp, #12
.LCFI10:
	@ sp needed
	pop	{r4, r5, r6, r7, pc}
.LVL46:
.L28:
.LCFI11:
.LBB2:
	.loc 1 139 5 is_stmt 1 view .LVU136
	.loc 1 139 20 is_stmt 0 view .LVU137
	mov	r0, #256
	bl	pvPortMalloc
.LVL47:
	.loc 1 140 5 is_stmt 1 view .LVU138
	.loc 1 140 7 is_stmt 0 view .LVU139
	mov	r1, r0
	cbz	r0, .L30
	.loc 1 141 5 is_stmt 1 view .LVU140
	ldr	r3, .L33
	movs	r0, #156
.LVL48:
	.loc 1 141 5 is_stmt 0 view .LVU141
	mla	r0, r0, r4, r3
	mov	r2, #256
	adds	r0, r0, #4
	bl	buffer_init
.LVL49:
	.loc 1 143 5 is_stmt 1 view .LVU142
	.loc 1 143 11 is_stmt 0 view .LVU143
	movs	r0, #20
	bl	pvPortMalloc
.LVL50:
	.loc 1 144 5 is_stmt 1 view .LVU144
	.loc 1 144 7 is_stmt 0 view .LVU145
	mov	r1, r0
	cbz	r0, .L31
	.loc 1 145 5 is_stmt 1 view .LVU146
	ldr	r5, .L33
	movs	r0, #156
.LVL51:
	.loc 1 145 5 is_stmt 0 view .LVU147
	mul	r4, r0, r4
.LVL52:
	.loc 1 145 5 view .LVU148
	add	r0, r4, #16
	movs	r2, #20
	add	r0, r0, r5
	bl	buffer_init
.LVL53:
	.loc 1 147 5 is_stmt 1 view .LVU149
	.loc 1 147 17 is_stmt 0 view .LVU150
	movs	r3, #2
	strb	r3, [r5, r4]
	.loc 1 149 5 is_stmt 1 view .LVU151
	.loc 1 149 12 is_stmt 0 view .LVU152
	movs	r0, #1
	b	.L29
.LVL54:
.L30:
	.loc 1 140 27 view .LVU153
	movs	r0, #255
.LVL55:
	.loc 1 140 27 view .LVU154
	b	.L29
.LVL56:
.L31:
	.loc 1 144 27 view .LVU155
	movs	r0, #255
.LVL57:
	.loc 1 144 27 view .LVU156
	b	.L29
.L34:
	.align	2
.L33:
	.word	.LANCHOR1
.LBE2:
.LFE203:
	.size	arq_connect, .-arq_connect
	.section	.text.arq_close_connection,"ax",%progbits
	.align	1
	.global	arq_close_connection
	.syntax unified
	.thumb
	.thumb_func
	.fpu fpv4-sp-d16
	.type	arq_close_connection, %function
arq_close_connection:
.LVL58:
.LFB204:
	.loc 1 153 49 is_stmt 1 view -0
	@ args = 0, pretend = 0, frame = 0
	@ frame_needed = 0, uses_anonymous_args = 0
	.loc 1 154 3 view .LVU158
	.loc 1 154 5 is_stmt 0 view .LVU159
	cbz	r0, .L43
	.loc 1 154 22 view .LVU160
	movs	r0, #0
.LVL59:
	.loc 1 173 1 view .LVU161
	bx	lr
.LVL60:
.L43:
	.loc 1 153 49 view .LVU162
	push	{r3, r4, r5, r6, r7, lr}
.LCFI12:
	mov	r4, r0
	.loc 1 155 3 is_stmt 1 view .LVU163
.LVL61:
	.loc 1 157 3 view .LVU164
	ldr	r6, .L44
	movs	r5, #156
	mul	r5, r5, r0
	adds	r3, r6, r5
	mov	r1, #-1
	ldr	r0, [r3, #148]
.LVL62:
	.loc 1 157 3 is_stmt 0 view .LVU165
	bl	xQueueSemaphoreTake
.LVL63:
	.loc 1 159 3 is_stmt 1 view .LVU166
	.loc 1 159 21 is_stmt 0 view .LVU167
	ldrb	r3, [r6, r5]	@ zero_extendqisi2
	.loc 1 159 5 view .LVU168
	cmp	r3, #2
	beq	.L37
	.loc 1 160 5 is_stmt 1 view .LVU169
	.loc 1 160 47 is_stmt 0 view .LVU170
	movs	r0, #156
	mla	r0, r0, r4, r6
	.loc 1 160 5 view .LVU171
	movs	r3, #0
	mov	r2, r3
	mov	r1, r3
	ldr	r0, [r0, #148]
	bl	xQueueGenericSend
.LVL64:
	.loc 1 161 5 is_stmt 1 view .LVU172
	.loc 1 161 12 is_stmt 0 view .LVU173
	mov	r0, r4
.LVL65:
.L36:
	.loc 1 173 1 view .LVU174
	pop	{r3, r4, r5, r6, r7, pc}
.LVL66:
.L37:
	.loc 1 163 3 is_stmt 1 view .LVU175
	.loc 1 163 29 is_stmt 0 view .LVU176
	ldr	r7, .L44
	movs	r6, #156
	mul	r6, r6, r4
	adds	r5, r7, r6
	.loc 1 163 3 view .LVU177
	ldr	r0, [r5, #4]
	bl	vPortFree
.LVL67:
	.loc 1 164 3 is_stmt 1 view .LVU178
	ldr	r0, [r5, #16]
	bl	vPortFree
.LVL68:
	.loc 1 166 3 view .LVU179
	.loc 1 166 15 is_stmt 0 view .LVU180
	movs	r4, #1
.LVL69:
	.loc 1 166 15 view .LVU181
	strb	r4, [r7, r6]
	.loc 1 168 3 is_stmt 1 view .LVU182
	.loc 1 168 6 is_stmt 0 view .LVU183
	ldr	r3, [r5, #32]
	.loc 1 168 3 view .LVU184
	movs	r1, #0
	mov	r0, r1
	blx	r3
.LVL70:
	.loc 1 170 3 is_stmt 1 view .LVU185
	movs	r3, #0
	mov	r2, r3
	mov	r1, r3
	ldr	r0, [r5, #148]
	bl	xQueueGenericSend
.LVL71:
	.loc 1 172 3 view .LVU186
	.loc 1 172 10 is_stmt 0 view .LVU187
	mov	r0, r4
	b	.L36
.L45:
	.align	2
.L44:
	.word	.LANCHOR1
.LFE204:
	.size	arq_close_connection, .-arq_close_connection
	.section	.text.arq_send,"ax",%progbits
	.align	1
	.global	arq_send
	.syntax unified
	.thumb
	.thumb_func
	.fpu fpv4-sp-d16
	.type	arq_send, %function
arq_send:
.LVL72:
.LFB205:
	.loc 1 175 66 is_stmt 1 view -0
	@ args = 0, pretend = 0, frame = 16
	@ frame_needed = 0, uses_anonymous_args = 0
	.loc 1 175 66 is_stmt 0 view .LVU189
	push	{r4, r5, r6, r7, r8, lr}
.LCFI13:
	sub	sp, sp, #16
.LCFI14:
	strh	r2, [sp, #6]	@ movhi
	.loc 1 176 3 is_stmt 1 view .LVU190
	.loc 1 176 5 is_stmt 0 view .LVU191
	cbz	r0, .L55
	.loc 1 176 22 view .LVU192
	movs	r0, #0
.LVL73:
.L47:
	.loc 1 202 1 view .LVU193
	add	sp, sp, #16
.LCFI15:
	@ sp needed
	pop	{r4, r5, r6, r7, r8, pc}
.LVL74:
.L55:
.LCFI16:
	.loc 1 202 1 view .LVU194
	mov	r7, r1
	mov	r4, r0
	.loc 1 177 3 is_stmt 1 view .LVU195
	.loc 1 177 39 is_stmt 0 view .LVU196
	mov	r6, r0
.LVL75:
	.loc 1 178 3 is_stmt 1 view .LVU197
	ldr	r8, .L57
	movs	r5, #156
	mul	r5, r5, r0
	add	r3, r8, r5
	mov	r1, #-1
.LVL76:
	.loc 1 178 3 is_stmt 0 view .LVU198
	ldr	r0, [r3, #148]
.LVL77:
	.loc 1 178 3 view .LVU199
	bl	xQueueSemaphoreTake
.LVL78:
	.loc 1 180 3 is_stmt 1 view .LVU200
	.loc 1 180 9 is_stmt 0 view .LVU201
	ldrb	r3, [r8, r5]	@ zero_extendqisi2
	.loc 1 180 5 view .LVU202
	cmp	r3, #2
	bne	.L48
	.loc 1 180 23 discriminator 1 view .LVU203
	cmp	r7, #0
	beq	.L48
	.loc 1 180 60 discriminator 2 view .LVU204
	ldrh	r5, [sp, #6]
	.loc 1 180 53 discriminator 2 view .LVU205
	cmp	r5, #0
	beq	.L48
	.loc 1 180 65 discriminator 3 view .LVU206
	cmp	r5, #100
	bhi	.L48
	.loc 1 184 3 is_stmt 1 view .LVU207
	.loc 1 184 12 is_stmt 0 view .LVU208
	adds	r5, r5, #2
	uxth	r5, r5
.LVL79:
	.loc 1 185 3 is_stmt 1 view .LVU209
	.loc 1 185 40 is_stmt 0 view .LVU210
	ldr	r2, .L57
	movs	r3, #156
	mla	r3, r3, r4, r2
	ldrh	r3, [r3, #14]
	.loc 1 185 22 view .LVU211
	rsb	r3, r3, #256
	.loc 1 185 5 view .LVU212
	cmp	r5, r3
	bge	.L50
	.loc 1 185 75 discriminator 1 view .LVU213
	movs	r3, #156
	mla	r3, r3, r4, r2
	ldrh	r3, [r3, #26]
	.loc 1 185 53 discriminator 1 view .LVU214
	rsb	r3, r3, #20
	.loc 1 185 45 discriminator 1 view .LVU215
	cmp	r3, #1
	ble	.L50
.LBB3:
	.loc 1 186 5 is_stmt 1 view .LVU216
	.loc 1 186 14 is_stmt 0 view .LVU217
	movs	r3, #42
	strh	r3, [sp, #14]	@ movhi
	.loc 1 187 5 is_stmt 1 view .LVU218
.LVL80:
	.loc 1 188 5 view .LVU219
	mov	r8, #156
	mla	r8, r8, r4, r2
	add	r8, r8, #4
	movs	r2, #2
	add	r1, sp, #6
	mov	r0, r8
	bl	buffer_append
.LVL81:
	.loc 1 189 5 view .LVU220
	ldrh	r2, [sp, #6]
	mov	r1, r7
	mov	r0, r8
	bl	buffer_append
.LVL82:
	.loc 1 191 5 view .LVU221
.L51:
	.loc 1 191 10 view .LVU222
	cbz	r5, .L56
	.loc 1 192 7 view .LVU223
	.loc 1 192 47 is_stmt 0 view .LVU224
	mov	r3, r5
	cmp	r5, #42
	it	cs
	movcs	r3, #42
	.loc 1 192 11 view .LVU225
	strh	r3, [sp, #14]	@ movhi
	.loc 1 193 7 is_stmt 1 view .LVU226
	movs	r3, #156
	mul	r3, r3, r6
	adds	r3, r3, #16
	movs	r2, #2
	add	r1, sp, #14
	ldr	r0, .L57
	add	r0, r0, r3
	bl	buffer_append
.LVL83:
	.loc 1 194 7 view .LVU227
	.loc 1 194 17 is_stmt 0 view .LVU228
	ldrh	r3, [sp, #14]
	subs	r5, r5, r3
.LVL84:
	.loc 1 194 17 view .LVU229
	uxth	r5, r5
.LVL85:
	.loc 1 194 17 view .LVU230
	b	.L51
.LVL86:
.L48:
	.loc 1 194 17 view .LVU231
.LBE3:
	.loc 1 181 5 is_stmt 1 view .LVU232
	.loc 1 181 47 is_stmt 0 view .LVU233
	ldr	r3, .L57
	movs	r0, #156
	mla	r0, r0, r4, r3
	.loc 1 181 5 view .LVU234
	movs	r3, #0
	mov	r2, r3
	mov	r1, r3
	ldr	r0, [r0, #148]
	bl	xQueueGenericSend
.LVL87:
	.loc 1 182 5 is_stmt 1 view .LVU235
	.loc 1 182 12 is_stmt 0 view .LVU236
	mov	r0, r4
	b	.L47
.LVL88:
.L56:
	.loc 1 200 3 is_stmt 1 view .LVU237
	.loc 1 200 45 is_stmt 0 view .LVU238
	ldr	r2, .L57
	movs	r3, #156
	mla	r4, r3, r4, r2
.LVL89:
	.loc 1 200 3 view .LVU239
	movs	r3, #0
	mov	r2, r3
	mov	r1, r3
	ldr	r0, [r4, #148]
	bl	xQueueGenericSend
.LVL90:
	.loc 1 201 3 is_stmt 1 view .LVU240
	.loc 1 201 10 is_stmt 0 view .LVU241
	ldrb	r0, [sp, #6]	@ zero_extendqisi2
	b	.L47
.LVL91:
.L50:
	.loc 1 197 5 is_stmt 1 view .LVU242
	.loc 1 197 47 is_stmt 0 view .LVU243
	ldr	r3, .L57
	movs	r0, #156
	mla	r0, r0, r4, r3
	.loc 1 197 5 view .LVU244
	movs	r3, #0
	mov	r2, r3
	mov	r1, r3
	ldr	r0, [r0, #148]
	bl	xQueueGenericSend
.LVL92:
	.loc 1 198 5 is_stmt 1 view .LVU245
	.loc 1 198 12 is_stmt 0 view .LVU246
	mov	r0, r4
	b	.L47
.L58:
	.align	2
.L57:
	.word	.LANCHOR1
.LFE205:
	.size	arq_send, .-arq_send
	.section	.text.arq_send_string,"ax",%progbits
	.align	1
	.global	arq_send_string
	.syntax unified
	.thumb
	.thumb_func
	.fpu fpv4-sp-d16
	.type	arq_send_string, %function
arq_send_string:
.LVL93:
.LFB206:
	.loc 1 204 55 is_stmt 1 view -0
	@ args = 0, pretend = 0, frame = 0
	@ frame_needed = 0, uses_anonymous_args = 0
	.loc 1 204 55 is_stmt 0 view .LVU248
	push	{r3, r4, r5, lr}
.LCFI17:
	mov	r5, r0
	mov	r4, r1
	.loc 1 205 3 is_stmt 1 view .LVU249
	.loc 1 205 39 is_stmt 0 view .LVU250
	mov	r0, r1
.LVL94:
	.loc 1 205 39 view .LVU251
	bl	strlen
.LVL95:
	.loc 1 205 10 view .LVU252
	uxth	r2, r0
	mov	r1, r4
	mov	r0, r5
	bl	arq_send
.LVL96:
	.loc 1 206 1 view .LVU253
	pop	{r3, r4, r5, pc}
	.loc 1 206 1 view .LVU254
.LFE206:
	.size	arq_send_string, .-arq_send_string
	.section	.text.arq_send_ack,"ax",%progbits
	.align	1
	.global	arq_send_ack
	.syntax unified
	.thumb
	.thumb_func
	.fpu fpv4-sp-d16
	.type	arq_send_ack, %function
arq_send_ack:
.LVL97:
.LFB207:
	.loc 1 208 66 is_stmt 1 view -0
	@ args = 0, pretend = 0, frame = 8
	@ frame_needed = 0, uses_anonymous_args = 0
	.loc 1 209 3 view .LVU256
	.loc 1 209 5 is_stmt 0 view .LVU257
	cbnz	r0, .L63
	mov	r3, r0
	.loc 1 210 3 is_stmt 1 view .LVU258
.LVL98:
	.loc 1 212 3 view .LVU259
	.loc 1 212 9 is_stmt 0 view .LVU260
	movs	r2, #156
	mul	r2, r2, r0
	ldr	r0, .L70
.LVL99:
	.loc 1 212 9 view .LVU261
	ldrb	r2, [r0, r2]	@ zero_extendqisi2
	.loc 1 212 5 view .LVU262
	cmp	r2, #2
	bne	.L64
	.loc 1 212 23 discriminator 1 view .LVU263
	tst	r1, #128
	bne	.L65
	.loc 1 208 66 view .LVU264
	push	{r4, lr}
.LCFI18:
	sub	sp, sp, #8
.LCFI19:
	.loc 1 216 3 is_stmt 1 view .LVU265
	.loc 1 217 3 view .LVU266
	.loc 1 217 11 is_stmt 0 view .LVU267
	movs	r4, #1
	strb	r4, [sp, #4]
	.loc 1 218 3 is_stmt 1 view .LVU268
	.loc 1 218 11 is_stmt 0 view .LVU269
	strb	r1, [sp, #5]
	.loc 1 220 3 is_stmt 1 view .LVU270
	.loc 1 220 10 is_stmt 0 view .LVU271
	movs	r2, #156
	mla	r0, r2, r3, r0
	movs	r3, #2
.LVL100:
	.loc 1 220 10 view .LVU272
	add	r2, sp, #4
	mov	r1, r4
.LVL101:
	.loc 1 220 10 view .LVU273
	ldrb	r0, [r0, #43]	@ zero_extendqisi2
	bl	network_send
.LVL102:
	.loc 1 221 1 view .LVU274
	add	sp, sp, #8
.LCFI20:
	@ sp needed
	pop	{r4, pc}
.LVL103:
.L63:
.LCFI21:
	.loc 1 209 22 view .LVU275
	movs	r0, #0
.LVL104:
	.loc 1 209 22 view .LVU276
	bx	lr
.LVL105:
.L64:
	.loc 1 213 12 view .LVU277
	mov	r0, r3
	bx	lr
.L65:
	.loc 1 213 12 view .LVU278
	mov	r0, r3
	.loc 1 221 1 view .LVU279
	bx	lr
.L71:
	.align	2
.L70:
	.word	.LANCHOR1
.LFE207:
	.size	arq_send_ack, .-arq_send_ack
	.section	.text.sender,"ax",%progbits
	.align	1
	.global	sender
	.syntax unified
	.thumb
	.thumb_func
	.fpu fpv4-sp-d16
	.type	sender, %function
sender:
.LVL106:
.LFB209:
	.loc 1 295 32 is_stmt 1 view -0
	@ args = 0, pretend = 0, frame = 48
	@ frame_needed = 0, uses_anonymous_args = 0
	.loc 1 296 3 view .LVU281
	.loc 1 296 5 is_stmt 0 view .LVU282
	cmp	r0, #0
	bne	.L81
	.loc 1 295 32 view .LVU283
	push	{r4, r5, r6, r7, r8, lr}
.LCFI22:
	sub	sp, sp, #48
.LCFI23:
	mov	r4, r0
	.loc 1 297 3 is_stmt 1 view .LVU284
	.loc 1 297 39 is_stmt 0 view .LVU285
	mov	r6, r0
.LVL107:
	.loc 1 298 3 is_stmt 1 view .LVU286
	.loc 1 298 9 is_stmt 0 view .LVU287
	movs	r3, #156
	mul	r3, r3, r0
	ldr	r2, .L88
	ldrb	r3, [r2, r3]	@ zero_extendqisi2
	.loc 1 298 5 view .LVU288
	cbnz	r3, .L84
.LVL108:
.L72:
	.loc 1 346 1 view .LVU289
	add	sp, sp, #48
.LCFI24:
	@ sp needed
	pop	{r4, r5, r6, r7, r8, pc}
.LVL109:
.L84:
.LCFI25:
	.loc 1 299 3 is_stmt 1 view .LVU290
	mov	r7, r2
	movs	r5, #156
	mul	r5, r5, r0
	adds	r3, r2, r5
	mov	r1, #-1
	ldr	r0, [r3, #148]
.LVL110:
	.loc 1 299 3 is_stmt 0 view .LVU291
	bl	xQueueSemaphoreTake
.LVL111:
	.loc 1 301 3 is_stmt 1 view .LVU292
	.loc 1 301 9 is_stmt 0 view .LVU293
	ldrb	r3, [r7, r5]	@ zero_extendqisi2
	.loc 1 301 5 view .LVU294
	cmp	r3, #2
	bne	.L85
	.loc 1 306 3 is_stmt 1 view .LVU295
	.loc 1 306 9 is_stmt 0 view .LVU296
	ldr	r2, .L88
	movs	r3, #156
	mla	r3, r3, r4, r2
	ldrb	r3, [r3, #42]	@ zero_extendqisi2
	.loc 1 306 5 view .LVU297
	cmp	r3, #0
	beq	.L75
	.loc 1 307 5 is_stmt 1 view .LVU298
	.loc 1 307 18 is_stmt 0 view .LVU299
	mov	r3, r2
	movs	r2, #156
	mla	r2, r2, r4, r3
	ldrh	r3, [r2, #40]
	adds	r3, r3, #10
	uxth	r3, r3
	strh	r3, [r2, #40]	@ movhi
	.loc 1 308 5 is_stmt 1 view .LVU300
	.loc 1 308 16 is_stmt 0 view .LVU301
	ldrb	r1, [r2, #39]	@ zero_extendqisi2
	adds	r1, r1, #10
	uxtb	r1, r1
	strb	r1, [r2, #39]
	.loc 1 309 5 is_stmt 1 view .LVU302
	.loc 1 309 7 is_stmt 0 view .LVU303
	cmp	r3, #1000
	bhi	.L86
	.loc 1 314 5 is_stmt 1 view .LVU304
	.loc 1 314 7 is_stmt 0 view .LVU305
	cmp	r1, #200
	bls	.L75
.LBB4:
	.loc 1 315 7 is_stmt 1 view .LVU306
.LVL112:
	.loc 1 316 7 view .LVU307
	.loc 1 316 16 is_stmt 0 view .LVU308
	ldr	r2, .L88
	movs	r3, #156
	mla	r3, r3, r4, r2
	ldrh	r5, [r3, #12]
.LVL113:
	.loc 1 317 7 is_stmt 1 view .LVU309
	.loc 1 317 16 is_stmt 0 view .LVU310
	movs	r2, #0
	strh	r2, [sp, #2]	@ movhi
	.loc 1 318 7 is_stmt 1 view .LVU311
	.loc 1 318 34 is_stmt 0 view .LVU312
	ldrb	r7, [r3, #36]	@ zero_extendqisi2
	.loc 1 318 55 view .LVU313
	ldrb	r3, [r3, #38]	@ zero_extendqisi2
	.loc 1 318 72 view .LVU314
	subs	r7, r7, r3
	.loc 1 318 15 view .LVU315
	and	r7, r7, #127
.LVL114:
	.loc 1 319 7 is_stmt 1 view .LVU316
	.loc 1 319 12 is_stmt 0 view .LVU317
	b	.L77
.LVL115:
.L85:
	.loc 1 319 12 view .LVU318
.LBE4:
	.loc 1 302 5 is_stmt 1 view .LVU319
	.loc 1 302 47 is_stmt 0 view .LVU320
	movs	r3, #156
	mla	r6, r3, r4, r7
	.loc 1 302 5 view .LVU321
	movs	r3, #0
	mov	r2, r3
	mov	r1, r3
	ldr	r0, [r6, #148]
	bl	xQueueGenericSend
.LVL116:
	.loc 1 303 5 is_stmt 1 view .LVU322
	b	.L72
.L86:
	.loc 1 310 7 view .LVU323
	.loc 1 310 49 is_stmt 0 view .LVU324
	ldr	r2, .L88
	movs	r3, #156
	mla	r6, r3, r4, r2
	.loc 1 310 7 view .LVU325
	movs	r3, #0
	mov	r2, r3
	mov	r1, r3
	ldr	r0, [r6, #148]
	bl	xQueueGenericSend
.LVL117:
	.loc 1 311 7 is_stmt 1 view .LVU326
	mov	r0, r4
	bl	arq_close_connection
.LVL118:
	.loc 1 312 7 view .LVU327
	b	.L72
.LVL119:
.L78:
.LBB6:
.LBB5:
	.loc 1 320 9 view .LVU328
	.loc 1 321 9 view .LVU329
	.loc 1 321 17 is_stmt 0 view .LVU330
	movs	r3, #0
	strb	r3, [sp, #4]
	.loc 1 322 9 is_stmt 1 view .LVU331
	.loc 1 322 23 is_stmt 0 view .LVU332
	ldr	ip, .L88
	movs	r3, #156
	mul	r3, r3, r6
	add	r8, ip, r3
	ldrb	r2, [r8, #38]	@ zero_extendqisi2
	.loc 1 322 42 view .LVU333
	add	r2, r2, r4
	and	r2, r2, #127
	.loc 1 322 17 view .LVU334
	strb	r2, [sp, #5]
	.loc 1 323 9 is_stmt 1 view .LVU335
	.loc 1 323 81 is_stmt 0 view .LVU336
	ldrh	r2, [r8, #24]
	.loc 1 323 9 view .LVU337
	add	r2, r2, r4, lsl #1
	add	r0, r3, #16
	movs	r3, #2
	uxth	r2, r2
	add	r1, sp, r3
	add	r0, r0, ip
	bl	buffer_read
.LVL120:
	.loc 1 324 9 is_stmt 1 view .LVU338
	ldrh	r3, [sp, #2]
	mov	r2, r5
	add	r1, sp, #6
	add	r0, r8, #4
	bl	buffer_read
.LVL121:
	.loc 1 325 9 view .LVU339
	.loc 1 325 30 is_stmt 0 view .LVU340
	ldrh	r3, [sp, #2]
	add	r5, r5, r3
.LVL122:
	.loc 1 325 30 view .LVU341
	sxth	r5, r5
	.loc 1 325 56 view .LVU342
	ldrh	r2, [r8, #8]
	.loc 1 325 65 view .LVU343
	subs	r2, r2, #1
	sxth	r2, r2
	.loc 1 325 37 view .LVU344
	ands	r5, r5, r2
	.loc 1 325 18 view .LVU345
	uxth	r5, r5
.LVL123:
	.loc 1 326 9 is_stmt 1 view .LVU346
	adds	r3, r3, #2
	uxth	r3, r3
	add	r2, sp, #4
	movs	r1, #1
	ldrb	r0, [r8, #43]	@ zero_extendqisi2
	bl	network_send
.LVL124:
	.loc 1 327 9 view .LVU347
	adds	r4, r4, #1
.LVL125:
	.loc 1 327 9 is_stmt 0 view .LVU348
	uxtb	r4, r4
.LVL126:
.L77:
	.loc 1 327 9 view .LVU349
.LBE5:
	.loc 1 319 12 is_stmt 1 view .LVU350
	cmp	r4, r7
	bcc	.L78
	.loc 1 329 7 view .LVU351
	.loc 1 329 18 is_stmt 0 view .LVU352
	ldr	r2, .L88
	movs	r3, #156
	mla	r3, r3, r6, r2
	movs	r2, #0
	strb	r2, [r3, #39]
.LVL127:
.L75:
	.loc 1 329 18 view .LVU353
.LBE6:
	.loc 1 332 3 is_stmt 1 view .LVU354
	.loc 1 332 12 is_stmt 0 view .LVU355
	ldr	r2, .L88
	movs	r3, #156
	mla	r3, r3, r6, r2
	ldrb	r2, [r3, #36]	@ zero_extendqisi2
	.loc 1 332 33 view .LVU356
	ldrb	r3, [r3, #38]	@ zero_extendqisi2
	.loc 1 332 50 view .LVU357
	subs	r3, r2, r3
	uxtb	r1, r3
	.loc 1 332 5 view .LVU358
	tst	r3, #124
	bne	.L79
	.loc 1 332 80 discriminator 1 view .LVU359
	ldr	r0, .L88
	movs	r3, #156
	mla	r3, r3, r6, r0
	ldrh	r0, [r3, #10]
	.loc 1 332 92 discriminator 1 view .LVU360
	ldrh	r3, [r3, #28]
	.loc 1 332 61 discriminator 1 view .LVU361
	cmp	r0, r3
	bne	.L87
.L79:
	.loc 1 345 3 is_stmt 1 view .LVU362
	.loc 1 345 45 is_stmt 0 view .LVU363
	ldr	r3, .L88
	movs	r2, #156
	mla	r6, r2, r6, r3
.LVL128:
	.loc 1 345 3 view .LVU364
	movs	r3, #0
	mov	r2, r3
	mov	r1, r3
	ldr	r0, [r6, #148]
	bl	xQueueGenericSend
.LVL129:
	b	.L72
.LVL130:
.L87:
.LBB7:
	.loc 1 333 5 is_stmt 1 view .LVU365
	.loc 1 334 5 view .LVU366
	.loc 1 335 5 view .LVU367
	.loc 1 335 13 is_stmt 0 view .LVU368
	movs	r3, #0
	strb	r3, [sp, #4]
	.loc 1 336 5 is_stmt 1 view .LVU369
	.loc 1 336 13 is_stmt 0 view .LVU370
	strb	r2, [sp, #5]
	.loc 1 337 5 is_stmt 1 view .LVU371
	.loc 1 337 77 is_stmt 0 view .LVU372
	ldr	r5, .L88
	movs	r3, #156
	mul	r3, r3, r6
	adds	r4, r5, r3
	ldrh	r2, [r4, #24]
	.loc 1 337 5 view .LVU373
	and	r1, r1, #127
	add	r2, r2, r1, lsl #1
	add	r0, r3, #16
	movs	r3, #2
	uxth	r2, r2
	add	r1, sp, r3
	add	r0, r0, r5
	bl	buffer_read
.LVL131:
	.loc 1 338 5 is_stmt 1 view .LVU374
	ldrh	r3, [sp, #2]
	ldrh	r2, [r4, #28]
	add	r1, sp, #6
	adds	r0, r4, #4
	bl	buffer_read
.LVL132:
	.loc 1 339 5 view .LVU375
	.loc 1 339 39 is_stmt 0 view .LVU376
	ldrh	r3, [r4, #28]
	.loc 1 339 63 view .LVU377
	ldrh	r0, [sp, #2]
	add	r3, r3, r0
	sxth	r3, r3
	.loc 1 339 88 view .LVU378
	ldrh	r2, [r4, #8]
	.loc 1 339 97 view .LVU379
	subs	r2, r2, #1
	sxth	r2, r2
	.loc 1 339 69 view .LVU380
	ands	r3, r3, r2
	.loc 1 339 33 view .LVU381
	strh	r3, [r4, #28]	@ movhi
	.loc 1 340 5 is_stmt 1 view .LVU382
	.loc 1 340 24 is_stmt 0 view .LVU383
	movs	r1, #1
	strb	r1, [r4, #42]
	.loc 1 341 5 is_stmt 1 view .LVU384
	.loc 1 341 32 is_stmt 0 view .LVU385
	ldrb	r3, [r4, #36]	@ zero_extendqisi2
	.loc 1 341 49 view .LVU386
	add	r3, r3, r1
	.loc 1 341 53 view .LVU387
	and	r3, r3, #127
	.loc 1 341 26 view .LVU388
	strb	r3, [r4, #36]
	.loc 1 342 5 is_stmt 1 view .LVU389
	adds	r3, r0, #2
	uxth	r3, r3
	add	r2, sp, #4
	ldrb	r0, [r4, #43]	@ zero_extendqisi2
	bl	network_send
.LVL133:
	b	.L79
.LVL134:
.L81:
.LCFI26:
	.loc 1 342 5 is_stmt 0 view .LVU390
	bx	lr
.L89:
	.align	2
.L88:
	.word	.LANCHOR1
.LBE7:
.LFE209:
	.size	sender, .-sender
	.section	.text.arq_reassembly,"ax",%progbits
	.align	1
	.global	arq_reassembly
	.syntax unified
	.thumb
	.thumb_func
	.fpu fpv4-sp-d16
	.type	arq_reassembly, %function
arq_reassembly:
.LVL135:
.LFB210:
	.loc 1 348 69 is_stmt 1 view -0
	@ args = 0, pretend = 0, frame = 0
	@ frame_needed = 0, uses_anonymous_args = 0
	.loc 1 349 3 view .LVU392
	.loc 1 349 5 is_stmt 0 view .LVU393
	cmp	r0, #0
	bne	.L94
	.loc 1 348 69 view .LVU394
	push	{r3, r4, r5, r6, r7, lr}
.LCFI27:
	mov	r4, r2
	mov	r6, r0
	.loc 1 351 3 is_stmt 1 view .LVU395
.LVL136:
	.loc 1 354 3 view .LVU396
	.loc 1 354 9 is_stmt 0 view .LVU397
	ldr	r2, .L98
.LVL137:
	.loc 1 354 9 view .LVU398
	movs	r3, #156
	mla	r3, r3, r0, r2
	ldrh	r3, [r3, #46]
	.loc 1 354 5 view .LVU399
	cbnz	r3, .L92
	.loc 1 355 5 is_stmt 1 view .LVU400
	.loc 1 355 39 is_stmt 0 view .LVU401
	ldrb	r3, [r1]	@ zero_extendqisi2
	.loc 1 355 50 view .LVU402
	ldrb	r2, [r1, #1]	@ zero_extendqisi2
	.loc 1 355 43 view .LVU403
	orr	r3, r3, r2, lsl #8
	.loc 1 355 33 view .LVU404
	ldr	r0, .L98
.LVL138:
	.loc 1 355 33 view .LVU405
	movs	r2, #156
	mla	r2, r2, r6, r0
	strh	r3, [r2, #46]	@ movhi
	.loc 1 356 5 is_stmt 1 view .LVU406
	.loc 1 356 8 is_stmt 0 view .LVU407
	subs	r4, r4, #2
	uxth	r4, r4
.LVL139:
	.loc 1 357 5 is_stmt 1 view .LVU408
	.loc 1 357 9 is_stmt 0 view .LVU409
	adds	r1, r1, #2
.LVL140:
	.loc 1 359 5 is_stmt 1 view .LVU410
	.loc 1 359 7 is_stmt 0 view .LVU411
	cmp	r3, #100
	bhi	.L90
.LVL141:
.L92:
	.loc 1 363 3 is_stmt 1 view .LVU412
	.loc 1 363 10 is_stmt 0 view .LVU413
	ldr	r5, .L98
	movs	r3, #156
	mul	r3, r3, r6
	add	r7, r3, #48
	add	r7, r7, r5
	.loc 1 363 26 view .LVU414
	add	r5, r5, r3
	ldrh	r0, [r5, #44]
	.loc 1 363 3 view .LVU415
	mov	r2, r4
	add	r0, r0, r7
	bl	memcpy
.LVL142:
	.loc 1 364 3 is_stmt 1 view .LVU416
	.loc 1 364 27 is_stmt 0 view .LVU417
	ldrh	r1, [r5, #44]
	add	r1, r1, r4
	uxth	r1, r1
	strh	r1, [r5, #44]	@ movhi
	.loc 1 366 3 is_stmt 1 view .LVU418
	.loc 1 366 36 is_stmt 0 view .LVU419
	ldrh	r3, [r5, #46]
	.loc 1 366 5 view .LVU420
	cmp	r1, r3
	beq	.L97
.L90:
	.loc 1 370 1 view .LVU421
	pop	{r3, r4, r5, r6, r7, pc}
.LVL143:
.L97:
	.loc 1 367 5 is_stmt 1 view .LVU422
	.loc 1 367 8 is_stmt 0 view .LVU423
	ldr	r3, [r5, #32]
	.loc 1 367 5 view .LVU424
	mov	r0, r7
	blx	r3
.LVL144:
	.loc 1 368 5 is_stmt 1 view .LVU425
	.loc 1 368 59 is_stmt 0 view .LVU426
	movs	r3, #0
	strh	r3, [r5, #46]	@ movhi
	.loc 1 368 29 view .LVU427
	strh	r3, [r5, #44]	@ movhi
	b	.L90
.LVL145:
.L94:
.LCFI28:
	.loc 1 368 29 view .LVU428
	bx	lr
.L99:
	.align	2
.L98:
	.word	.LANCHOR1
.LFE210:
	.size	arq_reassembly, .-arq_reassembly
	.section	.text.receiver,"ax",%progbits
	.align	1
	.global	receiver
	.syntax unified
	.thumb
	.thumb_func
	.fpu fpv4-sp-d16
	.type	receiver, %function
receiver:
.LVL146:
.LFB208:
	.loc 1 223 61 is_stmt 1 view -0
	@ args = 0, pretend = 0, frame = 8
	@ frame_needed = 0, uses_anonymous_args = 0
	.loc 1 223 61 is_stmt 0 view .LVU430
	push	{r4, r5, r6, r7, r8, r9, lr}
.LCFI29:
	sub	sp, sp, #12
.LCFI30:
	mov	r4, r1
	mov	r6, r2
	movs	r7, #0
	.loc 1 224 3 is_stmt 1 view .LVU431
.LVL147:
	.loc 1 225 3 view .LVU432
	.loc 1 226 3 view .LVU433
	.loc 1 227 3 view .LVU434
	.loc 1 227 8 is_stmt 0 view .LVU435
	mov	r3, r7
.LVL148:
.L101:
	.loc 1 227 11 is_stmt 1 discriminator 1 view .LVU436
	.loc 1 227 3 is_stmt 0 discriminator 1 view .LVU437
	cbz	r3, .L104
	.loc 1 224 21 view .LVU438
	mov	r8, #0
.LVL149:
.L103:
	.loc 1 234 3 is_stmt 1 view .LVU439
	.loc 1 234 11 is_stmt 0 view .LVU440
	ldrb	r5, [r4]	@ zero_extendqisi2
.LVL150:
	.loc 1 236 3 is_stmt 1 view .LVU441
	.loc 1 236 5 is_stmt 0 view .LVU442
	cmp	r8, #0
	beq	.L122
.L105:
	.loc 1 237 3 is_stmt 1 view .LVU443
	.loc 1 237 5 is_stmt 0 view .LVU444
	cmp	r8, #0
	beq	.L123
.LVL151:
.L107:
	.loc 1 241 3 is_stmt 1 view .LVU445
	mov	r1, #-1
	ldr	r0, [r8, #148]
.LVL152:
	.loc 1 241 3 is_stmt 0 view .LVU446
	bl	xQueueSemaphoreTake
.LVL153:
	.loc 1 243 3 is_stmt 1 view .LVU447
	.loc 1 243 9 is_stmt 0 view .LVU448
	ldrb	r3, [r8]	@ zero_extendqisi2
	.loc 1 243 5 view .LVU449
	cmp	r3, #1
	bls	.L108
	.loc 1 243 43 discriminator 1 view .LVU450
	cmp	r6, #0
	beq	.L108
	.loc 1 243 55 discriminator 2 view .LVU451
	cmp	r4, #0
	beq	.L108
	.loc 1 248 3 is_stmt 1 view .LVU452
	.loc 1 248 5 is_stmt 0 view .LVU453
	cmp	r3, #3
	beq	.L124
.L110:
	.loc 1 259 3 is_stmt 1 view .LVU454
	.loc 1 259 11 is_stmt 0 view .LVU455
	ldrb	r9, [r4, #1]	@ zero_extendqisi2
.LVL154:
	.loc 1 260 3 is_stmt 1 view .LVU456
	.loc 1 260 5 is_stmt 0 view .LVU457
	cmp	r5, #0
	beq	.L112
	.loc 1 260 16 discriminator 1 view .LVU458
	cmp	r5, #4
	beq	.L112
	.loc 1 267 10 is_stmt 1 view .LVU459
	.loc 1 267 12 is_stmt 0 view .LVU460
	cmp	r5, #1
	bne	.L116
.LBB8:
	.loc 1 268 5 is_stmt 1 view .LVU461
	.loc 1 269 5 view .LVU462
	.loc 1 270 5 view .LVU463
	.loc 1 270 26 is_stmt 0 view .LVU464
	ldrb	r5, [r8, #38]	@ zero_extendqisi2
.LVL155:
	.loc 1 270 43 view .LVU465
	sub	r5, r9, r5
.LVL156:
	.loc 1 271 5 is_stmt 1 view .LVU466
	.loc 1 271 7 is_stmt 0 view .LVU467
	ands	r5, r5, #127
.LVL157:
	.loc 1 271 7 view .LVU468
	beq	.L116
.LBB9:
	.loc 1 273 12 view .LVU469
	movs	r4, #0
.LVL158:
	.loc 1 273 12 view .LVU470
	b	.L117
.LVL159:
.L104:
	.loc 1 273 12 view .LVU471
.LBE9:
.LBE8:
	.loc 1 228 5 is_stmt 1 view .LVU472
	.loc 1 228 22 is_stmt 0 view .LVU473
	ldr	r2, .L128
	movs	r1, #156
	mla	r1, r1, r3, r2
	ldrb	r2, [r1, #43]	@ zero_extendqisi2
	.loc 1 228 7 view .LVU474
	cmp	r2, r0
	beq	.L125
.L102:
	.loc 1 227 15 is_stmt 1 discriminator 2 view .LVU475
	.loc 1 227 16 is_stmt 0 discriminator 2 view .LVU476
	adds	r3, r3, #1
.LVL160:
	.loc 1 227 16 discriminator 2 view .LVU477
	uxtb	r3, r3
.LVL161:
	.loc 1 227 16 discriminator 2 view .LVU478
	b	.L101
.L125:
	.loc 1 228 66 discriminator 1 view .LVU479
	movs	r2, #156
	mul	r2, r2, r3
	ldr	r1, .L128
	ldrb	r2, [r1, r2]	@ zero_extendqisi2
	.loc 1 228 49 discriminator 1 view .LVU480
	cmp	r2, #0
	beq	.L102
	.loc 1 229 7 is_stmt 1 view .LVU481
	.loc 1 229 11 is_stmt 0 view .LVU482
	mov	r2, r1
	movs	r1, #156
	mla	r8, r1, r3, r2
.LVL162:
	.loc 1 230 7 is_stmt 1 view .LVU483
	.loc 1 231 7 view .LVU484
	.loc 1 230 10 is_stmt 0 view .LVU485
	mov	r7, r3
	.loc 1 231 7 view .LVU486
	b	.L103
.LVL163:
.L122:
	.loc 1 236 17 discriminator 1 view .LVU487
	cmp	r5, #2
	bne	.L100
	b	.L105
.L123:
	.loc 1 237 17 discriminator 1 view .LVU488
	cmp	r5, #2
	bne	.L107
	.loc 1 237 48 discriminator 2 view .LVU489
	ldr	r3, .L128+4
.LVL164:
	.loc 1 237 48 discriminator 2 view .LVU490
	ldr	ip, [r3]
	.loc 1 237 30 discriminator 2 view .LVU491
	cmp	ip, #0
	beq	.L107
	.loc 1 238 5 is_stmt 1 view .LVU492
	movs	r3, #0
	movs	r2, #3
	mov	r1, r0
	mov	r0, ip
.LVL165:
	.loc 1 238 5 is_stmt 0 view .LVU493
	bl	xTaskGenericNotify
.LVL166:
	.loc 1 239 5 is_stmt 1 view .LVU494
	b	.L100
.L108:
	.loc 1 244 5 view .LVU495
	movs	r3, #0
	mov	r2, r3
	mov	r1, r3
	ldr	r0, [r8, #148]
	bl	xQueueGenericSend
.LVL167:
	.loc 1 245 5 view .LVU496
.L100:
	.loc 1 287 1 is_stmt 0 view .LVU497
	add	sp, sp, #12
.LCFI31:
	@ sp needed
	pop	{r4, r5, r6, r7, r8, r9, pc}
.LVL168:
.L124:
.LCFI32:
	.loc 1 248 23 discriminator 1 view .LVU498
	cmp	r5, #3
	bne	.L110
	.loc 1 249 5 is_stmt 1 view .LVU499
	.loc 1 249 11 is_stmt 0 view .LVU500
	ldr	r0, [r8, #152]
	.loc 1 249 7 view .LVU501
	cbz	r0, .L111
	.loc 1 250 7 is_stmt 1 view .LVU502
	movs	r3, #0
	movs	r2, #2
	mov	r1, r3
	bl	xTaskGenericNotify
.LVL169:
	.loc 1 251 7 view .LVU503
	.loc 1 251 25 is_stmt 0 view .LVU504
	movs	r1, #0
	str	r1, [r8, #152]
	.loc 1 252 7 is_stmt 1 view .LVU505
	mov	r0, r7
	bl	arq_send_ack
.LVL170:
.L111:
	.loc 1 255 5 view .LVU506
	movs	r3, #0
	mov	r2, r3
	mov	r1, r3
	ldr	r0, [r8, #148]
	bl	xQueueGenericSend
.LVL171:
	.loc 1 256 5 view .LVU507
	b	.L100
.LVL172:
.L112:
	.loc 1 261 5 view .LVU508
	.loc 1 261 23 is_stmt 0 view .LVU509
	ldrb	r3, [r8, #37]	@ zero_extendqisi2
	.loc 1 261 7 view .LVU510
	cmp	r3, r9
	beq	.L126
.L114:
	.loc 1 266 5 is_stmt 1 view .LVU511
	ldrb	r1, [r8, #37]	@ zero_extendqisi2
	mov	r0, r7
	bl	arq_send_ack
.LVL173:
.L116:
	.loc 1 285 3 view .LVU512
	movs	r3, #0
	mov	r2, r3
	mov	r1, r3
	ldr	r0, [r8, #148]
	bl	xQueueGenericSend
.LVL174:
	b	.L100
.LVL175:
.L126:
	.loc 1 262 7 view .LVU513
	.loc 1 262 9 is_stmt 0 view .LVU514
	cbz	r5, .L127
.L115:
	.loc 1 263 7 is_stmt 1 view .LVU515
	.loc 1 263 33 is_stmt 0 view .LVU516
	ldrb	r3, [r8, #37]	@ zero_extendqisi2
	.loc 1 263 49 view .LVU517
	adds	r3, r3, #1
	.loc 1 263 53 view .LVU518
	and	r3, r3, #127
	.loc 1 263 27 view .LVU519
	strb	r3, [r8, #37]
	b	.L114
.L127:
	.loc 1 262 21 is_stmt 1 discriminator 1 view .LVU520
	subs	r2, r6, #2
	uxth	r2, r2
	adds	r1, r4, #2
	mov	r0, r7
	bl	arq_reassembly
.LVL176:
	b	.L115
.LVL177:
.L118:
.LBB11:
.LBB10:
	.loc 1 274 9 discriminator 3 view .LVU521
	movs	r2, #2
	add	r1, sp, #7
	add	r0, r8, #16
	bl	buffer_remove
.LVL178:
	.loc 1 275 9 discriminator 3 view .LVU522
	ldrb	r2, [sp, #7]	@ zero_extendqisi2
	movs	r1, #0
	add	r0, r8, #4
	bl	buffer_remove
.LVL179:
	.loc 1 273 23 discriminator 3 view .LVU523
	.loc 1 273 24 is_stmt 0 discriminator 3 view .LVU524
	adds	r4, r4, #1
.LVL180:
	.loc 1 273 24 discriminator 3 view .LVU525
	uxtb	r4, r4
.LVL181:
.L117:
	.loc 1 273 15 is_stmt 1 discriminator 1 view .LVU526
	.loc 1 273 7 is_stmt 0 discriminator 1 view .LVU527
	cmp	r4, r5
	bcc	.L118
	.loc 1 277 7 is_stmt 1 view .LVU528
	.loc 1 277 26 is_stmt 0 view .LVU529
	strb	r9, [r8, #38]
	.loc 1 279 7 is_stmt 1 view .LVU530
	.loc 1 279 18 is_stmt 0 view .LVU531
	movs	r3, #0
	strb	r3, [r8, #39]
	.loc 1 280 7 is_stmt 1 view .LVU532
	.loc 1 280 20 is_stmt 0 view .LVU533
	strh	r3, [r8, #40]	@ movhi
	.loc 1 281 7 is_stmt 1 view .LVU534
	.loc 1 281 35 is_stmt 0 view .LVU535
	ldrb	r3, [r8, #36]	@ zero_extendqisi2
	.loc 1 281 9 view .LVU536
	cmp	r3, r9
	bne	.L116
	.loc 1 281 54 is_stmt 1 discriminator 1 view .LVU537
	.loc 1 281 73 is_stmt 0 discriminator 1 view .LVU538
	movs	r3, #0
	strb	r3, [r8, #42]
	b	.L116
.L129:
	.align	2
.L128:
	.word	.LANCHOR1
	.word	.LANCHOR0
.LBE10:
.LBE11:
.LFE208:
	.size	receiver, .-receiver
	.section	.text.vARQTask,"ax",%progbits
	.align	1
	.global	vARQTask
	.syntax unified
	.thumb
	.thumb_func
	.fpu fpv4-sp-d16
	.type	vARQTask, %function
vARQTask:
.LFB211:
	.loc 1 372 34 is_stmt 1 view -0
	@ args = 0, pretend = 0, frame = 0
	@ frame_needed = 0, uses_anonymous_args = 0
.LVL182:
	.loc 1 372 34 is_stmt 0 view .LVU540
	push	{r4, lr}
.LCFI33:
	b	.L133
.LVL183:
.L135:
	.loc 1 380 5 is_stmt 1 view .LVU541
	movs	r0, #10
	bl	vTaskDelay
.LVL184:
	.loc 1 375 8 view .LVU542
.L133:
	.loc 1 373 3 view .LVU543
	.loc 1 375 3 view .LVU544
	.loc 1 376 5 view .LVU545
	.loc 1 376 10 is_stmt 0 view .LVU546
	movs	r4, #0
.LVL185:
.L131:
	.loc 1 376 13 is_stmt 1 discriminator 1 view .LVU547
	.loc 1 376 5 is_stmt 0 discriminator 1 view .LVU548
	cmp	r4, #0
	bne	.L135
	.loc 1 377 3 is_stmt 1 discriminator 3 view .LVU549
	mov	r0, r4
	bl	sender
.LVL186:
	.loc 1 376 17 discriminator 3 view .LVU550
	.loc 1 376 18 is_stmt 0 discriminator 3 view .LVU551
	adds	r4, r4, #1
.LVL187:
	.loc 1 376 18 discriminator 3 view .LVU552
	uxtb	r4, r4
.LVL188:
	.loc 1 376 18 discriminator 3 view .LVU553
	b	.L131
.LFE211:
	.size	vARQTask, .-vARQTask
	.section	.bss.connections,"aw",%nobits
	.align	2
	.set	.LANCHOR1,. + 0
	.type	connections, %object
	.size	connections, 156
connections:
	.space	156
	.section	.bss.listening_task,"aw",%nobits
	.align	2
	.set	.LANCHOR0,. + 0
	.type	listening_task, %object
	.size	listening_task, 4
listening_task:
	.space	4
	.section	.debug_frame,"",%progbits
.Lframe0:
	.4byte	.LECIE0-.LSCIE0
.LSCIE0:
	.4byte	0xffffffff
	.byte	0x3
	.ascii	"\000"
	.uleb128 0x1
	.sleb128 -4
	.uleb128 0xe
	.byte	0xc
	.uleb128 0xd
	.uleb128 0
	.align	2
.LECIE0:
.LSFDE0:
	.4byte	.LEFDE0-.LASFDE0
.LASFDE0:
	.4byte	.Lframe0
	.4byte	.LFB200
	.4byte	.LFE200-.LFB200
	.byte	0x4
	.4byte	.LCFI0-.LFB200
	.byte	0xe
	.uleb128 0x18
	.byte	0x83
	.uleb128 0x6
	.byte	0x84
	.uleb128 0x5
	.byte	0x85
	.uleb128 0x4
	.byte	0x86
	.uleb128 0x3
	.byte	0x87
	.uleb128 0x2
	.byte	0x8e
	.uleb128 0x1
	.align	2
.LEFDE0:
.LSFDE2:
	.4byte	.LEFDE2-.LASFDE2
.LASFDE2:
	.4byte	.Lframe0
	.4byte	.LFB201
	.4byte	.LFE201-.LFB201
	.byte	0x4
	.4byte	.LCFI1-.LFB201
	.byte	0xe
	.uleb128 0x4
	.byte	0x84
	.uleb128 0x1
	.byte	0x4
	.4byte	.LCFI2-.LCFI1
	.byte	0xa
	.byte	0xc4
	.byte	0xe
	.uleb128 0
	.byte	0x4
	.4byte	.LCFI3-.LCFI2
	.byte	0xb
	.align	2
.LEFDE2:
.LSFDE4:
	.4byte	.LEFDE4-.LASFDE4
.LASFDE4:
	.4byte	.Lframe0
	.4byte	.LFB202
	.4byte	.LFE202-.LFB202
	.byte	0x4
	.4byte	.LCFI4-.LFB202
	.byte	0xe
	.uleb128 0x10
	.byte	0x84
	.uleb128 0x4
	.byte	0x85
	.uleb128 0x3
	.byte	0x86
	.uleb128 0x2
	.byte	0x8e
	.uleb128 0x1
	.byte	0x4
	.4byte	.LCFI5-.LCFI4
	.byte	0xe
	.uleb128 0x18
	.byte	0x4
	.4byte	.LCFI6-.LCFI5
	.byte	0xa
	.byte	0xe
	.uleb128 0x10
	.byte	0x4
	.4byte	.LCFI7-.LCFI6
	.byte	0xb
	.align	2
.LEFDE4:
.LSFDE6:
	.4byte	.LEFDE6-.LASFDE6
.LASFDE6:
	.4byte	.Lframe0
	.4byte	.LFB203
	.4byte	.LFE203-.LFB203
	.byte	0x4
	.4byte	.LCFI8-.LFB203
	.byte	0xe
	.uleb128 0x14
	.byte	0x84
	.uleb128 0x5
	.byte	0x85
	.uleb128 0x4
	.byte	0x86
	.uleb128 0x3
	.byte	0x87
	.uleb128 0x2
	.byte	0x8e
	.uleb128 0x1
	.byte	0x4
	.4byte	.LCFI9-.LCFI8
	.byte	0xe
	.uleb128 0x20
	.byte	0x4
	.4byte	.LCFI10-.LCFI9
	.byte	0xa
	.byte	0xe
	.uleb128 0x14
	.byte	0x4
	.4byte	.LCFI11-.LCFI10
	.byte	0xb
	.align	2
.LEFDE6:
.LSFDE8:
	.4byte	.LEFDE8-.LASFDE8
.LASFDE8:
	.4byte	.Lframe0
	.4byte	.LFB204
	.4byte	.LFE204-.LFB204
	.byte	0x4
	.4byte	.LCFI12-.LFB204
	.byte	0xe
	.uleb128 0x18
	.byte	0x83
	.uleb128 0x6
	.byte	0x84
	.uleb128 0x5
	.byte	0x85
	.uleb128 0x4
	.byte	0x86
	.uleb128 0x3
	.byte	0x87
	.uleb128 0x2
	.byte	0x8e
	.uleb128 0x1
	.align	2
.LEFDE8:
.LSFDE10:
	.4byte	.LEFDE10-.LASFDE10
.LASFDE10:
	.4byte	.Lframe0
	.4byte	.LFB205
	.4byte	.LFE205-.LFB205
	.byte	0x4
	.4byte	.LCFI13-.LFB205
	.byte	0xe
	.uleb128 0x18
	.byte	0x84
	.uleb128 0x6
	.byte	0x85
	.uleb128 0x5
	.byte	0x86
	.uleb128 0x4
	.byte	0x87
	.uleb128 0x3
	.byte	0x88
	.uleb128 0x2
	.byte	0x8e
	.uleb128 0x1
	.byte	0x4
	.4byte	.LCFI14-.LCFI13
	.byte	0xe
	.uleb128 0x28
	.byte	0x4
	.4byte	.LCFI15-.LCFI14
	.byte	0xa
	.byte	0xe
	.uleb128 0x18
	.byte	0x4
	.4byte	.LCFI16-.LCFI15
	.byte	0xb
	.align	2
.LEFDE10:
.LSFDE12:
	.4byte	.LEFDE12-.LASFDE12
.LASFDE12:
	.4byte	.Lframe0
	.4byte	.LFB206
	.4byte	.LFE206-.LFB206
	.byte	0x4
	.4byte	.LCFI17-.LFB206
	.byte	0xe
	.uleb128 0x10
	.byte	0x83
	.uleb128 0x4
	.byte	0x84
	.uleb128 0x3
	.byte	0x85
	.uleb128 0x2
	.byte	0x8e
	.uleb128 0x1
	.align	2
.LEFDE12:
.LSFDE14:
	.4byte	.LEFDE14-.LASFDE14
.LASFDE14:
	.4byte	.Lframe0
	.4byte	.LFB207
	.4byte	.LFE207-.LFB207
	.byte	0x4
	.4byte	.LCFI18-.LFB207
	.byte	0xe
	.uleb128 0x8
	.byte	0x84
	.uleb128 0x2
	.byte	0x8e
	.uleb128 0x1
	.byte	0x4
	.4byte	.LCFI19-.LCFI18
	.byte	0xe
	.uleb128 0x10
	.byte	0x4
	.4byte	.LCFI20-.LCFI19
	.byte	0xe
	.uleb128 0x8
	.byte	0x4
	.4byte	.LCFI21-.LCFI20
	.byte	0xe
	.uleb128 0
	.byte	0xc4
	.byte	0xce
	.align	2
.LEFDE14:
.LSFDE16:
	.4byte	.LEFDE16-.LASFDE16
.LASFDE16:
	.4byte	.Lframe0
	.4byte	.LFB209
	.4byte	.LFE209-.LFB209
	.byte	0x4
	.4byte	.LCFI22-.LFB209
	.byte	0xe
	.uleb128 0x18
	.byte	0x84
	.uleb128 0x6
	.byte	0x85
	.uleb128 0x5
	.byte	0x86
	.uleb128 0x4
	.byte	0x87
	.uleb128 0x3
	.byte	0x88
	.uleb128 0x2
	.byte	0x8e
	.uleb128 0x1
	.byte	0x4
	.4byte	.LCFI23-.LCFI22
	.byte	0xe
	.uleb128 0x48
	.byte	0x4
	.4byte	.LCFI24-.LCFI23
	.byte	0xa
	.byte	0xe
	.uleb128 0x18
	.byte	0x4
	.4byte	.LCFI25-.LCFI24
	.byte	0xb
	.byte	0x4
	.4byte	.LCFI26-.LCFI25
	.byte	0xe
	.uleb128 0
	.byte	0xc4
	.byte	0xc5
	.byte	0xc6
	.byte	0xc7
	.byte	0xc8
	.byte	0xce
	.align	2
.LEFDE16:
.LSFDE18:
	.4byte	.LEFDE18-.LASFDE18
.LASFDE18:
	.4byte	.Lframe0
	.4byte	.LFB210
	.4byte	.LFE210-.LFB210
	.byte	0x4
	.4byte	.LCFI27-.LFB210
	.byte	0xe
	.uleb128 0x18
	.byte	0x83
	.uleb128 0x6
	.byte	0x84
	.uleb128 0x5
	.byte	0x85
	.uleb128 0x4
	.byte	0x86
	.uleb128 0x3
	.byte	0x87
	.uleb128 0x2
	.byte	0x8e
	.uleb128 0x1
	.byte	0x4
	.4byte	.LCFI28-.LCFI27
	.byte	0xe
	.uleb128 0
	.byte	0xc3
	.byte	0xc4
	.byte	0xc5
	.byte	0xc6
	.byte	0xc7
	.byte	0xce
	.align	2
.LEFDE18:
.LSFDE20:
	.4byte	.LEFDE20-.LASFDE20
.LASFDE20:
	.4byte	.Lframe0
	.4byte	.LFB208
	.4byte	.LFE208-.LFB208
	.byte	0x4
	.4byte	.LCFI29-.LFB208
	.byte	0xe
	.uleb128 0x1c
	.byte	0x84
	.uleb128 0x7
	.byte	0x85
	.uleb128 0x6
	.byte	0x86
	.uleb128 0x5
	.byte	0x87
	.uleb128 0x4
	.byte	0x88
	.uleb128 0x3
	.byte	0x89
	.uleb128 0x2
	.byte	0x8e
	.uleb128 0x1
	.byte	0x4
	.4byte	.LCFI30-.LCFI29
	.byte	0xe
	.uleb128 0x28
	.byte	0x4
	.4byte	.LCFI31-.LCFI30
	.byte	0xa
	.byte	0xe
	.uleb128 0x1c
	.byte	0x4
	.4byte	.LCFI32-.LCFI31
	.byte	0xb
	.align	2
.LEFDE20:
.LSFDE22:
	.4byte	.LEFDE22-.LASFDE22
.LASFDE22:
	.4byte	.Lframe0
	.4byte	.LFB211
	.4byte	.LFE211-.LFB211
	.byte	0x4
	.4byte	.LCFI33-.LFB211
	.byte	0xe
	.uleb128 0x8
	.byte	0x84
	.uleb128 0x2
	.byte	0x8e
	.uleb128 0x1
	.align	2
.LEFDE22:
	.text
.Letext0:
	.file 2 "C:/Program Files (x86)/SEGGER/SEGGER Embedded Studio for ARM 4.50/include/stdint.h"
	.file 3 "C:\\nRF5_SDK_15.0.0_a53641a\\examples\\ble_peripheral\\slam_application-master\\communication\\buffer.h"
	.file 4 "../../../../../../external/freertos/source/include/semphr.h"
	.file 5 "../../../../../../external/freertos/source/include/task.h"
	.file 6 "../../../../../../external/freertos/source/include/queue.h"