	.cpu cortex-m4
	.eabi_attribute 27, 1
	.eabi_attribute 28, 1
	.eabi_attribute 20, 1
	.eabi_attribute 21, 1
	.eabi_attribute 23, 3
	.eabi_attribute 24, 1
	.eabi_attribute 25, 1
	.eabi_attribute 26, 1
	.eabi_attribute 30, 1
	.eabi_attribute 34, 1
	.eabi_attribute 18, 4
	.file	"ble_bas.c"
	.text
.Ltext0:
	.section	.text.sd_ble_gatts_service_add,"ax",%progbits
	.align	1
	.syntax unified
	.thumb
	.thumb_func
	.fpu fpv4-sp-d16
	.type	sd_ble_gatts_service_add, %function
sd_ble_gatts_service_add:
.LVL0:
.LFB198:
	.file 1 "../../../../../../components/softdevice/s132/headers/ble_gatts.h"
	.loc 1 446 150 view -0
	@ Naked Function: prologue and epilogue provided by programmer.
	@ args = 0, pretend = 0, frame = 0
	@ frame_needed = 0, uses_anonymous_args = 0
	.loc 1 446 152 view .LVU1
	.syntax unified
@ 446 "../../../../../../components/softdevice/s132/headers/ble_gatts.h" 1
	svc #168
bx r14
@ 0 "" 2
.LVL1:
	.loc 1 446 2 is_stmt 0 view .LVU2
	.thumb
	.syntax unified
.LFE198:
	.size	sd_ble_gatts_service_add, .-sd_ble_gatts_service_add
	.section	.text.sd_ble_gatts_characteristic_add,"ax",%progbits
	.align	1
	.syntax unified
	.thumb
	.thumb_func
	.fpu fpv4-sp-d16
	.type	sd_ble_gatts_characteristic_add, %function
sd_ble_gatts_characteristic_add:
.LVL2:
.LFB200:
	.loc 1 501 240 is_stmt 1 view -0
	@ Naked Function: prologue and epilogue provided by programmer.
	@ args = 0, pretend = 0, frame = 0
	@ frame_needed = 0, uses_anonymous_args = 0
	.loc 1 501 242 view .LVU4
	.syntax unified
@ 501 "../../../../../../components/softdevice/s132/headers/ble_gatts.h" 1
	svc #170
bx r14
@ 0 "" 2
.LVL3:
	.loc 1 501 2 is_stmt 0 view .LVU5
	.thumb
	.syntax unified
.LFE200:
	.size	sd_ble_gatts_characteristic_add, .-sd_ble_gatts_characteristic_add
	.section	.text.sd_ble_gatts_descriptor_add,"ax",%progbits
	.align	1
	.syntax unified
	.thumb
	.thumb_func
	.fpu fpv4-sp-d16
	.type	sd_ble_gatts_descriptor_add, %function
sd_ble_gatts_descriptor_add:
.LVL4:
.LFB201:
	.loc 1 524 167 is_stmt 1 view -0
	@ Naked Function: prologue and epilogue provided by programmer.
	@ args = 0, pretend = 0, frame = 0
	@ frame_needed = 0, uses_anonymous_args = 0
	.loc 1 524 169 view .LVU7
	.syntax unified
@ 524 "../../../../../../components/softdevice/s132/headers/ble_gatts.h" 1
	svc #171
bx r14
@ 0 "" 2
.LVL5:
	.loc 1 524 2 is_stmt 0 view .LVU8
	.thumb
	.syntax unified
.LFE201:
	.size	sd_ble_gatts_descriptor_add, .-sd_ble_gatts_descriptor_add
	.section	.text.sd_ble_gatts_value_set,"ax",%progbits
	.align	1
	.syntax unified
	.thumb
	.thumb_func
	.fpu fpv4-sp-d16
	.type	sd_ble_gatts_value_set, %function
sd_ble_gatts_value_set:
.LVL6:
.LFB202:
	.loc 1 547 155 is_stmt 1 view -0
	@ Naked Function: prologue and epilogue provided by programmer.
	@ args = 0, pretend = 0, frame = 0
	@ frame_needed = 0, uses_anonymous_args = 0
	.loc 1 547 157 view .LVU10
	.syntax unified
@ 547 "../../../../../../components/softdevice/s132/headers/ble_gatts.h" 1
	svc #172
bx r14
@ 0 "" 2
.LVL7:
	.loc 1 547 2 is_stmt 0 view .LVU11
	.thumb
	.syntax unified
.LFE202:
	.size	sd_ble_gatts_value_set, .-sd_ble_gatts_value_set
	.section	.text.sd_ble_gatts_hvx,"ax",%progbits
	.align	1
	.syntax unified
	.thumb
	.thumb_func
	.fpu fpv4-sp-d16
	.type	sd_ble_gatts_hvx, %function
sd_ble_gatts_hvx:
.LVL8:
.LFB204:
	.loc 1 636 148 is_stmt 1 view -0
	@ Naked Function: prologue and epilogue provided by programmer.
	@ args = 0, pretend = 0, frame = 0
	@ frame_needed = 0, uses_anonymous_args = 0
	.loc 1 636 150 view .LVU13
	.syntax unified
@ 636 "../../../../../../components/softdevice/s132/headers/ble_gatts.h" 1
	svc #174
bx r14
@ 0 "" 2
.LVL9:
	.loc 1 636 2 is_stmt 0 view .LVU14
	.thumb
	.syntax unified
.LFE204:
	.size	sd_ble_gatts_hvx, .-sd_ble_gatts_hvx
	.section	.text.battery_notification_send,"ax",%progbits
	.align	1
	.syntax unified
	.thumb
	.thumb_func
	.fpu fpv4-sp-d16
	.type	battery_notification_send, %function
battery_notification_send:
.LVL10:
.LFB227:
	.file 2 "C:\\nRF5_SDK_15.0.0_a53641a\\components\\ble\\ble_services\\ble_bas\\ble_bas.c"
	.loc 2 278 1 is_stmt 1 view -0
	@ args = 0, pretend = 0, frame = 0
	@ frame_needed = 0, uses_anonymous_args = 0
	.loc 2 278 1 is_stmt 0 view .LVU16
	push	{r3, lr}
.LCFI0:
	mov	r3, r1
	.loc 2 279 5 is_stmt 1 view .LVU17
	.loc 2 279 27 is_stmt 0 view .LVU18
	mov	r1, r0
.LVL11:
	.loc 2 279 27 view .LVU19
	mov	r0, r3
.LVL12:
	.loc 2 279 27 view .LVU20
	bl	sd_ble_gatts_hvx
.LVL13:
	.loc 2 280 5 is_stmt 1 view .LVU21
	.loc 2 288 35 view .LVU22
	.loc 2 290 5 view .LVU23
	.loc 2 291 1 is_stmt 0 view .LVU24
	pop	{r3, pc}
.LFE227:
	.size	battery_notification_send, .-battery_notification_send
	.section	.text.on_write,"ax",%progbits
	.align	1
	.syntax unified
	.thumb
	.thumb_func
	.fpu fpv4-sp-d16
	.type	on_write, %function
on_write:
.LVL14:
.LFB223:
	.loc 2 72 1 is_stmt 1 view -0
	@ args = 0, pretend = 0, frame = 8
	@ frame_needed = 0, uses_anonymous_args = 0
	.loc 2 73 5 view .LVU26
	.loc 2 73 15 is_stmt 0 view .LVU27
	ldrb	r3, [r0, #17]	@ zero_extendqisi2
	.loc 2 73 8 view .LVU28
	cbz	r3, .L14
	.loc 2 72 1 view .LVU29
	push	{r4, r5, lr}
.LCFI1:
	sub	sp, sp, #12
.LCFI2:
	mov	r4, r0
	mov	r5, r1
	.loc 2 78 5 is_stmt 1 view .LVU30
.LVL15:
	.loc 2 80 5 view .LVU31
	.loc 2 80 22 is_stmt 0 view .LVU32
	ldrh	r2, [r1, #6]
	.loc 2 80 62 view .LVU33
	ldrh	r3, [r0, #10]
	.loc 2 80 8 view .LVU34
	cmp	r2, r3
	beq	.L17
.LVL16:
.L8:
	.loc 2 103 1 view .LVU35
	add	sp, sp, #12
.LCFI3:
	@ sp needed
	pop	{r4, r5, pc}
.LVL17:
.L17:
.LCFI4:
	.loc 2 81 24 view .LVU36
	ldrh	r3, [r1, #16]
	.loc 2 81 9 view .LVU37
	cmp	r3, #2
	bne	.L8
.LBB2:
	.loc 2 83 9 is_stmt 1 view .LVU38
	.loc 2 83 18 is_stmt 0 view .LVU39
	ldr	r3, [r0]
	.loc 2 83 12 view .LVU40
	cmp	r3, #0
	beq	.L8
	.loc 2 88 9 is_stmt 1 view .LVU41
	.loc 2 90 9 view .LVU42
	.loc 2 90 13 is_stmt 0 view .LVU43
	add	r0, r1, #18
.LVL18:
	.loc 2 90 13 view .LVU44
	bl	ble_srv_is_notification_enabled
.LVL19:
	.loc 2 90 12 view .LVU45
	cbz	r0, .L11
	.loc 2 92 13 is_stmt 1 view .LVU46
	.loc 2 92 26 is_stmt 0 view .LVU47
	movs	r3, #0
	strb	r3, [sp, #4]
.L12:
	.loc 2 98 9 is_stmt 1 view .LVU48
	.loc 2 98 51 is_stmt 0 view .LVU49
	ldrh	r3, [r5, #4]
	.loc 2 98 25 view .LVU50
	strh	r3, [sp, #6]	@ movhi
	.loc 2 101 9 is_stmt 1 view .LVU51
	.loc 2 101 14 is_stmt 0 view .LVU52
	ldr	r3, [r4]
	.loc 2 101 9 view .LVU53
	add	r1, sp, #4
	mov	r0, r4
	blx	r3
.LVL20:
	b	.L8
.L11:
	.loc 2 96 13 is_stmt 1 view .LVU54
	.loc 2 96 26 is_stmt 0 view .LVU55
	movs	r3, #1
	strb	r3, [sp, #4]
	b	.L12
.LVL21:
.L14:
.LCFI5:
	.loc 2 96 26 view .LVU56
	bx	lr
.LBE2:
.LFE223:
	.size	on_write, .-on_write
	.section	.text.battery_level_char_add,"ax",%progbits
	.align	1
	.syntax unified
	.thumb
	.thumb_func
	.fpu fpv4-sp-d16
	.type	battery_level_char_add, %function
battery_level_char_add:
.LVL22:
.LFB225:
	.loc 2 136 1 is_stmt 1 view -0
	@ args = 0, pretend = 0, frame = 64
	@ frame_needed = 0, uses_anonymous_args = 0
	.loc 2 136 1 is_stmt 0 view .LVU58
	push	{r4, r5, r6, r7, r8, lr}
.LCFI6:
	sub	sp, sp, #64
.LCFI7:
	mov	r4, r0
	mov	r5, r1
	.loc 2 137 5 is_stmt 1 view .LVU59
	.loc 2 138 5 view .LVU60
	.loc 2 139 5 view .LVU61
	.loc 2 140 5 view .LVU62
	.loc 2 141 5 view .LVU63
	.loc 2 142 5 view .LVU64
	.loc 2 143 5 view .LVU65
	.loc 2 144 5 view .LVU66
	.loc 2 145 5 view .LVU67
	.loc 2 148 5 view .LVU68
	.loc 2 148 14 is_stmt 0 view .LVU69
	ldrb	r3, [r0, #17]	@ zero_extendqisi2
	.loc 2 148 8 view .LVU70
	cmp	r3, #0
	bne	.L25
.LVL23:
.L19:
	.loc 2 159 5 is_stmt 1 view .LVU71
	movs	r2, #28
	movs	r1, #0
	add	r0, sp, #36
	bl	memset
.LVL24:
	.loc 2 161 5 view .LVU72
	.loc 2 161 29 is_stmt 0 view .LVU73
	ldrb	r3, [sp, #36]	@ zero_extendqisi2
	.loc 2 162 5 is_stmt 1 view .LVU74
	.loc 2 162 39 is_stmt 0 view .LVU75
	ldrb	r2, [r4, #17]	@ zero_extendqisi2
	.loc 2 162 31 view .LVU76
	orr	r3, r3, #2
	bfi	r3, r2, #4, #1
	strb	r3, [sp, #36]
	.loc 2 163 5 is_stmt 1 view .LVU77
	.loc 2 163 30 is_stmt 0 view .LVU78
	movs	r3, #0
	str	r3, [sp, #40]
	.loc 2 164 5 is_stmt 1 view .LVU79
	.loc 2 164 23 is_stmt 0 view .LVU80
	str	r3, [sp, #48]
	.loc 2 165 5 is_stmt 1 view .LVU81
	.loc 2 165 28 is_stmt 0 view .LVU82
	str	r3, [sp, #52]
	.loc 2 166 5 is_stmt 1 view .LVU83
	.loc 2 166 71 is_stmt 0 view .LVU84
	cmp	r2, #0
	beq	.L23
	add	r3, sp, #32
.L20:
	.loc 2 166 23 discriminator 4 view .LVU85
	str	r3, [sp, #56]
	.loc 2 167 5 is_stmt 1 discriminator 4 view .LVU86
	.loc 2 167 23 is_stmt 0 discriminator 4 view .LVU87
	movs	r6, #0
	str	r6, [sp, #60]
	.loc 2 169 5 is_stmt 1 discriminator 4 view .LVU88
	.loc 2 169 10 discriminator 4 view .LVU89
	.loc 2 169 24 is_stmt 0 discriminator 4 view .LVU90
	movs	r7, #1
	strb	r7, [sp, #10]
	.loc 2 169 32 is_stmt 1 discriminator 4 view .LVU91
	.loc 2 169 46 is_stmt 0 discriminator 4 view .LVU92
	movw	r3, #10777
	strh	r3, [sp, #8]	@ movhi
	.loc 2 169 62 is_stmt 1 discriminator 4 view .LVU93
	.loc 2 171 5 discriminator 4 view .LVU94
	add	r8, sp, #4
	movs	r2, #3
	mov	r1, r6
	mov	r0, r8
	bl	memset
.LVL25:
	.loc 2 173 5 discriminator 4 view .LVU95
	.loc 2 173 23 is_stmt 0 discriminator 4 view .LVU96
	ldrb	r3, [r5, #14]	@ zero_extendqisi2
	strb	r3, [sp, #4]
	.loc 2 174 5 is_stmt 1 discriminator 4 view .LVU97
	.loc 2 174 24 is_stmt 0 discriminator 4 view .LVU98
	ldrb	r3, [r5, #15]	@ zero_extendqisi2
	strb	r3, [sp, #5]
	.loc 2 175 5 is_stmt 1 discriminator 4 view .LVU99
	.loc 2 175 18 is_stmt 0 discriminator 4 view .LVU100
	ldrb	r3, [sp, #6]	@ zero_extendqisi2
	bfi	r3, r7, #1, #2
	.loc 2 176 5 is_stmt 1 discriminator 4 view .LVU101
	.loc 2 177 5 discriminator 4 view .LVU102
	.loc 2 178 5 discriminator 4 view .LVU103
	.loc 2 178 18 is_stmt 0 discriminator 4 view .LVU104
	and	r3, r3, #231
	bfi	r3, r6, #0, #1
	strb	r3, [sp, #6]
	.loc 2 180 5 is_stmt 1 discriminator 4 view .LVU105
	.loc 2 180 39 is_stmt 0 discriminator 4 view .LVU106
	ldrb	r3, [r5, #12]	@ zero_extendqisi2
	.loc 2 180 27 discriminator 4 view .LVU107
	strb	r3, [sp, #3]
	.loc 2 182 5 is_stmt 1 discriminator 4 view .LVU108
	movs	r2, #20
	mov	r1, r6
	add	r0, sp, #12
	bl	memset
.LVL26:
	.loc 2 184 5 discriminator 4 view .LVU109
	.loc 2 184 28 is_stmt 0 discriminator 4 view .LVU110
	add	r3, sp, #8
	str	r3, [sp, #12]
	.loc 2 185 5 is_stmt 1 discriminator 4 view .LVU111
	.loc 2 185 31 is_stmt 0 discriminator 4 view .LVU112
	str	r8, [sp, #16]
	.loc 2 186 5 is_stmt 1 discriminator 4 view .LVU113
	.loc 2 186 30 is_stmt 0 discriminator 4 view .LVU114
	strh	r7, [sp, #20]	@ movhi
	.loc 2 187 5 is_stmt 1 discriminator 4 view .LVU115
	.loc 2 187 31 is_stmt 0 discriminator 4 view .LVU116
	strh	r6, [sp, #22]	@ movhi
	.loc 2 188 5 is_stmt 1 discriminator 4 view .LVU117
	.loc 2 188 29 is_stmt 0 discriminator 4 view .LVU118
	strh	r7, [sp, #24]	@ movhi
	.loc 2 189 5 is_stmt 1 discriminator 4 view .LVU119
	.loc 2 189 29 is_stmt 0 discriminator 4 view .LVU120
	add	r3, sp, #3
	str	r3, [sp, #28]
	.loc 2 191 5 is_stmt 1 discriminator 4 view .LVU121
	.loc 2 191 16 is_stmt 0 discriminator 4 view .LVU122
	adds	r3, r4, #6
	add	r2, sp, #12
	add	r1, sp, #36
	ldrh	r0, [r4, #4]
	bl	sd_ble_gatts_characteristic_add
.LVL27:
	.loc 2 194 5 is_stmt 1 discriminator 4 view .LVU123
	.loc 2 194 8 is_stmt 0 discriminator 4 view .LVU124
	cmp	r0, #0
	bne	.L18
	.loc 2 199 5 is_stmt 1 view .LVU125
	.loc 2 199 19 is_stmt 0 view .LVU126
	ldr	r3, [r5, #8]
	.loc 2 199 8 view .LVU127
	cmp	r3, #0
	beq	.L22
	.loc 2 202 9 is_stmt 1 view .LVU128
	.loc 2 202 14 view .LVU129
	.loc 2 202 28 is_stmt 0 view .LVU130
	strb	r7, [sp, #10]
	.loc 2 202 36 is_stmt 1 view .LVU131
	.loc 2 202 50 is_stmt 0 view .LVU132
	movw	r3, #10504
	strh	r3, [sp, #8]	@ movhi
	.loc 2 202 66 is_stmt 1 view .LVU133
	.loc 2 204 9 view .LVU134
	add	r6, sp, #4
	movs	r2, #3
	movs	r1, #0
	mov	r0, r6
.LVL28:
	.loc 2 204 9 is_stmt 0 view .LVU135
	bl	memset
.LVL29:
	.loc 2 206 9 is_stmt 1 view .LVU136
	.loc 2 206 27 is_stmt 0 view .LVU137
	ldrb	r3, [r5, #16]	@ zero_extendqisi2
	strb	r3, [sp, #4]
	.loc 2 207 9 is_stmt 1 view .LVU138
	.loc 2 207 13 view .LVU139
	.loc 2 207 39 is_stmt 0 view .LVU140
	ldrb	r3, [sp, #5]	@ zero_extendqisi2
	.loc 2 207 44 is_stmt 1 view .LVU141
	.loc 2 207 70 is_stmt 0 view .LVU142
	and	r3, r3, #240
	bfc	r3, #4, #4
	strb	r3, [sp, #5]
	.loc 2 207 81 is_stmt 1 view .LVU143
	.loc 2 209 9 view .LVU144
	.loc 2 209 22 is_stmt 0 view .LVU145
	ldrb	r3, [sp, #6]	@ zero_extendqisi2
	bfi	r3, r7, #1, #2
	.loc 2 210 9 is_stmt 1 view .LVU146
	.loc 2 211 9 view .LVU147
	.loc 2 212 9 view .LVU148
	.loc 2 212 22 is_stmt 0 view .LVU149
	and	r3, r3, #231
	bfc	r3, #0, #1
	strb	r3, [sp, #6]
	.loc 2 214 9 is_stmt 1 view .LVU150
	.loc 2 214 20 is_stmt 0 view .LVU151
	ldr	r1, [r5, #8]
	mov	r0, sp
	bl	ble_srv_report_ref_encode
.LVL30:
	mov	r5, r0
.LVL31:
	.loc 2 216 9 is_stmt 1 view .LVU152
	movs	r2, #20
	movs	r1, #0
	add	r0, sp, #12
	bl	memset
.LVL32:
	.loc 2 218 9 view .LVU153
	.loc 2 218 32 is_stmt 0 view .LVU154
	add	r3, sp, #8
	str	r3, [sp, #12]
	.loc 2 219 9 is_stmt 1 view .LVU155
	.loc 2 219 35 is_stmt 0 view .LVU156
	str	r6, [sp, #16]
	.loc 2 220 9 is_stmt 1 view .LVU157
	.loc 2 220 34 is_stmt 0 view .LVU158
	uxth	r0, r5
	strh	r0, [sp, #20]	@ movhi
	.loc 2 221 9 is_stmt 1 view .LVU159
	.loc 2 221 35 is_stmt 0 view .LVU160
	movs	r3, #0
	strh	r3, [sp, #22]	@ movhi
	.loc 2 222 9 is_stmt 1 view .LVU161
	.loc 2 222 33 is_stmt 0 view .LVU162
	strh	r0, [sp, #24]	@ movhi
	.loc 2 223 9 is_stmt 1 view .LVU163
	.loc 2 223 33 is_stmt 0 view .LVU164
	str	sp, [sp, #28]
	.loc 2 225 9 is_stmt 1 view .LVU165
	.loc 2 225 20 is_stmt 0 view .LVU166
	add	r2, r4, #14
	add	r1, sp, #12
	ldrh	r0, [r4, #6]
	bl	sd_ble_gatts_descriptor_add
.LVL33:
	.loc 2 228 9 is_stmt 1 view .LVU167
.L18:
	.loc 2 239 1 is_stmt 0 view .LVU168
	add	sp, sp, #64
.LCFI8:
	@ sp needed
	pop	{r4, r5, r6, r7, r8, pc}
.LVL34:
.L25:
.LCFI9:
	.loc 2 150 9 is_stmt 1 view .LVU169
	movs	r2, #3
	movs	r1, #0
.LVL35:
	.loc 2 150 9 is_stmt 0 view .LVU170
	add	r0, sp, #32
.LVL36:
	.loc 2 150 9 view .LVU171
	bl	memset
.LVL37:
	.loc 2 154 9 is_stmt 1 view .LVU172
	.loc 2 154 13 view .LVU173
	.loc 2 154 38 is_stmt 0 view .LVU174
	ldrb	r3, [sp, #32]	@ zero_extendqisi2
	movs	r2, #1
	bfi	r3, r2, #0, #4
	.loc 2 154 43 is_stmt 1 view .LVU175
	.loc 2 154 68 is_stmt 0 view .LVU176
	bfi	r3, r2, #4, #4
	strb	r3, [sp, #32]
	.loc 2 154 79 is_stmt 1 view .LVU177
	.loc 2 155 9 view .LVU178
	.loc 2 155 28 is_stmt 0 view .LVU179
	ldrb	r3, [r5, #13]	@ zero_extendqisi2
	strb	r3, [sp, #33]
	.loc 2 156 9 is_stmt 1 view .LVU180
	.loc 2 156 22 is_stmt 0 view .LVU181
	ldrb	r3, [sp, #34]	@ zero_extendqisi2
	bfi	r3, r2, #1, #2
	strb	r3, [sp, #34]
	b	.L19
.L23:
	.loc 2 166 71 view .LVU182
	movs	r3, #0
	b	.L20
.LVL38:
.L22:
	.loc 2 235 9 is_stmt 1 view .LVU183
	.loc 2 235 34 is_stmt 0 view .LVU184
	movs	r3, #0
	strh	r3, [r4, #14]	@ movhi
	b	.L18
.LFE225:
	.size	battery_level_char_add, .-battery_level_char_add
	.section	.text.ble_bas_on_ble_evt,"ax",%progbits
	.align	1
	.global	ble_bas_on_ble_evt
	.syntax unified
	.thumb
	.thumb_func
	.fpu fpv4-sp-d16
	.type	ble_bas_on_ble_evt, %function
ble_bas_on_ble_evt:
.LVL39:
.LFB224:
	.loc 2 107 1 is_stmt 1 view -0
	@ args = 0, pretend = 0, frame = 0
	@ frame_needed = 0, uses_anonymous_args = 0
	.loc 2 108 5 view .LVU186
	.loc 2 108 8 is_stmt 0 view .LVU187
	cbz	r1, .L29
	mov	r2, r1
	.loc 2 108 28 discriminator 1 view .LVU188
	cbz	r0, .L29
	.loc 2 107 1 view .LVU189
	push	{r3, lr}
.LCFI10:
	.loc 2 113 5 is_stmt 1 view .LVU190
.LVL40:
	.loc 2 115 5 view .LVU191
	.loc 2 115 30 is_stmt 0 view .LVU192
	ldrh	r3, [r0]
	.loc 2 115 5 view .LVU193
	cmp	r3, #80
	beq	.L32
.LVL41:
.L26:
	.loc 2 125 1 view .LVU194
	pop	{r3, pc}
.LVL42:
.L32:
	.loc 2 118 13 is_stmt 1 view .LVU195
	mov	r1, r0
.LVL43:
	.loc 2 118 13 is_stmt 0 view .LVU196
	mov	r0, r2
.LVL44:
	.loc 2 118 13 view .LVU197
	bl	on_write
.LVL45:
	.loc 2 119 13 is_stmt 1 view .LVU198
	b	.L26
.LVL46:
.L29:
.LCFI11:
	.loc 2 119 13 is_stmt 0 view .LVU199
	bx	lr
.LFE224:
	.size	ble_bas_on_ble_evt, .-ble_bas_on_ble_evt
	.section	.text.ble_bas_init,"ax",%progbits
	.align	1
	.global	ble_bas_init
	.syntax unified
	.thumb
	.thumb_func
	.fpu fpv4-sp-d16
	.type	ble_bas_init, %function
ble_bas_init:
.LVL47:
.LFB226:
	.loc 2 243 1 is_stmt 1 view -0
	@ args = 0, pretend = 0, frame = 8
	@ frame_needed = 0, uses_anonymous_args = 0
	.loc 2 244 5 view .LVU201
	.loc 2 244 8 is_stmt 0 view .LVU202
	cbz	r0, .L35
	.loc 2 243 1 discriminator 1 view .LVU203
	push	{r4, r5, lr}
.LCFI12:
	sub	sp, sp, #12
.LCFI13:
	mov	r4, r1
	mov	r5, r0
	.loc 2 244 22 discriminator 1 view .LVU204
	cbz	r1, .L36
	.loc 2 249 5 is_stmt 1 view .LVU205
	.loc 2 250 5 view .LVU206
	.loc 2 253 5 view .LVU207
	.loc 2 253 36 is_stmt 0 view .LVU208
	ldr	r3, [r1]
	.loc 2 253 24 view .LVU209
	str	r3, [r0]
	.loc 2 254 5 is_stmt 1 view .LVU210
	.loc 2 254 50 is_stmt 0 view .LVU211
	ldrb	r3, [r1, #4]	@ zero_extendqisi2
	.loc 2 254 38 view .LVU212
	strb	r3, [r0, #17]
	.loc 2 255 5 is_stmt 1 view .LVU213
	.loc 2 255 31 is_stmt 0 view .LVU214
	movs	r3, #255
	strb	r3, [r0, #16]
	.loc 2 258 5 is_stmt 1 view .LVU215
	.loc 2 258 10 view .LVU216
	.loc 2 258 24 is_stmt 0 view .LVU217
	movs	r0, #1
.LVL48:
	.loc 2 258 24 view .LVU218
	strb	r0, [sp, #6]
	.loc 2 258 32 is_stmt 1 view .LVU219
	.loc 2 258 46 is_stmt 0 view .LVU220
	movw	r3, #6159
	strh	r3, [sp, #4]	@ movhi
	.loc 2 258 62 is_stmt 1 view .LVU221
	.loc 2 260 5 view .LVU222
	.loc 2 260 16 is_stmt 0 view .LVU223
	adds	r2, r5, #4
	add	r1, sp, #4
.LVL49:
	.loc 2 260 16 view .LVU224
	bl	sd_ble_gatts_service_add
.LVL50:
	.loc 2 261 5 is_stmt 1 view .LVU225
.LBB3:
	.loc 2 261 10 view .LVU226
	.loc 2 261 54 view .LVU227
	.loc 2 261 57 is_stmt 0 view .LVU228
	cbz	r0, .L41
.LVL51:
.L33:
	.loc 2 261 57 view .LVU229
.LBE3:
	.loc 2 266 1 view .LVU230
	add	sp, sp, #12
.LCFI14:
	@ sp needed
	pop	{r4, r5, pc}
.LVL52:
.L41:
.LCFI15:
	.loc 2 261 113 is_stmt 1 discriminator 2 view .LVU231
	.loc 2 264 5 discriminator 2 view .LVU232
	.loc 2 264 16 is_stmt 0 discriminator 2 view .LVU233
	mov	r1, r4
	mov	r0, r5
.LVL53:
	.loc 2 264 16 discriminator 2 view .LVU234
	bl	battery_level_char_add
.LVL54:
	.loc 2 265 5 is_stmt 1 discriminator 2 view .LVU235
	.loc 2 265 12 is_stmt 0 discriminator 2 view .LVU236
	b	.L33
.LVL55:
.L35:
.LCFI16:
	.loc 2 246 16 view .LVU237
	movs	r0, #14
.LVL56:
	.loc 2 266 1 view .LVU238
	bx	lr
.LVL57:
.L36:
.LCFI17:
	.loc 2 246 16 view .LVU239
	movs	r0, #14
.LVL58:
	.loc 2 246 16 view .LVU240
	b	.L33
.LFE226:
	.size	ble_bas_init, .-ble_bas_init
	.section	.text.ble_bas_battery_level_update,"ax",%progbits
	.align	1
	.global	ble_bas_battery_level_update
	.syntax unified
	.thumb
	.thumb_func
	.fpu fpv4-sp-d16
	.type	ble_bas_battery_level_update, %function
ble_bas_battery_level_update:
.LVL59:
.LFB228:
	.loc 2 297 1 is_stmt 1 view -0
	@ args = 0, pretend = 0, frame = 80
	@ frame_needed = 0, uses_anonymous_args = 0
	.loc 2 297 1 is_stmt 0 view .LVU242
	push	{r4, r5, r6, lr}
.LCFI18:
	sub	sp, sp, #80
.LCFI19:
	strb	r1, [sp, #7]
	.loc 2 298 5 is_stmt 1 view .LVU243
	.loc 2 298 8 is_stmt 0 view .LVU244
	cmp	r0, #0
	beq	.L50
	mov	r6, r2
	mov	r4, r0
	.loc 2 303 5 is_stmt 1 view .LVU245
.LVL60:
	.loc 2 304 5 view .LVU246
	.loc 2 306 5 view .LVU247
	.loc 2 306 31 is_stmt 0 view .LVU248
	ldrb	r2, [r0, #16]	@ zero_extendqisi2
.LVL61:
	.loc 2 306 23 view .LVU249
	uxtb	r3, r1
	.loc 2 306 8 view .LVU250
	cmp	r2, r3
	bne	.L54
	.loc 2 303 16 view .LVU251
	movs	r5, #0
.LVL62:
.L42:
	.loc 2 381 1 view .LVU252
	mov	r0, r5
	add	sp, sp, #80
.LCFI20:
	@ sp needed
	pop	{r4, r5, r6, pc}
.LVL63:
.L54:
.LCFI21:
	.loc 2 309 9 is_stmt 1 view .LVU253
	movs	r2, #8
	movs	r1, #0
.LVL64:
	.loc 2 309 9 is_stmt 0 view .LVU254
	add	r0, sp, #72
.LVL65:
	.loc 2 309 9 view .LVU255
	bl	memset
.LVL66:
	.loc 2 311 9 is_stmt 1 view .LVU256
	.loc 2 311 25 is_stmt 0 view .LVU257
	movs	r3, #1
	strh	r3, [sp, #72]	@ movhi
	.loc 2 312 9 is_stmt 1 view .LVU258
	.loc 2 312 28 is_stmt 0 view .LVU259
	movs	r3, #0
	strh	r3, [sp, #74]	@ movhi
	.loc 2 313 9 is_stmt 1 view .LVU260
	.loc 2 313 29 is_stmt 0 view .LVU261
	add	r3, sp, #7
	str	r3, [sp, #76]
	.loc 2 316 9 is_stmt 1 view .LVU262
	.loc 2 316 20 is_stmt 0 view .LVU263
	add	r2, sp, #72
	ldrh	r1, [r4, #6]
	movw	r0, #65535
	bl	sd_ble_gatts_value_set
.LVL67:
	.loc 2 319 9 is_stmt 1 view .LVU264
	.loc 2 319 12 is_stmt 0 view .LVU265
	mov	r5, r0
	cmp	r0, #0
	bne	.L42
	.loc 2 321 13 is_stmt 1 view .LVU266
	.loc 2 324 13 view .LVU267
	.loc 2 324 39 is_stmt 0 view .LVU268
	ldrb	r3, [sp, #7]	@ zero_extendqisi2
	strb	r3, [r4, #16]
	.loc 2 334 9 is_stmt 1 view .LVU269
	.loc 2 334 18 is_stmt 0 view .LVU270
	ldrb	r3, [r4, #17]	@ zero_extendqisi2
	.loc 2 334 12 view .LVU271
	cbnz	r3, .L55
	.loc 2 376 22 view .LVU272
	movs	r5, #8
.LVL68:
	.loc 2 376 22 view .LVU273
	b	.L42
.LVL69:
.L55:
.LBB4:
	.loc 2 336 13 is_stmt 1 view .LVU274
	.loc 2 338 13 view .LVU275
	movs	r2, #16
	movs	r1, #0
	add	r0, sp, #12
.LVL70:
	.loc 2 338 13 is_stmt 0 view .LVU276
	bl	memset
.LVL71:
	.loc 2 340 13 is_stmt 1 view .LVU277
	.loc 2 340 61 is_stmt 0 view .LVU278
	ldrh	r3, [r4, #6]
	.loc 2 340 31 view .LVU279
	strh	r3, [sp, #12]	@ movhi
	.loc 2 341 13 is_stmt 1 view .LVU280
	.loc 2 341 29 is_stmt 0 view .LVU281
	movs	r3, #1
	strb	r3, [sp, #14]
	.loc 2 342 13 is_stmt 1 view .LVU282
	.loc 2 342 44 is_stmt 0 view .LVU283
	ldrh	r3, [sp, #74]
	.loc 2 342 31 view .LVU284
	strh	r3, [sp, #16]	@ movhi
	.loc 2 343 13 is_stmt 1 view .LVU285
	.loc 2 343 30 is_stmt 0 view .LVU286
	add	r3, sp, #72
	str	r3, [sp, #20]
	.loc 2 344 13 is_stmt 1 view .LVU287
	.loc 2 344 44 is_stmt 0 view .LVU288
	ldr	r3, [sp, #76]
	.loc 2 344 31 view .LVU289
	str	r3, [sp, #24]
	.loc 2 346 13 is_stmt 1 view .LVU290
	.loc 2 346 16 is_stmt 0 view .LVU291
	movw	r3, #65534
	cmp	r6, r3
	beq	.L56
	.loc 2 371 17 is_stmt 1 view .LVU292
	.loc 2 371 28 is_stmt 0 view .LVU293
	mov	r1, r6
	add	r0, sp, #12
	bl	battery_notification_send
.LVL72:
	mov	r5, r0
.LVL73:
	.loc 2 371 28 view .LVU294
	b	.L42
.LVL74:
.L56:
.LBB5:
	.loc 2 348 17 is_stmt 1 view .LVU295
	.loc 2 348 66 is_stmt 0 view .LVU296
	add	r0, sp, #28
	bl	ble_conn_state_conn_handles
.LVL75:
	.loc 2 351 17 is_stmt 1 view .LVU297
.LBB6:
	.loc 2 351 22 view .LVU298
	.loc 2 351 31 is_stmt 0 view .LVU299
	mov	r4, r5
.LVL76:
	.loc 2 351 17 view .LVU300
	b	.L45
.LVL77:
.L47:
	.loc 2 363 29 is_stmt 1 view .LVU301
	.loc 2 363 37 is_stmt 0 view .LVU302
	mov	r1, r6
	add	r0, sp, #12
	bl	battery_notification_send
.LVL78:
.L46:
	.loc 2 351 60 is_stmt 1 discriminator 2 view .LVU303
	.loc 2 351 61 is_stmt 0 discriminator 2 view .LVU304
	adds	r4, r4, #1
.LVL79:
.L45:
	.loc 2 351 38 is_stmt 1 discriminator 1 view .LVU305
	.loc 2 351 54 is_stmt 0 discriminator 1 view .LVU306
	ldr	r3, [sp, #28]
	.loc 2 351 17 discriminator 1 view .LVU307
	cmp	r4, r3
	bcs	.L42
	.loc 2 353 21 is_stmt 1 view .LVU308
	.loc 2 353 25 is_stmt 0 view .LVU309
	add	r3, sp, #80
	add	r3, r3, r4, lsl #1
	ldrh	r6, [r3, #-48]
	mov	r0, r6
	bl	ble_conn_state_status
.LVL80:
	.loc 2 353 24 view .LVU310
	cmp	r0, #2
	bne	.L46
	.loc 2 355 25 is_stmt 1 view .LVU311
	.loc 2 355 28 is_stmt 0 view .LVU312
	cmp	r5, #0
	bne	.L47
	.loc 2 357 29 is_stmt 1 view .LVU313
	.loc 2 357 40 is_stmt 0 view .LVU314
	mov	r1, r6
	add	r0, sp, #12
	bl	battery_notification_send
.LVL81:
	mov	r5, r0
.LVL82:
	.loc 2 357 40 view .LVU315
	b	.L46
.LVL83:
.L50:
	.loc 2 357 40 view .LVU316
.LBE6:
.LBE5:
.LBE4:
	.loc 2 300 16 view .LVU317
	movs	r5, #14
	b	.L42
.LFE228:
	.size	ble_bas_battery_level_update, .-ble_bas_battery_level_update
	.global	m_nrf_log_ble_bas_logs_data_dynamic
	.global	m_nrf_log_ble_bas_logs_data_const
	.section	.rodata.str1.4,"aMS",%progbits,1
	.align	2
.LC0:
	.ascii	"ble_bas\000"
	.section	.log_const_data_ble_bas,"a"
	.align	2
	.type	m_nrf_log_ble_bas_logs_data_const, %object
	.size	m_nrf_log_ble_bas_logs_data_const, 8
m_nrf_log_ble_bas_logs_data_const:
	.word	.LC0
	.byte	0
	.byte	0
	.byte	0
	.byte	0
	.section	.log_dynamic_data_ble_bas,"aw"
	.align	2
	.type	m_nrf_log_ble_bas_logs_data_dynamic, %object
	.size	m_nrf_log_ble_bas_logs_data_dynamic, 4
m_nrf_log_ble_bas_logs_data_dynamic:
	.space	4
	.section	.debug_frame,"",%progbits
.Lframe0:
	.4byte	.LECIE0-.LSCIE0
.LSCIE0:
	.4byte	0xffffffff
	.byte	0x3
	.ascii	"\000"
	.uleb128 0x1
	.sleb128 -4
	.uleb128 0xe
	.byte	0xc
	.uleb128 0xd
	.uleb128 0
	.align	2
.LECIE0:
.LSFDE0:
	.4byte	.LEFDE0-.LASFDE0
.LASFDE0:
	.4byte	.Lframe0
	.4byte	.LFB198
	.4byte	.LFE198-.LFB198
	.align	2
.LEFDE0:
.LSFDE2:
	.4byte	.LEFDE2-.LASFDE2
.LASFDE2:
	.4byte	.Lframe0
	.4byte	.LFB200
	.4byte	.LFE200-.LFB200
	.align	2
.LEFDE2:
.LSFDE4:
	.4byte	.LEFDE4-.LASFDE4
.LASFDE4:
	.4byte	.Lframe0
	.4byte	.LFB201
	.4byte	.LFE201-.LFB201
	.align	2
.LEFDE4:
.LSFDE6:
	.4byte	.LEFDE6-.LASFDE6
.LASFDE6:
	.4byte	.Lframe0
	.4byte	.LFB202
	.4byte	.LFE202-.LFB202
	.align	2
.LEFDE6:
.LSFDE8:
	.4byte	.LEFDE8-.LASFDE8
.LASFDE8:
	.4byte	.Lframe0
	.4byte	.LFB204
	.4byte	.LFE204-.LFB204
	.align	2
.LEFDE8:
.LSFDE10:
	.4byte	.LEFDE10-.LASFDE10
.LASFDE10:
	.4byte	.Lframe0
	.4byte	.LFB227
	.4byte	.LFE227-.LFB227
	.byte	0x4
	.4byte	.LCFI0-.LFB227
	.byte	0xe
	.uleb128 0x8
	.byte	0x83
	.uleb128 0x2
	.byte	0x8e
	.uleb128 0x1
	.align	2
.LEFDE10:
.LSFDE12:
	.4byte	.LEFDE12-.LASFDE12
.LASFDE12:
	.4byte	.Lframe0
	.4byte	.LFB223
	.4byte	.LFE223-.LFB223
	.byte	0x4
	.4byte	.LCFI1-.LFB223
	.byte	0xe
	.uleb128 0xc
	.byte	0x84
	.uleb128 0x3
	.byte	0x85
	.uleb128 0x2
	.byte	0x8e
	.uleb128 0x1
	.byte	0x4
	.4byte	.LCFI2-.LCFI1
	.byte	0xe
	.uleb128 0x18
	.byte	0x4
	.4byte	.LCFI3-.LCFI2
	.byte	0xa
	.byte	0xe
	.uleb128 0xc
	.byte	0x4
	.4byte	.LCFI4-.LCFI3
	.byte	0xb
	.byte	0x4
	.4byte	.LCFI5-.LCFI4
	.byte	0xe
	.uleb128 0
	.byte	0xc4
	.byte	0xc5
	.byte	0xce
	.align	2
.LEFDE12:
.LSFDE14:
	.4byte	.LEFDE14-.LASFDE14
.LASFDE14:
	.4byte	.Lframe0
	.4byte	.LFB225
	.4byte	.LFE225-.LFB225
	.byte	0x4
	.4byte	.LCFI6-.LFB225
	.byte	0xe
	.uleb128 0x18
	.byte	0x84
	.uleb128 0x6
	.byte	0x85
	.uleb128 0x5
	.byte	0x86
	.uleb128 0x4
	.byte	0x87
	.uleb128 0x3
	.byte	0x88
	.uleb128 0x2
	.byte	0x8e
	.uleb128 0x1
	.byte	0x4
	.4byte	.LCFI7-.LCFI6
	.byte	0xe
	.uleb128 0x58
	.byte	0x4
	.4byte	.LCFI8-.LCFI7
	.byte	0xa
	.byte	0xe
	.uleb128 0x18
	.byte	0x4
	.4byte	.LCFI9-.LCFI8
	.byte	0xb
	.align	2
.LEFDE14:
.LSFDE16:
	.4byte	.LEFDE16-.LASFDE16
.LASFDE16:
	.4byte	.Lframe0
	.4byte	.LFB224
	.4byte	.LFE224-.LFB224
	.byte	0x4
	.4byte	.LCFI10-.LFB224
	.byte	0xe
	.uleb128 0x8
	.byte	0x83
	.uleb128 0x2
	.byte	0x8e
	.uleb128 0x1
	.byte	0x4
	.4byte	.LCFI11-.LCFI10
	.byte	0xe
	.uleb128 0
	.byte	0xc3
	.byte	0xce
	.align	2
.LEFDE16:
.LSFDE18:
	.4byte	.LEFDE18-.LASFDE18
.LASFDE18:
	.4byte	.Lframe0
	.4byte	.LFB226
	.4byte	.LFE226-.LFB226
	.byte	0x4
	.4byte	.LCFI12-.LFB226
	.byte	0xe
	.uleb128 0xc
	.byte	0x84
	.uleb128 0x3
	.byte	0x85
	.uleb128 0x2
	.byte	0x8e
	.uleb128 0x1
	.byte	0x4
	.4byte	.LCFI13-.LCFI12
	.byte	0xe
	.uleb128 0x18
	.byte	0x4
	.4byte	.LCFI14-.LCFI13
	.byte	0xa
	.byte	0xe
	.uleb128 0xc
	.byte	0x4
	.4byte	.LCFI15-.LCFI14
	.byte	0xb
	.byte	0x4
	.4byte	.LCFI16-.LCFI15
	.byte	0xe
	.uleb128 0
	.byte	0xc4
	.byte	0xc5
	.byte	0xce
	.byte	0x4
	.4byte	.LCFI17-.LCFI16
	.byte	0xe
	.uleb128 0x18
	.byte	0x84
	.uleb128 0x3
	.byte	0x85
	.uleb128 0x2
	.byte	0x8e
	.uleb128 0x1
	.align	2
.LEFDE18:
.LSFDE20:
	.4byte	.LEFDE20-.LASFDE20
.LASFDE20:
	.4byte	.Lframe0
	.4byte	.LFB228
	.4byte	.LFE228-.LFB228
	.byte	0x4
	.4byte	.LCFI18-.LFB228
	.byte	0xe
	.uleb128 0x10
	.byte	0x84
	.uleb128 0x4
	.byte	0x85
	.uleb128 0x3
	.byte	0x86
	.uleb128 0x2
	.byte	0x8e
	.uleb128 0x1
	.byte	0x4
	.4byte	.LCFI19-.LCFI18
	.byte	0xe
	.uleb128 0x60
	.byte	0x4
	.4byte	.LCFI20-.LCFI19
	.byte	0xa
	.byte	0xe
	.uleb128 0x10
	.byte	0x4
	.4byte	.LCFI21-.LCFI20
	.byte	0xb
	.align	2
.LEFDE20:
	.text
.Letext0:
	.file 3 "../../../../../../components/libraries/experimental_log/nrf_log_types.h"
	.file 4 "C:/Program Files (x86)/SEGGER/SEGGER Embedded Studio for ARM 4.50/include/stdint.h"