	.cpu cortex-m4
	.eabi_attribute 27, 1
	.eabi_attribute 28, 1
	.eabi_attribute 20, 1
	.eabi_attribute 21, 1
	.eabi_attribute 23, 3
	.eabi_attribute 24, 1
	.eabi_attribute 25, 1
	.eabi_attribute 26, 1
	.eabi_attribute 30, 1
	.eabi_attribute 34, 1
	.eabi_attribute 18, 4
	.file	"ble_advdata.c"
	.text
.Ltext0:
	.section	.text.sd_ble_gap_addr_get,"ax",%progbits
	.align	1
	.syntax unified
	.thumb
	.thumb_func
	.fpu fpv4-sp-d16
	.type	sd_ble_gap_addr_get, %function
sd_ble_gap_addr_get:
.LVL0:
.LFB1:
	.file 1 "../../../../../../components/softdevice/s132/headers/ble_gap.h"
	.loc 1 1649 109 view -0
	@ Naked Function: prologue and epilogue provided by programmer.
	@ args = 0, pretend = 0, frame = 0
	@ frame_needed = 0, uses_anonymous_args = 0
	.loc 1 1649 111 view .LVU1
	.syntax unified
@ 1649 "../../../../../../components/softdevice/s132/headers/ble_gap.h" 1
	svc #109
bx r14
@ 0 "" 2
.LVL1:
	.loc 1 1649 2 is_stmt 0 view .LVU2
	.thumb
	.syntax unified
.LFE1:
	.size	sd_ble_gap_addr_get, .-sd_ble_gap_addr_get
	.section	.text.sd_ble_gap_appearance_get,"ax",%progbits
	.align	1
	.syntax unified
	.thumb
	.thumb_func
	.fpu fpv4-sp-d16
	.type	sd_ble_gap_appearance_get, %function
sd_ble_gap_appearance_get:
.LVL2:
.LFB13:
	.loc 1 1958 115 is_stmt 1 view -0
	@ Naked Function: prologue and epilogue provided by programmer.
	@ args = 0, pretend = 0, frame = 0
	@ frame_needed = 0, uses_anonymous_args = 0
	.loc 1 1958 117 view .LVU4
	.syntax unified
@ 1958 "../../../../../../components/softdevice/s132/headers/ble_gap.h" 1
	svc #121
bx r14
@ 0 "" 2
.LVL3:
	.loc 1 1958 2 is_stmt 0 view .LVU5
	.thumb
	.syntax unified
.LFE13:
	.size	sd_ble_gap_appearance_get, .-sd_ble_gap_appearance_get
	.section	.text.sd_ble_gap_device_name_get,"ax",%progbits
	.align	1
	.syntax unified
	.thumb
	.thumb_func
	.fpu fpv4-sp-d16
	.type	sd_ble_gap_device_name_get, %function
sd_ble_gap_device_name_get:
.LVL4:
.LFB17:
	.loc 1 2014 130 is_stmt 1 view -0
	@ Naked Function: prologue and epilogue provided by programmer.
	@ args = 0, pretend = 0, frame = 0
	@ frame_needed = 0, uses_anonymous_args = 0
	.loc 1 2014 132 view .LVU7
	.syntax unified
@ 2014 "../../../../../../components/softdevice/s132/headers/ble_gap.h" 1
	svc #125
bx r14
@ 0 "" 2
.LVL5:
	.loc 1 2014 2 is_stmt 0 view .LVU8
	.thumb
	.syntax unified
.LFE17:
	.size	sd_ble_gap_device_name_get, .-sd_ble_gap_device_name_get
	.section	.text.sd_ble_uuid_encode,"ax",%progbits
	.align	1
	.syntax unified
	.thumb
	.thumb_func
	.fpu fpv4-sp-d16
	.type	sd_ble_uuid_encode, %function
sd_ble_uuid_encode:
.LVL6:
.LFB199:
	.file 2 "../../../../../../components/softdevice/s132/headers/ble.h"
	.loc 2 533 154 is_stmt 1 view -0
	@ Naked Function: prologue and epilogue provided by programmer.
	@ args = 0, pretend = 0, frame = 0
	@ frame_needed = 0, uses_anonymous_args = 0
	.loc 2 533 156 view .LVU10
	.syntax unified
@ 533 "../../../../../../components/softdevice/s132/headers/ble.h" 1
	svc #100
bx r14
@ 0 "" 2
.LVL7:
	.loc 2 533 2 is_stmt 0 view .LVU11
	.thumb
	.syntax unified
.LFE199:
	.size	sd_ble_uuid_encode, .-sd_ble_uuid_encode
	.section	.text.name_encode,"ax",%progbits
	.align	1
	.syntax unified
	.thumb
	.thumb_func
	.fpu fpv4-sp-d16
	.type	name_encode, %function
name_encode:
.LVL8:
.LFB223:
	.file 3 "C:\\nRF5_SDK_15.0.0_a53641a\\components\\ble\\common\\ble_advdata.c"
	.loc 3 101 1 is_stmt 1 view -0
	@ args = 0, pretend = 0, frame = 8
	@ frame_needed = 0, uses_anonymous_args = 0
	.loc 3 101 1 is_stmt 0 view .LVU13
	push	{r4, r5, r6, r7, lr}
.LCFI0:
	sub	sp, sp, #12
.LCFI1:
	mov	r5, r2
	.loc 3 102 5 is_stmt 1 view .LVU14
	.loc 3 103 5 view .LVU15
	.loc 3 104 5 view .LVU16
	.loc 3 105 5 view .LVU17
	.loc 3 109 5 view .LVU18
	.loc 3 109 58 is_stmt 0 view .LVU19
	ldrh	r2, [r0]
.LVL9:
	.loc 3 109 8 view .LVU20
	cmp	r2, #1
	beq	.L11
	mov	r6, r0
	mov	r7, r1
	.loc 3 115 5 is_stmt 1 view .LVU21
	.loc 3 115 13 is_stmt 0 view .LVU22
	ldrh	r4, [r5]
	.loc 3 115 24 view .LVU23
	adds	r2, r4, #2
	.loc 3 115 8 view .LVU24
	cmp	r2, r3
	bhi	.L12
	.loc 3 116 48 discriminator 1 view .LVU25
	ldrb	r2, [r0]	@ zero_extendqisi2
	.loc 3 115 51 discriminator 1 view .LVU26
	cmp	r2, #1
	bne	.L7
	.loc 3 117 51 view .LVU27
	ldrb	r2, [r0, #1]	@ zero_extendqisi2
	.loc 3 117 40 view .LVU28
	add	r2, r2, r4
	adds	r2, r2, #2
	.loc 3 116 61 view .LVU29
	cmp	r3, r2
	bcc	.L13
.L7:
	.loc 3 122 5 is_stmt 1 view .LVU30
	.loc 3 122 33 is_stmt 0 view .LVU31
	subs	r4, r3, r4
	uxth	r4, r4
	.loc 3 122 22 view .LVU32
	subs	r4, r4, #2
	uxth	r4, r4
.LVL10:
	.loc 3 123 5 is_stmt 1 view .LVU33
	.loc 3 123 19 is_stmt 0 view .LVU34
	strh	r4, [sp, #6]	@ movhi
	.loc 3 126 5 is_stmt 1 view .LVU35
	.loc 3 126 60 is_stmt 0 view .LVU36
	ldrh	r0, [r5]
.LVL11:
	.loc 3 126 58 view .LVU37
	adds	r0, r0, #2
	.loc 3 126 16 view .LVU38
	add	r1, sp, #6
.LVL12:
	.loc 3 126 16 view .LVU39
	add	r0, r0, r7
	bl	sd_ble_gap_device_name_get
.LVL13:
	.loc 3 128 5 is_stmt 1 view .LVU40
.LBB17:
	.loc 3 128 10 view .LVU41
	.loc 3 128 54 view .LVU42
	.loc 3 128 57 is_stmt 0 view .LVU43
	cbnz	r0, .L5
.LBE17:
	.loc 3 128 113 is_stmt 1 discriminator 2 view .LVU44
	.loc 3 131 5 discriminator 2 view .LVU45
	.loc 3 131 19 is_stmt 0 discriminator 2 view .LVU46
	ldrb	r3, [r6]	@ zero_extendqisi2
	.loc 3 131 8 discriminator 2 view .LVU47
	cmp	r3, #2
	beq	.L17
.L8:
	.loc 3 139 9 is_stmt 1 view .LVU48
.LVL14:
	.loc 3 143 9 view .LVU49
	.loc 3 143 12 is_stmt 0 view .LVU50
	cmp	r3, #1
	beq	.L18
.L10:
	.loc 3 152 13 is_stmt 1 view .LVU51
	.loc 3 152 27 is_stmt 0 view .LVU52
	strh	r4, [sp, #6]	@ movhi
	.loc 3 139 25 view .LVU53
	movs	r2, #8
.LVL15:
.L9:
	.loc 3 157 5 is_stmt 1 view .LVU54
	.loc 3 157 23 is_stmt 0 view .LVU55
	ldrh	r3, [sp, #6]
	.loc 3 157 8 view .LVU56
	cmp	r3, #254
	bhi	.L15
	.loc 3 163 5 is_stmt 1 view .LVU57
	.loc 3 163 20 is_stmt 0 view .LVU58
	ldrh	r1, [r5]
	.loc 3 163 33 view .LVU59
	adds	r3, r3, #1
	.loc 3 163 31 view .LVU60
	strb	r3, [r7, r1]
	.loc 3 164 5 is_stmt 1 view .LVU61
	.loc 3 164 15 is_stmt 0 view .LVU62
	ldrh	r3, [r5]
	adds	r3, r3, #1
	uxth	r3, r3
	strh	r3, [r5]	@ movhi
	.loc 3 165 5 is_stmt 1 view .LVU63
	.loc 3 165 31 is_stmt 0 view .LVU64
	strb	r2, [r7, r3]
	.loc 3 166 5 is_stmt 1 view .LVU65
	.loc 3 166 15 is_stmt 0 view .LVU66
	ldrh	r3, [r5]
	adds	r3, r3, #1
	.loc 3 167 5 is_stmt 1 view .LVU67
	.loc 3 167 15 is_stmt 0 view .LVU68
	ldrh	r2, [sp, #6]
.LVL16:
	.loc 3 167 15 view .LVU69
	uxtah	r3, r2, r3
	strh	r3, [r5]	@ movhi
	.loc 3 169 5 is_stmt 1 view .LVU70
.LVL17:
.L5:
	.loc 3 170 1 is_stmt 0 view .LVU71
	add	sp, sp, #12
.LCFI2:
	@ sp needed
	pop	{r4, r5, r6, r7, pc}
.LVL18:
.L17:
.LCFI3:
	.loc 3 131 75 discriminator 1 view .LVU72
	ldrh	r2, [sp, #6]
	.loc 3 131 57 discriminator 1 view .LVU73
	cmp	r2, r4
	bhi	.L8
	.loc 3 134 25 view .LVU74
	movs	r2, #9
	b	.L9
.LVL19:
.L18:
	.loc 3 144 27 discriminator 1 view .LVU75
	ldrb	r3, [r6, #1]	@ zero_extendqisi2
	.loc 3 143 62 discriminator 1 view .LVU76
	cmp	r3, r4
	bhi	.L10
	.loc 3 147 13 is_stmt 1 view .LVU77
	.loc 3 147 27 is_stmt 0 view .LVU78
	strh	r3, [sp, #6]	@ movhi
	.loc 3 139 25 view .LVU79
	movs	r2, #8
	.loc 3 147 27 view .LVU80
	b	.L9
.LVL20:
.L11:
	.loc 3 111 16 view .LVU81
	movs	r0, #7
.LVL21:
	.loc 3 111 16 view .LVU82
	b	.L5
.LVL22:
.L12:
	.loc 3 119 16 view .LVU83
	movs	r0, #12
.LVL23:
	.loc 3 119 16 view .LVU84
	b	.L5
.LVL24:
.L13:
	.loc 3 119 16 view .LVU85
	movs	r0, #12
.LVL25:
	.loc 3 119 16 view .LVU86
	b	.L5
.LVL26:
.L15:
	.loc 3 159 16 view .LVU87
	movs	r0, #12
.LVL27:
	.loc 3 159 16 view .LVU88
	b	.L5
.LFE223:
	.size	name_encode, .-name_encode
	.section	.text.appearance_encode,"ax",%progbits
	.align	1
	.syntax unified
	.thumb
	.thumb_func
	.fpu fpv4-sp-d16
	.type	appearance_encode, %function
appearance_encode:
.LVL28:
.LFB224:
	.loc 3 176 1 is_stmt 1 view -0
	@ args = 0, pretend = 0, frame = 8
	@ frame_needed = 0, uses_anonymous_args = 0
	.loc 3 177 5 view .LVU90
	.loc 3 178 5 view .LVU91
	.loc 3 181 5 view .LVU92
	.loc 3 181 11 is_stmt 0 view .LVU93
	ldrh	r3, [r1]
	.loc 3 181 22 view .LVU94
	adds	r3, r3, #4
	.loc 3 181 8 view .LVU95
	cmp	r3, r2
	bhi	.L21
	.loc 3 176 1 view .LVU96
	push	{r4, r5, lr}
.LCFI4:
	sub	sp, sp, #12
.LCFI5:
	mov	r5, r0
	mov	r4, r1
	.loc 3 187 5 is_stmt 1 view .LVU97
	.loc 3 187 16 is_stmt 0 view .LVU98
	add	r0, sp, #6
.LVL29:
	.loc 3 187 16 view .LVU99
	bl	sd_ble_gap_appearance_get
.LVL30:
	.loc 3 188 5 is_stmt 1 view .LVU100
.LBB18:
	.loc 3 188 10 view .LVU101
	.loc 3 188 54 view .LVU102
	.loc 3 188 57 is_stmt 0 view .LVU103
	cbnz	r0, .L19
.LBE18:
	.loc 3 188 113 is_stmt 1 discriminator 2 view .LVU104
	.loc 3 191 5 discriminator 2 view .LVU105
	.loc 3 191 20 is_stmt 0 discriminator 2 view .LVU106
	ldrh	r3, [r4]
	.loc 3 191 31 discriminator 2 view .LVU107
	movs	r2, #3
	strb	r2, [r5, r3]
	.loc 3 192 5 is_stmt 1 discriminator 2 view .LVU108
	.loc 3 192 15 is_stmt 0 discriminator 2 view .LVU109
	ldrh	r3, [r4]
	adds	r3, r3, #1
	uxth	r3, r3
	strh	r3, [r4]	@ movhi
	.loc 3 193 5 is_stmt 1 discriminator 2 view .LVU110
	.loc 3 193 31 is_stmt 0 discriminator 2 view .LVU111
	movs	r2, #25
	strb	r2, [r5, r3]
	.loc 3 194 5 is_stmt 1 discriminator 2 view .LVU112
	.loc 3 194 15 is_stmt 0 discriminator 2 view .LVU113
	ldrh	r3, [r4]
	adds	r3, r3, #1
	uxth	r3, r3
	strh	r3, [r4]	@ movhi
	.loc 3 195 5 is_stmt 1 discriminator 2 view .LVU114
	.loc 3 195 18 is_stmt 0 discriminator 2 view .LVU115
	ldrh	r2, [sp, #6]
	adds	r1, r5, r3
.LVL31:
.LBB19:
.LBI19:
	.file 4 "../../../../../../components/libraries/util/app_util.h"
	.loc 4 914 23 is_stmt 1 discriminator 2 view .LVU116
.LBB20:
	.loc 4 916 5 discriminator 2 view .LVU117
	.loc 4 916 23 is_stmt 0 discriminator 2 view .LVU118
	strb	r2, [r5, r3]
	.loc 4 917 5 is_stmt 1 discriminator 2 view .LVU119
	.loc 4 917 25 is_stmt 0 discriminator 2 view .LVU120
	lsrs	r2, r2, #8
.LVL32:
	.loc 4 917 23 discriminator 2 view .LVU121
	strb	r2, [r1, #1]
	.loc 4 918 5 is_stmt 1 discriminator 2 view .LVU122
.LVL33:
	.loc 4 918 5 is_stmt 0 discriminator 2 view .LVU123
.LBE20:
.LBE19:
	.loc 3 195 15 discriminator 2 view .LVU124
	ldrh	r3, [r4]
	adds	r3, r3, #2
	strh	r3, [r4]	@ movhi
	.loc 3 197 5 is_stmt 1 discriminator 2 view .LVU125
.L19:
	.loc 3 198 1 is_stmt 0 view .LVU126
	add	sp, sp, #12
.LCFI6:
	@ sp needed
	pop	{r4, r5, pc}
.LVL34:
.L21:
.LCFI7:
	.loc 3 183 16 view .LVU127
	movs	r0, #12
.LVL35:
	.loc 3 198 1 view .LVU128
	bx	lr
.LFE224:
	.size	appearance_encode, .-appearance_encode
	.section	.text.flags_encode,"ax",%progbits
	.align	1
	.syntax unified
	.thumb
	.thumb_func
	.fpu fpv4-sp-d16
	.type	flags_encode, %function
flags_encode:
.LVL36:
.LFB225:
	.loc 3 204 1 is_stmt 1 view -0
	@ args = 0, pretend = 0, frame = 0
	@ frame_needed = 0, uses_anonymous_args = 0
	@ link register save eliminated.
	.loc 3 204 1 is_stmt 0 view .LVU130
	push	{r4, r5}
.LCFI8:
	.loc 3 206 5 is_stmt 1 view .LVU131
	.loc 3 206 11 is_stmt 0 view .LVU132
	ldrh	r4, [r2]
	.loc 3 206 22 view .LVU133
	adds	r5, r4, #3
	.loc 3 206 8 view .LVU134
	cmp	r5, r3
	bhi	.L28
	.loc 3 212 5 is_stmt 1 view .LVU135
	.loc 3 212 31 is_stmt 0 view .LVU136
	movs	r3, #2
.LVL37:
	.loc 3 212 31 view .LVU137
	strb	r3, [r1, r4]
	.loc 3 213 5 is_stmt 1 view .LVU138
	.loc 3 213 15 is_stmt 0 view .LVU139
	ldrh	r3, [r2]
	adds	r3, r3, #1
	uxth	r3, r3
	strh	r3, [r2]	@ movhi
	.loc 3 214 5 is_stmt 1 view .LVU140
	.loc 3 214 31 is_stmt 0 view .LVU141
	movs	r4, #1
	strb	r4, [r1, r3]
	.loc 3 215 5 is_stmt 1 view .LVU142
	.loc 3 215 15 is_stmt 0 view .LVU143
	ldrh	r3, [r2]
	add	r3, r3, r4
	uxth	r3, r3
	strh	r3, [r2]	@ movhi
	.loc 3 216 5 is_stmt 1 view .LVU144
	.loc 3 216 31 is_stmt 0 view .LVU145
	strb	r0, [r1, r3]
	.loc 3 217 5 is_stmt 1 view .LVU146
	.loc 3 217 15 is_stmt 0 view .LVU147
	ldrh	r3, [r2]
	add	r3, r3, r4
	strh	r3, [r2]	@ movhi
	.loc 3 219 5 is_stmt 1 view .LVU148
	.loc 3 219 12 is_stmt 0 view .LVU149
	movs	r0, #0
.LVL38:
.L26:
	.loc 3 220 1 view .LVU150
	pop	{r4, r5}
.LCFI9:
	bx	lr
.LVL39:
.L28:
.LCFI10:
	.loc 3 208 16 view .LVU151
	movs	r0, #12
.LVL40:
	.loc 3 208 16 view .LVU152
	b	.L26
.LFE225:
	.size	flags_encode, .-flags_encode
	.section	.text.tx_power_level_encode,"ax",%progbits
	.align	1
	.syntax unified
	.thumb
	.thumb_func
	.fpu fpv4-sp-d16
	.type	tx_power_level_encode, %function
tx_power_level_encode:
.LVL41:
.LFB226:
	.loc 3 226 1 is_stmt 1 view -0
	@ args = 0, pretend = 0, frame = 0
	@ frame_needed = 0, uses_anonymous_args = 0
	@ link register save eliminated.
	.loc 3 226 1 is_stmt 0 view .LVU154
	push	{r4, r5}
.LCFI11:
	.loc 3 228 5 is_stmt 1 view .LVU155
	.loc 3 228 11 is_stmt 0 view .LVU156
	ldrh	r4, [r2]
	.loc 3 228 22 view .LVU157
	adds	r5, r4, #3
	.loc 3 228 8 view .LVU158
	cmp	r5, r3
	bhi	.L32
	.loc 3 234 5 is_stmt 1 view .LVU159
	.loc 3 234 31 is_stmt 0 view .LVU160
	movs	r3, #2
.LVL42:
	.loc 3 234 31 view .LVU161
	strb	r3, [r1, r4]
	.loc 3 236 5 is_stmt 1 view .LVU162
	.loc 3 236 15 is_stmt 0 view .LVU163
	ldrh	r3, [r2]
	adds	r3, r3, #1
	uxth	r3, r3
	strh	r3, [r2]	@ movhi
	.loc 3 237 5 is_stmt 1 view .LVU164
	.loc 3 237 31 is_stmt 0 view .LVU165
	movs	r4, #10
	strb	r4, [r1, r3]
	.loc 3 238 5 is_stmt 1 view .LVU166
	.loc 3 238 15 is_stmt 0 view .LVU167
	ldrh	r3, [r2]
	adds	r3, r3, #1
	uxth	r3, r3
	strh	r3, [r2]	@ movhi
	.loc 3 239 5 is_stmt 1 view .LVU168
	.loc 3 239 31 is_stmt 0 view .LVU169
	strb	r0, [r1, r3]
	.loc 3 240 5 is_stmt 1 view .LVU170
	.loc 3 240 15 is_stmt 0 view .LVU171
	ldrh	r3, [r2]
	adds	r3, r3, #1
	strh	r3, [r2]	@ movhi
	.loc 3 242 5 is_stmt 1 view .LVU172
	.loc 3 242 12 is_stmt 0 view .LVU173
	movs	r0, #0
.LVL43:
.L30:
	.loc 3 243 1 view .LVU174
	pop	{r4, r5}
.LCFI12:
	bx	lr
.LVL44:
.L32:
.LCFI13:
	.loc 3 230 16 view .LVU175
	movs	r0, #12
.LVL45:
	.loc 3 230 16 view .LVU176
	b	.L30
.LFE226:
	.size	tx_power_level_encode, .-tx_power_level_encode
	.section	.text.uuid_list_sized_encode,"ax",%progbits
	.align	1
	.syntax unified
	.thumb
	.thumb_func
	.fpu fpv4-sp-d16
	.type	uuid_list_sized_encode, %function
uuid_list_sized_encode:
.LVL46:
.LFB227:
	.loc 3 252 1 is_stmt 1 view -0
	@ args = 8, pretend = 0, frame = 16
	@ frame_needed = 0, uses_anonymous_args = 0
	.loc 3 252 1 is_stmt 0 view .LVU178
	push	{r4, r5, r6, r7, r8, r9, r10, fp, lr}
.LCFI14:
	sub	sp, sp, #20
.LCFI15:
	mov	r5, r0
	mov	fp, r1
	mov	r7, r2
	mov	r9, r3
	ldr	r6, [sp, #56]
	ldrh	r10, [sp, #60]
	.loc 3 253 5 is_stmt 1 view .LVU179
	.loc 3 254 4 view .LVU180
.LVL47:
	.loc 3 255 5 view .LVU181
	.loc 3 255 14 is_stmt 0 view .LVU182
	ldrh	r3, [r6]
.LVL48:
	.loc 3 255 14 view .LVU183
	str	r3, [sp, #4]
.LVL49:
	.loc 3 256 5 is_stmt 1 view .LVU184
	.loc 3 258 5 view .LVU185
	.loc 3 254 13 is_stmt 0 view .LVU186
	mov	r8, #0
	.loc 3 258 12 view .LVU187
	mov	r4, r8
	.loc 3 258 5 view .LVU188
	b	.L35
.LVL50:
.L42:
.LBB21:
.LBB22:
	.loc 3 271 21 view .LVU189
	movs	r1, #2
	b	.L38
.LVL51:
.L39:
	.loc 3 289 13 is_stmt 1 view .LVU190
	.loc 3 289 81 is_stmt 0 view .LVU191
	ldrh	r2, [r6]
	.loc 3 289 24 view .LVU192
	add	r2, r2, r9
	add	r1, sp, #11
.LVL52:
	.loc 3 289 24 view .LVU193
	add	r0, sp, #12
.LVL53:
	.loc 3 289 24 view .LVU194
	bl	sd_ble_uuid_encode
.LVL54:
	.loc 3 290 13 is_stmt 1 view .LVU195
.LBB23:
	.loc 3 290 18 view .LVU196
	.loc 3 290 62 view .LVU197
	.loc 3 290 65 is_stmt 0 view .LVU198
	mov	r3, r0
	cmp	r0, #0
	bne	.L34
.LBE23:
	.loc 3 290 121 is_stmt 1 discriminator 2 view .LVU199
	.loc 3 291 13 discriminator 2 view .LVU200
	.loc 3 291 23 is_stmt 0 discriminator 2 view .LVU201
	ldrb	r3, [sp, #11]	@ zero_extendqisi2
	ldrh	r2, [r6]
	add	r3, r3, r2
	strh	r3, [r6]	@ movhi
.LVL55:
.L37:
	.loc 3 291 23 discriminator 2 view .LVU202
.LBE22:
.LBE21:
	.loc 3 258 44 is_stmt 1 view .LVU203
	.loc 3 258 45 is_stmt 0 view .LVU204
	adds	r4, r4, #1
.LVL56:
.L35:
	.loc 3 258 17 is_stmt 1 discriminator 1 view .LVU205
	.loc 3 258 32 is_stmt 0 discriminator 1 view .LVU206
	ldrh	r3, [r5]
	.loc 3 258 5 discriminator 1 view .LVU207
	cmp	r3, r4
	ble	.L47
.LBB26:
	.loc 3 260 9 is_stmt 1 view .LVU208
	.loc 3 261 9 view .LVU209
	.loc 3 262 9 view .LVU210
	.loc 3 262 38 is_stmt 0 view .LVU211
	ldr	r3, [r5, #4]
	.loc 3 262 20 view .LVU212
	ldr	r0, [r3, r4, lsl #2]	@ unaligned
	str	r0, [sp, #12]
	.loc 3 265 9 is_stmt 1 view .LVU213
	.loc 3 265 20 is_stmt 0 view .LVU214
	movs	r2, #0
	add	r1, sp, #11
	add	r0, sp, #12
	bl	sd_ble_uuid_encode
.LVL57:
	.loc 3 266 9 is_stmt 1 view .LVU215
.LBB24:
	.loc 3 266 14 view .LVU216
	.loc 3 266 58 view .LVU217
	.loc 3 266 61 is_stmt 0 view .LVU218
	mov	r3, r0
	cbnz	r0, .L34
.LBE24:
	.loc 3 266 117 is_stmt 1 discriminator 2 view .LVU219
	.loc 3 269 9 discriminator 2 view .LVU220
	.loc 3 269 26 is_stmt 0 discriminator 2 view .LVU221
	ldrb	r3, [sp, #11]	@ zero_extendqisi2
	.loc 3 269 12 discriminator 2 view .LVU222
	cmp	r3, r7
	bne	.L37
.LBB25:
	.loc 3 271 13 is_stmt 1 view .LVU223
	.loc 3 271 21 is_stmt 0 view .LVU224
	cmp	r8, #0
	beq	.L42
	movs	r1, #0
.L38:
.LVL58:
	.loc 3 274 13 is_stmt 1 discriminator 4 view .LVU225
	.loc 3 274 19 is_stmt 0 discriminator 4 view .LVU226
	ldrh	r2, [r6]
	.loc 3 274 30 discriminator 4 view .LVU227
	add	r3, r3, r2
	.loc 3 274 45 discriminator 4 view .LVU228
	add	r3, r3, r1
	.loc 3 274 16 discriminator 4 view .LVU229
	cmp	r3, r10
	bgt	.L43
	.loc 3 279 13 is_stmt 1 view .LVU230
	.loc 3 279 16 is_stmt 0 view .LVU231
	cmp	r8, #0
	bne	.L39
	.loc 3 282 17 is_stmt 1 view .LVU232
	.loc 3 282 27 is_stmt 0 view .LVU233
	adds	r2, r2, #1
	uxth	r2, r2
	strh	r2, [r6]	@ movhi
	.loc 3 283 17 is_stmt 1 view .LVU234
	.loc 3 283 43 is_stmt 0 view .LVU235
	strb	fp, [r9, r2]
	.loc 3 284 17 is_stmt 1 view .LVU236
	.loc 3 284 27 is_stmt 0 view .LVU237
	ldrh	r3, [r6]
	adds	r3, r3, #1
	strh	r3, [r6]	@ movhi
	.loc 3 285 17 is_stmt 1 view .LVU238
.LVL59:
	.loc 3 285 36 is_stmt 0 view .LVU239
	mov	r8, #1
	b	.L39
.LVL60:
.L43:
	.loc 3 276 24 view .LVU240
	movs	r3, #12
	b	.L34
.LVL61:
.L47:
	.loc 3 276 24 view .LVU241
.LBE25:
.LBE26:
	.loc 3 295 5 is_stmt 1 view .LVU242
	.loc 3 295 8 is_stmt 0 view .LVU243
	cmp	r8, #0
	beq	.L44
	.loc 3 298 9 is_stmt 1 view .LVU244
	.loc 3 298 19 is_stmt 0 view .LVU245
	ldrh	r3, [r6]
	.loc 3 298 30 view .LVU246
	ldr	r2, [sp, #4]
	subs	r3, r3, r2
	uxth	r3, r3
	.loc 3 298 16 view .LVU247
	subs	r3, r3, #1
	uxth	r3, r3
.LVL62:
	.loc 3 300 9 is_stmt 1 view .LVU248
	.loc 3 300 12 is_stmt 0 view .LVU249
	cmp	r3, #255
	bhi	.L45
	.loc 3 304 9 is_stmt 1 view .LVU250
	.loc 3 304 35 is_stmt 0 view .LVU251
	strb	r3, [r9, r2]
	.loc 3 307 12 view .LVU252
	movs	r3, #0
.LVL63:
	.loc 3 307 12 view .LVU253
	b	.L34
.L44:
	.loc 3 307 12 view .LVU254
	movs	r3, #0
.L34:
	.loc 3 308 1 view .LVU255
	mov	r0, r3
	add	sp, sp, #20
.LCFI16:
	@ sp needed
	pop	{r4, r5, r6, r7, r8, r9, r10, fp, pc}
.LVL64:
.L45:
.LCFI17:
	.loc 3 302 20 view .LVU256
	movs	r3, #12
.LVL65:
	.loc 3 302 20 view .LVU257
	b	.L34
.LFE227:
	.size	uuid_list_sized_encode, .-uuid_list_sized_encode
	.section	.text.uuid_list_encode,"ax",%progbits
	.align	1
	.syntax unified
	.thumb
	.thumb_func
	.fpu fpv4-sp-d16
	.type	uuid_list_encode, %function
uuid_list_encode:
.LVL66:
.LFB228:
	.loc 3 317 1 is_stmt 1 view -0
	@ args = 8, pretend = 0, frame = 0
	@ frame_needed = 0, uses_anonymous_args = 0
	.loc 3 317 1 is_stmt 0 view .LVU259
	push	{r4, r5, r6, r7, r8, lr}
.LCFI18:
	sub	sp, sp, #8
.LCFI19:
	mov	r4, r0
	mov	r5, r2
	mov	r6, r3
	ldr	r7, [sp, #32]
	ldrh	r8, [sp, #36]
	.loc 3 318 5 is_stmt 1 view .LVU260
	.loc 3 321 5 view .LVU261
	.loc 3 321 16 is_stmt 0 view .LVU262
	str	r8, [sp, #4]
	str	r7, [sp]
	movs	r2, #2
.LVL67:
	.loc 3 321 16 view .LVU263
	bl	uuid_list_sized_encode
.LVL68:
	.loc 3 327 5 is_stmt 1 view .LVU264
.LBB27:
	.loc 3 327 10 view .LVU265
	.loc 3 327 54 view .LVU266
	.loc 3 327 57 is_stmt 0 view .LVU267
	cbz	r0, .L51
.LVL69:
.L48:
	.loc 3 327 57 view .LVU268
.LBE27:
	.loc 3 339 1 view .LVU269
	add	sp, sp, #8
.LCFI20:
	@ sp needed
	pop	{r4, r5, r6, r7, r8, pc}
.LVL70:
.L51:
.LCFI21:
	.loc 3 327 113 is_stmt 1 discriminator 2 view .LVU270
	.loc 3 330 5 discriminator 2 view .LVU271
	.loc 3 330 16 is_stmt 0 discriminator 2 view .LVU272
	str	r8, [sp, #4]
	str	r7, [sp]
	mov	r3, r6
	movs	r2, #16
	mov	r1, r5
	mov	r0, r4
	bl	uuid_list_sized_encode
.LVL71:
	.loc 3 336 5 is_stmt 1 discriminator 2 view .LVU273
.LBB28:
	.loc 3 336 10 discriminator 2 view .LVU274
	.loc 3 336 54 discriminator 2 view .LVU275
	b	.L48
.LBE28:
.LFE228:
	.size	uuid_list_encode, .-uuid_list_encode
	.section	.text.conn_int_check,"ax",%progbits
	.align	1
	.syntax unified
	.thumb
	.thumb_func
	.fpu fpv4-sp-d16
	.type	conn_int_check, %function
conn_int_check:
.LVL72:
.LFB229:
	.loc 3 343 1 view -0
	@ args = 0, pretend = 0, frame = 0
	@ frame_needed = 0, uses_anonymous_args = 0
	@ link register save eliminated.
	.loc 3 345 5 view .LVU277
	.loc 3 345 20 is_stmt 0 view .LVU278
	ldrh	r3, [r0]
	.loc 3 345 8 view .LVU279
	cmp	r3, #5
	bls	.L54
	.loc 3 347 54 discriminator 1 view .LVU280
	subw	r2, r3, #3201
	uxth	r2, r2
	.loc 3 345 50 discriminator 1 view .LVU281
	movw	r1, #62333
	cmp	r2, r1
	bls	.L55
	.loc 3 356 5 is_stmt 1 view .LVU282
	.loc 3 356 20 is_stmt 0 view .LVU283
	ldrh	r2, [r0, #2]
	.loc 3 356 8 view .LVU284
	cmp	r2, #5
	bls	.L56
	.loc 3 358 54 discriminator 1 view .LVU285
	subw	r1, r2, #3201
	uxth	r1, r1
	.loc 3 356 50 discriminator 1 view .LVU286
	movw	r0, #62333
.LVL73:
	.loc 3 356 50 discriminator 1 view .LVU287
	cmp	r1, r0
	bls	.L57
	.loc 3 367 5 is_stmt 1 view .LVU288
	.loc 3 367 8 is_stmt 0 view .LVU289
	movw	r1, #65535
	cmp	r3, r1
	beq	.L58
	.loc 3 367 51 discriminator 1 view .LVU290
	cmp	r2, r1
	beq	.L59
	.loc 3 368 51 view .LVU291
	cmp	r3, r2
	bhi	.L60
	.loc 3 375 12 view .LVU292
	movs	r0, #0
	bx	lr
.LVL74:
.L54:
	.loc 3 352 16 view .LVU293
	movs	r0, #7
.LVL75:
	.loc 3 352 16 view .LVU294
	bx	lr
.LVL76:
.L55:
	.loc 3 352 16 view .LVU295
	movs	r0, #7
.LVL77:
	.loc 3 352 16 view .LVU296
	bx	lr
.LVL78:
.L56:
	.loc 3 363 16 view .LVU297
	movs	r0, #7
.LVL79:
	.loc 3 363 16 view .LVU298
	bx	lr
.L57:
	movs	r0, #7
	bx	lr
.L58:
	.loc 3 375 12 view .LVU299
	movs	r0, #0
	bx	lr
.L59:
	movs	r0, #0
	bx	lr
.L60:
	.loc 3 372 16 view .LVU300
	movs	r0, #7
	.loc 3 376 1 view .LVU301
	bx	lr
.LFE229:
	.size	conn_int_check, .-conn_int_check
	.section	.text.conn_int_encode,"ax",%progbits
	.align	1
	.syntax unified
	.thumb
	.thumb_func
	.fpu fpv4-sp-d16
	.type	conn_int_encode, %function
conn_int_encode:
.LVL80:
.LFB230:
	.loc 3 383 1 is_stmt 1 view -0
	@ args = 0, pretend = 0, frame = 0
	@ frame_needed = 0, uses_anonymous_args = 0
	.loc 3 383 1 is_stmt 0 view .LVU303
	push	{r3, r4, r5, r6, r7, lr}
.LCFI22:
	mov	r4, r2
	.loc 3 384 5 is_stmt 1 view .LVU304
	.loc 3 387 5 view .LVU305
	.loc 3 387 11 is_stmt 0 view .LVU306
	ldrh	r7, [r2]
	.loc 3 387 22 view .LVU307
	adds	r2, r7, #6
.LVL81:
	.loc 3 387 8 view .LVU308
	cmp	r2, r3
	bhi	.L63
	mov	r6, r0
	mov	r5, r1
	.loc 3 393 5 is_stmt 1 view .LVU309
	.loc 3 393 16 is_stmt 0 view .LVU310
	bl	conn_int_check
.LVL82:
	.loc 3 394 5 is_stmt 1 view .LVU311
.LBB29:
	.loc 3 394 10 view .LVU312
	.loc 3 394 54 view .LVU313
	.loc 3 394 57 is_stmt 0 view .LVU314
	cbnz	r0, .L61
.LBE29:
	.loc 3 394 113 is_stmt 1 discriminator 2 view .LVU315
	.loc 3 397 5 discriminator 2 view .LVU316
	.loc 3 397 31 is_stmt 0 discriminator 2 view .LVU317
	movs	r3, #5
	strb	r3, [r5, r7]
	.loc 3 398 5 is_stmt 1 discriminator 2 view .LVU318
	.loc 3 398 15 is_stmt 0 discriminator 2 view .LVU319
	ldrh	r3, [r4]
	adds	r3, r3, #1
	uxth	r3, r3
	strh	r3, [r4]	@ movhi
	.loc 3 399 5 is_stmt 1 discriminator 2 view .LVU320
	.loc 3 399 31 is_stmt 0 discriminator 2 view .LVU321
	movs	r2, #18
	strb	r2, [r5, r3]
	.loc 3 400 5 is_stmt 1 discriminator 2 view .LVU322
	.loc 3 400 15 is_stmt 0 discriminator 2 view .LVU323
	ldrh	r3, [r4]
	adds	r3, r3, #1
	uxth	r3, r3
	strh	r3, [r4]	@ movhi
	.loc 3 403 5 is_stmt 1 discriminator 2 view .LVU324
	.loc 3 403 18 is_stmt 0 discriminator 2 view .LVU325
	ldrh	r2, [r6]
	adds	r1, r5, r3
.LVL83:
.LBB30:
.LBI30:
	.loc 4 914 23 is_stmt 1 discriminator 2 view .LVU326
.LBB31:
	.loc 4 916 5 discriminator 2 view .LVU327
	.loc 4 916 23 is_stmt 0 discriminator 2 view .LVU328
	strb	r2, [r5, r3]
	.loc 4 917 5 is_stmt 1 discriminator 2 view .LVU329
	.loc 4 917 25 is_stmt 0 discriminator 2 view .LVU330
	lsrs	r2, r2, #8
.LVL84:
	.loc 4 917 23 discriminator 2 view .LVU331
	strb	r2, [r1, #1]
	.loc 4 918 5 is_stmt 1 discriminator 2 view .LVU332
.LVL85:
	.loc 4 918 5 is_stmt 0 discriminator 2 view .LVU333
.LBE31:
.LBE30:
	.loc 3 403 15 discriminator 2 view .LVU334
	ldrh	r3, [r4]
	adds	r3, r3, #2
	uxth	r3, r3
	strh	r3, [r4]	@ movhi
	.loc 3 404 5 is_stmt 1 discriminator 2 view .LVU335
	.loc 3 404 18 is_stmt 0 discriminator 2 view .LVU336
	ldrh	r2, [r6, #2]
	adds	r1, r5, r3
.LVL86:
.LBB32:
.LBI32:
	.loc 4 914 23 is_stmt 1 discriminator 2 view .LVU337
.LBB33:
	.loc 4 916 5 discriminator 2 view .LVU338
	.loc 4 916 23 is_stmt 0 discriminator 2 view .LVU339
	strb	r2, [r5, r3]
	.loc 4 917 5 is_stmt 1 discriminator 2 view .LVU340
	.loc 4 917 25 is_stmt 0 discriminator 2 view .LVU341
	lsrs	r2, r2, #8
.LVL87:
	.loc 4 917 23 discriminator 2 view .LVU342
	strb	r2, [r1, #1]
	.loc 4 918 5 is_stmt 1 discriminator 2 view .LVU343
.LVL88:
	.loc 4 918 5 is_stmt 0 discriminator 2 view .LVU344
.LBE33:
.LBE32:
	.loc 3 404 15 discriminator 2 view .LVU345
	ldrh	r3, [r4]
	adds	r3, r3, #2
	strh	r3, [r4]	@ movhi
	.loc 3 406 5 is_stmt 1 discriminator 2 view .LVU346
.LVL89:
.L61:
	.loc 3 407 1 is_stmt 0 view .LVU347
	pop	{r3, r4, r5, r6, r7, pc}
.LVL90:
.L63:
	.loc 3 389 16 view .LVU348
	movs	r0, #12
.LVL91:
	.loc 3 389 16 view .LVU349
	b	.L61
.LFE230:
	.size	conn_int_encode, .-conn_int_encode
	.section	.text.ble_device_addr_encode,"ax",%progbits
	.align	1
	.syntax unified
	.thumb
	.thumb_func
	.fpu fpv4-sp-d16
	.type	ble_device_addr_encode, %function
ble_device_addr_encode:
.LVL92:
.LFB222:
	.loc 3 62 1 is_stmt 1 view -0
	@ args = 0, pretend = 0, frame = 8
	@ frame_needed = 0, uses_anonymous_args = 0
	.loc 3 62 1 is_stmt 0 view .LVU351
	push	{r4, r5, r6, lr}
.LCFI23:
	sub	sp, sp, #8
.LCFI24:
	.loc 3 63 5 is_stmt 1 view .LVU352
	.loc 3 64 5 view .LVU353
	.loc 3 67 5 view .LVU354
	.loc 3 67 11 is_stmt 0 view .LVU355
	ldrh	r3, [r1]
	.loc 3 67 22 view .LVU356
	adds	r3, r3, #9
	.loc 3 67 8 view .LVU357
	cmp	r3, r2
	bhi	.L69
	mov	r5, r0
	mov	r4, r1
	.loc 3 73 5 is_stmt 1 view .LVU358
	.loc 3 73 16 is_stmt 0 view .LVU359
	mov	r0, sp
.LVL93:
	.loc 3 73 16 view .LVU360
	bl	sd_ble_gap_addr_get
.LVL94:
	.loc 3 74 5 is_stmt 1 view .LVU361
.LBB34:
	.loc 3 74 10 view .LVU362
	.loc 3 74 54 view .LVU363
	.loc 3 74 57 is_stmt 0 view .LVU364
	mov	r6, r0
	cbnz	r0, .L65
.LBE34:
	.loc 3 74 113 is_stmt 1 discriminator 2 view .LVU365
	.loc 3 77 5 discriminator 2 view .LVU366
	.loc 3 77 20 is_stmt 0 discriminator 2 view .LVU367
	ldrh	r3, [r4]
	.loc 3 77 31 discriminator 2 view .LVU368
	movs	r2, #8
	strb	r2, [r5, r3]
	.loc 3 79 5 is_stmt 1 discriminator 2 view .LVU369
	.loc 3 79 15 is_stmt 0 discriminator 2 view .LVU370
	ldrh	r3, [r4]
	adds	r3, r3, #1
	uxth	r3, r3
	strh	r3, [r4]	@ movhi
	.loc 3 80 5 is_stmt 1 discriminator 2 view .LVU371
	.loc 3 80 31 is_stmt 0 discriminator 2 view .LVU372
	movs	r2, #27
	strb	r2, [r5, r3]
	.loc 3 81 5 is_stmt 1 discriminator 2 view .LVU373
	.loc 3 81 15 is_stmt 0 discriminator 2 view .LVU374
	ldrh	r0, [r4]
.LVL95:
	.loc 3 81 15 discriminator 2 view .LVU375
	adds	r0, r0, #1
	uxth	r0, r0
	strh	r0, [r4]	@ movhi
	.loc 3 82 5 is_stmt 1 discriminator 2 view .LVU376
	movs	r2, #6
	add	r1, sp, #1
	add	r0, r0, r5
	bl	memcpy
.LVL96:
	.loc 3 83 5 discriminator 2 view .LVU377
	.loc 3 83 15 is_stmt 0 discriminator 2 view .LVU378
	ldrh	r3, [r4]
	adds	r3, r3, #6
	uxth	r3, r3
	strh	r3, [r4]	@ movhi
	.loc 3 84 5 is_stmt 1 discriminator 2 view .LVU379
	.loc 3 84 14 is_stmt 0 discriminator 2 view .LVU380
	ldrb	r2, [sp]	@ zero_extendqisi2
	.loc 3 84 8 discriminator 2 view .LVU381
	tst	r2, #254
	bne	.L67
	.loc 3 86 9 is_stmt 1 view .LVU382
	.loc 3 86 35 is_stmt 0 view .LVU383
	movs	r2, #0
	strb	r2, [r5, r3]
.L68:
	.loc 3 92 5 is_stmt 1 view .LVU384
	.loc 3 92 15 is_stmt 0 view .LVU385
	ldrh	r3, [r4]
	adds	r3, r3, #1
	strh	r3, [r4]	@ movhi
	.loc 3 94 5 is_stmt 1 view .LVU386
	.loc 3 94 12 is_stmt 0 view .LVU387
	b	.L65
.L67:
	.loc 3 90 9 is_stmt 1 view .LVU388
	.loc 3 90 35 is_stmt 0 view .LVU389
	movs	r2, #1
	strb	r2, [r5, r3]
	b	.L68
.LVL97:
.L69:
	.loc 3 69 16 view .LVU390
	movs	r6, #12
.LVL98:
.L65:
	.loc 3 95 1 view .LVU391
	mov	r0, r6
	add	sp, sp, #8
.LCFI25:
	@ sp needed
	pop	{r4, r5, r6, pc}
.LFE222:
	.size	ble_device_addr_encode, .-ble_device_addr_encode
	.section	.text.manuf_specific_data_encode,"ax",%progbits
	.align	1
	.syntax unified
	.thumb
	.thumb_func
	.fpu fpv4-sp-d16
	.type	manuf_specific_data_encode, %function
manuf_specific_data_encode:
.LVL99:
.LFB231:
	.loc 3 414 1 is_stmt 1 view -0
	@ args = 0, pretend = 0, frame = 0
	@ frame_needed = 0, uses_anonymous_args = 0
	.loc 3 414 1 is_stmt 0 view .LVU393
	push	{r4, r5, r6, lr}
.LCFI26:
	mov	r5, r0
	mov	r0, r1
.LVL100:
	.loc 3 414 1 view .LVU394
	mov	r4, r2
	.loc 3 415 5 is_stmt 1 view .LVU395
	.loc 3 415 53 is_stmt 0 view .LVU396
	ldrh	r2, [r5, #4]
.LVL101:
	.loc 3 415 14 view .LVU397
	adds	r2, r2, #2
.LVL102:
	.loc 3 418 5 is_stmt 1 view .LVU398
	.loc 3 418 11 is_stmt 0 view .LVU399
	ldrh	r6, [r4]
	.loc 3 418 36 view .LVU400
	adds	r1, r6, r2
.LVL103:
	.loc 3 418 36 view .LVU401
	adds	r1, r1, #2
	.loc 3 418 8 view .LVU402
	cmp	r1, r3
	bhi	.L73
	.loc 3 424 5 is_stmt 1 view .LVU403
	.loc 3 424 8 is_stmt 0 view .LVU404
	cmp	r2, #254
	bhi	.L74
	.loc 3 430 5 is_stmt 1 view .LVU405
	.loc 3 430 33 is_stmt 0 view .LVU406
	adds	r2, r2, #1
.LVL104:
	.loc 3 430 31 view .LVU407
	strb	r2, [r0, r6]
	.loc 3 431 5 is_stmt 1 view .LVU408
	.loc 3 431 15 is_stmt 0 view .LVU409
	ldrh	r3, [r4]
.LVL105:
	.loc 3 431 15 view .LVU410
	adds	r3, r3, #1
	uxth	r3, r3
	strh	r3, [r4]	@ movhi
	.loc 3 432 5 is_stmt 1 view .LVU411
	.loc 3 432 31 is_stmt 0 view .LVU412
	movs	r2, #255
.LVL106:
	.loc 3 432 31 view .LVU413
	strb	r2, [r0, r3]
	.loc 3 433 5 is_stmt 1 view .LVU414
	.loc 3 433 15 is_stmt 0 view .LVU415
	ldrh	r3, [r4]
	adds	r3, r3, #1
	uxth	r3, r3
	strh	r3, [r4]	@ movhi
	.loc 3 436 5 is_stmt 1 view .LVU416
	.loc 3 436 18 is_stmt 0 view .LVU417
	ldrh	r2, [r5]
	adds	r1, r0, r3
.LVL107:
.LBB35:
.LBI35:
	.loc 4 914 23 is_stmt 1 view .LVU418
.LBB36:
	.loc 4 916 5 view .LVU419
	.loc 4 916 23 is_stmt 0 view .LVU420
	strb	r2, [r0, r3]
	.loc 4 917 5 is_stmt 1 view .LVU421
	.loc 4 917 25 is_stmt 0 view .LVU422
	lsrs	r2, r2, #8
.LVL108:
	.loc 4 917 23 view .LVU423
	strb	r2, [r1, #1]
	.loc 4 918 5 is_stmt 1 view .LVU424
.LVL109:
	.loc 4 918 5 is_stmt 0 view .LVU425
.LBE36:
.LBE35:
	.loc 3 436 15 view .LVU426
	ldrh	r3, [r4]
	adds	r3, r3, #2
	uxth	r3, r3
	strh	r3, [r4]	@ movhi
	.loc 3 439 5 is_stmt 1 view .LVU427
	.loc 3 439 30 is_stmt 0 view .LVU428
	ldrh	r2, [r5, #4]
	.loc 3 439 8 view .LVU429
	cbz	r2, .L75
	.loc 3 441 9 is_stmt 1 view .LVU430
	.loc 3 441 34 is_stmt 0 view .LVU431
	ldr	r1, [r5, #8]
	.loc 3 441 12 view .LVU432
	cbz	r1, .L76
	.loc 3 445 9 is_stmt 1 view .LVU433
	add	r0, r0, r3
.LVL110:
	.loc 3 445 9 is_stmt 0 view .LVU434
	bl	memcpy
.LVL111:
	.loc 3 446 9 is_stmt 1 view .LVU435
	.loc 3 446 43 is_stmt 0 view .LVU436
	ldrh	r3, [r5, #4]
	.loc 3 446 19 view .LVU437
	ldrh	r2, [r4]
	add	r3, r3, r2
	strh	r3, [r4]	@ movhi
	.loc 3 449 12 view .LVU438
	movs	r0, #0
	b	.L71
.LVL112:
.L73:
	.loc 3 420 16 view .LVU439
	movs	r0, #12
.LVL113:
	.loc 3 420 16 view .LVU440
	b	.L71
.LVL114:
.L74:
	.loc 3 426 16 view .LVU441
	movs	r0, #12
.LVL115:
	.loc 3 426 16 view .LVU442
	b	.L71
.LVL116:
.L75:
	.loc 3 449 12 view .LVU443
	movs	r0, #0
.LVL117:
.L71:
	.loc 3 450 1 view .LVU444
	pop	{r4, r5, r6, pc}
.LVL118:
.L76:
	.loc 3 443 20 view .LVU445
	movs	r0, #7
.LVL119:
	.loc 3 443 20 view .LVU446
	b	.L71
.LFE231:
	.size	manuf_specific_data_encode, .-manuf_specific_data_encode
	.section	.text.service_data_encode,"ax",%progbits
	.align	1
	.syntax unified
	.thumb
	.thumb_func
	.fpu fpv4-sp-d16
	.type	service_data_encode, %function
service_data_encode:
.LVL120:
.LFB232:
	.loc 3 457 1 is_stmt 1 view -0
	@ args = 0, pretend = 0, frame = 0
	@ frame_needed = 0, uses_anonymous_args = 0
	.loc 3 458 5 view .LVU448
	.loc 3 461 5 view .LVU449
	.loc 3 461 18 is_stmt 0 view .LVU450
	ldr	r3, [r0, #40]
.LVL121:
	.loc 3 461 8 view .LVU451
	cmp	r3, #0
	beq	.L83
	.loc 3 457 1 view .LVU452
	push	{r4, r5, r6, r7, r8, lr}
.LCFI27:
	mov	r8, r0
	mov	r7, r1
	mov	r4, r2
	.loc 3 466 12 view .LVU453
	movs	r5, #0
	b	.L80
.LVL122:
.L91:
.LBB37:
	.loc 3 497 13 is_stmt 1 view .LVU454
	add	r0, r0, r7
	bl	memcpy
.LVL123:
	.loc 3 498 13 view .LVU455
	.loc 3 498 46 is_stmt 0 view .LVU456
	ldrh	r3, [r6, #4]
	.loc 3 498 23 view .LVU457
	ldrh	r2, [r4]
	add	r3, r3, r2
	strh	r3, [r4]	@ movhi
.L81:
	.loc 3 498 23 view .LVU458
.LBE37:
	.loc 3 466 52 is_stmt 1 discriminator 2 view .LVU459
	.loc 3 466 53 is_stmt 0 discriminator 2 view .LVU460
	adds	r5, r5, #1
.LVL124:
	.loc 3 466 53 discriminator 2 view .LVU461
	uxtb	r5, r5
.LVL125:
.L80:
	.loc 3 466 17 is_stmt 1 discriminator 1 view .LVU462
	.loc 3 466 30 is_stmt 0 discriminator 1 view .LVU463
	ldrb	r3, [r8, #44]	@ zero_extendqisi2
	.loc 3 466 5 discriminator 1 view .LVU464
	cmp	r3, r5
	bls	.L90
.LBB40:
	.loc 3 468 9 is_stmt 1 view .LVU465
	.loc 3 469 9 view .LVU466
	.loc 3 471 9 view .LVU467
	.loc 3 471 36 is_stmt 0 view .LVU468
	ldr	r2, [r8, #40]
	.loc 3 471 58 view .LVU469
	add	r6, r5, r5, lsl #1
	lsls	r1, r6, #2
	.loc 3 471 24 view .LVU470
	add	r6, r2, r6, lsl #2
.LVL126:
	.loc 3 473 9 is_stmt 1 view .LVU471
	.loc 3 473 47 is_stmt 0 view .LVU472
	ldrh	r3, [r6, #4]
	.loc 3 473 19 view .LVU473
	adds	r3, r3, #2
.LVL127:
	.loc 3 476 9 is_stmt 1 view .LVU474
	.loc 3 476 12 is_stmt 0 view .LVU475
	cmp	r3, #254
	bhi	.L84
	.loc 3 482 9 is_stmt 1 view .LVU476
	.loc 3 482 24 is_stmt 0 view .LVU477
	ldrh	r0, [r4]
	.loc 3 482 37 view .LVU478
	adds	r3, r3, #1
.LVL128:
	.loc 3 482 35 view .LVU479
	strb	r3, [r7, r0]
	.loc 3 483 9 is_stmt 1 view .LVU480
	.loc 3 483 19 is_stmt 0 view .LVU481
	ldrh	r3, [r4]
.LVL129:
	.loc 3 483 19 view .LVU482
	adds	r3, r3, #1
	uxth	r3, r3
	strh	r3, [r4]	@ movhi
	.loc 3 484 9 is_stmt 1 view .LVU483
	.loc 3 484 35 is_stmt 0 view .LVU484
	movs	r0, #22
	strb	r0, [r7, r3]
	.loc 3 485 9 is_stmt 1 view .LVU485
	.loc 3 485 19 is_stmt 0 view .LVU486
	ldrh	r3, [r4]
	adds	r3, r3, #1
	uxth	r3, r3
	strh	r3, [r4]	@ movhi
	.loc 3 488 9 is_stmt 1 view .LVU487
	.loc 3 488 22 is_stmt 0 view .LVU488
	ldrh	r2, [r2, r1]
	adds	r1, r7, r3
.LVL130:
.LBB38:
.LBI38:
	.loc 4 914 23 is_stmt 1 view .LVU489
.LBB39:
	.loc 4 916 5 view .LVU490
	.loc 4 916 23 is_stmt 0 view .LVU491
	strb	r2, [r7, r3]
	.loc 4 917 5 is_stmt 1 view .LVU492
	.loc 4 917 25 is_stmt 0 view .LVU493
	lsrs	r2, r2, #8
.LVL131:
	.loc 4 917 23 view .LVU494
	strb	r2, [r1, #1]
	.loc 4 918 5 is_stmt 1 view .LVU495
.LVL132:
	.loc 4 918 5 is_stmt 0 view .LVU496
.LBE39:
.LBE38:
	.loc 3 488 19 view .LVU497
	ldrh	r0, [r4]
	adds	r0, r0, #2
	uxth	r0, r0
	strh	r0, [r4]	@ movhi
	.loc 3 491 9 is_stmt 1 view .LVU498
	.loc 3 491 33 is_stmt 0 view .LVU499
	ldrh	r2, [r6, #4]
	.loc 3 491 12 view .LVU500
	cmp	r2, #0
	beq	.L81
	.loc 3 493 13 is_stmt 1 view .LVU501
	.loc 3 493 37 is_stmt 0 view .LVU502
	ldr	r1, [r6, #8]
	.loc 3 493 16 view .LVU503
	cmp	r1, #0
	bne	.L91
	.loc 3 495 24 view .LVU504
	movs	r0, #7
	b	.L78
.LVL133:
.L90:
	.loc 3 495 24 view .LVU505
.LBE40:
	.loc 3 502 12 view .LVU506
	movs	r0, #0
.L78:
	.loc 3 503 1 view .LVU507
	pop	{r4, r5, r6, r7, r8, pc}
.LVL134:
.L83:
.LCFI28:
	.loc 3 463 16 view .LVU508
	movs	r0, #7
.LVL135:
	.loc 3 503 1 view .LVU509
	bx	lr
.LVL136:
.L84:
.LCFI29:
.LBB41:
	.loc 3 478 20 view .LVU510
	movs	r0, #12
	b	.L78
.LBE41:
.LFE232:
	.size	service_data_encode, .-service_data_encode
	.section	.text.ble_advdata_encode,"ax",%progbits
	.align	1
	.global	ble_advdata_encode
	.syntax unified
	.thumb
	.thumb_func
	.fpu fpv4-sp-d16
	.type	ble_advdata_encode, %function
ble_advdata_encode:
.LVL137:
.LFB233:
	.loc 3 508 1 is_stmt 1 view -0
	@ args = 0, pretend = 0, frame = 0
	@ frame_needed = 0, uses_anonymous_args = 0
	.loc 3 508 1 is_stmt 0 view .LVU512
	push	{r4, r5, r6, r7, lr}
.LCFI30:
	sub	sp, sp, #12
.LCFI31:
	mov	r4, r0
	mov	r6, r1
	mov	r5, r2
	.loc 3 509 5 is_stmt 1 view .LVU513
.LVL138:
	.loc 3 510 5 view .LVU514
	.loc 3 510 14 is_stmt 0 view .LVU515
	ldrh	r7, [r2]
.LVL139:
	.loc 3 511 5 is_stmt 1 view .LVU516
	.loc 3 511 12 is_stmt 0 view .LVU517
	movs	r3, #0
	strh	r3, [r2]	@ movhi
	.loc 3 514 5 is_stmt 1 view .LVU518
	.loc 3 514 18 is_stmt 0 view .LVU519
	ldrb	r3, [r0, #45]	@ zero_extendqisi2
	.loc 3 514 8 view .LVU520
	cmp	r3, #0
	bne	.L106
	.loc 3 509 16 view .LVU521
	movs	r3, #0
.LVL140:
.L93:
	.loc 3 517 117 is_stmt 1 discriminator 2 view .LVU522
	.loc 3 521 5 discriminator 2 view .LVU523
	.loc 3 521 18 is_stmt 0 discriminator 2 view .LVU524
	ldrb	r2, [r4, #2]	@ zero_extendqisi2
	.loc 3 521 8 discriminator 2 view .LVU525
	cmp	r2, #0
	bne	.L107
.L95:
	.loc 3 524 117 is_stmt 1 discriminator 2 view .LVU526
	.loc 3 528 5 discriminator 2 view .LVU527
	.loc 3 528 18 is_stmt 0 discriminator 2 view .LVU528
	ldrb	r0, [r4, #3]	@ zero_extendqisi2
	.loc 3 528 8 discriminator 2 view .LVU529
	cmp	r0, #0
	bne	.L108
.L96:
	.loc 3 531 117 is_stmt 1 discriminator 2 view .LVU530
	.loc 3 535 5 discriminator 2 view .LVU531
	.loc 3 535 18 is_stmt 0 discriminator 2 view .LVU532
	ldr	r0, [r4, #4]
	.loc 3 535 8 discriminator 2 view .LVU533
	cbz	r0, .L97
	.loc 3 537 9 is_stmt 1 view .LVU534
	.loc 3 537 20 is_stmt 0 view .LVU535
	mov	r3, r7
.LVL141:
	.loc 3 537 20 view .LVU536
	mov	r2, r5
	mov	r1, r6
	ldrsb	r0, [r0]
	bl	tx_power_level_encode
.LVL142:
	.loc 3 541 9 is_stmt 1 view .LVU537
.LBB42:
	.loc 3 541 14 view .LVU538
	.loc 3 541 58 view .LVU539
	.loc 3 541 61 is_stmt 0 view .LVU540
	mov	r3, r0
	cbnz	r0, .L92
.LVL143:
.L97:
	.loc 3 541 61 view .LVU541
.LBE42:
	.loc 3 541 117 is_stmt 1 discriminator 2 view .LVU542
	.loc 3 545 5 discriminator 2 view .LVU543
	.loc 3 545 40 is_stmt 0 discriminator 2 view .LVU544
	ldrh	r2, [r4, #8]
	.loc 3 545 8 discriminator 2 view .LVU545
	cmp	r2, #0
	bne	.L109
.L98:
	.loc 3 553 117 is_stmt 1 discriminator 2 view .LVU546
	.loc 3 557 5 discriminator 2 view .LVU547
	.loc 3 557 34 is_stmt 0 discriminator 2 view .LVU548
	ldrh	r2, [r4, #16]
	.loc 3 557 8 discriminator 2 view .LVU549
	cmp	r2, #0
	bne	.L110
.L99:
	.loc 3 565 117 is_stmt 1 discriminator 2 view .LVU550
	.loc 3 569 5 discriminator 2 view .LVU551
	.loc 3 569 35 is_stmt 0 discriminator 2 view .LVU552
	ldrh	r2, [r4, #24]
	.loc 3 569 8 discriminator 2 view .LVU553
	cmp	r2, #0
	bne	.L111
.L100:
	.loc 3 577 117 is_stmt 1 discriminator 2 view .LVU554
	.loc 3 581 5 discriminator 2 view .LVU555
	.loc 3 581 18 is_stmt 0 discriminator 2 view .LVU556
	ldr	r0, [r4, #32]
	.loc 3 581 8 discriminator 2 view .LVU557
	cbz	r0, .L101
	.loc 3 583 9 is_stmt 1 view .LVU558
	.loc 3 583 20 is_stmt 0 view .LVU559
	mov	r3, r7
.LVL144:
	.loc 3 583 20 view .LVU560
	mov	r2, r5
	mov	r1, r6
	bl	conn_int_encode
.LVL145:
	.loc 3 584 9 is_stmt 1 view .LVU561
.LBB43:
	.loc 3 584 14 view .LVU562
	.loc 3 584 58 view .LVU563
	.loc 3 584 61 is_stmt 0 view .LVU564
	mov	r3, r0
	cbnz	r0, .L92
.LVL146:
.L101:
	.loc 3 584 61 view .LVU565
.LBE43:
	.loc 3 584 117 is_stmt 1 discriminator 2 view .LVU566
	.loc 3 588 5 discriminator 2 view .LVU567
	.loc 3 588 18 is_stmt 0 discriminator 2 view .LVU568
	ldr	r0, [r4, #36]
	.loc 3 588 8 discriminator 2 view .LVU569
	cbz	r0, .L102
	.loc 3 590 9 is_stmt 1 view .LVU570
	.loc 3 590 20 is_stmt 0 view .LVU571
	mov	r3, r7
.LVL147:
	.loc 3 590 20 view .LVU572
	mov	r2, r5
	mov	r1, r6
	bl	manuf_specific_data_encode
.LVL148:
	.loc 3 594 9 is_stmt 1 view .LVU573
.LBB44:
	.loc 3 594 14 view .LVU574
	.loc 3 594 58 view .LVU575
	.loc 3 594 61 is_stmt 0 view .LVU576
	mov	r3, r0
	cbnz	r0, .L92
.LVL149:
.L102:
	.loc 3 594 61 view .LVU577
.LBE44:
	.loc 3 594 117 is_stmt 1 discriminator 2 view .LVU578
	.loc 3 598 5 discriminator 2 view .LVU579
	.loc 3 598 18 is_stmt 0 discriminator 2 view .LVU580
	ldrb	r2, [r4, #44]	@ zero_extendqisi2
	.loc 3 598 8 discriminator 2 view .LVU581
	cmp	r2, #0
	bne	.L112
.L103:
	.loc 3 601 117 is_stmt 1 discriminator 2 view .LVU582
	.loc 3 605 5 discriminator 2 view .LVU583
	.loc 3 605 18 is_stmt 0 discriminator 2 view .LVU584
	ldrb	r2, [r4]	@ zero_extendqisi2
	.loc 3 605 8 discriminator 2 view .LVU585
	cmp	r2, #0
	bne	.L113
.LVL150:
.L92:
	.loc 3 612 1 view .LVU586
	mov	r0, r3
	add	sp, sp, #12
.LCFI32:
	@ sp needed
	pop	{r4, r5, r6, r7, pc}
.LVL151:
.L106:
.LCFI33:
	.loc 3 516 9 is_stmt 1 view .LVU587
	.loc 3 516 20 is_stmt 0 view .LVU588
	mov	r2, r7
.LVL152:
	.loc 3 516 20 view .LVU589
	mov	r1, r5
.LVL153:
	.loc 3 516 20 view .LVU590
	mov	r0, r6
.LVL154:
	.loc 3 516 20 view .LVU591
	bl	ble_device_addr_encode
.LVL155:
	.loc 3 517 9 is_stmt 1 view .LVU592
.LBB45:
	.loc 3 517 14 view .LVU593
	.loc 3 517 58 view .LVU594
	.loc 3 517 61 is_stmt 0 view .LVU595
	mov	r3, r0
	cmp	r0, #0
	beq	.L93
	b	.L92
.LVL156:
.L107:
	.loc 3 517 61 view .LVU596
.LBE45:
	.loc 3 523 9 is_stmt 1 view .LVU597
	.loc 3 523 20 is_stmt 0 view .LVU598
	mov	r2, r7
	mov	r1, r5
	mov	r0, r6
	bl	appearance_encode
.LVL157:
	.loc 3 524 9 is_stmt 1 view .LVU599
.LBB46:
	.loc 3 524 14 view .LVU600
	.loc 3 524 58 view .LVU601
	.loc 3 524 61 is_stmt 0 view .LVU602
	mov	r3, r0
	cmp	r0, #0
	beq	.L95
	b	.L92
.LVL158:
.L108:
	.loc 3 524 61 view .LVU603
.LBE46:
	.loc 3 530 9 is_stmt 1 view .LVU604
	.loc 3 530 20 is_stmt 0 view .LVU605
	mov	r3, r7
.LVL159:
	.loc 3 530 20 view .LVU606
	mov	r2, r5
	mov	r1, r6
	sxtb	r0, r0
	bl	flags_encode
.LVL160:
	.loc 3 531 9 is_stmt 1 view .LVU607
.LBB47:
	.loc 3 531 14 view .LVU608
	.loc 3 531 58 view .LVU609
	.loc 3 531 61 is_stmt 0 view .LVU610
	mov	r3, r0
	cmp	r0, #0
	beq	.L96
	b	.L92
.LVL161:
.L109:
	.loc 3 531 61 view .LVU611
.LBE47:
	.loc 3 547 9 is_stmt 1 view .LVU612
	.loc 3 547 20 is_stmt 0 view .LVU613
	str	r7, [sp, #4]
	str	r5, [sp]
	mov	r3, r6
.LVL162:
	.loc 3 547 20 view .LVU614
	movs	r2, #6
	movs	r1, #2
	add	r0, r4, #8
	bl	uuid_list_encode
.LVL163:
	.loc 3 553 9 is_stmt 1 view .LVU615
.LBB48:
	.loc 3 553 14 view .LVU616
	.loc 3 553 58 view .LVU617
	.loc 3 553 61 is_stmt 0 view .LVU618
	mov	r3, r0
	cmp	r0, #0
	beq	.L98
	b	.L92
.LVL164:
.L110:
	.loc 3 553 61 view .LVU619
.LBE48:
	.loc 3 559 9 is_stmt 1 view .LVU620
	.loc 3 559 20 is_stmt 0 view .LVU621
	str	r7, [sp, #4]
	str	r5, [sp]
	mov	r3, r6
.LVL165:
	.loc 3 559 20 view .LVU622
	movs	r2, #7
	movs	r1, #3
	add	r0, r4, #16
	bl	uuid_list_encode
.LVL166:
	.loc 3 565 9 is_stmt 1 view .LVU623
.LBB49:
	.loc 3 565 14 view .LVU624
	.loc 3 565 58 view .LVU625
	.loc 3 565 61 is_stmt 0 view .LVU626
	mov	r3, r0
	cmp	r0, #0
	beq	.L99
	b	.L92
.LVL167:
.L111:
	.loc 3 565 61 view .LVU627
.LBE49:
	.loc 3 571 9 is_stmt 1 view .LVU628
	.loc 3 571 20 is_stmt 0 view .LVU629
	str	r7, [sp, #4]
	str	r5, [sp]
	mov	r3, r6
.LVL168:
	.loc 3 571 20 view .LVU630
	movs	r2, #21
	movs	r1, #20
	add	r0, r4, #24
	bl	uuid_list_encode
.LVL169:
	.loc 3 577 9 is_stmt 1 view .LVU631
.LBB50:
	.loc 3 577 14 view .LVU632
	.loc 3 577 58 view .LVU633
	.loc 3 577 61 is_stmt 0 view .LVU634
	mov	r3, r0
	cmp	r0, #0
	beq	.L100
	b	.L92
.LVL170:
.L112:
	.loc 3 577 61 view .LVU635
.LBE50:
	.loc 3 600 9 is_stmt 1 view .LVU636
	.loc 3 600 20 is_stmt 0 view .LVU637
	mov	r3, r7
.LVL171:
	.loc 3 600 20 view .LVU638
	mov	r2, r5
	mov	r1, r6
	mov	r0, r4
	bl	service_data_encode
.LVL172:
	.loc 3 601 9 is_stmt 1 view .LVU639
.LBB51:
	.loc 3 601 14 view .LVU640
	.loc 3 601 58 view .LVU641
	.loc 3 601 61 is_stmt 0 view .LVU642
	mov	r3, r0
	cmp	r0, #0
	beq	.L103
	b	.L92
.LVL173:
.L113:
	.loc 3 601 61 view .LVU643
.LBE51:
	.loc 3 607 9 is_stmt 1 view .LVU644
	.loc 3 607 20 is_stmt 0 view .LVU645
	mov	r3, r7
.LVL174:
	.loc 3 607 20 view .LVU646
	mov	r2, r5
	mov	r1, r6
	mov	r0, r4
	bl	name_encode
.LVL175:
	mov	r3, r0
.LVL176:
	.loc 3 608 9 is_stmt 1 view .LVU647
.LBB52:
	.loc 3 608 14 view .LVU648
	.loc 3 608 58 view .LVU649
	.loc 3 608 58 is_stmt 0 view .LVU650
	b	.L92
.LBE52:
.LFE233:
	.size	ble_advdata_encode, .-ble_advdata_encode
	.section	.text.ble_advdata_search,"ax",%progbits
	.align	1
	.global	ble_advdata_search
	.syntax unified
	.thumb
	.thumb_func
	.fpu fpv4-sp-d16
	.type	ble_advdata_search, %function
ble_advdata_search:
.LVL177:
.LFB234:
	.loc 3 619 1 is_stmt 1 view -0
	@ args = 0, pretend = 0, frame = 0
	@ frame_needed = 0, uses_anonymous_args = 0
	@ link register save eliminated.
	.loc 3 620 5 view .LVU652
	.loc 3 620 8 is_stmt 0 view .LVU653
	cbz	r0, .L120
	.loc 3 619 1 discriminator 1 view .LVU654
	push	{r4, r5}
.LCFI34:
	mov	r5, r0
	.loc 3 620 33 discriminator 1 view .LVU655
	cbz	r2, .L121
	.loc 3 625 14 view .LVU656
	movs	r4, #0
	b	.L116
.LVL178:
.L117:
	.loc 3 627 68 discriminator 3 view .LVU657
	cmp	r4, r1
	bcs	.L118
	.loc 3 630 9 is_stmt 1 view .LVU658
	.loc 3 630 29 is_stmt 0 view .LVU659
	ldrb	r0, [r5, r4]	@ zero_extendqisi2
	.loc 3 630 11 view .LVU660
	add	r0, r0, r4
	uxth	r0, r0
	adds	r0, r0, #1
	uxth	r4, r0
.LVL179:
.L116:
	.loc 3 627 11 is_stmt 1 view .LVU661
	.loc 3 627 18 is_stmt 0 view .LVU662
	ldrh	r0, [r2]
	.loc 3 627 11 view .LVU663
	cmp	r0, r4
	bhi	.L117
	.loc 3 627 47 discriminator 2 view .LVU664
	adds	r0, r5, r4
	ldrb	r0, [r0, #1]	@ zero_extendqisi2
	.loc 3 627 29 discriminator 2 view .LVU665
	cmp	r0, r3
	bne	.L117
.L118:
	.loc 3 633 5 is_stmt 1 view .LVU666
	.loc 3 633 8 is_stmt 0 view .LVU667
	cmp	r4, r1
	bcs	.L122
	.loc 3 639 9 is_stmt 1 view .LVU668
	.loc 3 639 23 is_stmt 0 view .LVU669
	adds	r3, r4, #2
.LVL180:
	.loc 3 639 19 view .LVU670
	strh	r3, [r2]	@ movhi
	.loc 3 640 9 is_stmt 1 view .LVU671
	.loc 3 640 31 is_stmt 0 view .LVU672
	ldrb	r0, [r5, r4]	@ zero_extendqisi2
	.loc 3 640 35 view .LVU673
	subs	r0, r0, #1
	uxth	r0, r0
.LVL181:
.L115:
	.loc 3 642 1 view .LVU674
	pop	{r4, r5}
.LCFI35:
.LVL182:
	.loc 3 642 1 view .LVU675
	bx	lr
.LVL183:
.L120:
	.loc 3 622 16 view .LVU676
	movs	r0, #0
.LVL184:
	.loc 3 642 1 view .LVU677
	bx	lr
.LVL185:
.L121:
.LCFI36:
	.loc 3 622 16 view .LVU678
	movs	r0, #0
.LVL186:
	.loc 3 622 16 view .LVU679
	b	.L115
.LVL187:
.L122:
	.loc 3 635 16 view .LVU680
	movs	r0, #0
	b	.L115
.LFE234:
	.size	ble_advdata_search, .-ble_advdata_search
	.section	.text.ble_advdata_parse,"ax",%progbits
	.align	1
	.global	ble_advdata_parse
	.syntax unified
	.thumb
	.thumb_func
	.fpu fpv4-sp-d16
	.type	ble_advdata_parse, %function
ble_advdata_parse:
.LVL188:
.LFB235:
	.loc 3 648 1 is_stmt 1 view -0
	@ args = 0, pretend = 0, frame = 8
	@ frame_needed = 0, uses_anonymous_args = 0
	.loc 3 648 1 is_stmt 0 view .LVU682
	push	{r4, lr}
.LCFI37:
	sub	sp, sp, #8
.LCFI38:
	mov	r4, r0
	mov	r3, r2
	.loc 3 649 5 is_stmt 1 view .LVU683
	.loc 3 649 14 is_stmt 0 view .LVU684
	movs	r2, #0
.LVL189:
	.loc 3 649 14 view .LVU685
	strh	r2, [sp, #6]	@ movhi
	.loc 3 650 5 is_stmt 1 view .LVU686
	.loc 3 650 20 is_stmt 0 view .LVU687
	add	r2, sp, #6
	bl	ble_advdata_search
.LVL190:
	.loc 3 652 5 is_stmt 1 view .LVU688
	.loc 3 652 8 is_stmt 0 view .LVU689
	cbz	r0, .L129
	.loc 3 658 9 is_stmt 1 view .LVU690
	.loc 3 658 16 is_stmt 0 view .LVU691
	ldrh	r0, [sp, #6]
.LVL191:
	.loc 3 658 16 view .LVU692
	add	r0, r0, r4
.L127:
	.loc 3 660 1 view .LVU693
	add	sp, sp, #8
.LCFI39:
	@ sp needed
	pop	{r4, pc}
.LVL192:
.L129:
.LCFI40:
	.loc 3 654 15 view .LVU694
	movs	r0, #0
.LVL193:
	.loc 3 654 15 view .LVU695
	b	.L127
.LFE235:
	.size	ble_advdata_parse, .-ble_advdata_parse
	.section	.text.ble_advdata_name_find,"ax",%progbits
	.align	1
	.global	ble_advdata_name_find
	.syntax unified
	.thumb
	.thumb_func
	.fpu fpv4-sp-d16
	.type	ble_advdata_name_find, %function
ble_advdata_name_find:
.LVL194:
.LFB236:
	.loc 3 666 1 is_stmt 1 view -0
	@ args = 0, pretend = 0, frame = 8
	@ frame_needed = 0, uses_anonymous_args = 0
	.loc 3 666 1 is_stmt 0 view .LVU697
	push	{r4, r5, r6, lr}
.LCFI41:
	sub	sp, sp, #8
.LCFI42:
	.loc 3 667 5 is_stmt 1 view .LVU698
	.loc 3 668 5 view .LVU699
	.loc 3 669 5 view .LVU700
	.loc 3 669 14 is_stmt 0 view .LVU701
	movs	r3, #0
	strh	r3, [sp, #6]	@ movhi
	.loc 3 671 5 is_stmt 1 view .LVU702
	.loc 3 671 8 is_stmt 0 view .LVU703
	cbz	r2, .L133
	mov	r4, r0
	mov	r6, r2
	.loc 3 677 5 is_stmt 1 view .LVU704
	.loc 3 677 23 is_stmt 0 view .LVU705
	movs	r3, #9
	add	r2, sp, #6
.LVL195:
	.loc 3 677 23 view .LVU706
	bl	ble_advdata_search
.LVL196:
	.loc 3 677 23 view .LVU707
	mov	r5, r0
.LVL197:
	.loc 3 682 5 is_stmt 1 view .LVU708
	.loc 3 682 21 is_stmt 0 view .LVU709
	ldrh	r3, [sp, #6]
	.loc 3 682 19 view .LVU710
	add	r4, r4, r3
.LVL198:
	.loc 3 684 5 is_stmt 1 view .LVU711
	.loc 3 684 8 is_stmt 0 view .LVU712
	cbz	r3, .L134
	.loc 3 685 9 view .LVU713
	cbnz	r0, .L139
	.loc 3 692 11 view .LVU714
	movs	r0, #0
.LVL199:
	.loc 3 692 11 view .LVU715
	b	.L132
.LVL200:
.L139:
	.loc 3 686 13 view .LVU716
	mov	r0, r6
.LVL201:
	.loc 3 686 13 view .LVU717
	bl	strlen
.LVL202:
	.loc 3 686 9 view .LVU718
	cmp	r0, r5
	beq	.L140
	.loc 3 692 11 view .LVU719
	movs	r0, #0
	b	.L132
.L140:
	.loc 3 687 13 view .LVU720
	mov	r2, r5
	mov	r1, r4
	mov	r0, r6
	bl	memcmp
.LVL203:
	.loc 3 687 9 view .LVU721
	cbz	r0, .L137
	.loc 3 692 11 view .LVU722
	movs	r0, #0
	b	.L132
.LVL204:
.L133:
	.loc 3 673 15 view .LVU723
	movs	r0, #0
.LVL205:
	.loc 3 673 15 view .LVU724
	b	.L132
.LVL206:
.L134:
	.loc 3 692 11 view .LVU725
	movs	r0, #0
.LVL207:
.L132:
	.loc 3 693 1 view .LVU726
	add	sp, sp, #8
.LCFI43:
	@ sp needed
	pop	{r4, r5, r6, pc}
.LVL208:
.L137:
.LCFI44:
	.loc 3 689 15 view .LVU727
	movs	r0, #1
	b	.L132
.LFE236:
	.size	ble_advdata_name_find, .-ble_advdata_name_find
	.section	.text.ble_advdata_short_name_find,"ax",%progbits
	.align	1
	.global	ble_advdata_short_name_find
	.syntax unified
	.thumb
	.thumb_func
	.fpu fpv4-sp-d16
	.type	ble_advdata_short_name_find, %function
ble_advdata_short_name_find:
.LVL209:
.LFB237:
	.loc 3 700 1 is_stmt 1 view -0
	@ args = 0, pretend = 0, frame = 8
	@ frame_needed = 0, uses_anonymous_args = 0
	.loc 3 700 1 is_stmt 0 view .LVU729
	push	{r4, r5, r6, r7, lr}
.LCFI45:
	sub	sp, sp, #12
.LCFI46:
	mov	r5, r3
	.loc 3 701 5 is_stmt 1 view .LVU730
	.loc 3 702 5 view .LVU731
	.loc 3 703 5 view .LVU732
	.loc 3 703 14 is_stmt 0 view .LVU733
	movs	r3, #0
.LVL210:
	.loc 3 703 14 view .LVU734
	strh	r3, [sp, #6]	@ movhi
	.loc 3 705 5 is_stmt 1 view .LVU735
	.loc 3 705 8 is_stmt 0 view .LVU736
	cbz	r2, .L143
	mov	r4, r0
	mov	r7, r2
	.loc 3 710 5 is_stmt 1 view .LVU737
	.loc 3 710 23 is_stmt 0 view .LVU738
	movs	r3, #8
	add	r2, sp, #6
.LVL211:
	.loc 3 710 23 view .LVU739
	bl	ble_advdata_search
.LVL212:
	.loc 3 710 23 view .LVU740
	mov	r6, r0
.LVL213:
	.loc 3 715 5 is_stmt 1 view .LVU741
	.loc 3 715 21 is_stmt 0 view .LVU742
	ldrh	r3, [sp, #6]
	.loc 3 715 19 view .LVU743
	add	r4, r4, r3
.LVL214:
	.loc 3 717 5 is_stmt 1 view .LVU744
	.loc 3 717 8 is_stmt 0 view .LVU745
	cbz	r3, .L144
	.loc 3 718 9 view .LVU746
	cbz	r0, .L145
	.loc 3 719 29 view .LVU747
	uxth	r5, r5
	.loc 3 719 9 view .LVU748
	cmp	r5, r0
	bls	.L150
	.loc 3 726 11 view .LVU749
	movs	r0, #0
.LVL215:
	.loc 3 726 11 view .LVU750
	b	.L142
.LVL216:
.L150:
	.loc 3 720 31 view .LVU751
	mov	r0, r7
.LVL217:
	.loc 3 720 31 view .LVU752
	bl	strlen
.LVL218:
	.loc 3 720 9 view .LVU753
	cmp	r6, r0
	bcc	.L151
	.loc 3 726 11 view .LVU754
	movs	r0, #0
	b	.L142
.L151:
	.loc 3 721 13 view .LVU755
	mov	r2, r6
	mov	r1, r4
	mov	r0, r7
	bl	memcmp
.LVL219:
	.loc 3 721 9 view .LVU756
	cbz	r0, .L148
	.loc 3 726 11 view .LVU757
	movs	r0, #0
	b	.L142
.LVL220:
.L143:
	.loc 3 707 15 view .LVU758
	movs	r0, #0
.LVL221:
	.loc 3 707 15 view .LVU759
	b	.L142
.LVL222:
.L144:
	.loc 3 726 11 view .LVU760
	movs	r0, #0
.LVL223:
.L142:
	.loc 3 727 1 view .LVU761
	add	sp, sp, #12
.LCFI47:
	@ sp needed
	pop	{r4, r5, r6, r7, pc}
.LVL224:
.L145:
.LCFI48:
	.loc 3 726 11 view .LVU762
	movs	r0, #0
.LVL225:
	.loc 3 726 11 view .LVU763
	b	.L142
.L148:
	.loc 3 723 15 view .LVU764
	movs	r0, #1
	b	.L142
.LFE237:
	.size	ble_advdata_short_name_find, .-ble_advdata_short_name_find
	.section	.text.ble_advdata_uuid_find,"ax",%progbits
	.align	1
	.global	ble_advdata_uuid_find
	.syntax unified
	.thumb
	.thumb_func
	.fpu fpv4-sp-d16
	.type	ble_advdata_uuid_find, %function
ble_advdata_uuid_find:
.LVL226:
.LFB238:
	.loc 3 733 1 is_stmt 1 view -0
	@ args = 0, pretend = 0, frame = 24
	@ frame_needed = 0, uses_anonymous_args = 0
	.loc 3 733 1 is_stmt 0 view .LVU766
	push	{r4, r5, r6, r7, lr}
.LCFI49:
	sub	sp, sp, #28
.LCFI50:
	mov	r5, r0
	mov	r7, r1
	mov	r0, r2
.LVL227:
	.loc 3 735 5 is_stmt 1 view .LVU767
	.loc 3 736 5 view .LVU768
	.loc 3 736 14 is_stmt 0 view .LVU769
	movs	r3, #0
	strh	r3, [sp, #22]	@ movhi
	.loc 3 737 5 is_stmt 1 view .LVU770
	.loc 3 737 13 is_stmt 0 view .LVU771
	movs	r3, #16
	strb	r3, [sp, #21]
	.loc 3 738 5 is_stmt 1 view .LVU772
	.loc 3 739 5 view .LVU773
.LVL228:
	.loc 3 740 5 view .LVU774
	.loc 3 741 5 view .LVU775
	.loc 3 743 5 view .LVU776
	.loc 3 743 16 is_stmt 0 view .LVU777
	add	r2, sp, #4
.LVL229:
	.loc 3 743 16 view .LVU778
	add	r1, sp, #21
.LVL230:
	.loc 3 743 16 view .LVU779
	bl	sd_ble_uuid_encode
.LVL231:
	.loc 3 745 5 is_stmt 1 view .LVU780
	.loc 3 745 8 is_stmt 0 view .LVU781
	cmp	r5, #0
	beq	.L162
	.loc 3 745 33 discriminator 1 view .LVU782
	cmp	r0, #0
	bne	.L163
	.loc 3 751 5 is_stmt 1 view .LVU783
	ldrb	r3, [sp, #21]	@ zero_extendqisi2
	cmp	r3, #4
	beq	.L154
	cmp	r3, #16
	beq	.L155
	cmp	r3, #2
	beq	.L168
	movs	r0, #0
.LVL232:
.L153:
	.loc 3 797 1 is_stmt 0 view .LVU784
	add	sp, sp, #28
.LCFI51:
	@ sp needed
	pop	{r4, r5, r6, r7, pc}
.LVL233:
.L168:
.LCFI52:
	.loc 3 754 13 is_stmt 1 view .LVU785
	.loc 3 754 25 is_stmt 0 view .LVU786
	movs	r3, #3
	strb	r3, [sp]
	.loc 3 755 13 is_stmt 1 view .LVU787
	.loc 3 755 25 is_stmt 0 view .LVU788
	movs	r3, #2
	strb	r3, [sp, #1]
	.loc 3 756 13 is_stmt 1 view .LVU789
.L156:
	.loc 3 733 1 is_stmt 0 discriminator 1 view .LVU790
	mov	r6, r7
	movs	r4, #0
	b	.L157
.L154:
	.loc 3 760 13 is_stmt 1 view .LVU791
	.loc 3 760 25 is_stmt 0 view .LVU792
	movs	r3, #5
	strb	r3, [sp]
	.loc 3 761 13 is_stmt 1 view .LVU793
	.loc 3 761 25 is_stmt 0 view .LVU794
	movs	r3, #4
	strb	r3, [sp, #1]
	.loc 3 762 13 is_stmt 1 view .LVU795
	b	.L156
.L155:
	.loc 3 765 13 view .LVU796
	.loc 3 765 25 is_stmt 0 view .LVU797
	movs	r3, #7
	strb	r3, [sp]
	.loc 3 766 13 is_stmt 1 view .LVU798
	.loc 3 766 25 is_stmt 0 view .LVU799
	movs	r3, #6
	strb	r3, [sp, #1]
	.loc 3 767 13 is_stmt 1 view .LVU800
	b	.L156
.LVL234:
.L159:
.LBB53:
	.loc 3 775 9 discriminator 4 view .LVU801
	.loc 3 775 27 is_stmt 0 discriminator 4 view .LVU802
	add	r3, sp, #24
	add	r3, r3, r4
	ldrb	r3, [r3, #-24]	@ zero_extendqisi2
	add	r2, sp, #22
	mov	r1, r7
	mov	r0, r5
	bl	ble_advdata_search
.LVL235:
	mov	r6, r0
.LVL236:
	.loc 3 773 56 is_stmt 1 discriminator 4 view .LVU803
	.loc 3 773 57 is_stmt 0 discriminator 4 view .LVU804
	adds	r4, r4, #1
.LVL237:
	.loc 3 773 57 discriminator 4 view .LVU805
	uxtb	r4, r4
.LVL238:
.L157:
	.loc 3 773 25 is_stmt 1 discriminator 1 view .LVU806
	.loc 3 773 5 is_stmt 0 discriminator 1 view .LVU807
	cmp	r4, #1
	bhi	.L158
	.loc 3 773 49 discriminator 3 view .LVU808
	ldrh	r3, [sp, #22]
	.loc 3 773 33 discriminator 3 view .LVU809
	cmp	r3, #0
	beq	.L159
.L158:
.LBE53:
	.loc 3 778 5 is_stmt 1 view .LVU810
	.loc 3 778 21 is_stmt 0 view .LVU811
	ldrh	r7, [sp, #22]
	.loc 3 778 8 view .LVU812
	cbz	r7, .L165
	.loc 3 784 5 is_stmt 1 view .LVU813
.LVL239:
	.loc 3 787 5 view .LVU814
.LBB54:
	.loc 3 787 10 view .LVU815
	.loc 3 787 19 is_stmt 0 view .LVU816
	movs	r4, #0
.LVL240:
.L160:
	.loc 3 787 36 is_stmt 1 discriminator 1 view .LVU817
	.loc 3 787 5 is_stmt 0 discriminator 1 view .LVU818
	cmp	r6, r4
	bls	.L169
	.loc 3 789 9 is_stmt 1 view .LVU819
	.loc 3 789 20 is_stmt 0 view .LVU820
	adds	r3, r7, r4
	.loc 3 789 13 view .LVU821
	ldrb	r2, [sp, #21]	@ zero_extendqisi2
	add	r1, sp, #4
	adds	r0, r5, r3
	bl	memcmp
.LVL241:
	.loc 3 789 12 view .LVU822
	cbz	r0, .L166
	.loc 3 787 67 is_stmt 1 discriminator 2 view .LVU823
	.loc 3 787 79 is_stmt 0 discriminator 2 view .LVU824
	ldrb	r3, [sp, #21]	@ zero_extendqisi2
	add	r4, r4, r3
.LVL242:
	.loc 3 787 79 discriminator 2 view .LVU825
	uxth	r4, r4
.LVL243:
	.loc 3 787 79 discriminator 2 view .LVU826
	b	.L160
.L169:
	.loc 3 787 79 discriminator 2 view .LVU827
.LBE54:
	.loc 3 796 11 view .LVU828
	movs	r0, #0
.LBB55:
	b	.L153
.LVL244:
.L162:
	.loc 3 796 11 view .LVU829
.LBE55:
	.loc 3 748 15 view .LVU830
	movs	r0, #0
.LVL245:
	.loc 3 748 15 view .LVU831
	b	.L153
.LVL246:
.L163:
	.loc 3 748 15 view .LVU832
	movs	r0, #0
.LVL247:
	.loc 3 748 15 view .LVU833
	b	.L153
.LVL248:
.L165:
	.loc 3 781 15 view .LVU834
	movs	r0, #0
	b	.L153
.LVL249:
.L166:
.LBB56:
	.loc 3 791 19 view .LVU835
	movs	r0, #1
	b	.L153
.LBE56:
.LFE238:
	.size	ble_advdata_uuid_find, .-ble_advdata_uuid_find
	.section	.text.ble_advdata_appearance_find,"ax",%progbits
	.align	1
	.global	ble_advdata_appearance_find
	.syntax unified
	.thumb
	.thumb_func
	.fpu fpv4-sp-d16
	.type	ble_advdata_appearance_find, %function
ble_advdata_appearance_find:
.LVL250:
.LFB239:
	.loc 3 803 1 is_stmt 1 view -0
	@ args = 0, pretend = 0, frame = 8
	@ frame_needed = 0, uses_anonymous_args = 0
	.loc 3 803 1 is_stmt 0 view .LVU837
	push	{r4, r5, lr}
.LCFI53:
	sub	sp, sp, #12
.LCFI54:
	mov	r5, r0
	mov	r4, r2
	.loc 3 804 5 is_stmt 1 view .LVU838
	.loc 3 804 14 is_stmt 0 view .LVU839
	movs	r3, #0
	strh	r3, [sp, #6]	@ movhi
	.loc 3 805 5 is_stmt 1 view .LVU840
	.loc 3 806 5 view .LVU841
	.loc 3 808 5 view .LVU842
	.loc 3 808 22 is_stmt 0 view .LVU843
	movs	r3, #25
	add	r2, sp, #6
.LVL251:
	.loc 3 808 22 view .LVU844
	bl	ble_advdata_search
.LVL252:
	.loc 3 810 5 is_stmt 1 view .LVU845
	.loc 3 810 23 is_stmt 0 view .LVU846
	ldrh	r3, [sp, #6]
	.loc 3 810 8 view .LVU847
	cbz	r3, .L172
	uxtb	r0, r0
	.loc 3 811 9 view .LVU848
	cbz	r4, .L173
	.loc 3 812 9 view .LVU849
	cbz	r0, .L174
	.loc 3 818 5 is_stmt 1 view .LVU850
	.loc 3 818 26 is_stmt 0 view .LVU851
	adds	r2, r5, r3
.LVL253:
.LBB57:
.LBI57:
	.loc 4 993 24 is_stmt 1 view .LVU852
.LBB58:
	.loc 4 995 9 view .LVU853
	.loc 4 995 57 is_stmt 0 view .LVU854
	ldrb	r3, [r5, r3]	@ zero_extendqisi2
	.loc 4 996 57 view .LVU855
	ldrb	r2, [r2, #1]	@ zero_extendqisi2
.LVL254:
	.loc 4 995 63 view .LVU856
	orr	r3, r3, r2, lsl #8
.LVL255:
	.loc 4 995 63 view .LVU857
.LBE58:
.LBE57:
	.loc 3 820 5 is_stmt 1 view .LVU858
	.loc 3 820 31 is_stmt 0 view .LVU859
	ldrh	r2, [r4]
	.loc 3 820 8 view .LVU860
	cmp	r2, r3
	beq	.L175
	.loc 3 826 11 view .LVU861
	movs	r0, #0
.LVL256:
	.loc 3 826 11 view .LVU862
	b	.L171
.LVL257:
.L172:
	.loc 3 815 15 view .LVU863
	movs	r0, #0
.LVL258:
.L171:
	.loc 3 827 1 view .LVU864
	add	sp, sp, #12
.LCFI55:
	@ sp needed
	pop	{r4, r5, pc}
.LVL259:
.L173:
.LCFI56:
	.loc 3 815 15 view .LVU865
	movs	r0, #0
.LVL260:
	.loc 3 815 15 view .LVU866
	b	.L171
.LVL261:
.L174:
	.loc 3 815 15 view .LVU867
	movs	r0, #0
.LVL262:
	.loc 3 815 15 view .LVU868
	b	.L171
.LVL263:
.L175:
	.loc 3 822 15 view .LVU869
	movs	r0, #1
.LVL264:
	.loc 3 822 15 view .LVU870
	b	.L171
.LFE239:
	.size	ble_advdata_appearance_find, .-ble_advdata_appearance_find
	.section	.debug_frame,"",%progbits
.Lframe0:
	.4byte	.LECIE0-.LSCIE0
.LSCIE0:
	.4byte	0xffffffff
	.byte	0x3
	.ascii	"\000"
	.uleb128 0x1
	.sleb128 -4
	.uleb128 0xe
	.byte	0xc
	.uleb128 0xd
	.uleb128 0
	.align	2
.LECIE0:
.LSFDE0:
	.4byte	.LEFDE0-.LASFDE0
.LASFDE0:
	.4byte	.Lframe0
	.4byte	.LFB1
	.4byte	.LFE1-.LFB1
	.align	2
.LEFDE0:
.LSFDE2:
	.4byte	.LEFDE2-.LASFDE2
.LASFDE2:
	.4byte	.Lframe0
	.4byte	.LFB13
	.4byte	.LFE13-.LFB13
	.align	2
.LEFDE2:
.LSFDE4:
	.4byte	.LEFDE4-.LASFDE4
.LASFDE4:
	.4byte	.Lframe0
	.4byte	.LFB17
	.4byte	.LFE17-.LFB17
	.align	2
.LEFDE4:
.LSFDE6:
	.4byte	.LEFDE6-.LASFDE6
.LASFDE6:
	.4byte	.Lframe0
	.4byte	.LFB199
	.4byte	.LFE199-.LFB199
	.align	2
.LEFDE6:
.LSFDE8:
	.4byte	.LEFDE8-.LASFDE8
.LASFDE8:
	.4byte	.Lframe0
	.4byte	.LFB223
	.4byte	.LFE223-.LFB223
	.byte	0x4
	.4byte	.LCFI0-.LFB223
	.byte	0xe
	.uleb128 0x14
	.byte	0x84
	.uleb128 0x5
	.byte	0x85
	.uleb128 0x4
	.byte	0x86
	.uleb128 0x3
	.byte	0x87
	.uleb128 0x2
	.byte	0x8e
	.uleb128 0x1
	.byte	0x4
	.4byte	.LCFI1-.LCFI0
	.byte	0xe
	.uleb128 0x20
	.byte	0x4
	.4byte	.LCFI2-.LCFI1
	.byte	0xa
	.byte	0xe
	.uleb128 0x14
	.byte	0x4
	.4byte	.LCFI3-.LCFI2
	.byte	0xb
	.align	2
.LEFDE8:
.LSFDE10:
	.4byte	.LEFDE10-.LASFDE10
.LASFDE10:
	.4byte	.Lframe0
	.4byte	.LFB224
	.4byte	.LFE224-.LFB224
	.byte	0x4
	.4byte	.LCFI4-.LFB224
	.byte	0xe
	.uleb128 0xc
	.byte	0x84
	.uleb128 0x3
	.byte	0x85
	.uleb128 0x2
	.byte	0x8e
	.uleb128 0x1
	.byte	0x4
	.4byte	.LCFI5-.LCFI4
	.byte	0xe
	.uleb128 0x18
	.byte	0x4
	.4byte	.LCFI6-.LCFI5
	.byte	0xe
	.uleb128 0xc
	.byte	0x4
	.4byte	.LCFI7-.LCFI6
	.byte	0xe
	.uleb128 0
	.byte	0xc4
	.byte	0xc5
	.byte	0xce
	.align	2
.LEFDE10:
.LSFDE12:
	.4byte	.LEFDE12-.LASFDE12
.LASFDE12:
	.4byte	.Lframe0
	.4byte	.LFB225
	.4byte	.LFE225-.LFB225
	.byte	0x4
	.4byte	.LCFI8-.LFB225
	.byte	0xe
	.uleb128 0x8
	.byte	0x84
	.uleb128 0x2
	.byte	0x85
	.uleb128 0x1
	.byte	0x4
	.4byte	.LCFI9-.LCFI8
	.byte	0xa
	.byte	0xc5
	.byte	0xc4
	.byte	0xe
	.uleb128 0
	.byte	0x4
	.4byte	.LCFI10-.LCFI9
	.byte	0xb
	.align	2
.LEFDE12:
.LSFDE14:
	.4byte	.LEFDE14-.LASFDE14
.LASFDE14:
	.4byte	.Lframe0
	.4byte	.LFB226
	.4byte	.LFE226-.LFB226
	.byte	0x4
	.4byte	.LCFI11-.LFB226
	.byte	0xe
	.uleb128 0x8
	.byte	0x84
	.uleb128 0x2
	.byte	0x85
	.uleb128 0x1
	.byte	0x4
	.4byte	.LCFI12-.LCFI11
	.byte	0xa
	.byte	0xc5
	.byte	0xc4
	.byte	0xe
	.uleb128 0
	.byte	0x4
	.4byte	.LCFI13-.LCFI12
	.byte	0xb
	.align	2
.LEFDE14:
.LSFDE16:
	.4byte	.LEFDE16-.LASFDE16
.LASFDE16:
	.4byte	.Lframe0
	.4byte	.LFB227
	.4byte	.LFE227-.LFB227
	.byte	0x4
	.4byte	.LCFI14-.LFB227
	.byte	0xe
	.uleb128 0x24
	.byte	0x84
	.uleb128 0x9
	.byte	0x85
	.uleb128 0x8
	.byte	0x86
	.uleb128 0x7
	.byte	0x87
	.uleb128 0x6
	.byte	0x88
	.uleb128 0x5
	.byte	0x89
	.uleb128 0x4
	.byte	0x8a
	.uleb128 0x3
	.byte	0x8b
	.uleb128 0x2
	.byte	0x8e
	.uleb128 0x1
	.byte	0x4
	.4byte	.LCFI15-.LCFI14
	.byte	0xe
	.uleb128 0x38
	.byte	0x4
	.4byte	.LCFI16-.LCFI15
	.byte	0xa
	.byte	0xe
	.uleb128 0x24
	.byte	0x4
	.4byte	.LCFI17-.LCFI16
	.byte	0xb
	.align	2
.LEFDE16:
.LSFDE18:
	.4byte	.LEFDE18-.LASFDE18
.LASFDE18:
	.4byte	.Lframe0
	.4byte	.LFB228
	.4byte	.LFE228-.LFB228
	.byte	0x4
	.4byte	.LCFI18-.LFB228
	.byte	0xe
	.uleb128 0x18
	.byte	0x84
	.uleb128 0x6
	.byte	0x85
	.uleb128 0x5
	.byte	0x86
	.uleb128 0x4
	.byte	0x87
	.uleb128 0x3
	.byte	0x88
	.uleb128 0x2
	.byte	0x8e
	.uleb128 0x1
	.byte	0x4
	.4byte	.LCFI19-.LCFI18
	.byte	0xe
	.uleb128 0x20
	.byte	0x4
	.4byte	.LCFI20-.LCFI19
	.byte	0xa
	.byte	0xe
	.uleb128 0x18
	.byte	0x4
	.4byte	.LCFI21-.LCFI20
	.byte	0xb
	.align	2
.LEFDE18:
.LSFDE20:
	.4byte	.LEFDE20-.LASFDE20
.LASFDE20:
	.4byte	.Lframe0
	.4byte	.LFB229
	.4byte	.LFE229-.LFB229
	.align	2
.LEFDE20:
.LSFDE22:
	.4byte	.LEFDE22-.LASFDE22
.LASFDE22:
	.4byte	.Lframe0
	.4byte	.LFB230
	.4byte	.LFE230-.LFB230
	.byte	0x4
	.4byte	.LCFI22-.LFB230
	.byte	0xe
	.uleb128 0x18
	.byte	0x83
	.uleb128 0x6
	.byte	0x84
	.uleb128 0x5
	.byte	0x85
	.uleb128 0x4
	.byte	0x86
	.uleb128 0x3
	.byte	0x87
	.uleb128 0x2
	.byte	0x8e
	.uleb128 0x1
	.align	2
.LEFDE22:
.LSFDE24:
	.4byte	.LEFDE24-.LASFDE24
.LASFDE24:
	.4byte	.Lframe0
	.4byte	.LFB222
	.4byte	.LFE222-.LFB222
	.byte	0x4
	.4byte	.LCFI23-.LFB222
	.byte	0xe
	.uleb128 0x10
	.byte	0x84
	.uleb128 0x4
	.byte	0x85
	.uleb128 0x3
	.byte	0x86
	.uleb128 0x2
	.byte	0x8e
	.uleb128 0x1
	.byte	0x4
	.4byte	.LCFI24-.LCFI23
	.byte	0xe
	.uleb128 0x18
	.byte	0x4
	.4byte	.LCFI25-.LCFI24
	.byte	0xe
	.uleb128 0x10
	.align	2
.LEFDE24:
.LSFDE26:
	.4byte	.LEFDE26-.LASFDE26
.LASFDE26:
	.4byte	.Lframe0
	.4byte	.LFB231
	.4byte	.LFE231-.LFB231
	.byte	0x4
	.4byte	.LCFI26-.LFB231
	.byte	0xe
	.uleb128 0x10
	.byte	0x84
	.uleb128 0x4
	.byte	0x85
	.uleb128 0x3
	.byte	0x86
	.uleb128 0x2
	.byte	0x8e
	.uleb128 0x1
	.align	2
.LEFDE26:
.LSFDE28:
	.4byte	.LEFDE28-.LASFDE28
.LASFDE28:
	.4byte	.Lframe0
	.4byte	.LFB232
	.4byte	.LFE232-.LFB232
	.byte	0x4
	.4byte	.LCFI27-.LFB232
	.byte	0xe
	.uleb128 0x18
	.byte	0x84
	.uleb128 0x6
	.byte	0x85
	.uleb128 0x5
	.byte	0x86
	.uleb128 0x4
	.byte	0x87
	.uleb128 0x3
	.byte	0x88
	.uleb128 0x2
	.byte	0x8e
	.uleb128 0x1
	.byte	0x4
	.4byte	.LCFI28-.LCFI27
	.byte	0xe
	.uleb128 0
	.byte	0xc4
	.byte	0xc5
	.byte	0xc6
	.byte	0xc7
	.byte	0xc8
	.byte	0xce
	.byte	0x4
	.4byte	.LCFI29-.LCFI28
	.byte	0xe
	.uleb128 0x18
	.byte	0x84
	.uleb128 0x6
	.byte	0x85
	.uleb128 0x5
	.byte	0x86
	.uleb128 0x4
	.byte	0x87
	.uleb128 0x3
	.byte	0x88
	.uleb128 0x2
	.byte	0x8e
	.uleb128 0x1
	.align	2
.LEFDE28:
.LSFDE30:
	.4byte	.LEFDE30-.LASFDE30
.LASFDE30:
	.4byte	.Lframe0
	.4byte	.LFB233
	.4byte	.LFE233-.LFB233
	.byte	0x4
	.4byte	.LCFI30-.LFB233
	.byte	0xe
	.uleb128 0x14
	.byte	0x84
	.uleb128 0x5
	.byte	0x85
	.uleb128 0x4
	.byte	0x86
	.uleb128 0x3
	.byte	0x87
	.uleb128 0x2
	.byte	0x8e
	.uleb128 0x1
	.byte	0x4
	.4byte	.LCFI31-.LCFI30
	.byte	0xe
	.uleb128 0x20
	.byte	0x4
	.4byte	.LCFI32-.LCFI31
	.byte	0xa
	.byte	0xe
	.uleb128 0x14
	.byte	0x4
	.4byte	.LCFI33-.LCFI32
	.byte	0xb
	.align	2
.LEFDE30:
.LSFDE32:
	.4byte	.LEFDE32-.LASFDE32
.LASFDE32:
	.4byte	.Lframe0
	.4byte	.LFB234
	.4byte	.LFE234-.LFB234
	.byte	0x4
	.4byte	.LCFI34-.LFB234
	.byte	0xe
	.uleb128 0x8
	.byte	0x84
	.uleb128 0x2
	.byte	0x85
	.uleb128 0x1
	.byte	0x4
	.4byte	.LCFI35-.LCFI34
	.byte	0xc5
	.byte	0xc4
	.byte	0xe
	.uleb128 0
	.byte	0x4
	.4byte	.LCFI36-.LCFI35
	.byte	0xe
	.uleb128 0x8
	.byte	0x84
	.uleb128 0x2
	.byte	0x85
	.uleb128 0x1
	.align	2
.LEFDE32:
.LSFDE34:
	.4byte	.LEFDE34-.LASFDE34
.LASFDE34:
	.4byte	.Lframe0
	.4byte	.LFB235
	.4byte	.LFE235-.LFB235
	.byte	0x4
	.4byte	.LCFI37-.LFB235
	.byte	0xe
	.uleb128 0x8
	.byte	0x84
	.uleb128 0x2
	.byte	0x8e
	.uleb128 0x1
	.byte	0x4
	.4byte	.LCFI38-.LCFI37
	.byte	0xe
	.uleb128 0x10
	.byte	0x4
	.4byte	.LCFI39-.LCFI38
	.byte	0xa
	.byte	0xe
	.uleb128 0x8
	.byte	0x4
	.4byte	.LCFI40-.LCFI39
	.byte	0xb
	.align	2
.LEFDE34:
.LSFDE36:
	.4byte	.LEFDE36-.LASFDE36
.LASFDE36:
	.4byte	.Lframe0
	.4byte	.LFB236
	.4byte	.LFE236-.LFB236
	.byte	0x4
	.4byte	.LCFI41-.LFB236
	.byte	0xe
	.uleb128 0x10
	.byte	0x84
	.uleb128 0x4
	.byte	0x85
	.uleb128 0x3
	.byte	0x86
	.uleb128 0x2
	.byte	0x8e
	.uleb128 0x1
	.byte	0x4
	.4byte	.LCFI42-.LCFI41
	.byte	0xe
	.uleb128 0x18
	.byte	0x4
	.4byte	.LCFI43-.LCFI42
	.byte	0xa
	.byte	0xe
	.uleb128 0x10
	.byte	0x4
	.4byte	.LCFI44-.LCFI43
	.byte	0xb
	.align	2
.LEFDE36:
.LSFDE38:
	.4byte	.LEFDE38-.LASFDE38
.LASFDE38:
	.4byte	.Lframe0
	.4byte	.LFB237
	.4byte	.LFE237-.LFB237
	.byte	0x4
	.4byte	.LCFI45-.LFB237
	.byte	0xe
	.uleb128 0x14
	.byte	0x84
	.uleb128 0x5
	.byte	0x85
	.uleb128 0x4
	.byte	0x86
	.uleb128 0x3
	.byte	0x87
	.uleb128 0x2
	.byte	0x8e
	.uleb128 0x1
	.byte	0x4
	.4byte	.LCFI46-.LCFI45
	.byte	0xe
	.uleb128 0x20
	.byte	0x4
	.4byte	.LCFI47-.LCFI46
	.byte	0xa
	.byte	0xe
	.uleb128 0x14
	.byte	0x4
	.4byte	.LCFI48-.LCFI47
	.byte	0xb
	.align	2
.LEFDE38:
.LSFDE40:
	.4byte	.LEFDE40-.LASFDE40
.LASFDE40:
	.4byte	.Lframe0
	.4byte	.LFB238
	.4byte	.LFE238-.LFB238
	.byte	0x4
	.4byte	.LCFI49-.LFB238
	.byte	0xe
	.uleb128 0x14
	.byte	0x84
	.uleb128 0x5
	.byte	0x85
	.uleb128 0x4
	.byte	0x86
	.uleb128 0x3
	.byte	0x87
	.uleb128 0x2
	.byte	0x8e
	.uleb128 0x1
	.byte	0x4
	.4byte	.LCFI50-.LCFI49
	.byte	0xe
	.uleb128 0x30
	.byte	0x4
	.4byte	.LCFI51-.LCFI50
	.byte	0xa
	.byte	0xe
	.uleb128 0x14
	.byte	0x4
	.4byte	.LCFI52-.LCFI51
	.byte	0xb
	.align	2
.LEFDE40:
.LSFDE42:
	.4byte	.LEFDE42-.LASFDE42
.LASFDE42:
	.4byte	.Lframe0
	.4byte	.LFB239
	.4byte	.LFE239-.LFB239
	.byte	0x4
	.4byte	.LCFI53-.LFB239
	.byte	0xe
	.uleb128 0xc
	.byte	0x84
	.uleb128 0x3
	.byte	0x85
	.uleb128 0x2
	.byte	0x8e
	.uleb128 0x1
	.byte	0x4
	.4byte	.LCFI54-.LCFI53
	.byte	0xe
	.uleb128 0x18
	.byte	0x4
	.4byte	.LCFI55-.LCFI54
	.byte	0xa
	.byte	0xe
	.uleb128 0xc
	.byte	0x4
	.4byte	.LCFI56-.LCFI55
	.byte	0xb
	.align	2
.LEFDE42:
	.text
.Letext0:
	.file 5 "C:\\nRF5_SDK_15.0.0_a53641a\\components\\ble\\common\\ble_advdata.h"
	.file 6 "C:/Program Files (x86)/SEGGER/SEGGER Embedded Studio for ARM 4.50/include/stdint.h"