	.cpu cortex-m4
	.eabi_attribute 27, 1
	.eabi_attribute 28, 1
	.eabi_attribute 20, 1
	.eabi_attribute 21, 1
	.eabi_attribute 23, 3
	.eabi_attribute 24, 1
	.eabi_attribute 25, 1
	.eabi_attribute 26, 1
	.eabi_attribute 30, 1
	.eabi_attribute 34, 1
	.eabi_attribute 18, 4
	.file	"ble_advertising.c"
	.text
.Ltext0:
	.section	.text.sd_ble_gap_adv_set_configure,"ax",%progbits
	.align	1
	.syntax unified
	.thumb
	.thumb_func
	.fpu fpv4-sp-d16
	.type	sd_ble_gap_adv_set_configure, %function
sd_ble_gap_adv_set_configure:
.LVL0:
.LFB148:
	.file 1 "../../../../../../components/softdevice/s132/headers/ble_gap.h"
	.loc 1 1791 197 view -0
	@ Naked Function: prologue and epilogue provided by programmer.
	@ args = 0, pretend = 0, frame = 0
	@ frame_needed = 0, uses_anonymous_args = 0
	.loc 1 1791 199 view .LVU1
	.syntax unified
@ 1791 "../../../../../../components/softdevice/s132/headers/ble_gap.h" 1
	svc #114
bx r14
@ 0 "" 2
.LVL1:
	.loc 1 1791 2 is_stmt 0 view .LVU2
	.thumb
	.syntax unified
.LFE148:
	.size	sd_ble_gap_adv_set_configure, .-sd_ble_gap_adv_set_configure
	.section	.text.sd_ble_gap_adv_start,"ax",%progbits
	.align	1
	.syntax unified
	.thumb
	.thumb_func
	.fpu fpv4-sp-d16
	.type	sd_ble_gap_adv_start, %function
sd_ble_gap_adv_start:
.LVL2:
.LFB149:
	.loc 1 1835 128 is_stmt 1 view -0
	@ Naked Function: prologue and epilogue provided by programmer.
	@ args = 0, pretend = 0, frame = 0
	@ frame_needed = 0, uses_anonymous_args = 0
	.loc 1 1835 130 view .LVU4
	.syntax unified
@ 1835 "../../../../../../components/softdevice/s132/headers/ble_gap.h" 1
	svc #115
bx r14
@ 0 "" 2
.LVL3:
	.loc 1 1835 2 is_stmt 0 view .LVU5
	.thumb
	.syntax unified
.LFE149:
	.size	sd_ble_gap_adv_start, .-sd_ble_gap_adv_start
	.section	.text.sd_ble_gap_adv_stop,"ax",%progbits
	.align	1
	.syntax unified
	.thumb
	.thumb_func
	.fpu fpv4-sp-d16
	.type	sd_ble_gap_adv_stop, %function
sd_ble_gap_adv_stop:
.LVL4:
.LFB150:
	.loc 1 1851 105 is_stmt 1 view -0
	@ Naked Function: prologue and epilogue provided by programmer.
	@ args = 0, pretend = 0, frame = 0
	@ frame_needed = 0, uses_anonymous_args = 0
	.loc 1 1851 107 view .LVU7
	.syntax unified
@ 1851 "../../../../../../components/softdevice/s132/headers/ble_gap.h" 1
	svc #116
bx r14
@ 0 "" 2
.LVL5:
	.loc 1 1851 2 is_stmt 0 view .LVU8
	.thumb
	.syntax unified
.LFE150:
	.size	sd_ble_gap_adv_stop, .-sd_ble_gap_adv_stop
	.section	.text.whitelist_has_entries,"ax",%progbits
	.align	1
	.syntax unified
	.thumb
	.thumb_func
	.fpu fpv4-sp-d16
	.type	whitelist_has_entries, %function
whitelist_has_entries:
.LVL6:
.LFB266:
	.file 2 "C:\\nRF5_SDK_15.0.0_a53641a\\components\\ble\\ble_advertising\\ble_advertising.c"
	.loc 2 59 1 is_stmt 1 view -0
	@ args = 0, pretend = 0, frame = 0
	@ frame_needed = 0, uses_anonymous_args = 0
	@ link register save eliminated.
	.loc 2 60 5 view .LVU10
	.loc 2 61 1 is_stmt 0 view .LVU11
	ldrb	r0, [r0, #180]	@ zero_extendqisi2
.LVL7:
	.loc 2 61 1 view .LVU12
	bx	lr
.LFE266:
	.size	whitelist_has_entries, .-whitelist_has_entries
	.section	.text.addr_is_valid,"ax",%progbits
	.align	1
	.syntax unified
	.thumb
	.thumb_func
	.fpu fpv4-sp-d16
	.type	addr_is_valid, %function
addr_is_valid:
.LVL8:
.LFB267:
	.loc 2 69 1 is_stmt 1 view -0
	@ args = 0, pretend = 0, frame = 0
	@ frame_needed = 0, uses_anonymous_args = 0
	@ link register save eliminated.
	.loc 2 70 5 view .LVU14
.LBB2:
	.loc 2 70 10 view .LVU15
	.loc 2 70 19 is_stmt 0 view .LVU16
	movs	r3, #0
.LVL9:
.L6:
	.loc 2 70 26 is_stmt 1 discriminator 1 view .LVU17
	.loc 2 70 5 is_stmt 0 discriminator 1 view .LVU18
	cmp	r3, #5
	bhi	.L10
	.loc 2 72 9 is_stmt 1 view .LVU19
	.loc 2 72 19 is_stmt 0 view .LVU20
	ldrb	r2, [r0, r3]	@ zero_extendqisi2
	.loc 2 72 12 view .LVU21
	cbnz	r2, .L9
	.loc 2 70 35 is_stmt 1 discriminator 2 view .LVU22
	.loc 2 70 36 is_stmt 0 discriminator 2 view .LVU23
	adds	r3, r3, #1
.LVL10:
	.loc 2 70 36 discriminator 2 view .LVU24
	b	.L6
.L10:
	.loc 2 70 36 discriminator 2 view .LVU25
.LBE2:
	.loc 2 77 11 view .LVU26
	movs	r0, #0
.LVL11:
.LBB3:
	.loc 2 77 11 view .LVU27
	bx	lr
.LVL12:
.L9:
	.loc 2 74 19 view .LVU28
	movs	r0, #1
.LVL13:
	.loc 2 74 19 view .LVU29
.LBE3:
	.loc 2 78 1 view .LVU30
	bx	lr
.LFE267:
	.size	addr_is_valid, .-addr_is_valid
	.section	.text.adv_mode_next_get,"ax",%progbits
	.align	1
	.syntax unified
	.thumb
	.thumb_func
	.fpu fpv4-sp-d16
	.type	adv_mode_next_get, %function
adv_mode_next_get:
.LVL14:
.LFB268:
	.loc 2 86 1 is_stmt 1 view -0
	@ args = 0, pretend = 0, frame = 0
	@ frame_needed = 0, uses_anonymous_args = 0
	@ link register save eliminated.
	.loc 2 87 5 view .LVU32
	.loc 2 87 39 is_stmt 0 view .LVU33
	adds	r3, r0, #1
	.loc 2 87 44 view .LVU34
	ldr	r0, .L12
.LVL15:
	.loc 2 87 44 view .LVU35
	smull	r2, r0, r0, r3
	asrs	r0, r0, #1
	add	r0, r0, r0, lsl #2
	subs	r0, r3, r0
	.loc 2 88 1 view .LVU36
	uxtb	r0, r0
	bx	lr
.L13:
	.align	2
.L12:
	.word	1717986919
.LFE268:
	.size	adv_mode_next_get, .-adv_mode_next_get
	.section	.text.on_connected,"ax",%progbits
	.align	1
	.syntax unified
	.thumb
	.thumb_func
	.fpu fpv4-sp-d16
	.type	on_connected, %function
on_connected:
.LVL16:
.LFB269:
	.loc 2 96 1 is_stmt 1 view -0
	@ args = 0, pretend = 0, frame = 0
	@ frame_needed = 0, uses_anonymous_args = 0
	@ link register save eliminated.
	.loc 2 97 5 view .LVU38
	.loc 2 97 48 is_stmt 0 view .LVU39
	ldrb	r3, [r1, #15]	@ zero_extendqisi2
	.loc 2 97 8 view .LVU40
	cmp	r3, #1
	beq	.L16
.L14:
	.loc 2 101 1 view .LVU41
	bx	lr
.L16:
	.loc 2 99 9 is_stmt 1 view .LVU42
	.loc 2 99 79 is_stmt 0 view .LVU43
	ldrh	r3, [r1, #4]
	.loc 2 99 55 view .LVU44
	strh	r3, [r0, #168]	@ movhi
	.loc 2 101 1 view .LVU45
	b	.L14
.LFE269:
	.size	on_connected, .-on_connected
	.section	.text.adv_mode_next_avail_get,"ax",%progbits
	.align	1
	.syntax unified
	.thumb
	.thumb_func
	.fpu fpv4-sp-d16
	.type	adv_mode_next_avail_get, %function
adv_mode_next_avail_get:
.LVL17:
.LFB273:
	.loc 2 175 1 is_stmt 1 view -0
	@ args = 0, pretend = 0, frame = 0
	@ frame_needed = 0, uses_anonymous_args = 0
	.loc 2 175 1 is_stmt 0 view .LVU47
	push	{r3, r4, r5, lr}
.LCFI0:
	mov	r4, r0
	mov	r5, r1
	.loc 2 176 4 is_stmt 1 view .LVU48
	.loc 2 176 30 is_stmt 0 view .LVU49
	adds	r0, r0, #171
.LVL18:
	.loc 2 176 30 view .LVU50
	bl	addr_is_valid
.LVL19:
	.loc 2 180 5 is_stmt 1 view .LVU51
	subs	r3, r5, #1
	cmp	r3, #3
	bhi	.L24
	tbb	[pc, r3]
.L20:
	.byte	(.L23-.L20)/2
	.byte	(.L22-.L20)/2
	.byte	(.L21-.L20)/2
	.byte	(.L19-.L20)/2
	.p2align 1
.L23:
	.loc 2 183 13 view .LVU52
	.loc 2 183 50 is_stmt 0 view .LVU53
	ldrb	r3, [r4, #6]	@ zero_extendqisi2
	.loc 2 183 16 view .LVU54
	cbz	r3, .L22
	.loc 2 184 53 view .LVU55
	ldrb	r3, [r4, #36]	@ zero_extendqisi2
	.loc 2 184 17 view .LVU56
	cbnz	r3, .L22
	.loc 2 185 17 view .LVU57
	cbnz	r0, .L25
.L22:
	.loc 2 192 13 is_stmt 1 view .LVU58
	.loc 2 192 49 is_stmt 0 view .LVU59
	ldrb	r3, [r4, #7]	@ zero_extendqisi2
	.loc 2 192 16 view .LVU60
	cbz	r3, .L21
	.loc 2 192 76 discriminator 1 view .LVU61
	cbnz	r0, .L26
.L21:
	.loc 2 199 13 is_stmt 1 view .LVU62
	.loc 2 199 48 is_stmt 0 view .LVU63
	ldrb	r3, [r4, #8]	@ zero_extendqisi2
	.loc 2 199 16 view .LVU64
	cbnz	r3, .L27
.L19:
	.loc 2 206 13 is_stmt 1 view .LVU65
	.loc 2 206 48 is_stmt 0 view .LVU66
	ldrb	r3, [r4, #9]	@ zero_extendqisi2
	.loc 2 206 16 view .LVU67
	cbnz	r3, .L28
	.loc 2 213 20 view .LVU68
	movs	r0, #0
.LVL20:
.L18:
	.loc 2 215 1 view .LVU69
	pop	{r3, r4, r5, pc}
.LVL21:
.L24:
	.loc 2 176 30 view .LVU70
	movs	r0, #0
.LVL22:
	.loc 2 176 30 view .LVU71
	b	.L18
.LVL23:
.L25:
	.loc 2 187 24 view .LVU72
	mov	r0, r5
.LVL24:
	.loc 2 187 24 view .LVU73
	b	.L18
.LVL25:
.L26:
	.loc 2 194 24 view .LVU74
	movs	r0, #2
.LVL26:
	.loc 2 194 24 view .LVU75
	b	.L18
.LVL27:
.L27:
	.loc 2 201 24 view .LVU76
	movs	r0, #3
.LVL28:
	.loc 2 201 24 view .LVU77
	b	.L18
.LVL29:
.L28:
	.loc 2 208 24 view .LVU78
	movs	r0, #4
.LVL30:
	.loc 2 208 24 view .LVU79
	b	.L18
.LFE273:
	.size	adv_mode_next_avail_get, .-adv_mode_next_avail_get
	.section	.text.set_adv_mode_directed_high_duty,"ax",%progbits
	.align	1
	.syntax unified
	.thumb
	.thumb_func
	.fpu fpv4-sp-d16
	.type	set_adv_mode_directed_high_duty, %function
set_adv_mode_directed_high_duty:
.LVL31:
.LFB274:
	.loc 2 227 1 is_stmt 1 view -0
	@ args = 0, pretend = 0, frame = 0
	@ frame_needed = 0, uses_anonymous_args = 0
	@ link register save eliminated.
	.loc 2 227 1 is_stmt 0 view .LVU81
	mov	r3, r0
	.loc 2 228 5 is_stmt 1 view .LVU82
	.loc 2 228 28 is_stmt 0 view .LVU83
	movs	r2, #1
	strb	r2, [r0, #49]
	.loc 2 229 5 is_stmt 1 view .LVU84
	.loc 2 229 31 is_stmt 0 view .LVU85
	movs	r0, #0
.LVL32:
	.loc 2 229 31 view .LVU86
	str	r0, [r3, #164]
	.loc 2 231 5 is_stmt 1 view .LVU87
	.loc 2 231 33 is_stmt 0 view .LVU88
	adds	r3, r3, #170
.LVL33:
	.loc 2 231 31 view .LVU89
	str	r3, [r1, #4]
	.loc 2 232 5 is_stmt 1 view .LVU90
	.loc 2 232 28 is_stmt 0 view .LVU91
	str	r0, [r1, #8]
	.loc 2 233 5 is_stmt 1 view .LVU92
	.loc 2 233 35 is_stmt 0 view .LVU93
	movs	r3, #2
.LVL34:
	.loc 2 233 35 view .LVU94
	strb	r3, [r1]
	.loc 2 234 5 is_stmt 1 view .LVU95
	.loc 2 234 28 is_stmt 0 view .LVU96
	movs	r3, #128
	strh	r3, [r1, #12]	@ movhi
	.loc 2 236 5 is_stmt 1 view .LVU97
	.loc 2 237 1 is_stmt 0 view .LVU98
	bx	lr
.LFE274:
	.size	set_adv_mode_directed_high_duty, .-set_adv_mode_directed_high_duty
	.section	.text.set_adv_mode_directed,"ax",%progbits
	.align	1
	.syntax unified
	.thumb
	.thumb_func
	.fpu fpv4-sp-d16
	.type	set_adv_mode_directed, %function
set_adv_mode_directed:
.LVL35:
.LFB275:
	.loc 2 249 1 is_stmt 1 view -0
	@ args = 0, pretend = 0, frame = 0
	@ frame_needed = 0, uses_anonymous_args = 0
	@ link register save eliminated.
	.loc 2 249 1 is_stmt 0 view .LVU100
	mov	r3, r0
	.loc 2 250 5 is_stmt 1 view .LVU101
	.loc 2 250 28 is_stmt 0 view .LVU102
	movs	r2, #2
	strb	r2, [r0, #49]
	.loc 2 252 5 is_stmt 1 view .LVU103
	.loc 2 252 40 is_stmt 0 view .LVU104
	ldrb	r2, [r0, #36]	@ zero_extendqisi2
	.loc 2 252 8 view .LVU105
	cbz	r2, .L32
	.loc 2 254 9 is_stmt 1 view .LVU106
	.loc 2 254 39 is_stmt 0 view .LVU107
	movs	r2, #7
	strb	r2, [r1]
.L33:
	.loc 2 263 5 is_stmt 1 view .LVU108
	.loc 2 263 61 is_stmt 0 view .LVU109
	ldr	r2, [r3, #16]
	.loc 2 263 28 view .LVU110
	strh	r2, [r1, #12]	@ movhi
	.loc 2 265 5 is_stmt 1 view .LVU111
	.loc 2 265 31 is_stmt 0 view .LVU112
	movs	r0, #0
.LVL36:
	.loc 2 265 31 view .LVU113
	str	r0, [r3, #164]
	.loc 2 267 5 is_stmt 1 view .LVU114
	.loc 2 267 33 is_stmt 0 view .LVU115
	add	r2, r3, #170
	.loc 2 267 31 view .LVU116
	str	r2, [r1, #4]
	.loc 2 268 5 is_stmt 1 view .LVU117
	.loc 2 268 61 is_stmt 0 view .LVU118
	ldr	r3, [r3, #12]
.LVL37:
	.loc 2 268 28 view .LVU119
	str	r3, [r1, #8]
	.loc 2 270 5 is_stmt 1 view .LVU120
	.loc 2 271 1 is_stmt 0 view .LVU121
	bx	lr
.LVL38:
.L32:
	.loc 2 259 9 is_stmt 1 view .LVU122
	.loc 2 259 39 is_stmt 0 view .LVU123
	movs	r2, #3
	strb	r2, [r1]
	b	.L33
.LFE275:
	.size	set_adv_mode_directed, .-set_adv_mode_directed
	.section	.text.use_whitelist,"ax",%progbits
	.align	1
	.syntax unified
	.thumb
	.thumb_func
	.fpu fpv4-sp-d16
	.type	use_whitelist, %function
use_whitelist:
.LVL39:
.LFB276:
	.loc 2 281 1 is_stmt 1 view -0
	@ args = 0, pretend = 0, frame = 0
	@ frame_needed = 0, uses_anonymous_args = 0
	.loc 2 281 1 is_stmt 0 view .LVU125
	push	{r3, lr}
.LCFI1:
	.loc 2 282 5 is_stmt 1 view .LVU126
	.loc 2 282 44 is_stmt 0 view .LVU127
	ldrb	r3, [r0, #5]	@ zero_extendqisi2
	.loc 2 283 61 view .LVU128
	cbz	r3, .L36
	.loc 2 283 27 discriminator 1 view .LVU129
	ldrb	r3, [r0, #178]	@ zero_extendqisi2
	.loc 2 282 72 discriminator 1 view .LVU130
	cbnz	r3, .L37
	.loc 2 284 13 discriminator 4 view .LVU131
	bl	whitelist_has_entries
.LVL40:
	.loc 2 283 61 discriminator 4 view .LVU132
	cbz	r0, .L38
	.loc 2 283 61 view .LVU133
	movs	r0, #1
	b	.L35
.LVL41:
.L36:
	.loc 2 283 61 view .LVU134
	movs	r0, #0
.LVL42:
.L35:
	.loc 2 285 1 discriminator 6 view .LVU135
	pop	{r3, pc}
.LVL43:
.L37:
	.loc 2 283 61 view .LVU136
	movs	r0, #0
.LVL44:
	.loc 2 283 61 view .LVU137
	b	.L35
.L38:
	movs	r0, #0
	b	.L35
.LFE276:
	.size	use_whitelist, .-use_whitelist
	.section	.text.config_is_valid,"ax",%progbits
	.align	1
	.syntax unified
	.thumb
	.thumb_func
	.fpu fpv4-sp-d16
	.type	config_is_valid, %function
config_is_valid:
.LVL45:
.LFB280:
	.loc 2 415 1 is_stmt 1 view -0
	@ args = 0, pretend = 0, frame = 0
	@ frame_needed = 0, uses_anonymous_args = 0
	@ link register save eliminated.
	.loc 2 416 5 view .LVU139
	.loc 2 416 18 is_stmt 0 view .LVU140
	ldrb	r3, [r0, #2]	@ zero_extendqisi2
	.loc 2 416 8 view .LVU141
	cbz	r3, .L41
	.loc 2 417 18 discriminator 1 view .LVU142
	ldrb	r3, [r0, #32]	@ zero_extendqisi2
	.loc 2 416 63 discriminator 1 view .LVU143
	cbnz	r3, .L43
.L41:
	.loc 2 422 10 is_stmt 1 view .LVU144
	.loc 2 422 23 is_stmt 0 view .LVU145
	ldr	r3, [r0, #40]
	.loc 2 422 13 view .LVU146
	cmp	r3, #4
	beq	.L44
	.loc 2 423 23 discriminator 1 view .LVU147
	ldr	r3, [r0, #36]
	.loc 2 422 53 discriminator 1 view .LVU148
	cmp	r3, #4
	beq	.L46
	.loc 2 430 15 view .LVU149
	movs	r0, #1
.LVL46:
	.loc 2 432 1 view .LVU150
	bx	lr
.LVL47:
.L46:
	.loc 2 425 15 view .LVU151
	movs	r0, #0
.LVL48:
	.loc 2 425 15 view .LVU152
	bx	lr
.LVL49:
.L43:
	.loc 2 419 15 view .LVU153
	movs	r0, #0
.LVL50:
	.loc 2 419 15 view .LVU154
	bx	lr
.LVL51:
.L44:
	.loc 2 425 15 view .LVU155
	movs	r0, #0
.LVL52:
	.loc 2 425 15 view .LVU156
	bx	lr
.LFE280:
	.size	config_is_valid, .-config_is_valid
	.section	.text.phy_is_valid,"ax",%progbits
	.align	1
	.syntax unified
	.thumb
	.thumb_func
	.fpu fpv4-sp-d16
	.type	phy_is_valid, %function
phy_is_valid:
.LVL53:
.LFB283:
	.loc 2 518 1 is_stmt 1 view -0
	@ args = 0, pretend = 0, frame = 0
	@ frame_needed = 0, uses_anonymous_args = 0
	@ link register save eliminated.
	.loc 2 519 5 view .LVU158
	.loc 2 519 10 is_stmt 0 view .LVU159
	ldr	r3, [r0]
	.loc 2 519 26 view .LVU160
	subs	r3, r3, #1
	.loc 2 519 8 view .LVU161
	cmp	r3, #1
	bls	.L50
	.loc 2 530 15 view .LVU162
	movs	r0, #0
.LVL54:
	.loc 2 532 1 view .LVU163
	bx	lr
.LVL55:
.L50:
	.loc 2 526 15 view .LVU164
	movs	r0, #1
.LVL56:
	.loc 2 526 15 view .LVU165
	bx	lr
.LFE283:
	.size	phy_is_valid, .-phy_is_valid
	.section	.text.flash_access_in_progress,"ax",%progbits
	.align	1
	.syntax unified
	.thumb
	.thumb_func
	.fpu fpv4-sp-d16
	.type	flash_access_in_progress, %function
flash_access_in_progress:
.LFB272:
	.loc 2 161 1 is_stmt 1 view -0
	@ args = 0, pretend = 0, frame = 0
	@ frame_needed = 0, uses_anonymous_args = 0
	push	{r3, lr}
.LCFI2:
	.loc 2 162 5 view .LVU167
	.loc 2 162 12 is_stmt 0 view .LVU168
	movs	r0, #0
	bl	nrf_fstorage_is_busy
.LVL57:
	.loc 2 163 1 view .LVU169
	pop	{r3, pc}
.LFE272:
	.size	flash_access_in_progress, .-flash_access_in_progress
	.section	.text.flags_set,"ax",%progbits
	.align	1
	.syntax unified
	.thumb
	.thumb_func
	.fpu fpv4-sp-d16
	.type	flags_set, %function
flags_set:
.LVL58:
.LFB277:
	.loc 2 296 1 is_stmt 1 view -0
	@ args = 0, pretend = 0, frame = 0
	@ frame_needed = 0, uses_anonymous_args = 0
	.loc 2 296 1 is_stmt 0 view .LVU171
	push	{r3, r4, r5, lr}
.LCFI3:
	mov	r4, r0
	mov	r5, r1
	.loc 2 297 5 is_stmt 1 view .LVU172
	.loc 2 297 25 is_stmt 0 view .LVU173
	movs	r2, #1
	ldrh	r1, [r0, #152]
.LVL59:
	.loc 2 297 25 view .LVU174
	ldr	r0, [r0, #148]
.LVL60:
	.loc 2 297 25 view .LVU175
	bl	ble_advdata_parse
.LVL61:
	.loc 2 301 5 is_stmt 1 view .LVU176
	.loc 2 301 8 is_stmt 0 view .LVU177
	cbz	r0, .L54
	.loc 2 303 9 is_stmt 1 view .LVU178
	.loc 2 303 18 is_stmt 0 view .LVU179
	strb	r5, [r0]
.L54:
	.loc 2 306 5 is_stmt 1 view .LVU180
	.loc 2 306 12 is_stmt 0 view .LVU181
	add	r2, r4, #60
	add	r1, r4, #148
	add	r0, r4, #84
.LVL62:
	.loc 2 306 12 view .LVU182
	bl	sd_ble_gap_adv_set_configure
.LVL63:
	.loc 2 307 1 view .LVU183
	pop	{r3, r4, r5, pc}
	.loc 2 307 1 view .LVU184
.LFE277:
	.size	flags_set, .-flags_set
	.section	.text.set_adv_mode_fast,"ax",%progbits
	.align	1
	.syntax unified
	.thumb
	.thumb_func
	.fpu fpv4-sp-d16
	.type	set_adv_mode_fast, %function
set_adv_mode_fast:
.LVL64:
.LFB278:
	.loc 2 319 1 is_stmt 1 view -0
	@ args = 0, pretend = 0, frame = 0
	@ frame_needed = 0, uses_anonymous_args = 0
	.loc 2 319 1 is_stmt 0 view .LVU186
	push	{r3, r4, r5, lr}
.LCFI4:
	mov	r4, r0
	mov	r5, r1
	.loc 2 320 5 is_stmt 1 view .LVU187
	.loc 2 322 5 view .LVU188
	.loc 2 322 61 is_stmt 0 view .LVU189
	ldr	r3, [r0, #20]
	.loc 2 322 28 view .LVU190
	str	r3, [r1, #8]
	.loc 2 323 5 is_stmt 1 view .LVU191
	.loc 2 323 61 is_stmt 0 view .LVU192
	ldr	r3, [r0, #24]
	.loc 2 323 28 view .LVU193
	strh	r3, [r1, #12]	@ movhi
	.loc 2 326 5 is_stmt 1 view .LVU194
	.loc 2 326 40 is_stmt 0 view .LVU195
	ldrb	r3, [r0, #36]	@ zero_extendqisi2
	.loc 2 326 8 view .LVU196
	cbz	r3, .L57
	.loc 2 328 9 is_stmt 1 view .LVU197
	.loc 2 328 51 is_stmt 0 view .LVU198
	movs	r3, #6
	strb	r3, [r0, #60]
.L58:
	.loc 2 338 5 is_stmt 1 view .LVU199
	.loc 2 338 9 is_stmt 0 view .LVU200
	mov	r0, r4
.LVL65:
	.loc 2 338 9 view .LVU201
	bl	use_whitelist
.LVL66:
	.loc 2 338 8 view .LVU202
	cbnz	r0, .L63
	.loc 2 350 9 is_stmt 1 view .LVU203
	.loc 2 350 32 is_stmt 0 view .LVU204
	movs	r3, #3
	strb	r3, [r4, #49]
.L61:
	.loc 2 352 5 is_stmt 1 view .LVU205
	.loc 2 352 33 is_stmt 0 view .LVU206
	add	r3, r4, #148
	.loc 2 352 31 view .LVU207
	str	r3, [r4, #164]
	.loc 2 353 5 is_stmt 1 view .LVU208
	.loc 2 353 12 is_stmt 0 view .LVU209
	movs	r0, #0
.L56:
	.loc 2 354 1 view .LVU210
	pop	{r3, r4, r5, pc}
.LVL67:
.L57:
	.loc 2 333 9 is_stmt 1 view .LVU211
	.loc 2 333 51 is_stmt 0 view .LVU212
	movs	r3, #1
	strb	r3, [r0, #60]
	b	.L58
.LVL68:
.L63:
	.loc 2 340 9 is_stmt 1 view .LVU213
	.loc 2 340 37 is_stmt 0 view .LVU214
	movs	r3, #2
	strb	r3, [r5, #20]
	.loc 2 343 9 is_stmt 1 view .LVU215
	.loc 2 343 15 is_stmt 0 view .LVU216
	movs	r1, #4
	mov	r0, r4
	bl	flags_set
.LVL69:
	.loc 2 344 9 is_stmt 1 view .LVU217
.LBB4:
	.loc 2 344 14 view .LVU218
	.loc 2 344 53 view .LVU219
	.loc 2 344 56 is_stmt 0 view .LVU220
	cmp	r0, #0
	bne	.L56
.LBE4:
	.loc 2 344 112 is_stmt 1 discriminator 2 view .LVU221
	.loc 2 346 9 discriminator 2 view .LVU222
	.loc 2 346 32 is_stmt 0 discriminator 2 view .LVU223
	movs	r3, #5
	strb	r3, [r4, #49]
	b	.L61
.LFE278:
	.size	set_adv_mode_fast, .-set_adv_mode_fast
	.section	.text.set_adv_mode_slow,"ax",%progbits
	.align	1
	.syntax unified
	.thumb
	.thumb_func
	.fpu fpv4-sp-d16
	.type	set_adv_mode_slow, %function
set_adv_mode_slow:
.LVL70:
.LFB279:
	.loc 2 366 1 is_stmt 1 view -0
	@ args = 0, pretend = 0, frame = 0
	@ frame_needed = 0, uses_anonymous_args = 0
	.loc 2 366 1 is_stmt 0 view .LVU225
	push	{r3, r4, r5, lr}
.LCFI5:
	mov	r4, r0
	mov	r5, r1
	.loc 2 367 5 is_stmt 1 view .LVU226
	.loc 2 369 5 view .LVU227
	.loc 2 369 61 is_stmt 0 view .LVU228
	ldr	r3, [r0, #28]
	.loc 2 369 28 view .LVU229
	str	r3, [r1, #8]
	.loc 2 370 5 is_stmt 1 view .LVU230
	.loc 2 370 61 is_stmt 0 view .LVU231
	ldr	r3, [r0, #32]
	.loc 2 370 28 view .LVU232
	strh	r3, [r1, #12]	@ movhi
	.loc 2 373 5 is_stmt 1 view .LVU233
	.loc 2 373 40 is_stmt 0 view .LVU234
	ldrb	r3, [r0, #36]	@ zero_extendqisi2
	.loc 2 373 8 view .LVU235
	cbz	r3, .L65
	.loc 2 375 9 is_stmt 1 view .LVU236
	.loc 2 375 51 is_stmt 0 view .LVU237
	movs	r3, #6
	strb	r3, [r0, #60]
.L66:
	.loc 2 385 5 is_stmt 1 view .LVU238
	.loc 2 385 9 is_stmt 0 view .LVU239
	mov	r0, r4
.LVL71:
	.loc 2 385 9 view .LVU240
	bl	use_whitelist
.LVL72:
	.loc 2 385 8 view .LVU241
	cbnz	r0, .L71
	.loc 2 397 9 is_stmt 1 view .LVU242
	.loc 2 397 32 is_stmt 0 view .LVU243
	movs	r3, #4
	strb	r3, [r4, #49]
.L69:
	.loc 2 399 5 is_stmt 1 view .LVU244
	.loc 2 399 33 is_stmt 0 view .LVU245
	add	r3, r4, #148
	.loc 2 399 31 view .LVU246
	str	r3, [r4, #164]
	.loc 2 400 5 is_stmt 1 view .LVU247
	.loc 2 400 12 is_stmt 0 view .LVU248
	movs	r0, #0
.L64:
	.loc 2 401 1 view .LVU249
	pop	{r3, r4, r5, pc}
.LVL73:
.L65:
	.loc 2 380 9 is_stmt 1 view .LVU250
	.loc 2 380 51 is_stmt 0 view .LVU251
	movs	r3, #1
	strb	r3, [r0, #60]
	b	.L66
.LVL74:
.L71:
	.loc 2 387 9 is_stmt 1 view .LVU252
	.loc 2 387 37 is_stmt 0 view .LVU253
	movs	r3, #2
	strb	r3, [r5, #20]
	.loc 2 390 9 is_stmt 1 view .LVU254
	.loc 2 390 15 is_stmt 0 view .LVU255
	movs	r1, #4
	mov	r0, r4
	bl	flags_set
.LVL75:
	.loc 2 391 9 is_stmt 1 view .LVU256
.LBB5:
	.loc 2 391 14 view .LVU257
	.loc 2 391 53 view .LVU258
	.loc 2 391 56 is_stmt 0 view .LVU259
	cmp	r0, #0
	bne	.L64
.LBE5:
	.loc 2 391 112 is_stmt 1 discriminator 2 view .LVU260
	.loc 2 393 9 discriminator 2 view .LVU261
	.loc 2 393 32 is_stmt 0 discriminator 2 view .LVU262
	movs	r3, #6
	strb	r3, [r4, #49]
	b	.L69
.LFE279:
	.size	set_adv_mode_slow, .-set_adv_mode_slow
	.section	.text.ble_advertising_conn_cfg_tag_set,"ax",%progbits
	.align	1
	.global	ble_advertising_conn_cfg_tag_set
	.syntax unified
	.thumb
	.thumb_func
	.fpu fpv4-sp-d16
	.type	ble_advertising_conn_cfg_tag_set, %function
ble_advertising_conn_cfg_tag_set:
.LVL76:
.LFB281:
	.loc 2 437 1 is_stmt 1 view -0
	@ args = 0, pretend = 0, frame = 0
	@ frame_needed = 0, uses_anonymous_args = 0
	@ link register save eliminated.
	.loc 2 438 5 view .LVU264
	.loc 2 438 33 is_stmt 0 view .LVU265
	strb	r1, [r0, #48]
	.loc 2 439 1 view .LVU266
	bx	lr
.LFE281:
	.size	ble_advertising_conn_cfg_tag_set, .-ble_advertising_conn_cfg_tag_set
	.section	.text.ble_advertising_init,"ax",%progbits
	.align	1
	.global	ble_advertising_init
	.syntax unified
	.thumb
	.thumb_func
	.fpu fpv4-sp-d16
	.type	ble_advertising_init, %function
ble_advertising_init:
.LVL77:
.LFB282:
	.loc 2 444 1 is_stmt 1 view -0
	@ args = 0, pretend = 0, frame = 0
	@ frame_needed = 0, uses_anonymous_args = 0
	.loc 2 445 5 view .LVU268
	.loc 2 446 5 view .LVU269
	.loc 2 446 8 is_stmt 0 view .LVU270
	cmp	r1, #0
	beq	.L78
	.loc 2 444 1 discriminator 1 view .LVU271
	push	{r3, r4, r5, r6, r7, lr}
.LCFI6:
	mov	r4, r0
	mov	r7, r1
	.loc 2 446 25 discriminator 1 view .LVU272
	cmp	r0, #0
	beq	.L79
	.loc 2 450 5 is_stmt 1 view .LVU273
	.loc 2 450 10 is_stmt 0 view .LVU274
	add	r0, r1, #120
.LVL78:
	.loc 2 450 10 view .LVU275
	bl	config_is_valid
.LVL79:
	.loc 2 450 8 view .LVU276
	cmp	r0, #0
	beq	.L80
	.loc 2 455 5 is_stmt 1 view .LVU277
	.loc 2 455 37 is_stmt 0 view .LVU278
	mov	ip, #0
	strb	ip, [r4, #2]
	.loc 2 456 5 is_stmt 1 view .LVU279
	.loc 2 456 37 is_stmt 0 view .LVU280
	adds	r5, r4, #4
	add	r6, r7, #120
	ldmia	r6!, {r0, r1, r2, r3}
	stmia	r5!, {r0, r1, r2, r3}
	ldmia	r6!, {r0, r1, r2, r3}
	stmia	r5!, {r0, r1, r2, r3}
	ldm	r6, {r0, r1, r2}
	stm	r5, {r0, r1, r2}
	.loc 2 457 5 is_stmt 1 view .LVU281
	.loc 2 457 33 is_stmt 0 view .LVU282
	strb	ip, [r4, #48]
	.loc 2 458 5 is_stmt 1 view .LVU283
	.loc 2 458 40 is_stmt 0 view .LVU284
	ldr	r3, [r7, #164]
	.loc 2 458 32 view .LVU285
	str	r3, [r4, #52]
	.loc 2 459 5 is_stmt 1 view .LVU286
	.loc 2 459 42 is_stmt 0 view .LVU287
	ldr	r3, [r7, #168]
	.loc 2 459 34 view .LVU288
	str	r3, [r4, #56]
	.loc 2 460 5 is_stmt 1 view .LVU289
	.loc 2 460 51 is_stmt 0 view .LVU290
	movw	r3, #65535
	strh	r3, [r4, #168]	@ movhi
	.loc 2 461 5 is_stmt 1 view .LVU291
	.loc 2 461 33 is_stmt 0 view .LVU292
	add	r3, r4, #148
	.loc 2 461 31 view .LVU293
	str	r3, [r4, #164]
	.loc 2 463 5 is_stmt 1 view .LVU294
	movs	r2, #7
	mov	r1, ip
	add	r0, r4, #170
	bl	memset
.LVL80:
	.loc 2 466 5 view .LVU295
	.loc 2 466 23 is_stmt 0 view .LVU296
	ldrb	r3, [r4]	@ zero_extendqisi2
	.loc 2 466 8 view .LVU297
	cbnz	r3, .L75
	.loc 2 468 9 is_stmt 1 view .LVU298
	.loc 2 468 35 is_stmt 0 view .LVU299
	movs	r3, #255
	strb	r3, [r4, #84]
.L75:
	.loc 2 470 5 is_stmt 1 view .LVU300
	.loc 2 470 47 is_stmt 0 view .LVU301
	add	r1, r4, #85
	.loc 2 470 45 view .LVU302
	str	r1, [r4, #148]
	.loc 2 471 5 is_stmt 1 view .LVU303
	.loc 2 471 42 is_stmt 0 view .LVU304
	mov	r2, r4
	movs	r3, #31
	strh	r3, [r2, #152]!	@ movhi
	.loc 2 473 5 is_stmt 1 view .LVU305
	.loc 2 473 11 is_stmt 0 view .LVU306
	mov	r0, r7
	bl	ble_advdata_encode
.LVL81:
	.loc 2 474 5 is_stmt 1 view .LVU307
.LBB6:
	.loc 2 474 10 view .LVU308
	.loc 2 474 49 view .LVU309
	.loc 2 474 52 is_stmt 0 view .LVU310
	cbnz	r0, .L73
.LBE6:
	.loc 2 474 108 is_stmt 1 discriminator 2 view .LVU311
	.loc 2 476 5 discriminator 2 view .LVU312
	.loc 2 476 8 is_stmt 0 discriminator 2 view .LVU313
	adds	r0, r7, #60
.LVL82:
	.loc 2 476 8 discriminator 2 view .LVU314
	beq	.L76
	.loc 2 478 9 is_stmt 1 view .LVU315
	.loc 2 478 56 is_stmt 0 view .LVU316
	add	r1, r4, #116
	.loc 2 478 54 view .LVU317
	str	r1, [r4, #156]
	.loc 2 479 9 is_stmt 1 view .LVU318
	.loc 2 479 51 is_stmt 0 view .LVU319
	mov	r2, r4
	movs	r3, #31
	strh	r3, [r2, #160]!	@ movhi
	.loc 2 481 9 is_stmt 1 view .LVU320
	.loc 2 481 15 is_stmt 0 view .LVU321
	bl	ble_advdata_encode
.LVL83:
	.loc 2 484 9 is_stmt 1 view .LVU322
.LBB7:
	.loc 2 484 14 view .LVU323
	.loc 2 484 53 view .LVU324
	.loc 2 484 56 is_stmt 0 view .LVU325
	cbz	r0, .L77
	b	.L73
.LVL84:
.L76:
	.loc 2 484 56 view .LVU326
.LBE7:
	.loc 2 488 9 is_stmt 1 view .LVU327
	.loc 2 488 54 is_stmt 0 view .LVU328
	movs	r3, #0
	str	r3, [r4, #156]
	.loc 2 489 9 is_stmt 1 view .LVU329
	.loc 2 489 51 is_stmt 0 view .LVU330
	strh	r3, [r4, #160]	@ movhi
.L77:
	.loc 2 495 5 is_stmt 1 view .LVU331
	.loc 2 495 43 is_stmt 0 view .LVU332
	movs	r3, #1
	strb	r3, [r4, #81]
	.loc 2 496 5 is_stmt 1 view .LVU333
	.loc 2 496 73 is_stmt 0 view .LVU334
	ldr	r2, [r4, #24]
	.loc 2 496 40 view .LVU335
	strh	r2, [r4, #72]	@ movhi
	.loc 2 497 5 is_stmt 1 view .LVU336
	.loc 2 497 47 is_stmt 0 view .LVU337
	strb	r3, [r4, #60]
	.loc 2 498 5 is_stmt 1 view .LVU338
	.loc 2 498 43 is_stmt 0 view .LVU339
	movs	r1, #0
	str	r1, [r4, #64]
	.loc 2 499 5 is_stmt 1 view .LVU340
	.loc 2 499 45 is_stmt 0 view .LVU341
	strb	r1, [r4, #80]
	.loc 2 500 5 is_stmt 1 view .LVU342
	.loc 2 500 73 is_stmt 0 view .LVU343
	ldr	r3, [r4, #20]
	.loc 2 500 40 view .LVU344
	str	r3, [r4, #68]
	.loc 2 502 5 is_stmt 1 view .LVU345
	.loc 2 502 11 is_stmt 0 view .LVU346
	add	r2, r4, #60
	add	r0, r4, #84
	bl	sd_ble_gap_adv_set_configure
.LVL85:
	.loc 2 503 5 is_stmt 1 view .LVU347
.LBB8:
	.loc 2 503 10 view .LVU348
	.loc 2 503 49 view .LVU349
	.loc 2 503 52 is_stmt 0 view .LVU350
	cbnz	r0, .L73
.LBE8:
	.loc 2 503 108 is_stmt 1 discriminator 2 view .LVU351
	.loc 2 505 5 discriminator 2 view .LVU352
	.loc 2 505 32 is_stmt 0 discriminator 2 view .LVU353
	movs	r3, #1
	strb	r3, [r4]
	.loc 2 506 5 is_stmt 1 discriminator 2 view .LVU354
	.loc 2 506 12 is_stmt 0 discriminator 2 view .LVU355
	b	.L73
.LVL86:
.L78:
.LCFI7:
	.loc 2 448 16 view .LVU356
	movs	r0, #14
.LVL87:
	.loc 2 507 1 view .LVU357
	bx	lr
.LVL88:
.L79:
.LCFI8:
	.loc 2 448 16 view .LVU358
	movs	r0, #14
.LVL89:
	.loc 2 448 16 view .LVU359
	b	.L73
.LVL90:
.L80:
	.loc 2 452 16 view .LVU360
	movs	r0, #7
.L73:
	.loc 2 507 1 view .LVU361
	pop	{r3, r4, r5, r6, r7, pc}
	.loc 2 507 1 view .LVU362
.LFE282:
	.size	ble_advertising_init, .-ble_advertising_init
	.section	.text.ble_advertising_start,"ax",%progbits
	.align	1
	.global	ble_advertising_start
	.syntax unified
	.thumb
	.thumb_func
	.fpu fpv4-sp-d16
	.type	ble_advertising_start, %function
ble_advertising_start:
.LVL91:
.LFB284:
	.loc 2 537 1 is_stmt 1 view -0
	@ args = 0, pretend = 0, frame = 0
	@ frame_needed = 0, uses_anonymous_args = 0
	.loc 2 538 5 view .LVU364
	.loc 2 540 5 view .LVU365
	.loc 2 540 22 is_stmt 0 view .LVU366
	ldrb	r3, [r0]	@ zero_extendqisi2
	.loc 2 540 8 view .LVU367
	cmp	r3, #0
	beq	.L106
	.loc 2 537 1 view .LVU368
	push	{r4, r5, r6, lr}
.LCFI9:
	mov	r4, r0
	mov	r5, r1
	.loc 2 545 5 is_stmt 1 view .LVU369
	.loc 2 545 37 is_stmt 0 view .LVU370
	strb	r1, [r0, #2]
	.loc 2 548 5 is_stmt 1 view .LVU371
	.loc 2 548 9 is_stmt 0 view .LVU372
	bl	flash_access_in_progress
.LVL92:
	.loc 2 548 8 view .LVU373
	cbz	r0, .L87
	.loc 2 550 9 is_stmt 1 view .LVU374
	.loc 2 550 50 is_stmt 0 view .LVU375
	movs	r3, #1
	strb	r3, [r4, #1]
	.loc 2 551 9 is_stmt 1 view .LVU376
	.loc 2 551 16 is_stmt 0 view .LVU377
	movs	r0, #0
.L85:
	.loc 2 667 1 view .LVU378
	pop	{r4, r5, r6, pc}
.LVL93:
.L87:
	.loc 2 554 4 is_stmt 1 view .LVU379
	movs	r2, #7
	movs	r1, #0
	add	r0, r4, #170
	bl	memset
.LVL94:
	.loc 2 556 5 view .LVU380
	.loc 2 557 9 is_stmt 0 view .LVU381
	ldrh	r3, [r4, #6]
	.loc 2 556 8 view .LVU382
	cbz	r3, .L88
	.loc 2 556 97 discriminator 1 view .LVU383
	ldrb	r3, [r4, #2]	@ zero_extendqisi2
	.loc 2 557 9 discriminator 1 view .LVU384
	cmp	r3, #1
	beq	.L89
.L88:
	.loc 2 558 44 view .LVU385
	ldrb	r3, [r4, #7]	@ zero_extendqisi2
	.loc 2 558 9 view .LVU386
	cbz	r3, .L90
	.loc 2 558 88 discriminator 1 view .LVU387
	ldrb	r3, [r4, #2]	@ zero_extendqisi2
	.loc 2 558 71 discriminator 1 view .LVU388
	cmp	r3, #2
	beq	.L89
.L90:
	.loc 2 572 5 is_stmt 1 view .LVU389
	.loc 2 572 39 is_stmt 0 view .LVU390
	mov	r1, r5
	mov	r0, r4
	bl	adv_mode_next_avail_get
.LVL95:
	.loc 2 572 37 view .LVU391
	strb	r0, [r4, #2]
	.loc 2 575 5 is_stmt 1 view .LVU392
	.loc 2 575 23 is_stmt 0 view .LVU393
	ldr	r3, [r4, #52]
	.loc 2 575 8 view .LVU394
	cbz	r3, .L92
	.loc 2 576 63 discriminator 1 view .LVU395
	subs	r0, r0, #3
	uxtb	r0, r0
	.loc 2 575 45 discriminator 1 view .LVU396
	cmp	r0, #1
	bls	.L112
.L92:
	.loc 2 586 9 is_stmt 1 view .LVU397
	.loc 2 586 49 is_stmt 0 view .LVU398
	movs	r3, #0
	strb	r3, [r4, #179]
.L93:
	.loc 2 590 5 is_stmt 1 view .LVU399
	.loc 2 590 12 is_stmt 0 view .LVU400
	add	r5, r4, #60
	.loc 2 590 5 view .LVU401
	movs	r2, #24
	movs	r1, #0
	mov	r0, r5
	bl	memset
.LVL96:
	.loc 2 592 5 is_stmt 1 view .LVU402
	.loc 2 592 47 is_stmt 0 view .LVU403
	movs	r3, #1
	strb	r3, [r4, #60]
	.loc 2 595 5 is_stmt 1 view .LVU404
	.loc 2 595 22 is_stmt 0 view .LVU405
	add	r6, r4, #44
	.loc 2 595 9 view .LVU406
	mov	r0, r6
	bl	phy_is_valid
.LVL97:
	.loc 2 595 8 view .LVU407
	cmp	r0, #0
	beq	.L94
	.loc 2 597 9 is_stmt 1 view .LVU408
	.loc 2 597 80 is_stmt 0 view .LVU409
	ldr	r3, [r4, #44]
	.loc 2 597 47 view .LVU410
	strb	r3, [r4, #81]
.L95:
	.loc 2 604 5 is_stmt 1 view .LVU411
	.loc 2 604 40 is_stmt 0 view .LVU412
	ldrb	r3, [r4, #36]	@ zero_extendqisi2
	.loc 2 604 8 view .LVU413
	cbz	r3, .L96
	.loc 2 607 9 is_stmt 1 view .LVU414
	.loc 2 607 13 is_stmt 0 view .LVU415
	mov	r0, r6
	bl	phy_is_valid
.LVL98:
	.loc 2 607 12 view .LVU416
	cbz	r0, .L97
	.loc 2 609 13 is_stmt 1 view .LVU417
	.loc 2 609 86 is_stmt 0 view .LVU418
	ldr	r3, [r4, #40]
	.loc 2 609 53 view .LVU419
	strb	r3, [r4, #82]
.L96:
	.loc 2 616 5 is_stmt 1 view .LVU420
	.loc 2 616 45 is_stmt 0 view .LVU421
	movs	r3, #0
	strb	r3, [r4, #80]
	.loc 2 619 5 is_stmt 1 view .LVU422
	.loc 2 619 26 is_stmt 0 view .LVU423
	ldrb	r3, [r4, #2]	@ zero_extendqisi2
	cmp	r3, #4
	bhi	.L98
	tbb	[pc, r3]
.L100:
	.byte	(.L104-.L100)/2
	.byte	(.L103-.L100)/2
	.byte	(.L102-.L100)/2
	.byte	(.L101-.L100)/2
	.byte	(.L99-.L100)/2
	.p2align 1
.L89:
	.loc 2 561 9 is_stmt 1 view .LVU424
	.loc 2 561 26 is_stmt 0 view .LVU425
	ldr	r3, [r4, #52]
	.loc 2 561 12 view .LVU426
	cbz	r3, .L91
	.loc 2 563 13 is_stmt 1 view .LVU427
	.loc 2 563 53 is_stmt 0 view .LVU428
	movs	r2, #1
	strb	r2, [r4, #177]
	.loc 2 564 13 is_stmt 1 view .LVU429
	movs	r0, #8
	blx	r3
.LVL99:
	b	.L90
.L91:
	.loc 2 568 13 view .LVU430
	.loc 2 568 53 is_stmt 0 view .LVU431
	movs	r3, #0
	strb	r3, [r4, #177]
	b	.L90
.L112:
	.loc 2 577 41 view .LVU432
	ldrb	r2, [r4, #5]	@ zero_extendqisi2
	.loc 2 576 120 view .LVU433
	cmp	r2, #0
	beq	.L92
	.loc 2 578 24 view .LVU434
	ldrb	r2, [r4, #178]	@ zero_extendqisi2
	.loc 2 577 69 view .LVU435
	cmp	r2, #0
	bne	.L92
	.loc 2 580 9 is_stmt 1 view .LVU436
	.loc 2 580 41 is_stmt 0 view .LVU437
	strb	r2, [r4, #180]
	.loc 2 581 9 is_stmt 1 view .LVU438
	.loc 2 581 49 is_stmt 0 view .LVU439
	movs	r2, #1
	strb	r2, [r4, #179]
	.loc 2 582 9 is_stmt 1 view .LVU440
	movs	r0, #7
	blx	r3
.LVL100:
	b	.L93
.L94:
	.loc 2 601 9 view .LVU441
	.loc 2 601 47 is_stmt 0 view .LVU442
	movs	r3, #1
	strb	r3, [r4, #81]
	b	.L95
.L97:
	.loc 2 613 13 is_stmt 1 view .LVU443
	.loc 2 613 53 is_stmt 0 view .LVU444
	movs	r3, #1
	strb	r3, [r4, #82]
	b	.L96
.L103:
	.loc 2 622 13 is_stmt 1 view .LVU445
	.loc 2 622 19 is_stmt 0 view .LVU446
	mov	r1, r5
	mov	r0, r4
	bl	set_adv_mode_directed_high_duty
.LVL101:
	.loc 2 623 13 is_stmt 1 view .LVU447
.L98:
	.loc 2 645 5 view .LVU448
	.loc 2 645 22 is_stmt 0 view .LVU449
	ldrb	r3, [r4, #2]	@ zero_extendqisi2
	.loc 2 645 8 view .LVU450
	cbnz	r3, .L113
.L105:
	.loc 2 661 5 is_stmt 1 view .LVU451
	.loc 2 661 22 is_stmt 0 view .LVU452
	ldr	r3, [r4, #52]
	.loc 2 661 8 view .LVU453
	cbz	r3, .L107
	.loc 2 663 9 is_stmt 1 view .LVU454
	ldrb	r0, [r4, #49]	@ zero_extendqisi2
	blx	r3
.LVL102:
	.loc 2 666 12 is_stmt 0 view .LVU455
	movs	r0, #0
	b	.L85
.L102:
	.loc 2 626 13 is_stmt 1 view .LVU456
	.loc 2 626 19 is_stmt 0 view .LVU457
	mov	r1, r5
	mov	r0, r4
	bl	set_adv_mode_directed
.LVL103:
	.loc 2 627 13 is_stmt 1 view .LVU458
	b	.L98
.L101:
	.loc 2 630 13 view .LVU459
	.loc 2 630 19 is_stmt 0 view .LVU460
	mov	r1, r5
	mov	r0, r4
	bl	set_adv_mode_fast
.LVL104:
	.loc 2 631 13 is_stmt 1 view .LVU461
	b	.L98
.L99:
	.loc 2 634 13 view .LVU462
	.loc 2 634 19 is_stmt 0 view .LVU463
	mov	r1, r5
	mov	r0, r4
	bl	set_adv_mode_slow
.LVL105:
	.loc 2 635 13 is_stmt 1 view .LVU464
	b	.L98
.L104:
	.loc 2 638 13 view .LVU465
	.loc 2 638 36 is_stmt 0 view .LVU466
	movs	r3, #0
	strb	r3, [r4, #49]
	.loc 2 639 13 is_stmt 1 view .LVU467
	b	.L98
.L113:
	.loc 2 648 9 view .LVU468
	.loc 2 648 15 is_stmt 0 view .LVU469
	mov	r2, r5
	ldr	r1, [r4, #164]
	add	r0, r4, #84
	bl	sd_ble_gap_adv_set_configure
.LVL106:
	.loc 2 649 9 is_stmt 1 view .LVU470
	.loc 2 649 12 is_stmt 0 view .LVU471
	cmp	r0, #0
	bne	.L85
	.loc 2 653 9 is_stmt 1 view .LVU472
	.loc 2 653 15 is_stmt 0 view .LVU473
	ldrb	r1, [r4, #48]	@ zero_extendqisi2
	ldrb	r0, [r4, #84]	@ zero_extendqisi2
.LVL107:
	.loc 2 653 15 view .LVU474
	bl	sd_ble_gap_adv_start
.LVL108:
	.loc 2 655 9 is_stmt 1 view .LVU475
	.loc 2 655 12 is_stmt 0 view .LVU476
	cmp	r0, #0
	beq	.L105
	b	.L85
.LVL109:
.L106:
.LCFI10:
	.loc 2 542 16 view .LVU477
	movs	r0, #8
.LVL110:
	.loc 2 667 1 view .LVU478
	bx	lr
.LVL111:
.L107:
.LCFI11:
	.loc 2 666 12 view .LVU479
	movs	r0, #0
	b	.L85
.LFE284:
	.size	ble_advertising_start, .-ble_advertising_start
	.section	.text.on_disconnected,"ax",%progbits
	.align	1
	.syntax unified
	.thumb
	.thumb_func
	.fpu fpv4-sp-d16
	.type	on_disconnected, %function
on_disconnected:
.LVL112:
.LFB270:
	.loc 2 110 1 is_stmt 1 view -0
	@ args = 0, pretend = 0, frame = 0
	@ frame_needed = 0, uses_anonymous_args = 0
	.loc 2 111 5 view .LVU481
	.loc 2 113 5 view .LVU482
	.loc 2 113 51 is_stmt 0 view .LVU483
	movs	r3, #0
	strb	r3, [r0, #178]
	.loc 2 115 5 is_stmt 1 view .LVU484
	.loc 2 115 31 is_stmt 0 view .LVU485
	ldrh	r2, [r1, #4]
	.loc 2 115 60 view .LVU486
	ldrh	r3, [r0, #168]
	.loc 2 115 8 view .LVU487
	cmp	r2, r3
	beq	.L120
	bx	lr
.L120:
	.loc 2 110 1 discriminator 1 view .LVU488
	push	{r4, lr}
.LCFI12:
	mov	r4, r0
	.loc 2 116 40 discriminator 1 view .LVU489
	ldrb	r3, [r0, #4]	@ zero_extendqisi2
	.loc 2 115 93 discriminator 1 view .LVU490
	cbz	r3, .L121
.LVL113:
.L114:
	.loc 2 124 1 view .LVU491
	pop	{r4, pc}
.LVL114:
.L121:
	.loc 2 118 8 is_stmt 1 view .LVU492
	.loc 2 118 14 is_stmt 0 view .LVU493
	movs	r1, #1
.LVL115:
	.loc 2 118 14 view .LVU494
	bl	ble_advertising_start
.LVL116:
	.loc 2 119 8 is_stmt 1 view .LVU495
	.loc 2 119 11 is_stmt 0 view .LVU496
	cmp	r0, #0
	beq	.L114
	.loc 2 119 50 discriminator 1 view .LVU497
	ldr	r3, [r4, #56]
	.loc 2 119 33 discriminator 1 view .LVU498
	cmp	r3, #0
	beq	.L114
	.loc 2 121 12 is_stmt 1 view .LVU499
	blx	r3
.LVL117:
	.loc 2 124 1 is_stmt 0 view .LVU500
	b	.L114
.LFE270:
	.size	on_disconnected, .-on_disconnected
	.section	.text.on_terminated,"ax",%progbits
	.align	1
	.syntax unified
	.thumb
	.thumb_func
	.fpu fpv4-sp-d16
	.type	on_terminated, %function
on_terminated:
.LVL118:
.LFB271:
	.loc 2 133 1 is_stmt 1 view -0
	@ args = 0, pretend = 0, frame = 0
	@ frame_needed = 0, uses_anonymous_args = 0
	.loc 2 134 5 view .LVU502
	.loc 2 136 5 view .LVU503
	.loc 2 136 26 is_stmt 0 view .LVU504
	ldrh	r3, [r1]
	.loc 2 136 8 view .LVU505
	cmp	r3, #38
	bne	.L125
	.loc 2 133 1 view .LVU506
	push	{r4, lr}
.LCFI13:
	mov	r4, r0
	.loc 2 142 5 is_stmt 1 view .LVU507
	.loc 2 142 58 is_stmt 0 view .LVU508
	ldrb	r3, [r1, #8]	@ zero_extendqisi2
	.loc 2 143 9 view .LVU509
	subs	r3, r3, #1
	uxtb	r3, r3
	.loc 2 142 8 view .LVU510
	cmp	r3, #1
	bls	.L128
.LVL119:
.L122:
	.loc 2 153 1 view .LVU511
	pop	{r4, pc}
.LVL120:
.L128:
	.loc 2 146 9 is_stmt 1 view .LVU512
	.loc 2 146 15 is_stmt 0 view .LVU513
	ldrb	r0, [r0, #2]	@ zero_extendqisi2
.LVL121:
	.loc 2 146 15 view .LVU514
	bl	adv_mode_next_get
.LVL122:
	.loc 2 146 15 view .LVU515
	mov	r1, r0
	mov	r0, r4
	bl	ble_advertising_start
.LVL123:
	.loc 2 148 9 is_stmt 1 view .LVU516
	.loc 2 148 12 is_stmt 0 view .LVU517
	cmp	r0, #0
	beq	.L122
	.loc 2 148 51 discriminator 1 view .LVU518
	ldr	r2, [r4, #56]
	.loc 2 148 34 discriminator 1 view .LVU519
	cmp	r2, #0
	beq	.L122
	.loc 2 150 13 is_stmt 1 view .LVU520
	blx	r2
.LVL124:
	.loc 2 150 13 is_stmt 0 view .LVU521
	b	.L122
.LVL125:
.L125:
.LCFI14:
	.loc 2 150 13 view .LVU522
	bx	lr
.LFE271:
	.size	on_terminated, .-on_terminated
	.section	.text.ble_advertising_on_ble_evt,"ax",%progbits
	.align	1
	.global	ble_advertising_on_ble_evt
	.syntax unified
	.thumb
	.thumb_func
	.fpu fpv4-sp-d16
	.type	ble_advertising_on_ble_evt, %function
ble_advertising_on_ble_evt:
.LVL126:
.LFB285:
	.loc 2 671 1 is_stmt 1 view -0
	@ args = 0, pretend = 0, frame = 0
	@ frame_needed = 0, uses_anonymous_args = 0
	.loc 2 671 1 is_stmt 0 view .LVU524
	push	{r3, lr}
.LCFI15:
	mov	r3, r0
	mov	r0, r1
.LVL127:
	.loc 2 672 5 is_stmt 1 view .LVU525
	.loc 2 674 5 view .LVU526
	.loc 2 674 30 is_stmt 0 view .LVU527
	ldrh	r2, [r3]
	.loc 2 674 5 view .LVU528
	cmp	r2, #17
	beq	.L130
	cmp	r2, #38
	beq	.L131
	cmp	r2, #16
	beq	.L134
.LVL128:
.L129:
	.loc 2 693 1 view .LVU529
	pop	{r3, pc}
.LVL129:
.L134:
	.loc 2 677 13 is_stmt 1 view .LVU530
	mov	r1, r3
	bl	on_connected
.LVL130:
	.loc 2 678 13 view .LVU531
	b	.L129
.LVL131:
.L130:
	.loc 2 682 13 view .LVU532
	mov	r1, r3
	bl	on_disconnected
.LVL132:
	.loc 2 683 13 view .LVU533
	b	.L129
.LVL133:
.L131:
	.loc 2 687 13 view .LVU534
	mov	r1, r3
	bl	on_terminated
.LVL134:
	.loc 2 688 13 view .LVU535
	.loc 2 693 1 is_stmt 0 view .LVU536
	b	.L129
.LFE285:
	.size	ble_advertising_on_ble_evt, .-ble_advertising_on_ble_evt
	.section	.text.ble_advertising_on_sys_evt,"ax",%progbits
	.align	1
	.global	ble_advertising_on_sys_evt
	.syntax unified
	.thumb
	.thumb_func
	.fpu fpv4-sp-d16
	.type	ble_advertising_on_sys_evt, %function
ble_advertising_on_sys_evt:
.LVL135:
.LFB286:
	.loc 2 697 1 is_stmt 1 view -0
	@ args = 0, pretend = 0, frame = 0
	@ frame_needed = 0, uses_anonymous_args = 0
	.loc 2 698 5 view .LVU538
	.loc 2 700 5 view .LVU539
	subs	r0, r0, #2
.LVL136:
	.loc 2 700 5 is_stmt 0 view .LVU540
	cmp	r0, #1
	bls	.L141
	bx	lr
.L141:
	.loc 2 697 1 view .LVU541
	push	{r4, lr}
.LCFI16:
	mov	r4, r1
	.loc 2 706 13 is_stmt 1 view .LVU542
	.loc 2 706 30 is_stmt 0 view .LVU543
	ldrb	r3, [r1, #1]	@ zero_extendqisi2
	.loc 2 706 16 view .LVU544
	cbnz	r3, .L142
.LVL137:
.L135:
	.loc 2 723 1 view .LVU545
	pop	{r4, pc}
.LVL138:
.L142:
.LBB9:
	.loc 2 708 17 is_stmt 1 view .LVU546
	.loc 2 708 58 is_stmt 0 view .LVU547
	movs	r3, #0
	strb	r3, [r1, #1]
	.loc 2 709 17 is_stmt 1 view .LVU548
	.loc 2 709 34 is_stmt 0 view .LVU549
	ldrb	r1, [r1, #2]	@ zero_extendqisi2
.LVL139:
	.loc 2 709 34 view .LVU550
	mov	r0, r4
	bl	ble_advertising_start
.LVL140:
	.loc 2 712 17 is_stmt 1 view .LVU551
	.loc 2 712 20 is_stmt 0 view .LVU552
	cmp	r0, #0
	beq	.L135
	.loc 2 712 59 discriminator 1 view .LVU553
	ldr	r2, [r4, #56]
	.loc 2 712 42 discriminator 1 view .LVU554
	cmp	r2, #0
	beq	.L135
	.loc 2 714 21 is_stmt 1 view .LVU555
	blx	r2
.LVL141:
	.loc 2 714 21 is_stmt 0 view .LVU556
.LBE9:
	.loc 2 723 1 view .LVU557
	b	.L135
.LFE286:
	.size	ble_advertising_on_sys_evt, .-ble_advertising_on_sys_evt
	.section	.text.ble_advertising_peer_addr_reply,"ax",%progbits
	.align	1
	.global	ble_advertising_peer_addr_reply
	.syntax unified
	.thumb
	.thumb_func
	.fpu fpv4-sp-d16
	.type	ble_advertising_peer_addr_reply, %function
ble_advertising_peer_addr_reply:
.LVL142:
.LFB287:
	.loc 2 728 1 is_stmt 1 view -0
	@ args = 0, pretend = 0, frame = 0
	@ frame_needed = 0, uses_anonymous_args = 0
	.loc 2 729 5 view .LVU559
	.loc 2 729 23 is_stmt 0 view .LVU560
	ldrb	r3, [r0, #177]	@ zero_extendqisi2
	.loc 2 729 8 view .LVU561
	cbz	r3, .L145
	.loc 2 728 1 view .LVU562
	push	{r4, lr}
.LCFI17:
	.loc 2 734 5 is_stmt 1 view .LVU563
	.loc 2 734 45 is_stmt 0 view .LVU564
	movs	r4, #0
	strb	r4, [r0, #177]
	.loc 2 736 5 is_stmt 1 view .LVU565
	movs	r2, #7
	adds	r0, r0, #170
.LVL143:
	.loc 2 736 5 is_stmt 0 view .LVU566
	bl	memcpy
.LVL144:
	.loc 2 738 5 is_stmt 1 view .LVU567
	.loc 2 738 12 is_stmt 0 view .LVU568
	mov	r0, r4
	.loc 2 739 1 view .LVU569
	pop	{r4, pc}
.LVL145:
.L145:
.LCFI18:
	.loc 2 731 16 view .LVU570
	movs	r0, #8
.LVL146:
	.loc 2 739 1 view .LVU571
	bx	lr
.LFE287:
	.size	ble_advertising_peer_addr_reply, .-ble_advertising_peer_addr_reply
	.section	.text.ble_advertising_whitelist_reply,"ax",%progbits
	.align	1
	.global	ble_advertising_whitelist_reply
	.syntax unified
	.thumb
	.thumb_func
	.fpu fpv4-sp-d16
	.type	ble_advertising_whitelist_reply, %function
ble_advertising_whitelist_reply:
.LVL147:
.LFB288:
	.loc 2 747 1 is_stmt 1 view -0
	@ args = 4, pretend = 0, frame = 0
	@ frame_needed = 0, uses_anonymous_args = 0
	@ link register save eliminated.
	.loc 2 748 5 view .LVU573
	.loc 2 748 23 is_stmt 0 view .LVU574
	ldrb	r3, [r0, #179]	@ zero_extendqisi2
.LVL148:
	.loc 2 748 8 view .LVU575
	cbz	r3, .L153
	.loc 2 753 5 is_stmt 1 view .LVU576
	.loc 2 753 45 is_stmt 0 view .LVU577
	movs	r3, #0
	strb	r3, [r0, #179]
	.loc 2 754 5 is_stmt 1 view .LVU578
	.loc 2 754 55 is_stmt 0 view .LVU579
	cbnz	r2, .L154
	.loc 2 754 55 discriminator 2 view .LVU580
	ldr	r3, [sp]
	cbz	r3, .L155
	.loc 2 754 55 view .LVU581
	movs	r3, #1
	b	.L152
.L154:
	movs	r3, #1
.L152:
	.loc 2 754 37 discriminator 6 view .LVU582
	strb	r3, [r0, #180]
	.loc 2 756 5 is_stmt 1 discriminator 6 view .LVU583
	.loc 2 756 12 is_stmt 0 discriminator 6 view .LVU584
	movs	r0, #0
.LVL149:
	.loc 2 756 12 discriminator 6 view .LVU585
	bx	lr
.LVL150:
.L155:
	.loc 2 754 55 view .LVU586
	movs	r3, #0
.LVL151:
	.loc 2 754 55 view .LVU587
	b	.L152
.L153:
	.loc 2 750 16 view .LVU588
	movs	r0, #8
.LVL152:
	.loc 2 757 1 view .LVU589
	bx	lr
.LFE288:
	.size	ble_advertising_whitelist_reply, .-ble_advertising_whitelist_reply
	.section	.text.ble_advertising_restart_without_whitelist,"ax",%progbits
	.align	1
	.global	ble_advertising_restart_without_whitelist
	.syntax unified
	.thumb
	.thumb_func
	.fpu fpv4-sp-d16
	.type	ble_advertising_restart_without_whitelist, %function
ble_advertising_restart_without_whitelist:
.LVL153:
.LFB289:
	.loc 2 761 1 is_stmt 1 view -0
	@ args = 0, pretend = 0, frame = 0
	@ frame_needed = 0, uses_anonymous_args = 0
	.loc 2 761 1 is_stmt 0 view .LVU591
	push	{r3, r4, r5, lr}
.LCFI19:
	mov	r4, r0
	.loc 2 762 5 is_stmt 1 view .LVU592
	.loc 2 764 5 view .LVU593
	.loc 2 764 12 is_stmt 0 view .LVU594
	ldrb	r0, [r0, #84]	@ zero_extendqisi2
.LVL154:
	.loc 2 764 12 view .LVU595
	bl	sd_ble_gap_adv_stop
.LVL155:
	.loc 2 766 5 is_stmt 1 view .LVU596
	.loc 2 766 51 is_stmt 0 view .LVU597
	movs	r3, #1
	strb	r3, [r4, #178]
	.loc 2 767 5 is_stmt 1 view .LVU598
	.loc 2 767 37 is_stmt 0 view .LVU599
	movs	r3, #0
	strb	r3, [r4, #180]
	.loc 2 768 5 is_stmt 1 view .LVU600
	.loc 2 768 45 is_stmt 0 view .LVU601
	strb	r3, [r4, #80]
	.loc 2 770 5 is_stmt 1 view .LVU602
	.loc 2 770 11 is_stmt 0 view .LVU603
	movs	r1, #6
	mov	r0, r4
	bl	flags_set
.LVL156:
	.loc 2 771 5 is_stmt 1 view .LVU604
.LBB10:
	.loc 2 771 10 view .LVU605
	.loc 2 771 49 view .LVU606
	.loc 2 771 52 is_stmt 0 view .LVU607
	mov	r5, r0
	cbz	r0, .L160
.LVL157:
.L156:
	.loc 2 771 52 view .LVU608
.LBE10:
	.loc 2 780 1 view .LVU609
	mov	r0, r5
	pop	{r3, r4, r5, pc}
.LVL158:
.L160:
	.loc 2 771 108 is_stmt 1 discriminator 2 view .LVU610
	.loc 2 773 5 discriminator 2 view .LVU611
	.loc 2 773 11 is_stmt 0 discriminator 2 view .LVU612
	ldrb	r1, [r4, #2]	@ zero_extendqisi2
	mov	r0, r4
.LVL159:
	.loc 2 773 11 discriminator 2 view .LVU613
	bl	ble_advertising_start
.LVL160:
	.loc 2 774 5 is_stmt 1 discriminator 2 view .LVU614
	.loc 2 774 8 is_stmt 0 discriminator 2 view .LVU615
	cbz	r0, .L158
	.loc 2 774 47 discriminator 1 view .LVU616
	ldr	r2, [r4, #56]
	.loc 2 774 30 discriminator 1 view .LVU617
	cmp	r2, #0
	beq	.L156
	.loc 2 776 9 is_stmt 1 view .LVU618
	blx	r2
.LVL161:
	.loc 2 776 9 is_stmt 0 view .LVU619
	b	.L156
.LVL162:
.L158:
	.loc 2 779 12 view .LVU620
	mov	r5, r0
.LVL163:
	.loc 2 779 12 view .LVU621
	b	.L156
.LFE289:
	.size	ble_advertising_restart_without_whitelist, .-ble_advertising_restart_without_whitelist
	.section	.text.ble_advertising_modes_config_set,"ax",%progbits
	.align	1
	.global	ble_advertising_modes_config_set
	.syntax unified
	.thumb
	.thumb_func
	.fpu fpv4-sp-d16
	.type	ble_advertising_modes_config_set, %function
ble_advertising_modes_config_set:
.LVL164:
.LFB290:
	.loc 2 785 1 is_stmt 1 view -0
	@ args = 0, pretend = 0, frame = 0
	@ frame_needed = 0, uses_anonymous_args = 0
	@ link register save eliminated.
	.loc 2 785 1 is_stmt 0 view .LVU623
	push	{r4, r5}
.LCFI20:
	.loc 2 786 5 is_stmt 1 view .LVU624
	.loc 2 786 37 is_stmt 0 view .LVU625
	adds	r4, r0, #4
	mov	r5, r1
	ldmia	r5!, {r0, r1, r2, r3}
.LVL165:
	.loc 2 786 37 view .LVU626
	stmia	r4!, {r0, r1, r2, r3}
.LVL166:
	.loc 2 786 37 view .LVU627
	ldmia	r5!, {r0, r1, r2, r3}
.LVL167:
	.loc 2 786 37 view .LVU628
	stmia	r4!, {r0, r1, r2, r3}
.LVL168:
	.loc 2 786 37 view .LVU629
	ldm	r5, {r0, r1, r2}
	stm	r4, {r0, r1, r2}
	.loc 2 787 1 view .LVU630
	pop	{r4, r5}
.LCFI21:
.LVL169:
	.loc 2 787 1 view .LVU631
	bx	lr
.LFE290:
	.size	ble_advertising_modes_config_set, .-ble_advertising_modes_config_set
	.section	.debug_frame,"",%progbits
.Lframe0:
	.4byte	.LECIE0-.LSCIE0
.LSCIE0:
	.4byte	0xffffffff
	.byte	0x3
	.ascii	"\000"
	.uleb128 0x1
	.sleb128 -4
	.uleb128 0xe
	.byte	0xc
	.uleb128 0xd
	.uleb128 0
	.align	2
.LECIE0:
.LSFDE0:
	.4byte	.LEFDE0-.LASFDE0
.LASFDE0:
	.4byte	.Lframe0
	.4byte	.LFB148
	.4byte	.LFE148-.LFB148
	.align	2
.LEFDE0:
.LSFDE2:
	.4byte	.LEFDE2-.LASFDE2
.LASFDE2:
	.4byte	.Lframe0
	.4byte	.LFB149
	.4byte	.LFE149-.LFB149
	.align	2
.LEFDE2:
.LSFDE4:
	.4byte	.LEFDE4-.LASFDE4
.LASFDE4:
	.4byte	.Lframe0
	.4byte	.LFB150
	.4byte	.LFE150-.LFB150
	.align	2
.LEFDE4:
.LSFDE6:
	.4byte	.LEFDE6-.LASFDE6
.LASFDE6:
	.4byte	.Lframe0
	.4byte	.LFB266
	.4byte	.LFE266-.LFB266
	.align	2
.LEFDE6:
.LSFDE8:
	.4byte	.LEFDE8-.LASFDE8
.LASFDE8:
	.4byte	.Lframe0
	.4byte	.LFB267
	.4byte	.LFE267-.LFB267
	.align	2
.LEFDE8:
.LSFDE10:
	.4byte	.LEFDE10-.LASFDE10
.LASFDE10:
	.4byte	.Lframe0
	.4byte	.LFB268
	.4byte	.LFE268-.LFB268
	.align	2
.LEFDE10:
.LSFDE12:
	.4byte	.LEFDE12-.LASFDE12
.LASFDE12:
	.4byte	.Lframe0
	.4byte	.LFB269
	.4byte	.LFE269-.LFB269
	.align	2
.LEFDE12:
.LSFDE14:
	.4byte	.LEFDE14-.LASFDE14
.LASFDE14:
	.4byte	.Lframe0
	.4byte	.LFB273
	.4byte	.LFE273-.LFB273
	.byte	0x4
	.4byte	.LCFI0-.LFB273
	.byte	0xe
	.uleb128 0x10
	.byte	0x83
	.uleb128 0x4
	.byte	0x84
	.uleb128 0x3
	.byte	0x85
	.uleb128 0x2
	.byte	0x8e
	.uleb128 0x1
	.align	2
.LEFDE14:
.LSFDE16:
	.4byte	.LEFDE16-.LASFDE16
.LASFDE16:
	.4byte	.Lframe0
	.4byte	.LFB274
	.4byte	.LFE274-.LFB274
	.align	2
.LEFDE16:
.LSFDE18:
	.4byte	.LEFDE18-.LASFDE18
.LASFDE18:
	.4byte	.Lframe0
	.4byte	.LFB275
	.4byte	.LFE275-.LFB275
	.align	2
.LEFDE18:
.LSFDE20:
	.4byte	.LEFDE20-.LASFDE20
.LASFDE20:
	.4byte	.Lframe0
	.4byte	.LFB276
	.4byte	.LFE276-.LFB276
	.byte	0x4
	.4byte	.LCFI1-.LFB276
	.byte	0xe
	.uleb128 0x8
	.byte	0x83
	.uleb128 0x2
	.byte	0x8e
	.uleb128 0x1
	.align	2
.LEFDE20:
.LSFDE22:
	.4byte	.LEFDE22-.LASFDE22
.LASFDE22:
	.4byte	.Lframe0
	.4byte	.LFB280
	.4byte	.LFE280-.LFB280
	.align	2
.LEFDE22:
.LSFDE24:
	.4byte	.LEFDE24-.LASFDE24
.LASFDE24:
	.4byte	.Lframe0
	.4byte	.LFB283
	.4byte	.LFE283-.LFB283
	.align	2
.LEFDE24:
.LSFDE26:
	.4byte	.LEFDE26-.LASFDE26
.LASFDE26:
	.4byte	.Lframe0
	.4byte	.LFB272
	.4byte	.LFE272-.LFB272
	.byte	0x4
	.4byte	.LCFI2-.LFB272
	.byte	0xe
	.uleb128 0x8
	.byte	0x83
	.uleb128 0x2
	.byte	0x8e
	.uleb128 0x1
	.align	2
.LEFDE26:
.LSFDE28:
	.4byte	.LEFDE28-.LASFDE28
.LASFDE28:
	.4byte	.Lframe0
	.4byte	.LFB277
	.4byte	.LFE277-.LFB277
	.byte	0x4
	.4byte	.LCFI3-.LFB277
	.byte	0xe
	.uleb128 0x10
	.byte	0x83
	.uleb128 0x4
	.byte	0x84
	.uleb128 0x3
	.byte	0x85
	.uleb128 0x2
	.byte	0x8e
	.uleb128 0x1
	.align	2
.LEFDE28:
.LSFDE30:
	.4byte	.LEFDE30-.LASFDE30
.LASFDE30:
	.4byte	.Lframe0
	.4byte	.LFB278
	.4byte	.LFE278-.LFB278
	.byte	0x4
	.4byte	.LCFI4-.LFB278
	.byte	0xe
	.uleb128 0x10
	.byte	0x83
	.uleb128 0x4
	.byte	0x84
	.uleb128 0x3
	.byte	0x85
	.uleb128 0x2
	.byte	0x8e
	.uleb128 0x1
	.align	2
.LEFDE30:
.LSFDE32:
	.4byte	.LEFDE32-.LASFDE32
.LASFDE32:
	.4byte	.Lframe0
	.4byte	.LFB279
	.4byte	.LFE279-.LFB279
	.byte	0x4
	.4byte	.LCFI5-.LFB279
	.byte	0xe
	.uleb128 0x10
	.byte	0x83
	.uleb128 0x4
	.byte	0x84
	.uleb128 0x3
	.byte	0x85
	.uleb128 0x2
	.byte	0x8e
	.uleb128 0x1
	.align	2
.LEFDE32:
.LSFDE34:
	.4byte	.LEFDE34-.LASFDE34
.LASFDE34:
	.4byte	.Lframe0
	.4byte	.LFB281
	.4byte	.LFE281-.LFB281
	.align	2
.LEFDE34:
.LSFDE36:
	.4byte	.LEFDE36-.LASFDE36
.LASFDE36:
	.4byte	.Lframe0
	.4byte	.LFB282
	.4byte	.LFE282-.LFB282
	.byte	0x4
	.4byte	.LCFI6-.LFB282
	.byte	0xe
	.uleb128 0x18
	.byte	0x83
	.uleb128 0x6
	.byte	0x84
	.uleb128 0x5
	.byte	0x85
	.uleb128 0x4
	.byte	0x86
	.uleb128 0x3
	.byte	0x87
	.uleb128 0x2
	.byte	0x8e
	.uleb128 0x1
	.byte	0x4
	.4byte	.LCFI7-.LCFI6
	.byte	0xe
	.uleb128 0
	.byte	0xc3
	.byte	0xc4
	.byte	0xc5
	.byte	0xc6
	.byte	0xc7
	.byte	0xce
	.byte	0x4
	.4byte	.LCFI8-.LCFI7
	.byte	0xe
	.uleb128 0x18
	.byte	0x83
	.uleb128 0x6
	.byte	0x84
	.uleb128 0x5
	.byte	0x85
	.uleb128 0x4
	.byte	0x86
	.uleb128 0x3
	.byte	0x87
	.uleb128 0x2
	.byte	0x8e
	.uleb128 0x1
	.align	2
.LEFDE36:
.LSFDE38:
	.4byte	.LEFDE38-.LASFDE38
.LASFDE38:
	.4byte	.Lframe0
	.4byte	.LFB284
	.4byte	.LFE284-.LFB284
	.byte	0x4
	.4byte	.LCFI9-.LFB284
	.byte	0xe
	.uleb128 0x10
	.byte	0x84
	.uleb128 0x4
	.byte	0x85
	.uleb128 0x3
	.byte	0x86
	.uleb128 0x2
	.byte	0x8e
	.uleb128 0x1
	.byte	0x4
	.4byte	.LCFI10-.LCFI9
	.byte	0xe
	.uleb128 0
	.byte	0xc4
	.byte	0xc5
	.byte	0xc6
	.byte	0xce
	.byte	0x4
	.4byte	.LCFI11-.LCFI10
	.byte	0xe
	.uleb128 0x10
	.byte	0x84
	.uleb128 0x4
	.byte	0x85
	.uleb128 0x3
	.byte	0x86
	.uleb128 0x2
	.byte	0x8e
	.uleb128 0x1
	.align	2
.LEFDE38:
.LSFDE40:
	.4byte	.LEFDE40-.LASFDE40
.LASFDE40:
	.4byte	.Lframe0
	.4byte	.LFB270
	.4byte	.LFE270-.LFB270
	.byte	0x4
	.4byte	.LCFI12-.LFB270
	.byte	0xe
	.uleb128 0x8
	.byte	0x84
	.uleb128 0x2
	.byte	0x8e
	.uleb128 0x1
	.align	2
.LEFDE40:
.LSFDE42:
	.4byte	.LEFDE42-.LASFDE42
.LASFDE42:
	.4byte	.Lframe0
	.4byte	.LFB271
	.4byte	.LFE271-.LFB271
	.byte	0x4
	.4byte	.LCFI13-.LFB271
	.byte	0xe
	.uleb128 0x8
	.byte	0x84
	.uleb128 0x2
	.byte	0x8e
	.uleb128 0x1
	.byte	0x4
	.4byte	.LCFI14-.LCFI13
	.byte	0xe
	.uleb128 0
	.byte	0xc4
	.byte	0xce
	.align	2
.LEFDE42:
.LSFDE44:
	.4byte	.LEFDE44-.LASFDE44
.LASFDE44:
	.4byte	.Lframe0
	.4byte	.LFB285
	.4byte	.LFE285-.LFB285
	.byte	0x4
	.4byte	.LCFI15-.LFB285
	.byte	0xe
	.uleb128 0x8
	.byte	0x83
	.uleb128 0x2
	.byte	0x8e
	.uleb128 0x1
	.align	2
.LEFDE44:
.LSFDE46:
	.4byte	.LEFDE46-.LASFDE46
.LASFDE46:
	.4byte	.Lframe0
	.4byte	.LFB286
	.4byte	.LFE286-.LFB286
	.byte	0x4
	.4byte	.LCFI16-.LFB286
	.byte	0xe
	.uleb128 0x8
	.byte	0x84
	.uleb128 0x2
	.byte	0x8e
	.uleb128 0x1
	.align	2
.LEFDE46:
.LSFDE48:
	.4byte	.LEFDE48-.LASFDE48
.LASFDE48:
	.4byte	.Lframe0
	.4byte	.LFB287
	.4byte	.LFE287-.LFB287
	.byte	0x4
	.4byte	.LCFI17-.LFB287
	.byte	0xe
	.uleb128 0x8
	.byte	0x84
	.uleb128 0x2
	.byte	0x8e
	.uleb128 0x1
	.byte	0x4
	.4byte	.LCFI18-.LCFI17
	.byte	0xe
	.uleb128 0
	.byte	0xc4
	.byte	0xce
	.align	2
.LEFDE48:
.LSFDE50:
	.4byte	.LEFDE50-.LASFDE50
.LASFDE50:
	.4byte	.Lframe0
	.4byte	.LFB288
	.4byte	.LFE288-.LFB288
	.align	2
.LEFDE50:
.LSFDE52:
	.4byte	.LEFDE52-.LASFDE52
.LASFDE52:
	.4byte	.Lframe0
	.4byte	.LFB289
	.4byte	.LFE289-.LFB289
	.byte	0x4
	.4byte	.LCFI19-.LFB289
	.byte	0xe
	.uleb128 0x10
	.byte	0x83
	.uleb128 0x4
	.byte	0x84
	.uleb128 0x3
	.byte	0x85
	.uleb128 0x2
	.byte	0x8e
	.uleb128 0x1
	.align	2
.LEFDE52:
.LSFDE54:
	.4byte	.LEFDE54-.LASFDE54
.LASFDE54:
	.4byte	.Lframe0
	.4byte	.LFB290
	.4byte	.LFE290-.LFB290
	.byte	0x4
	.4byte	.LCFI20-.LFB290
	.byte	0xe
	.uleb128 0x8
	.byte	0x84
	.uleb128 0x2
	.byte	0x85
	.uleb128 0x1
	.byte	0x4
	.4byte	.LCFI21-.LCFI20
	.byte	0xc5
	.byte	0xc4
	.byte	0xe
	.uleb128 0
	.align	2
.LEFDE54:
	.text
.Letext0:
	.file 3 "../../../../../../components/libraries/experimental_log/nrf_log_types.h"
	.file 4 "C:/Program Files (x86)/SEGGER/SEGGER Embedded Studio for ARM 4.50/include/stdint.h"