	.cpu cortex-m4
	.eabi_attribute 27, 1
	.eabi_attribute 28, 1
	.eabi_attribute 20, 1
	.eabi_attribute 21, 1
	.eabi_attribute 23, 3
	.eabi_attribute 24, 1
	.eabi_attribute 25, 1
	.eabi_attribute 26, 1
	.eabi_attribute 30, 1
	.eabi_attribute 34, 1
	.eabi_attribute 18, 4
	.file	"bluetooth.c"
	.text
.Ltext0:
	.section	.text.sd_ble_gap_disconnect,"ax",%progbits
	.align	1
	.syntax unified
	.thumb
	.thumb_func
	.fpu fpv4-sp-d16
	.type	sd_ble_gap_disconnect, %function
sd_ble_gap_disconnect:
.LVL0:
.LFB134:
	.file 1 "../../../../../../components/softdevice/s132/headers/ble_gap.h"
	.loc 1 1913 134 view -0
	@ Naked Function: prologue and epilogue provided by programmer.
	@ args = 0, pretend = 0, frame = 0
	@ frame_needed = 0, uses_anonymous_args = 0
	.loc 1 1913 136 view .LVU1
	.syntax unified
@ 1913 "../../../../../../components/softdevice/s132/headers/ble_gap.h" 1
	svc #118
bx r14
@ 0 "" 2
.LVL1:
	.loc 1 1913 2 is_stmt 0 view .LVU2
	.thumb
	.syntax unified
.LFE134:
	.size	sd_ble_gap_disconnect, .-sd_ble_gap_disconnect
	.section	.text.sd_ble_gap_ppcp_set,"ax",%progbits
	.align	1
	.syntax unified
	.thumb
	.thumb_func
	.fpu fpv4-sp-d16
	.type	sd_ble_gap_ppcp_set, %function
sd_ble_gap_ppcp_set:
.LVL2:
.LFB138:
	.loc 1 1969 129 is_stmt 1 view -0
	@ Naked Function: prologue and epilogue provided by programmer.
	@ args = 0, pretend = 0, frame = 0
	@ frame_needed = 0, uses_anonymous_args = 0
	.loc 1 1969 131 view .LVU4
	.syntax unified
@ 1969 "../../../../../../components/softdevice/s132/headers/ble_gap.h" 1
	svc #122
bx r14
@ 0 "" 2
.LVL3:
	.loc 1 1969 2 is_stmt 0 view .LVU5
	.thumb
	.syntax unified
.LFE138:
	.size	sd_ble_gap_ppcp_set, .-sd_ble_gap_ppcp_set
	.section	.text.sd_ble_gap_device_name_set,"ax",%progbits
	.align	1
	.syntax unified
	.thumb
	.thumb_func
	.fpu fpv4-sp-d16
	.type	sd_ble_gap_device_name_set, %function
sd_ble_gap_device_name_set:
.LVL4:
.LFB140:
	.loc 1 1997 178 is_stmt 1 view -0
	@ Naked Function: prologue and epilogue provided by programmer.
	@ args = 0, pretend = 0, frame = 0
	@ frame_needed = 0, uses_anonymous_args = 0
	.loc 1 1997 180 view .LVU7
	.syntax unified
@ 1997 "../../../../../../components/softdevice/s132/headers/ble_gap.h" 1
	svc #124
bx r14
@ 0 "" 2
.LVL5:
	.loc 1 1997 2 is_stmt 0 view .LVU8
	.thumb
	.syntax unified
.LFE140:
	.size	sd_ble_gap_device_name_set, .-sd_ble_gap_device_name_set
	.section	.text.sd_ble_gap_sec_params_reply,"ax",%progbits
	.align	1
	.syntax unified
	.thumb
	.thumb_func
	.fpu fpv4-sp-d16
	.type	sd_ble_gap_sec_params_reply, %function
sd_ble_gap_sec_params_reply:
.LVL6:
.LFB143:
	.loc 1 2123 219 is_stmt 1 view -0
	@ Naked Function: prologue and epilogue provided by programmer.
	@ args = 0, pretend = 0, frame = 0
	@ frame_needed = 0, uses_anonymous_args = 0
	.loc 1 2123 221 view .LVU10
	.syntax unified
@ 2123 "../../../../../../components/softdevice/s132/headers/ble_gap.h" 1
	svc #127
bx r14
@ 0 "" 2
.LVL7:
	.loc 1 2123 2 is_stmt 0 view .LVU11
	.thumb
	.syntax unified
.LFE143:
	.size	sd_ble_gap_sec_params_reply, .-sd_ble_gap_sec_params_reply
	.section	.text.sd_ble_gap_phy_update,"ax",%progbits
	.align	1
	.syntax unified
	.thumb
	.thumb_func
	.fpu fpv4-sp-d16
	.type	sd_ble_gap_phy_update, %function
sd_ble_gap_phy_update:
.LVL8:
.LFB159:
	.loc 1 2567 143 is_stmt 1 view -0
	@ Naked Function: prologue and epilogue provided by programmer.
	@ args = 0, pretend = 0, frame = 0
	@ frame_needed = 0, uses_anonymous_args = 0
	.loc 1 2567 145 view .LVU13
	.syntax unified
@ 2567 "../../../../../../components/softdevice/s132/headers/ble_gap.h" 1
	svc #143
bx r14
@ 0 "" 2
.LVL9:
	.loc 1 2567 2 is_stmt 0 view .LVU14
	.thumb
	.syntax unified
.LFE159:
	.size	sd_ble_gap_phy_update, .-sd_ble_gap_phy_update
	.section	.text.sd_ble_gatts_sys_attr_set,"ax",%progbits
	.align	1
	.syntax unified
	.thumb
	.thumb_func
	.fpu fpv4-sp-d16
	.type	sd_ble_gatts_sys_attr_set, %function
sd_ble_gatts_sys_attr_set:
.LVL10:
.LFB189:
	.file 2 "../../../../../../components/softdevice/s132/headers/ble_gatts.h"
	.loc 2 749 175 is_stmt 1 view -0
	@ Naked Function: prologue and epilogue provided by programmer.
	@ args = 0, pretend = 0, frame = 0
	@ frame_needed = 0, uses_anonymous_args = 0
	.loc 2 749 177 view .LVU16
	.syntax unified
@ 749 "../../../../../../components/softdevice/s132/headers/ble_gatts.h" 1
	svc #177
bx r14
@ 0 "" 2
.LVL11:
	.loc 2 749 2 is_stmt 0 view .LVU17
	.thumb
	.syntax unified
.LFE189:
	.size	sd_ble_gatts_sys_attr_set, .-sd_ble_gatts_sys_attr_set
	.section	.text.on_adv_evt,"ax",%progbits
	.align	1
	.syntax unified
	.thumb
	.thumb_func
	.fpu fpv4-sp-d16
	.type	on_adv_evt, %function
on_adv_evt:
.LVL12:
.LFB299:
	.file 3 "C:\\nRF5_SDK_15.0.0_a53641a\\examples\\ble_peripheral\\slam_application-master\\communication\\bluetooth.c"
	.loc 3 277 1 is_stmt 1 view -0
	@ args = 0, pretend = 0, frame = 0
	@ frame_needed = 0, uses_anonymous_args = 0
	@ link register save eliminated.
	.loc 3 278 5 view .LVU19
	.loc 3 280 5 view .LVU20
	.loc 3 289 1 is_stmt 0 view .LVU21
	bx	lr
.LFE299:
	.size	on_adv_evt, .-on_adv_evt
	.section	.rodata.nrf_qwr_error_handler.str1.4,"aMS",%progbits,1
	.align	2
.LC0:
	.ascii	"C:\\nRF5_SDK_15.0.0_a53641a\\examples\\ble_peripher"
	.ascii	"al\\slam_application-master\\communication\\bluetoo"
	.ascii	"th.c\000"
	.section	.text.nrf_qwr_error_handler,"ax",%progbits
	.align	1
	.syntax unified
	.thumb
	.thumb_func
	.fpu fpv4-sp-d16
	.type	nrf_qwr_error_handler, %function
nrf_qwr_error_handler:
.LVL13:
.LFB293:
	.loc 3 147 1 is_stmt 1 view -0
	@ args = 0, pretend = 0, frame = 0
	@ frame_needed = 0, uses_anonymous_args = 0
	.loc 3 147 1 is_stmt 0 view .LVU23
	push	{r3, lr}
.LCFI0:
	.loc 3 148 5 is_stmt 1 view .LVU24
	.loc 3 148 10 view .LVU25
	ldr	r2, .L10
	movs	r1, #148
	bl	app_error_handler
.LVL14:
	.loc 3 148 176 view .LVU26
	.loc 3 149 1 is_stmt 0 view .LVU27
	pop	{r3, pc}
.L11:
	.align	2
.L10:
	.word	.LC0
.LFE293:
	.size	nrf_qwr_error_handler, .-nrf_qwr_error_handler
	.section	.text.conn_params_error_handler,"ax",%progbits
	.align	1
	.syntax unified
	.thumb
	.thumb_func
	.fpu fpv4-sp-d16
	.type	conn_params_error_handler, %function
conn_params_error_handler:
.LVL15:
.LFB297:
	.loc 3 241 1 is_stmt 1 view -0
	@ args = 0, pretend = 0, frame = 0
	@ frame_needed = 0, uses_anonymous_args = 0
	.loc 3 241 1 is_stmt 0 view .LVU29
	push	{r3, lr}
.LCFI1:
	.loc 3 242 5 is_stmt 1 view .LVU30
	.loc 3 242 10 view .LVU31
	ldr	r2, .L14
	movs	r1, #242
	bl	app_error_handler
.LVL16:
	.loc 3 242 176 view .LVU32
	.loc 3 243 1 is_stmt 0 view .LVU33
	pop	{r3, pc}
.L15:
	.align	2
.L14:
	.word	.LC0
.LFE297:
	.size	conn_params_error_handler, .-conn_params_error_handler
	.section	.text.on_conn_params_evt,"ax",%progbits
	.align	1
	.syntax unified
	.thumb
	.thumb_func
	.fpu fpv4-sp-d16
	.type	on_conn_params_evt, %function
on_conn_params_evt:
.LVL17:
.LFB296:
	.loc 3 225 1 is_stmt 1 view -0
	@ args = 0, pretend = 0, frame = 0
	@ frame_needed = 0, uses_anonymous_args = 0
	.loc 3 225 1 is_stmt 0 view .LVU35
	push	{r3, lr}
.LCFI2:
	.loc 3 226 5 is_stmt 1 view .LVU36
	.loc 3 228 5 view .LVU37
	.loc 3 228 14 is_stmt 0 view .LVU38
	ldrb	r3, [r0]	@ zero_extendqisi2
	.loc 3 228 8 view .LVU39
	cbz	r3, .L19
.LVL18:
.L16:
	.loc 3 233 1 view .LVU40
	pop	{r3, pc}
.LVL19:
.L19:
	.loc 3 230 9 is_stmt 1 view .LVU41
	.loc 3 230 20 is_stmt 0 view .LVU42
	movs	r1, #59
	ldr	r3, .L20
	ldrh	r0, [r3]
.LVL20:
	.loc 3 230 20 view .LVU43
	bl	sd_ble_gap_disconnect
.LVL21:
	.loc 3 231 9 is_stmt 1 view .LVU44
.LBB2:
	.loc 3 231 14 view .LVU45
	.loc 3 231 58 view .LVU46
	.loc 3 231 61 is_stmt 0 view .LVU47
	cmp	r0, #0
	beq	.L16
	.loc 3 231 95 is_stmt 1 discriminator 1 view .LVU48
	.loc 3 231 100 discriminator 1 view .LVU49
	ldr	r2, .L20+4
	movs	r1, #231
	bl	app_error_handler
.LVL22:
	.loc 3 231 271 discriminator 1 view .LVU50
.LBE2:
	.loc 3 231 286 discriminator 1 view .LVU51
	.loc 3 233 1 is_stmt 0 discriminator 1 view .LVU52
	b	.L16
.L21:
	.align	2
.L20:
	.word	.LANCHOR0
	.word	.LC0
.LFE296:
	.size	on_conn_params_evt, .-on_conn_params_evt
	.section	.rodata.gatt_evt_handler.str1.4,"aMS",%progbits,1
	.align	2
.LC1:
	.ascii	"Data len is set to 0x%X(%d)\000"
	.section	.text.gatt_evt_handler,"ax",%progbits
	.align	1
	.global	gatt_evt_handler
	.syntax unified
	.thumb
	.thumb_func
	.fpu fpv4-sp-d16
	.type	gatt_evt_handler, %function
gatt_evt_handler:
.LVL23:
.LFB302:
	.loc 3 389 1 is_stmt 1 view -0
	@ args = 0, pretend = 0, frame = 0
	@ frame_needed = 0, uses_anonymous_args = 0
	.loc 3 389 1 is_stmt 0 view .LVU54
	push	{r3, lr}
.LCFI3:
	.loc 3 390 5 is_stmt 1 view .LVU55
	.loc 3 390 32 is_stmt 0 view .LVU56
	ldrh	r2, [r1, #2]
	.loc 3 390 24 view .LVU57
	ldr	r3, .L26
	ldrh	r3, [r3]
	.loc 3 390 8 view .LVU58
	cmp	r2, r3
	beq	.L25
.LVL24:
.L22:
	.loc 3 398 1 view .LVU59
	pop	{r3, pc}
.LVL25:
.L25:
	.loc 3 390 56 discriminator 1 view .LVU60
	ldrh	r2, [r1]
	.loc 3 390 47 discriminator 1 view .LVU61
	movw	r3, #2679
	cmp	r2, r3
	bne	.L22
	.loc 3 392 9 is_stmt 1 view .LVU62
	.loc 3 392 47 is_stmt 0 view .LVU63
	ldrh	r2, [r1, #4]
	.loc 3 392 70 view .LVU64
	subs	r2, r2, #3
	uxth	r2, r2
	.loc 3 392 32 view .LVU65
	ldr	r3, .L26+4
	strh	r2, [r3]	@ movhi
	.loc 3 393 9 is_stmt 1 view .LVU66
	.loc 3 393 82 view .LVU67
	.loc 3 393 137 view .LVU68
	.loc 3 393 218 is_stmt 0 view .LVU69
	ldr	r3, .L26+8
	ldrh	r0, [r3]
.LVL26:
	.loc 3 393 229 view .LVU70
	lsls	r0, r0, #16
	.loc 3 393 137 view .LVU71
	mov	r3, r2
	ldr	r1, .L26+12
.LVL27:
	.loc 3 393 137 view .LVU72
	orr	r0, r0, #3
	bl	nrf_log_frontend_std_2
.LVL28:
	.loc 3 393 344 is_stmt 1 view .LVU73
	.loc 3 395 5 view .LVU74
	.loc 3 397 50 view .LVU75
	.loc 3 398 1 is_stmt 0 view .LVU76
	b	.L22
.L27:
	.align	2
.L26:
	.word	.LANCHOR0
	.word	.LANCHOR1
	.word	m_nrf_log_app_logs_data_dynamic
	.word	.LC1
.LFE302:
	.size	gatt_evt_handler, .-gatt_evt_handler
	.section	.text.log_init,"ax",%progbits
	.align	1
	.syntax unified
	.thumb
	.thumb_func
	.fpu fpv4-sp-d16
	.type	log_init, %function
log_init:
.LFB306:
	.loc 3 497 1 is_stmt 1 view -0
	@ args = 0, pretend = 0, frame = 0
	@ frame_needed = 0, uses_anonymous_args = 0
	push	{r3, lr}
.LCFI4:
	.loc 3 498 5 view .LVU78
	.loc 3 498 27 is_stmt 0 view .LVU79
	mov	r1, #32768
	movs	r0, #0
	bl	nrf_log_init
.LVL29:
	.loc 3 499 5 is_stmt 1 view .LVU80
.LBB3:
	.loc 3 499 10 view .LVU81
	.loc 3 499 54 view .LVU82
	.loc 3 499 57 is_stmt 0 view .LVU83
	cbnz	r0, .L31
.LVL30:
.L29:
	.loc 3 499 267 is_stmt 1 discriminator 3 view .LVU84
.LBE3:
	.loc 3 499 282 discriminator 3 view .LVU85
	.loc 3 501 5 discriminator 3 view .LVU86
	bl	nrf_log_default_backends_init
.LVL31:
	.loc 3 502 1 is_stmt 0 discriminator 3 view .LVU87
	pop	{r3, pc}
.LVL32:
.L31:
.LBB4:
	.loc 3 499 91 is_stmt 1 discriminator 1 view .LVU88
	.loc 3 499 96 discriminator 1 view .LVU89
	ldr	r2, .L32
	movw	r1, #499
	bl	app_error_handler
.LVL33:
	.loc 3 499 96 is_stmt 0 discriminator 1 view .LVU90
	b	.L29
.L33:
	.align	2
.L32:
	.word	.LC0
.LBE4:
.LFE306:
	.size	log_init, .-log_init
	.section	.text.timers_init,"ax",%progbits
	.align	1
	.syntax unified
	.thumb
	.thumb_func
	.fpu fpv4-sp-d16
	.type	timers_init, %function
timers_init:
.LFB291:
	.loc 3 104 1 is_stmt 1 view -0
	@ args = 0, pretend = 0, frame = 0
	@ frame_needed = 0, uses_anonymous_args = 0
	push	{r3, lr}
.LCFI5:
	.loc 3 105 5 view .LVU92
	.loc 3 105 27 is_stmt 0 view .LVU93
	bl	app_timer_init
.LVL34:
	.loc 3 106 5 is_stmt 1 view .LVU94
.LBB5:
	.loc 3 106 10 view .LVU95
	.loc 3 106 54 view .LVU96
	.loc 3 106 57 is_stmt 0 view .LVU97
	cbnz	r0, .L37
.LVL35:
.L34:
	.loc 3 106 57 view .LVU98
.LBE5:
	.loc 3 107 1 view .LVU99
	pop	{r3, pc}
.LVL36:
.L37:
.LBB6:
	.loc 3 106 91 is_stmt 1 discriminator 1 view .LVU100
	.loc 3 106 96 discriminator 1 view .LVU101
	ldr	r2, .L38
	movs	r1, #106
	bl	app_error_handler
.LVL37:
	.loc 3 106 267 discriminator 1 view .LVU102
.LBE6:
	.loc 3 106 282 discriminator 1 view .LVU103
	.loc 3 107 1 is_stmt 0 discriminator 1 view .LVU104
	b	.L34
.L39:
	.align	2
.L38:
	.word	.LC0
.LFE291:
	.size	timers_init, .-timers_init
	.section	.text.ble_stack_init,"ax",%progbits
	.align	1
	.syntax unified
	.thumb
	.thumb_func
	.fpu fpv4-sp-d16
	.type	ble_stack_init, %function
ble_stack_init:
.LFB301:
	.loc 3 366 1 is_stmt 1 view -0
	@ args = 0, pretend = 0, frame = 8
	@ frame_needed = 0, uses_anonymous_args = 0
	push	{lr}
.LCFI6:
	sub	sp, sp, #12
.LCFI7:
	.loc 3 367 5 view .LVU106
	.loc 3 369 5 view .LVU107
	.loc 3 369 16 is_stmt 0 view .LVU108
	bl	nrf_sdh_enable_request
.LVL38:
	.loc 3 370 5 is_stmt 1 view .LVU109
.LBB7:
	.loc 3 370 10 view .LVU110
	.loc 3 370 54 view .LVU111
	.loc 3 370 57 is_stmt 0 view .LVU112
	cbnz	r0, .L45
.LVL39:
.L41:
	.loc 3 370 267 is_stmt 1 discriminator 3 view .LVU113
.LBE7:
	.loc 3 370 282 discriminator 3 view .LVU114
	.loc 3 374 5 discriminator 3 view .LVU115
	.loc 3 374 14 is_stmt 0 discriminator 3 view .LVU116
	movs	r3, #0
	str	r3, [sp, #4]
	.loc 3 375 5 is_stmt 1 discriminator 3 view .LVU117
	.loc 3 375 16 is_stmt 0 discriminator 3 view .LVU118
	add	r1, sp, #4
	movs	r0, #1
	bl	nrf_sdh_ble_default_cfg_set
.LVL40:
	.loc 3 376 5 is_stmt 1 discriminator 3 view .LVU119
.LBB8:
	.loc 3 376 10 discriminator 3 view .LVU120
	.loc 3 376 54 discriminator 3 view .LVU121
	.loc 3 376 57 is_stmt 0 discriminator 3 view .LVU122
	cbnz	r0, .L46
.LVL41:
.L42:
	.loc 3 376 267 is_stmt 1 discriminator 3 view .LVU123
.LBE8:
	.loc 3 376 282 discriminator 3 view .LVU124
	.loc 3 379 5 discriminator 3 view .LVU125
	.loc 3 379 16 is_stmt 0 discriminator 3 view .LVU126
	add	r0, sp, #4
	bl	nrf_sdh_ble_enable
.LVL42:
	.loc 3 380 5 is_stmt 1 discriminator 3 view .LVU127
.LBB9:
	.loc 3 380 10 discriminator 3 view .LVU128
	.loc 3 380 54 discriminator 3 view .LVU129
	.loc 3 380 57 is_stmt 0 discriminator 3 view .LVU130
	cbnz	r0, .L47
.LVL43:
.L40:
	.loc 3 380 57 discriminator 3 view .LVU131
.LBE9:
	.loc 3 384 1 view .LVU132
	add	sp, sp, #12
.LCFI8:
	@ sp needed
	ldr	pc, [sp], #4
.LVL44:
.L45:
.LCFI9:
.LBB10:
	.loc 3 370 91 is_stmt 1 discriminator 1 view .LVU133
	.loc 3 370 96 discriminator 1 view .LVU134
	ldr	r2, .L48
	mov	r1, #370
	bl	app_error_handler
.LVL45:
	.loc 3 370 96 is_stmt 0 discriminator 1 view .LVU135
	b	.L41
.LVL46:
.L46:
	.loc 3 370 96 discriminator 1 view .LVU136
.LBE10:
.LBB11:
	.loc 3 376 91 is_stmt 1 discriminator 1 view .LVU137
	.loc 3 376 96 discriminator 1 view .LVU138
	ldr	r2, .L48
	mov	r1, #376
	bl	app_error_handler
.LVL47:
	.loc 3 376 96 is_stmt 0 discriminator 1 view .LVU139
	b	.L42
.LVL48:
.L47:
	.loc 3 376 96 discriminator 1 view .LVU140
.LBE11:
.LBB12:
	.loc 3 380 91 is_stmt 1 discriminator 1 view .LVU141
	.loc 3 380 96 discriminator 1 view .LVU142
	ldr	r2, .L48
	mov	r1, #380
	bl	app_error_handler
.LVL49:
	.loc 3 380 267 discriminator 1 view .LVU143
.LBE12:
	.loc 3 380 282 discriminator 1 view .LVU144
	.loc 3 383 5 discriminator 1 view .LVU145
	.loc 3 383 56 discriminator 1 view .LVU146
	.loc 3 383 110 discriminator 1 view .LVU147
	.loc 3 384 1 is_stmt 0 discriminator 1 view .LVU148
	b	.L40
.L49:
	.align	2
.L48:
	.word	.LC0
.LFE301:
	.size	ble_stack_init, .-ble_stack_init
	.section	.rodata.ble_evt_handler.str1.4,"aMS",%progbits,1
	.align	2
.LC2:
	.ascii	"Connected\000"
	.align	2
.LC3:
	.ascii	"Disconnected\000"
	.section	.text.ble_evt_handler,"ax",%progbits
	.align	1
	.syntax unified
	.thumb
	.thumb_func
	.fpu fpv4-sp-d16
	.type	ble_evt_handler, %function
ble_evt_handler:
.LVL50:
.LFB300:
	.loc 3 298 1 is_stmt 1 view -0
	@ args = 0, pretend = 0, frame = 8
	@ frame_needed = 0, uses_anonymous_args = 0
	.loc 3 298 1 is_stmt 0 view .LVU150
	push	{r4, lr}
.LCFI10:
	sub	sp, sp, #8
.LCFI11:
	mov	r4, r0
	.loc 3 299 5 is_stmt 1 view .LVU151
	.loc 3 301 5 view .LVU152
	.loc 3 301 30 is_stmt 0 view .LVU153
	ldrh	r3, [r0]
	.loc 3 301 5 view .LVU154
	cmp	r3, #33
	bhi	.L51
	cmp	r3, #16
	bcc	.L50
	subs	r3, r3, #16
	cmp	r3, #17
	bhi	.L50
	tbb	[pc, r3]
.L54:
	.byte	(.L57-.L54)/2
	.byte	(.L56-.L54)/2
	.byte	(.L50-.L54)/2
	.byte	(.L55-.L54)/2
	.byte	(.L50-.L54)/2
	.byte	(.L50-.L54)/2
	.byte	(.L50-.L54)/2
	.byte	(.L50-.L54)/2
	.byte	(.L50-.L54)/2
	.byte	(.L50-.L54)/2
	.byte	(.L50-.L54)/2
	.byte	(.L50-.L54)/2
	.byte	(.L50-.L54)/2
	.byte	(.L50-.L54)/2
	.byte	(.L50-.L54)/2
	.byte	(.L50-.L54)/2
	.byte	(.L50-.L54)/2
	.byte	(.L53-.L54)/2
	.p2align 1
.L51:
	cmp	r3, #82
	beq	.L58
	cmp	r3, #86
	bne	.L63
	.loc 3 349 13 is_stmt 1 view .LVU155
	.loc 3 349 24 is_stmt 0 view .LVU156
	movs	r1, #19
.LVL51:
	.loc 3 349 24 view .LVU157
	ldrh	r0, [r0, #4]
.LVL52:
	.loc 3 349 24 view .LVU158
	bl	sd_ble_gap_disconnect
.LVL53:
	.loc 3 351 13 is_stmt 1 view .LVU159
.LBB13:
	.loc 3 351 18 view .LVU160
	.loc 3 351 62 view .LVU161
	.loc 3 351 65 is_stmt 0 view .LVU162
	cmp	r0, #0
	beq	.L50
	.loc 3 351 99 is_stmt 1 discriminator 1 view .LVU163
	.loc 3 351 104 discriminator 1 view .LVU164
	ldr	r2, .L64
	movw	r1, #351
	bl	app_error_handler
.LVL54:
	.loc 3 351 104 is_stmt 0 discriminator 1 view .LVU165
.LBE13:
	.loc 3 358 1 discriminator 1 view .LVU166
	b	.L50
.LVL55:
.L63:
	.loc 3 301 5 view .LVU167
	cmp	r3, #59
	bne	.L50
	.loc 3 342 13 is_stmt 1 view .LVU168
	.loc 3 342 24 is_stmt 0 view .LVU169
	movs	r1, #19
.LVL56:
	.loc 3 342 24 view .LVU170
	ldrh	r0, [r0, #4]
.LVL57:
	.loc 3 342 24 view .LVU171
	bl	sd_ble_gap_disconnect
.LVL58:
	.loc 3 344 13 is_stmt 1 view .LVU172
.LBB14:
	.loc 3 344 18 view .LVU173
	.loc 3 344 62 view .LVU174
	.loc 3 344 65 is_stmt 0 view .LVU175
	cbz	r0, .L50
	.loc 3 344 99 is_stmt 1 discriminator 1 view .LVU176
	.loc 3 344 104 discriminator 1 view .LVU177
	ldr	r2, .L64
	mov	r1, #344
	bl	app_error_handler
.LVL59:
	.loc 3 344 104 is_stmt 0 discriminator 1 view .LVU178
	b	.L50
.LVL60:
.L57:
	.loc 3 344 104 discriminator 1 view .LVU179
.LBE14:
	.loc 3 304 13 is_stmt 1 discriminator 3 view .LVU180
	.loc 3 304 86 discriminator 3 view .LVU181
	.loc 3 304 141 discriminator 3 view .LVU182
	.loc 3 304 222 is_stmt 0 discriminator 3 view .LVU183
	ldr	r3, .L64+4
	ldrh	r0, [r3]
.LVL61:
	.loc 3 304 233 discriminator 3 view .LVU184
	lsls	r0, r0, #16
	.loc 3 304 141 discriminator 3 view .LVU185
	ldr	r1, .L64+8
.LVL62:
	.loc 3 304 141 discriminator 3 view .LVU186
	orr	r0, r0, #3
	bl	nrf_log_frontend_std_0
.LVL63:
	.loc 3 304 258 is_stmt 1 discriminator 3 view .LVU187
	.loc 3 305 13 discriminator 3 view .LVU188
	.loc 3 305 51 is_stmt 0 discriminator 3 view .LVU189
	ldrh	r1, [r4, #4]
	.loc 3 305 27 discriminator 3 view .LVU190
	ldr	r3, .L64+12
	strh	r1, [r3]	@ movhi
	.loc 3 306 13 is_stmt 1 discriminator 3 view .LVU191
	.loc 3 306 24 is_stmt 0 discriminator 3 view .LVU192
	ldr	r0, .L64+16
	bl	nrf_ble_qwr_conn_handle_assign
.LVL64:
	.loc 3 307 13 is_stmt 1 discriminator 3 view .LVU193
.LBB15:
	.loc 3 307 18 discriminator 3 view .LVU194
	.loc 3 307 62 discriminator 3 view .LVU195
	.loc 3 307 65 is_stmt 0 discriminator 3 view .LVU196
	cbz	r0, .L50
	.loc 3 307 99 is_stmt 1 discriminator 1 view .LVU197
	.loc 3 307 104 discriminator 1 view .LVU198
	ldr	r2, .L64
	movw	r1, #307
	bl	app_error_handler
.LVL65:
	.loc 3 307 104 is_stmt 0 discriminator 1 view .LVU199
	b	.L50
.LVL66:
.L56:
	.loc 3 307 104 discriminator 1 view .LVU200
.LBE15:
	.loc 3 311 13 is_stmt 1 discriminator 3 view .LVU201
	.loc 3 311 86 discriminator 3 view .LVU202
	.loc 3 311 141 discriminator 3 view .LVU203
	.loc 3 311 222 is_stmt 0 discriminator 3 view .LVU204
	ldr	r3, .L64+4
	ldrh	r0, [r3]
.LVL67:
	.loc 3 311 233 discriminator 3 view .LVU205
	lsls	r0, r0, #16
	.loc 3 311 141 discriminator 3 view .LVU206
	ldr	r1, .L64+20
.LVL68:
	.loc 3 311 141 discriminator 3 view .LVU207
	orr	r0, r0, #3
	bl	nrf_log_frontend_std_0
.LVL69:
	.loc 3 311 261 is_stmt 1 discriminator 3 view .LVU208
	.loc 3 313 13 discriminator 3 view .LVU209
	.loc 3 313 27 is_stmt 0 discriminator 3 view .LVU210
	ldr	r3, .L64+12
	movw	r2, #65535
	strh	r2, [r3]	@ movhi
	.loc 3 314 13 is_stmt 1 discriminator 3 view .LVU211
.L50:
	.loc 3 358 1 is_stmt 0 view .LVU212
	add	sp, sp, #8
.LCFI12:
	@ sp needed
	pop	{r4, pc}
.LVL70:
.L53:
.LCFI13:
.LBB16:
	.loc 3 318 13 is_stmt 1 discriminator 5 view .LVU213
	.loc 3 318 272 discriminator 5 view .LVU214
	.loc 3 319 13 discriminator 5 view .LVU215
	.loc 3 319 34 is_stmt 0 discriminator 5 view .LVU216
	movs	r3, #0
	strb	r3, [sp, #4]
	strb	r3, [sp, #5]
	.loc 3 324 13 is_stmt 1 discriminator 5 view .LVU217
	.loc 3 324 24 is_stmt 0 discriminator 5 view .LVU218
	add	r1, sp, #4
.LVL71:
	.loc 3 324 24 discriminator 5 view .LVU219
	ldrh	r0, [r0, #4]
.LVL72:
	.loc 3 324 24 discriminator 5 view .LVU220
	bl	sd_ble_gap_phy_update
.LVL73:
	.loc 3 325 13 is_stmt 1 discriminator 5 view .LVU221
.LBB17:
	.loc 3 325 18 discriminator 5 view .LVU222
	.loc 3 325 62 discriminator 5 view .LVU223
	.loc 3 325 65 is_stmt 0 discriminator 5 view .LVU224
	cmp	r0, #0
	beq	.L50
	.loc 3 325 99 is_stmt 1 discriminator 1 view .LVU225
	.loc 3 325 104 discriminator 1 view .LVU226
	ldr	r2, .L64
	movw	r1, #325
	bl	app_error_handler
.LVL74:
	.loc 3 325 275 discriminator 1 view .LVU227
.LBE17:
	.loc 3 325 290 discriminator 1 view .LVU228
.LBE16:
	.loc 3 326 11 discriminator 1 view .LVU229
	.loc 3 326 9 is_stmt 0 discriminator 1 view .LVU230
	b	.L50
.LVL75:
.L55:
	.loc 3 330 13 is_stmt 1 view .LVU231
	.loc 3 330 24 is_stmt 0 view .LVU232
	movs	r3, #0
	mov	r2, r3
	movs	r1, #133
.LVL76:
	.loc 3 330 24 view .LVU233
	ldr	r0, .L64+12
.LVL77:
	.loc 3 330 24 view .LVU234
	ldrh	r0, [r0]
	bl	sd_ble_gap_sec_params_reply
.LVL78:
	.loc 3 331 13 is_stmt 1 view .LVU235
.LBB18:
	.loc 3 331 18 view .LVU236
	.loc 3 331 62 view .LVU237
	.loc 3 331 65 is_stmt 0 view .LVU238
	cmp	r0, #0
	beq	.L50
	.loc 3 331 99 is_stmt 1 discriminator 1 view .LVU239
	.loc 3 331 104 discriminator 1 view .LVU240
	ldr	r2, .L64
	movw	r1, #331
	bl	app_error_handler
.LVL79:
	.loc 3 331 104 is_stmt 0 discriminator 1 view .LVU241
	b	.L50
.LVL80:
.L58:
	.loc 3 331 104 discriminator 1 view .LVU242
.LBE18:
	.loc 3 336 13 is_stmt 1 view .LVU243
	.loc 3 336 24 is_stmt 0 view .LVU244
	movs	r3, #0
	mov	r2, r3
	mov	r1, r3
.LVL81:
	.loc 3 336 24 view .LVU245
	ldr	r0, .L64+12
.LVL82:
	.loc 3 336 24 view .LVU246
	ldrh	r0, [r0]
	bl	sd_ble_gatts_sys_attr_set
.LVL83:
	.loc 3 337 13 is_stmt 1 view .LVU247
.LBB19:
	.loc 3 337 18 view .LVU248
	.loc 3 337 62 view .LVU249
	.loc 3 337 65 is_stmt 0 view .LVU250
	cmp	r0, #0
	beq	.L50
	.loc 3 337 99 is_stmt 1 discriminator 1 view .LVU251
	.loc 3 337 104 discriminator 1 view .LVU252
	ldr	r2, .L64
	movw	r1, #337
	bl	app_error_handler
.LVL84:
	.loc 3 337 104 is_stmt 0 discriminator 1 view .LVU253
	b	.L50
.L65:
	.align	2
.L64:
	.word	.LC0
	.word	m_nrf_log_app_logs_data_dynamic
	.word	.LC2
	.word	.LANCHOR0
	.word	.LANCHOR2
	.word	.LC3
.LBE19:
.LFE300:
	.size	ble_evt_handler, .-ble_evt_handler
	.section	.rodata.gap_params_init.str1.4,"aMS",%progbits,1
	.align	2
.LC4:
	.ascii	"NRF\000"
	.section	.text.gap_params_init,"ax",%progbits
	.align	1
	.syntax unified
	.thumb
	.thumb_func
	.fpu fpv4-sp-d16
	.type	gap_params_init, %function
gap_params_init:
.LFB292:
	.loc 3 115 1 is_stmt 1 view -0
	@ args = 0, pretend = 0, frame = 16
	@ frame_needed = 0, uses_anonymous_args = 0
	push	{r4, lr}
.LCFI14:
	sub	sp, sp, #16
.LCFI15:
	.loc 3 116 5 view .LVU255
	.loc 3 117 5 view .LVU256
	.loc 3 118 5 view .LVU257
	.loc 3 120 5 view .LVU258
	.loc 3 120 9 view .LVU259
	.loc 3 120 25 is_stmt 0 view .LVU260
	ldrb	r3, [sp, #4]	@ zero_extendqisi2
	movs	r2, #1
	bfi	r3, r2, #0, #4
	.loc 3 120 30 is_stmt 1 view .LVU261
	.loc 3 120 46 is_stmt 0 view .LVU262
	bfi	r3, r2, #4, #4
	strb	r3, [sp, #4]
	.loc 3 120 57 is_stmt 1 view .LVU263
	.loc 3 122 5 view .LVU264
	.loc 3 124 43 is_stmt 0 view .LVU265
	ldr	r4, .L72
	mov	r0, r4
	bl	strlen
.LVL85:
	.loc 3 122 16 view .LVU266
	uxth	r2, r0
	mov	r1, r4
	add	r0, sp, #4
	bl	sd_ble_gap_device_name_set
.LVL86:
	.loc 3 125 5 is_stmt 1 view .LVU267
.LBB20:
	.loc 3 125 10 view .LVU268
	.loc 3 125 54 view .LVU269
	.loc 3 125 57 is_stmt 0 view .LVU270
	cbnz	r0, .L70
.LVL87:
.L67:
	.loc 3 125 267 is_stmt 1 discriminator 3 view .LVU271
.LBE20:
	.loc 3 125 282 discriminator 3 view .LVU272
	.loc 3 127 5 discriminator 3 view .LVU273
	movs	r2, #8
	movs	r1, #0
	add	r0, sp, r2
	bl	memset
.LVL88:
	.loc 3 129 5 discriminator 3 view .LVU274
	.loc 3 129 39 is_stmt 0 discriminator 3 view .LVU275
	movs	r3, #16
	strh	r3, [sp, #8]	@ movhi
	.loc 3 130 5 is_stmt 1 discriminator 3 view .LVU276
	.loc 3 130 39 is_stmt 0 discriminator 3 view .LVU277
	movs	r3, #60
	strh	r3, [sp, #10]	@ movhi
	.loc 3 131 5 is_stmt 1 discriminator 3 view .LVU278
	.loc 3 131 35 is_stmt 0 discriminator 3 view .LVU279
	movs	r3, #0
	strh	r3, [sp, #12]	@ movhi
	.loc 3 132 5 is_stmt 1 discriminator 3 view .LVU280
	.loc 3 132 38 is_stmt 0 discriminator 3 view .LVU281
	mov	r3, #400
	strh	r3, [sp, #14]	@ movhi
	.loc 3 134 5 is_stmt 1 discriminator 3 view .LVU282
	.loc 3 134 16 is_stmt 0 discriminator 3 view .LVU283
	add	r0, sp, #8
	bl	sd_ble_gap_ppcp_set
.LVL89:
	.loc 3 135 5 is_stmt 1 discriminator 3 view .LVU284
.LBB21:
	.loc 3 135 10 discriminator 3 view .LVU285
	.loc 3 135 54 discriminator 3 view .LVU286
	.loc 3 135 57 is_stmt 0 discriminator 3 view .LVU287
	cbnz	r0, .L71
.LVL90:
.L66:
	.loc 3 135 57 discriminator 3 view .LVU288
.LBE21:
	.loc 3 136 1 view .LVU289
	add	sp, sp, #16
.LCFI16:
	@ sp needed
	pop	{r4, pc}
.LVL91:
.L70:
.LCFI17:
.LBB22:
	.loc 3 125 91 is_stmt 1 discriminator 1 view .LVU290
	.loc 3 125 96 discriminator 1 view .LVU291
	ldr	r2, .L72+4
	movs	r1, #125
	bl	app_error_handler
.LVL92:
	.loc 3 125 96 is_stmt 0 discriminator 1 view .LVU292
	b	.L67
.LVL93:
.L71:
	.loc 3 125 96 discriminator 1 view .LVU293
.LBE22:
.LBB23:
	.loc 3 135 91 is_stmt 1 discriminator 1 view .LVU294
	.loc 3 135 96 discriminator 1 view .LVU295
	ldr	r2, .L72+4
	movs	r1, #135
	bl	app_error_handler
.LVL94:
	.loc 3 135 267 discriminator 1 view .LVU296
.LBE23:
	.loc 3 135 282 discriminator 1 view .LVU297
	.loc 3 136 1 is_stmt 0 discriminator 1 view .LVU298
	b	.L66
.L73:
	.align	2
.L72:
	.word	.LC4
	.word	.LC0
.LFE292:
	.size	gap_params_init, .-gap_params_init
	.section	.text.services_init,"ax",%progbits
	.align	1
	.syntax unified
	.thumb
	.thumb_func
	.fpu fpv4-sp-d16
	.type	services_init, %function
services_init:
.LFB295:
	.loc 3 192 1 is_stmt 1 view -0
	@ args = 0, pretend = 0, frame = 8
	@ frame_needed = 0, uses_anonymous_args = 0
	push	{lr}
.LCFI18:
	sub	sp, sp, #12
.LCFI19:
	.loc 3 193 5 view .LVU300
	.loc 3 194 5 view .LVU301
	.loc 3 195 5 view .LVU302
	.loc 3 198 5 view .LVU303
	.loc 3 198 28 is_stmt 0 view .LVU304
	ldr	r3, .L80
	str	r3, [sp]
	.loc 3 200 5 is_stmt 1 view .LVU305
	.loc 3 200 16 is_stmt 0 view .LVU306
	mov	r1, sp
	ldr	r0, .L80+4
	bl	nrf_ble_qwr_init
.LVL95:
	.loc 3 201 5 is_stmt 1 view .LVU307
.LBB24:
	.loc 3 201 10 view .LVU308
	.loc 3 201 54 view .LVU309
	.loc 3 201 57 is_stmt 0 view .LVU310
	cbnz	r0, .L78
.LVL96:
.L75:
	.loc 3 201 267 is_stmt 1 discriminator 3 view .LVU311
.LBE24:
	.loc 3 201 282 discriminator 3 view .LVU312
	.loc 3 204 5 discriminator 3 view .LVU313
	movs	r2, #4
	movs	r1, #0
	add	r0, sp, r2
	bl	memset
.LVL97:
	.loc 3 206 5 discriminator 3 view .LVU314
	.loc 3 206 27 is_stmt 0 discriminator 3 view .LVU315
	ldr	r3, .L80+8
	str	r3, [sp, #4]
	.loc 3 208 5 is_stmt 1 discriminator 3 view .LVU316
	.loc 3 208 16 is_stmt 0 discriminator 3 view .LVU317
	add	r1, sp, #4
	ldr	r0, .L80+12
	bl	ble_nus_init
.LVL98:
	.loc 3 209 5 is_stmt 1 discriminator 3 view .LVU318
.LBB25:
	.loc 3 209 10 discriminator 3 view .LVU319
	.loc 3 209 54 discriminator 3 view .LVU320
	.loc 3 209 57 is_stmt 0 discriminator 3 view .LVU321
	cbnz	r0, .L79
.LVL99:
.L74:
	.loc 3 209 57 discriminator 3 view .LVU322
.LBE25:
	.loc 3 210 1 view .LVU323
	add	sp, sp, #12
.LCFI20:
	@ sp needed
	ldr	pc, [sp], #4
.LVL100:
.L78:
.LCFI21:
.LBB26:
	.loc 3 201 91 is_stmt 1 discriminator 1 view .LVU324
	.loc 3 201 96 discriminator 1 view .LVU325
	ldr	r2, .L80+16
	movs	r1, #201
	bl	app_error_handler
.LVL101:
	.loc 3 201 96 is_stmt 0 discriminator 1 view .LVU326
	b	.L75
.LVL102:
.L79:
	.loc 3 201 96 discriminator 1 view .LVU327
.LBE26:
.LBB27:
	.loc 3 209 91 is_stmt 1 discriminator 1 view .LVU328
	.loc 3 209 96 discriminator 1 view .LVU329
	ldr	r2, .L80+16
	movs	r1, #209
	bl	app_error_handler
.LVL103:
	.loc 3 209 267 discriminator 1 view .LVU330
.LBE27:
	.loc 3 209 282 discriminator 1 view .LVU331
	.loc 3 210 1 is_stmt 0 discriminator 1 view .LVU332
	b	.L74
.L81:
	.align	2
.L80:
	.word	nrf_qwr_error_handler
	.word	.LANCHOR2
	.word	nus_data_handler
	.word	.LANCHOR3
	.word	.LC0
.LFE295:
	.size	services_init, .-services_init
	.section	.text.nus_data_handler,"ax",%progbits
	.align	1
	.syntax unified
	.thumb
	.thumb_func
	.fpu fpv4-sp-d16
	.type	nus_data_handler, %function
nus_data_handler:
.LVL104:
.LFB294:
	.loc 3 161 1 is_stmt 1 view -0
	@ args = 0, pretend = 0, frame = 0
	@ frame_needed = 0, uses_anonymous_args = 0
	.loc 3 161 1 is_stmt 0 view .LVU334
	push	{r3, lr}
.LCFI22:
	.loc 3 163 5 is_stmt 1 view .LVU335
	.loc 3 163 14 is_stmt 0 view .LVU336
	ldrb	r3, [r0]	@ zero_extendqisi2
	.loc 3 163 8 view .LVU337
	cbz	r3, .L85
.LVL105:
.L82:
	.loc 3 185 1 view .LVU338
	pop	{r3, pc}
.LVL106:
.L85:
.LBB28:
	.loc 3 165 9 is_stmt 1 view .LVU339
	.loc 3 170 8 view .LVU340
	ldrb	r1, [r0, #20]	@ zero_extendqisi2
	ldr	r0, [r0, #16]
.LVL107:
	.loc 3 170 8 is_stmt 0 view .LVU341
	bl	network_ReciveFromBle
.LVL108:
.LBE28:
	.loc 3 185 1 view .LVU342
	b	.L82
.LFE294:
	.size	nus_data_handler, .-nus_data_handler
	.section	.text.advertising_init,"ax",%progbits
	.align	1
	.syntax unified
	.thumb
	.thumb_func
	.fpu fpv4-sp-d16
	.type	advertising_init, %function
advertising_init:
.LFB305:
	.loc 3 469 1 is_stmt 1 view -0
	@ args = 0, pretend = 0, frame = 176
	@ frame_needed = 0, uses_anonymous_args = 0
	push	{lr}
.LCFI23:
	sub	sp, sp, #180
.LCFI24:
	.loc 3 470 5 view .LVU344
	.loc 3 471 5 view .LVU345
	.loc 3 473 5 view .LVU346
	movs	r2, #172
	movs	r1, #0
	add	r0, sp, #4
	bl	memset
.LVL109:
	.loc 3 475 5 view .LVU347
	.loc 3 475 28 is_stmt 0 view .LVU348
	movs	r3, #2
	strb	r3, [sp, #4]
	.loc 3 476 5 is_stmt 1 view .LVU349
	.loc 3 476 37 is_stmt 0 view .LVU350
	movs	r3, #0
	strb	r3, [sp, #6]
	.loc 3 477 5 is_stmt 1 view .LVU351
	.loc 3 477 24 is_stmt 0 view .LVU352
	movs	r3, #5
	strb	r3, [sp, #7]
	.loc 3 479 5 is_stmt 1 view .LVU353
	.loc 3 479 41 is_stmt 0 view .LVU354
	movs	r3, #1
	strh	r3, [sp, #80]	@ movhi
	.loc 3 480 5 is_stmt 1 view .LVU355
	.loc 3 480 40 is_stmt 0 view .LVU356
	ldr	r2, .L90
	str	r2, [sp, #84]
	.loc 3 482 5 is_stmt 1 view .LVU357
	.loc 3 482 38 is_stmt 0 view .LVU358
	strb	r3, [sp, #128]
	.loc 3 483 5 is_stmt 1 view .LVU359
	.loc 3 483 39 is_stmt 0 view .LVU360
	movs	r3, #64
	str	r3, [sp, #140]
	.loc 3 484 5 is_stmt 1 view .LVU361
	.loc 3 484 38 is_stmt 0 view .LVU362
	movw	r3, #18000
	str	r3, [sp, #144]
	.loc 3 485 5 is_stmt 1 view .LVU363
	.loc 3 485 22 is_stmt 0 view .LVU364
	ldr	r3, .L90+4
	str	r3, [sp, #168]
	.loc 3 487 5 is_stmt 1 view .LVU365
	.loc 3 487 16 is_stmt 0 view .LVU366
	add	r1, sp, #4
	ldr	r0, .L90+8
	bl	ble_advertising_init
.LVL110:
	.loc 3 488 5 is_stmt 1 view .LVU367
.LBB29:
	.loc 3 488 10 view .LVU368
	.loc 3 488 54 view .LVU369
	.loc 3 488 57 is_stmt 0 view .LVU370
	cbnz	r0, .L89
.LVL111:
.L87:
	.loc 3 488 267 is_stmt 1 discriminator 3 view .LVU371
.LBE29:
	.loc 3 488 282 discriminator 3 view .LVU372
	.loc 3 490 5 discriminator 3 view .LVU373
	movs	r1, #1
	ldr	r0, .L90+8
	bl	ble_advertising_conn_cfg_tag_set
.LVL112:
	.loc 3 491 1 is_stmt 0 discriminator 3 view .LVU374
	add	sp, sp, #180
.LCFI25:
	@ sp needed
	ldr	pc, [sp], #4
.LVL113:
.L89:
.LCFI26:
.LBB30:
	.loc 3 488 91 is_stmt 1 discriminator 1 view .LVU375
	.loc 3 488 96 discriminator 1 view .LVU376
	ldr	r2, .L90+12
	mov	r1, #488
	bl	app_error_handler
.LVL114:
	.loc 3 488 96 is_stmt 0 discriminator 1 view .LVU377
	b	.L87
.L91:
	.align	2
.L90:
	.word	.LANCHOR4
	.word	on_adv_evt
	.word	.LANCHOR5
	.word	.LC0
.LBE30:
.LFE305:
	.size	advertising_init, .-advertising_init
	.section	.text.conn_params_init,"ax",%progbits
	.align	1
	.syntax unified
	.thumb
	.thumb_func
	.fpu fpv4-sp-d16
	.type	conn_params_init, %function
conn_params_init:
.LFB298:
	.loc 3 249 1 is_stmt 1 view -0
	@ args = 0, pretend = 0, frame = 32
	@ frame_needed = 0, uses_anonymous_args = 0
	push	{lr}
.LCFI27:
	sub	sp, sp, #36
.LCFI28:
	.loc 3 250 5 view .LVU379
	.loc 3 251 5 view .LVU380
	.loc 3 253 5 view .LVU381
	movs	r2, #28
	movs	r1, #0
	add	r0, sp, #4
	bl	memset
.LVL115:
	.loc 3 255 5 view .LVU382
	.loc 3 255 27 is_stmt 0 view .LVU383
	movs	r3, #0
	str	r3, [sp, #4]
	.loc 3 256 5 is_stmt 1 view .LVU384
	.loc 3 256 44 is_stmt 0 view .LVU385
	movw	r2, #5000
	str	r2, [sp, #8]
	.loc 3 257 5 is_stmt 1 view .LVU386
	.loc 3 257 43 is_stmt 0 view .LVU387
	movw	r2, #30000
	str	r2, [sp, #12]
	.loc 3 258 5 is_stmt 1 view .LVU388
	.loc 3 258 42 is_stmt 0 view .LVU389
	movs	r2, #3
	strb	r2, [sp, #16]
	.loc 3 259 5 is_stmt 1 view .LVU390
	.loc 3 259 41 is_stmt 0 view .LVU391
	strh	r3, [sp, #18]	@ movhi
	.loc 3 260 5 is_stmt 1 view .LVU392
	.loc 3 260 32 is_stmt 0 view .LVU393
	strb	r3, [sp, #20]
	.loc 3 261 5 is_stmt 1 view .LVU394
	.loc 3 261 25 is_stmt 0 view .LVU395
	ldr	r3, .L96
	str	r3, [sp, #24]
	.loc 3 262 5 is_stmt 1 view .LVU396
	.loc 3 262 27 is_stmt 0 view .LVU397
	ldr	r3, .L96+4
	str	r3, [sp, #28]
	.loc 3 264 5 is_stmt 1 view .LVU398
	.loc 3 264 16 is_stmt 0 view .LVU399
	add	r0, sp, #4
	bl	ble_conn_params_init
.LVL116:
	.loc 3 265 5 is_stmt 1 view .LVU400
.LBB31:
	.loc 3 265 10 view .LVU401
	.loc 3 265 54 view .LVU402
	.loc 3 265 57 is_stmt 0 view .LVU403
	cbnz	r0, .L95
.LVL117:
.L92:
	.loc 3 265 57 view .LVU404
.LBE31:
	.loc 3 266 1 view .LVU405
	add	sp, sp, #36
.LCFI29:
	@ sp needed
	ldr	pc, [sp], #4
.LVL118:
.L95:
.LCFI30:
.LBB32:
	.loc 3 265 91 is_stmt 1 discriminator 1 view .LVU406
	.loc 3 265 96 discriminator 1 view .LVU407
	ldr	r2, .L96+8
	movw	r1, #265
	bl	app_error_handler
.LVL119:
	.loc 3 265 267 discriminator 1 view .LVU408
.LBE32:
	.loc 3 265 282 discriminator 1 view .LVU409
	.loc 3 266 1 is_stmt 0 discriminator 1 view .LVU410
	b	.L92
.L97:
	.align	2
.L96:
	.word	on_conn_params_evt
	.word	conn_params_error_handler
	.word	.LC0
.LFE298:
	.size	conn_params_init, .-conn_params_init
	.section	.text.assert_nrf_callback,"ax",%progbits
	.align	1
	.global	assert_nrf_callback
	.syntax unified
	.thumb
	.thumb_func
	.fpu fpv4-sp-d16
	.type	assert_nrf_callback, %function
assert_nrf_callback:
.LVL120:
.LFB290:
	.loc 3 97 1 is_stmt 1 view -0
	@ args = 0, pretend = 0, frame = 0
	@ frame_needed = 0, uses_anonymous_args = 0
	.loc 3 97 1 is_stmt 0 view .LVU412
	push	{r3, lr}
.LCFI31:
	mov	r2, r1
	.loc 3 98 5 is_stmt 1 view .LVU413
	mov	r1, r0
.LVL121:
	.loc 3 98 5 is_stmt 0 view .LVU414
	ldr	r0, .L100
.LVL122:
	.loc 3 98 5 view .LVU415
	bl	app_error_handler
.LVL123:
	.loc 3 99 1 view .LVU416
	pop	{r3, pc}
.L101:
	.align	2
.L100:
	.word	-559038737
.LFE290:
	.size	assert_nrf_callback, .-assert_nrf_callback
	.section	.text.gatt_init,"ax",%progbits
	.align	1
	.global	gatt_init
	.syntax unified
	.thumb
	.thumb_func
	.fpu fpv4-sp-d16
	.type	gatt_init, %function
gatt_init:
.LFB303:
	.loc 3 403 1 is_stmt 1 view -0
	@ args = 0, pretend = 0, frame = 0
	@ frame_needed = 0, uses_anonymous_args = 0
	push	{r3, lr}
.LCFI32:
	.loc 3 404 5 view .LVU418
	.loc 3 406 5 view .LVU419
	.loc 3 406 16 is_stmt 0 view .LVU420
	ldr	r1, .L108
	ldr	r0, .L108+4
	bl	nrf_ble_gatt_init
.LVL124:
	.loc 3 407 5 is_stmt 1 view .LVU421
.LBB33:
	.loc 3 407 10 view .LVU422
	.loc 3 407 54 view .LVU423
	.loc 3 407 57 is_stmt 0 view .LVU424
	cbnz	r0, .L106
.LVL125:
.L103:
	.loc 3 407 267 is_stmt 1 discriminator 3 view .LVU425
.LBE33:
	.loc 3 407 282 discriminator 3 view .LVU426
	.loc 3 409 5 discriminator 3 view .LVU427
	.loc 3 409 16 is_stmt 0 discriminator 3 view .LVU428
	movs	r1, #23
	ldr	r0, .L108+4
	bl	nrf_ble_gatt_att_mtu_periph_set
.LVL126:
	.loc 3 410 5 is_stmt 1 discriminator 3 view .LVU429
.LBB34:
	.loc 3 410 10 discriminator 3 view .LVU430
	.loc 3 410 54 discriminator 3 view .LVU431
	.loc 3 410 57 is_stmt 0 discriminator 3 view .LVU432
	cbnz	r0, .L107
.LVL127:
.L102:
	.loc 3 410 57 discriminator 3 view .LVU433
.LBE34:
	.loc 3 411 1 view .LVU434
	pop	{r3, pc}
.LVL128:
.L106:
.LBB35:
	.loc 3 407 91 is_stmt 1 discriminator 1 view .LVU435
	.loc 3 407 96 discriminator 1 view .LVU436
	ldr	r2, .L108+8
	movw	r1, #407
	bl	app_error_handler
.LVL129:
	.loc 3 407 96 is_stmt 0 discriminator 1 view .LVU437
	b	.L103
.LVL130:
.L107:
	.loc 3 407 96 discriminator 1 view .LVU438
.LBE35:
.LBB36:
	.loc 3 410 91 is_stmt 1 discriminator 1 view .LVU439
	.loc 3 410 96 discriminator 1 view .LVU440
	ldr	r2, .L108+8
	mov	r1, #410
	bl	app_error_handler
.LVL131:
	.loc 3 410 267 discriminator 1 view .LVU441
.LBE36:
	.loc 3 410 282 discriminator 1 view .LVU442
	.loc 3 411 1 is_stmt 0 discriminator 1 view .LVU443
	b	.L102
.L109:
	.align	2
.L108:
	.word	gatt_evt_handler
	.word	.LANCHOR6
	.word	.LC0
.LFE303:
	.size	gatt_init, .-gatt_init
	.section	.text.ble_send,"ax",%progbits
	.align	1
	.global	ble_send
	.syntax unified
	.thumb
	.thumb_func
	.fpu fpv4-sp-d16
	.type	ble_send, %function
ble_send:
.LVL132:
.LFB304:
	.loc 3 433 1 is_stmt 1 view -0
	@ args = 0, pretend = 0, frame = 8
	@ frame_needed = 0, uses_anonymous_args = 0
	.loc 3 433 1 is_stmt 0 view .LVU445
	push	{r4, r5, r6, r7, r8, lr}
.LCFI33:
	sub	sp, sp, #8
.LCFI34:
	mov	r8, r0
	mov	r7, r1
	.loc 3 434 5 is_stmt 1 view .LVU446
	.loc 3 435 5 view .LVU447
.LVL133:
	.loc 3 436 5 view .LVU448
	.loc 3 437 5 view .LVU449
	.loc 3 439 9 view .LVU450
	.loc 3 437 14 is_stmt 0 view .LVU451
	movs	r6, #0
	.loc 3 435 13 view .LVU452
	mov	r5, r6
	.loc 3 439 14 view .LVU453
	b	.L111
.LVL134:
.L114:
.LBB37:
.LBB38:
	.loc 3 456 287 is_stmt 1 discriminator 3 view .LVU454
.LBE38:
	.loc 3 456 302 discriminator 3 view .LVU455
.LBE37:
	.loc 3 458 25 discriminator 3 view .LVU456
	.loc 3 458 17 is_stmt 0 discriminator 3 view .LVU457
	cmp	r4, #17
	beq	.L115
	.loc 3 458 51 discriminator 1 view .LVU458
	cmp	r4, #19
	bne	.L118
.LVL135:
.L115:
	.loc 3 449 17 is_stmt 1 view .LVU459
.LBB40:
	.loc 3 451 21 view .LVU460
	.loc 3 451 30 is_stmt 0 view .LVU461
	strh	r5, [sp, #6]	@ movhi
	.loc 3 452 21 is_stmt 1 view .LVU462
	.loc 3 452 32 is_stmt 0 view .LVU463
	ldr	r3, .L120
	ldrh	r3, [r3]
	add	r2, sp, #6
	ldr	r1, .L120+4
	ldr	r0, .L120+8
	bl	ble_nus_data_send
.LVL136:
	mov	r4, r0
.LVL137:
	.loc 3 453 21 is_stmt 1 view .LVU464
	.loc 3 453 24 is_stmt 0 view .LVU465
	cmp	r0, #8
	beq	.L114
	.loc 3 453 52 discriminator 1 view .LVU466
	cmp	r0, #17
	beq	.L114
	.loc 3 453 82 discriminator 2 view .LVU467
	cmp	r0, #5
	beq	.L114
	.loc 3 454 52 view .LVU468
	cmp	r0, #19
	beq	.L114
	.loc 3 456 25 is_stmt 1 view .LVU469
.LBB39:
	.loc 3 456 30 view .LVU470
.LVL138:
	.loc 3 456 74 view .LVU471
	.loc 3 456 77 is_stmt 0 view .LVU472
	cmp	r0, #0
	beq	.L114
	.loc 3 456 111 is_stmt 1 discriminator 1 view .LVU473
	.loc 3 456 116 discriminator 1 view .LVU474
	ldr	r2, .L120+12
	mov	r1, #456
	bl	app_error_handler
.LVL139:
	.loc 3 456 116 is_stmt 0 discriminator 1 view .LVU475
	b	.L114
.LVL140:
.L118:
	.loc 3 456 116 discriminator 1 view .LVU476
.LBE39:
.LBE40:
	.loc 3 460 23 view .LVU477
	movs	r5, #0
.LVL141:
.L111:
	.loc 3 439 14 is_stmt 1 view .LVU478
	cmp	r6, r7
	bhi	.L119
	.loc 3 440 13 view .LVU479
	.loc 3 440 37 is_stmt 0 view .LVU480
	ldrb	r2, [r8, r6]	@ zero_extendqisi2
	.loc 3 440 31 view .LVU481
	ldr	r3, .L120+4
	strb	r2, [r3, r5]
	.loc 3 441 13 is_stmt 1 view .LVU482
	.loc 3 441 18 is_stmt 0 view .LVU483
	adds	r5, r5, #1
.LVL142:
	.loc 3 441 18 view .LVU484
	uxtb	r5, r5
.LVL143:
	.loc 3 442 13 is_stmt 1 view .LVU485
	.loc 3 442 26 is_stmt 0 view .LVU486
	adds	r6, r6, #1
.LVL144:
	.loc 3 442 26 view .LVU487
	uxth	r6, r6
.LVL145:
	.loc 3 444 13 is_stmt 1 view .LVU488
	.loc 3 444 35 is_stmt 0 view .LVU489
	subs	r2, r5, #1
	.loc 3 444 28 view .LVU490
	ldrb	r3, [r3, r2]	@ zero_extendqisi2
	.loc 3 444 16 view .LVU491
	cmp	r3, #0
	beq	.L115
	.loc 3 444 59 discriminator 1 view .LVU492
	uxth	r3, r5
	ldr	r2, .L120+16
	ldrh	r2, [r2]
	.loc 3 444 49 discriminator 1 view .LVU493
	cmp	r3, r2
	bcc	.L111
	b	.L115
.L119:
	.loc 3 463 1 view .LVU494
	add	sp, sp, #8
.LCFI35:
	@ sp needed
	pop	{r4, r5, r6, r7, r8, pc}
.LVL146:
.L121:
	.loc 3 463 1 view .LVU495
	.align	2
.L120:
	.word	.LANCHOR0
	.word	.LANCHOR7
	.word	.LANCHOR3
	.word	.LC0
	.word	.LANCHOR1
.LFE304:
	.size	ble_send, .-ble_send
	.section	.text.advertising_start,"ax",%progbits
	.align	1
	.global	advertising_start
	.syntax unified
	.thumb
	.thumb_func
	.fpu fpv4-sp-d16
	.type	advertising_start, %function
advertising_start:
.LFB307:
	.loc 3 510 1 is_stmt 1 view -0
	@ args = 0, pretend = 0, frame = 0
	@ frame_needed = 0, uses_anonymous_args = 0
	push	{r3, lr}
.LCFI36:
	.loc 3 511 5 view .LVU497
	.loc 3 511 25 is_stmt 0 view .LVU498
	movs	r1, #3
	ldr	r0, .L126
	bl	ble_advertising_start
.LVL147:
	.loc 3 512 5 is_stmt 1 view .LVU499
.LBB41:
	.loc 3 512 10 view .LVU500
	.loc 3 512 54 view .LVU501
	.loc 3 512 57 is_stmt 0 view .LVU502
	cbnz	r0, .L125
.LVL148:
.L122:
	.loc 3 512 57 view .LVU503
.LBE41:
	.loc 3 513 1 view .LVU504
	pop	{r3, pc}
.LVL149:
.L125:
.LBB42:
	.loc 3 512 91 is_stmt 1 discriminator 1 view .LVU505
	.loc 3 512 96 discriminator 1 view .LVU506
	ldr	r2, .L126+4
	mov	r1, #512
	bl	app_error_handler
.LVL150:
	.loc 3 512 267 discriminator 1 view .LVU507
.LBE42:
	.loc 3 512 282 discriminator 1 view .LVU508
	.loc 3 513 1 is_stmt 0 discriminator 1 view .LVU509
	b	.L122
.L127:
	.align	2
.L126:
	.word	.LANCHOR5
	.word	.LC0
.LFE307:
	.size	advertising_start, .-advertising_start
	.section	.text.BLE_init,"ax",%progbits
	.align	1
	.global	BLE_init
	.syntax unified
	.thumb
	.thumb_func
	.fpu fpv4-sp-d16
	.type	BLE_init, %function
BLE_init:
.LFB308:
	.loc 3 519 1 is_stmt 1 view -0
	@ args = 0, pretend = 0, frame = 0
	@ frame_needed = 0, uses_anonymous_args = 0
	push	{r3, lr}
.LCFI37:
	.loc 3 520 4 view .LVU511
	.loc 3 523 5 view .LVU512
	bl	log_init
.LVL151:
	.loc 3 524 5 view .LVU513
	bl	timers_init
.LVL152:
	.loc 3 525 5 view .LVU514
	bl	ble_stack_init
.LVL153:
	.loc 3 526 5 view .LVU515
	bl	gap_params_init
.LVL154:
	.loc 3 527 5 view .LVU516
	bl	gatt_init
.LVL155:
	.loc 3 528 5 view .LVU517
	bl	services_init
.LVL156:
	.loc 3 529 5 view .LVU518
	bl	advertising_init
.LVL157:
	.loc 3 530 5 view .LVU519
	bl	conn_params_init
.LVL158:
	.loc 3 531 1 is_stmt 0 view .LVU520
	pop	{r3, pc}
.LFE308:
	.size	BLE_init, .-BLE_init
	.section	.bss.data_array.11016,"aw",%nobits
	.align	2
	.set	.LANCHOR7,. + 0
	.type	data_array.11016, %object
	.size	data_array.11016, 20
data_array.11016:
	.space	20
	.section	.bss.m_advertising,"aw",%nobits
	.align	2
	.set	.LANCHOR5,. + 0
	.type	m_advertising, %object
	.size	m_advertising, 184
m_advertising:
	.space	184
	.section	.bss.m_gatt,"aw",%nobits
	.align	2
	.set	.LANCHOR6,. + 0
	.type	m_gatt, %object
	.size	m_gatt, 20
m_gatt:
	.space	20
	.section	.bss.m_nus_link_ctx_storage_ctx_data_pool,"aw",%nobits
	.align	2
	.type	m_nus_link_ctx_storage_ctx_data_pool, %object
	.size	m_nus_link_ctx_storage_ctx_data_pool, 4
m_nus_link_ctx_storage_ctx_data_pool:
	.space	4
	.section	.bss.m_qwr,"aw",%nobits
	.align	2
	.set	.LANCHOR2,. + 0
	.type	m_qwr, %object
	.size	m_qwr, 12
m_qwr:
	.space	12
	.section	.data.m_adv_uuids,"aw"
	.align	2
	.set	.LANCHOR4,. + 0
	.type	m_adv_uuids, %object
	.size	m_adv_uuids, 4
m_adv_uuids:
	.short	1
	.byte	2
	.space	1
	.section	.data.m_ble_nus_max_data_len,"aw"
	.align	1
	.set	.LANCHOR1,. + 0
	.type	m_ble_nus_max_data_len, %object
	.size	m_ble_nus_max_data_len, 2
m_ble_nus_max_data_len:
	.short	20
	.section	.data.m_conn_handle,"aw"
	.align	1
	.set	.LANCHOR0,. + 0
	.type	m_conn_handle, %object
	.size	m_conn_handle, 2
m_conn_handle:
	.short	-1
	.section	.data.m_nus,"aw"
	.align	2
	.set	.LANCHOR3,. + 0
	.type	m_nus, %object
	.size	m_nus, 28
m_nus:
	.space	20
	.word	m_nus_link_ctx_storage
	.space	4
	.section	.data.m_nus_link_ctx_storage,"aw"
	.align	2
	.type	m_nus_link_ctx_storage, %object
	.size	m_nus_link_ctx_storage, 8
m_nus_link_ctx_storage:
	.word	m_nus_link_ctx_storage_ctx_data_pool
	.byte	1
	.space	1
	.short	4
	.section	.sdh_ble_observers1,"a"
	.align	2
	.type	m_advertising_ble_obs, %object
	.size	m_advertising_ble_obs, 8
m_advertising_ble_obs:
	.word	ble_advertising_on_ble_evt
	.word	m_advertising
	.type	m_gatt_obs, %object
	.size	m_gatt_obs, 8
m_gatt_obs:
	.word	nrf_ble_gatt_on_ble_evt
	.word	m_gatt
	.section	.sdh_ble_observers2,"a"
	.align	2
	.type	m_qwr_obs, %object
	.size	m_qwr_obs, 8
m_qwr_obs:
	.word	nrf_ble_qwr_on_ble_evt
	.word	m_qwr
	.type	m_nus_obs, %object
	.size	m_nus_obs, 8
m_nus_obs:
	.word	ble_nus_on_ble_evt
	.word	m_nus
	.section	.sdh_ble_observers3,"a"
	.align	2
	.type	m_ble_observer.11001, %object
	.size	m_ble_observer.11001, 8
m_ble_observer.11001:
	.word	ble_evt_handler
	.word	0
	.section	.sdh_soc_observers1,"a"
	.align	2
	.type	m_advertising_soc_obs, %object
	.size	m_advertising_soc_obs, 8
m_advertising_soc_obs:
	.word	ble_advertising_on_sys_evt
	.word	m_advertising
	.section	.debug_frame,"",%progbits
.Lframe0:
	.4byte	.LECIE0-.LSCIE0
.LSCIE0:
	.4byte	0xffffffff
	.byte	0x3
	.ascii	"\000"
	.uleb128 0x1
	.sleb128 -4
	.uleb128 0xe
	.byte	0xc
	.uleb128 0xd
	.uleb128 0
	.align	2
.LECIE0:
.LSFDE0:
	.4byte	.LEFDE0-.LASFDE0
.LASFDE0:
	.4byte	.Lframe0
	.4byte	.LFB134
	.4byte	.LFE134-.LFB134
	.align	2
.LEFDE0:
.LSFDE2:
	.4byte	.LEFDE2-.LASFDE2
.LASFDE2:
	.4byte	.Lframe0
	.4byte	.LFB138
	.4byte	.LFE138-.LFB138
	.align	2
.LEFDE2:
.LSFDE4:
	.4byte	.LEFDE4-.LASFDE4
.LASFDE4:
	.4byte	.Lframe0
	.4byte	.LFB140
	.4byte	.LFE140-.LFB140
	.align	2
.LEFDE4:
.LSFDE6:
	.4byte	.LEFDE6-.LASFDE6
.LASFDE6:
	.4byte	.Lframe0
	.4byte	.LFB143
	.4byte	.LFE143-.LFB143
	.align	2
.LEFDE6:
.LSFDE8:
	.4byte	.LEFDE8-.LASFDE8
.LASFDE8:
	.4byte	.Lframe0
	.4byte	.LFB159
	.4byte	.LFE159-.LFB159
	.align	2
.LEFDE8:
.LSFDE10:
	.4byte	.LEFDE10-.LASFDE10
.LASFDE10:
	.4byte	.Lframe0
	.4byte	.LFB189
	.4byte	.LFE189-.LFB189
	.align	2
.LEFDE10:
.LSFDE12:
	.4byte	.LEFDE12-.LASFDE12
.LASFDE12:
	.4byte	.Lframe0
	.4byte	.LFB299
	.4byte	.LFE299-.LFB299
	.align	2
.LEFDE12:
.LSFDE14:
	.4byte	.LEFDE14-.LASFDE14
.LASFDE14:
	.4byte	.Lframe0
	.4byte	.LFB293
	.4byte	.LFE293-.LFB293
	.byte	0x4
	.4byte	.LCFI0-.LFB293
	.byte	0xe
	.uleb128 0x8
	.byte	0x83
	.uleb128 0x2
	.byte	0x8e
	.uleb128 0x1
	.align	2
.LEFDE14:
.LSFDE16:
	.4byte	.LEFDE16-.LASFDE16
.LASFDE16:
	.4byte	.Lframe0
	.4byte	.LFB297
	.4byte	.LFE297-.LFB297
	.byte	0x4
	.4byte	.LCFI1-.LFB297
	.byte	0xe
	.uleb128 0x8
	.byte	0x83
	.uleb128 0x2
	.byte	0x8e
	.uleb128 0x1
	.align	2
.LEFDE16:
.LSFDE18:
	.4byte	.LEFDE18-.LASFDE18
.LASFDE18:
	.4byte	.Lframe0
	.4byte	.LFB296
	.4byte	.LFE296-.LFB296
	.byte	0x4
	.4byte	.LCFI2-.LFB296
	.byte	0xe
	.uleb128 0x8
	.byte	0x83
	.uleb128 0x2
	.byte	0x8e
	.uleb128 0x1
	.align	2
.LEFDE18:
.LSFDE20:
	.4byte	.LEFDE20-.LASFDE20
.LASFDE20:
	.4byte	.Lframe0
	.4byte	.LFB302
	.4byte	.LFE302-.LFB302
	.byte	0x4
	.4byte	.LCFI3-.LFB302
	.byte	0xe
	.uleb128 0x8
	.byte	0x83
	.uleb128 0x2
	.byte	0x8e
	.uleb128 0x1
	.align	2
.LEFDE20:
.LSFDE22:
	.4byte	.LEFDE22-.LASFDE22
.LASFDE22:
	.4byte	.Lframe0
	.4byte	.LFB306
	.4byte	.LFE306-.LFB306
	.byte	0x4
	.4byte	.LCFI4-.LFB306
	.byte	0xe
	.uleb128 0x8
	.byte	0x83
	.uleb128 0x2
	.byte	0x8e
	.uleb128 0x1
	.align	2
.LEFDE22:
.LSFDE24:
	.4byte	.LEFDE24-.LASFDE24
.LASFDE24:
	.4byte	.Lframe0
	.4byte	.LFB291
	.4byte	.LFE291-.LFB291
	.byte	0x4
	.4byte	.LCFI5-.LFB291
	.byte	0xe
	.uleb128 0x8
	.byte	0x83
	.uleb128 0x2
	.byte	0x8e
	.uleb128 0x1
	.align	2
.LEFDE24:
.LSFDE26:
	.4byte	.LEFDE26-.LASFDE26
.LASFDE26:
	.4byte	.Lframe0
	.4byte	.LFB301
	.4byte	.LFE301-.LFB301
	.byte	0x4
	.4byte	.LCFI6-.LFB301
	.byte	0xe
	.uleb128 0x4
	.byte	0x8e
	.uleb128 0x1
	.byte	0x4
	.4byte	.LCFI7-.LCFI6
	.byte	0xe
	.uleb128 0x10
	.byte	0x4
	.4byte	.LCFI8-.LCFI7
	.byte	0xa
	.byte	0xe
	.uleb128 0x4
	.byte	0x4
	.4byte	.LCFI9-.LCFI8
	.byte	0xb
	.align	2
.LEFDE26:
.LSFDE28:
	.4byte	.LEFDE28-.LASFDE28
.LASFDE28:
	.4byte	.Lframe0
	.4byte	.LFB300
	.4byte	.LFE300-.LFB300
	.byte	0x4
	.4byte	.LCFI10-.LFB300
	.byte	0xe
	.uleb128 0x8
	.byte	0x84
	.uleb128 0x2
	.byte	0x8e
	.uleb128 0x1
	.byte	0x4
	.4byte	.LCFI11-.LCFI10
	.byte	0xe
	.uleb128 0x10
	.byte	0x4
	.4byte	.LCFI12-.LCFI11
	.byte	0xa
	.byte	0xe
	.uleb128 0x8
	.byte	0x4
	.4byte	.LCFI13-.LCFI12
	.byte	0xb
	.align	2
.LEFDE28:
.LSFDE30:
	.4byte	.LEFDE30-.LASFDE30
.LASFDE30:
	.4byte	.Lframe0
	.4byte	.LFB292
	.4byte	.LFE292-.LFB292
	.byte	0x4
	.4byte	.LCFI14-.LFB292
	.byte	0xe
	.uleb128 0x8
	.byte	0x84
	.uleb128 0x2
	.byte	0x8e
	.uleb128 0x1
	.byte	0x4
	.4byte	.LCFI15-.LCFI14
	.byte	0xe
	.uleb128 0x18
	.byte	0x4
	.4byte	.LCFI16-.LCFI15
	.byte	0xa
	.byte	0xe
	.uleb128 0x8
	.byte	0x4
	.4byte	.LCFI17-.LCFI16
	.byte	0xb
	.align	2
.LEFDE30:
.LSFDE32:
	.4byte	.LEFDE32-.LASFDE32
.LASFDE32:
	.4byte	.Lframe0
	.4byte	.LFB295
	.4byte	.LFE295-.LFB295
	.byte	0x4
	.4byte	.LCFI18-.LFB295
	.byte	0xe
	.uleb128 0x4
	.byte	0x8e
	.uleb128 0x1
	.byte	0x4
	.4byte	.LCFI19-.LCFI18
	.byte	0xe
	.uleb128 0x10
	.byte	0x4
	.4byte	.LCFI20-.LCFI19
	.byte	0xa
	.byte	0xe
	.uleb128 0x4
	.byte	0x4
	.4byte	.LCFI21-.LCFI20
	.byte	0xb
	.align	2
.LEFDE32:
.LSFDE34:
	.4byte	.LEFDE34-.LASFDE34
.LASFDE34:
	.4byte	.Lframe0
	.4byte	.LFB294
	.4byte	.LFE294-.LFB294
	.byte	0x4
	.4byte	.LCFI22-.LFB294
	.byte	0xe
	.uleb128 0x8
	.byte	0x83
	.uleb128 0x2
	.byte	0x8e
	.uleb128 0x1
	.align	2
.LEFDE34:
.LSFDE36:
	.4byte	.LEFDE36-.LASFDE36
.LASFDE36:
	.4byte	.Lframe0
	.4byte	.LFB305
	.4byte	.LFE305-.LFB305
	.byte	0x4
	.4byte	.LCFI23-.LFB305
	.byte	0xe
	.uleb128 0x4
	.byte	0x8e
	.uleb128 0x1
	.byte	0x4
	.4byte	.LCFI24-.LCFI23
	.byte	0xe
	.uleb128 0xb8
	.byte	0x4
	.4byte	.LCFI25-.LCFI24
	.byte	0xa
	.byte	0xe
	.uleb128 0x4
	.byte	0x4
	.4byte	.LCFI26-.LCFI25
	.byte	0xb
	.align	2
.LEFDE36:
.LSFDE38:
	.4byte	.LEFDE38-.LASFDE38
.LASFDE38:
	.4byte	.Lframe0
	.4byte	.LFB298
	.4byte	.LFE298-.LFB298
	.byte	0x4
	.4byte	.LCFI27-.LFB298
	.byte	0xe
	.uleb128 0x4
	.byte	0x8e
	.uleb128 0x1
	.byte	0x4
	.4byte	.LCFI28-.LCFI27
	.byte	0xe
	.uleb128 0x28
	.byte	0x4
	.4byte	.LCFI29-.LCFI28
	.byte	0xa
	.byte	0xe
	.uleb128 0x4
	.byte	0x4
	.4byte	.LCFI30-.LCFI29
	.byte	0xb
	.align	2
.LEFDE38:
.LSFDE40:
	.4byte	.LEFDE40-.LASFDE40
.LASFDE40:
	.4byte	.Lframe0
	.4byte	.LFB290
	.4byte	.LFE290-.LFB290
	.byte	0x4
	.4byte	.LCFI31-.LFB290
	.byte	0xe
	.uleb128 0x8
	.byte	0x83
	.uleb128 0x2
	.byte	0x8e
	.uleb128 0x1
	.align	2
.LEFDE40:
.LSFDE42:
	.4byte	.LEFDE42-.LASFDE42
.LASFDE42:
	.4byte	.Lframe0
	.4byte	.LFB303
	.4byte	.LFE303-.LFB303
	.byte	0x4
	.4byte	.LCFI32-.LFB303
	.byte	0xe
	.uleb128 0x8
	.byte	0x83
	.uleb128 0x2
	.byte	0x8e
	.uleb128 0x1
	.align	2
.LEFDE42:
.LSFDE44:
	.4byte	.LEFDE44-.LASFDE44
.LASFDE44:
	.4byte	.Lframe0
	.4byte	.LFB304
	.4byte	.LFE304-.LFB304
	.byte	0x4
	.4byte	.LCFI33-.LFB304
	.byte	0xe
	.uleb128 0x18
	.byte	0x84
	.uleb128 0x6
	.byte	0x85
	.uleb128 0x5
	.byte	0x86
	.uleb128 0x4
	.byte	0x87
	.uleb128 0x3
	.byte	0x88
	.uleb128 0x2
	.byte	0x8e
	.uleb128 0x1
	.byte	0x4
	.4byte	.LCFI34-.LCFI33
	.byte	0xe
	.uleb128 0x20
	.byte	0x4
	.4byte	.LCFI35-.LCFI34
	.byte	0xe
	.uleb128 0x18
	.align	2
.LEFDE44:
.LSFDE46:
	.4byte	.LEFDE46-.LASFDE46
.LASFDE46:
	.4byte	.Lframe0
	.4byte	.LFB307
	.4byte	.LFE307-.LFB307
	.byte	0x4
	.4byte	.LCFI36-.LFB307
	.byte	0xe
	.uleb128 0x8
	.byte	0x83
	.uleb128 0x2
	.byte	0x8e
	.uleb128 0x1
	.align	2
.LEFDE46:
.LSFDE48:
	.4byte	.LEFDE48-.LASFDE48
.LASFDE48:
	.4byte	.Lframe0
	.4byte	.LFB308
	.4byte	.LFE308-.LFB308
	.byte	0x4
	.4byte	.LCFI37-.LFB308
	.byte	0xe
	.uleb128 0x8
	.byte	0x83
	.uleb128 0x2
	.byte	0x8e
	.uleb128 0x1
	.align	2
.LEFDE48:
	.text
.Letext0:
	.file 4 "../../../../../../components/libraries/experimental_log/nrf_log_types.h"
	.file 5 "C:/Program Files (x86)/SEGGER/SEGGER Embedded Studio for ARM 4.50/include/stdint.h"