	.cpu cortex-m4
	.eabi_attribute 27, 1
	.eabi_attribute 28, 1
	.eabi_attribute 20, 1
	.eabi_attribute 21, 1
	.eabi_attribute 23, 3
	.eabi_attribute 24, 1
	.eabi_attribute 25, 1
	.eabi_attribute 26, 1
	.eabi_attribute 30, 1
	.eabi_attribute 34, 1
	.eabi_attribute 18, 4
	.file	"bsp_btn_ble.c"
	.text
.Ltext0:
	.section	.text.connection_buttons_configure,"ax",%progbits
	.align	1
	.syntax unified
	.thumb
	.thumb_func
	.fpu fpv4-sp-d16
	.type	connection_buttons_configure, %function
connection_buttons_configure:
.LFB324:
	.file 1 "C:\\nRF5_SDK_15.0.0_a53641a\\components\\libraries\\bsp\\bsp_btn_ble.c"
	.loc 1 106 1 view -0
	@ args = 0, pretend = 0, frame = 0
	@ frame_needed = 0, uses_anonymous_args = 0
	push	{r3, lr}
.LCFI0:
	.loc 1 107 5 view .LVU1
	.loc 1 109 5 view .LVU2
	.loc 1 109 16 is_stmt 0 view .LVU3
	movs	r2, #1
	movs	r1, #0
	mov	r0, r1
	bl	bsp_event_to_button_action_assign
.LVL0:
	.loc 1 112 5 is_stmt 1 view .LVU4
	.loc 1 112 10 view .LVU5
	.loc 1 112 13 is_stmt 0 view .LVU6
	cbz	r0, .L2
	mov	r3, r0
	.loc 1 112 42 discriminator 1 view .LVU7
	cmp	r0, #7
	bne	.L1
.L2:
	.loc 1 112 103 is_stmt 1 discriminator 4 view .LVU8
	.loc 1 114 5 discriminator 4 view .LVU9
	.loc 1 114 16 is_stmt 0 discriminator 4 view .LVU10
	movs	r2, #7
	movs	r1, #2
	movs	r0, #1
.LVL1:
	.loc 1 114 16 discriminator 4 view .LVU11
	bl	bsp_event_to_button_action_assign
.LVL2:
	.loc 1 117 5 is_stmt 1 discriminator 4 view .LVU12
	.loc 1 117 10 discriminator 4 view .LVU13
	.loc 1 117 13 is_stmt 0 discriminator 4 view .LVU14
	mov	r3, r0
	cbz	r0, .L4
	.loc 1 117 42 discriminator 1 view .LVU15
	cmp	r0, #7
	bne	.L1
.L4:
	.loc 1 117 103 is_stmt 1 discriminator 4 view .LVU16
	.loc 1 120 5 discriminator 4 view .LVU17
	.loc 1 120 16 is_stmt 0 discriminator 4 view .LVU18
	movs	r2, #4
	movs	r1, #2
	movs	r0, #0
.LVL3:
	.loc 1 120 16 discriminator 4 view .LVU19
	bl	bsp_event_to_button_action_assign
.LVL4:
	.loc 1 123 5 is_stmt 1 discriminator 4 view .LVU20
	.loc 1 123 10 discriminator 4 view .LVU21
	.loc 1 123 13 is_stmt 0 discriminator 4 view .LVU22
	mov	r3, r0
	cbz	r0, .L1
	.loc 1 123 42 discriminator 1 view .LVU23
	cmp	r0, #7
	bne	.L1
	.loc 1 125 12 view .LVU24
	movs	r3, #0
.L1:
	.loc 1 126 1 view .LVU25
	mov	r0, r3
.LVL5:
	.loc 1 126 1 view .LVU26
	pop	{r3, pc}
.LFE324:
	.size	connection_buttons_configure, .-connection_buttons_configure
	.section	.text.advertising_buttons_configure,"ax",%progbits
	.align	1
	.syntax unified
	.thumb
	.thumb_func
	.fpu fpv4-sp-d16
	.type	advertising_buttons_configure, %function
advertising_buttons_configure:
.LFB325:
	.loc 1 135 1 is_stmt 1 view -0
	@ args = 0, pretend = 0, frame = 0
	@ frame_needed = 0, uses_anonymous_args = 0
	push	{r3, lr}
.LCFI1:
	.loc 1 136 5 view .LVU28
	.loc 1 138 5 view .LVU29
	.loc 1 138 16 is_stmt 0 view .LVU30
	movs	r2, #1
	movs	r1, #2
	movs	r0, #0
	bl	bsp_event_to_button_action_assign
.LVL6:
	.loc 1 141 5 is_stmt 1 view .LVU31
	.loc 1 141 10 view .LVU32
	.loc 1 141 13 is_stmt 0 view .LVU33
	cbz	r0, .L7
	mov	r3, r0
	.loc 1 141 42 discriminator 1 view .LVU34
	cmp	r0, #7
	bne	.L6
.L7:
	.loc 1 141 103 is_stmt 1 discriminator 4 view .LVU35
	.loc 1 143 5 discriminator 4 view .LVU36
	.loc 1 143 16 is_stmt 0 discriminator 4 view .LVU37
	movs	r2, #7
	movs	r1, #2
	movs	r0, #1
.LVL7:
	.loc 1 143 16 discriminator 4 view .LVU38
	bl	bsp_event_to_button_action_assign
.LVL8:
	.loc 1 146 5 is_stmt 1 discriminator 4 view .LVU39
	.loc 1 146 10 discriminator 4 view .LVU40
	.loc 1 146 13 is_stmt 0 discriminator 4 view .LVU41
	mov	r3, r0
	cbz	r0, .L9
	.loc 1 146 42 discriminator 1 view .LVU42
	cmp	r0, #7
	bne	.L6
.L9:
	.loc 1 146 103 is_stmt 1 discriminator 4 view .LVU43
	.loc 1 148 5 discriminator 4 view .LVU44
	.loc 1 148 16 is_stmt 0 discriminator 4 view .LVU45
	movs	r2, #10
	movs	r1, #0
	mov	r0, r1
.LVL9:
	.loc 1 148 16 discriminator 4 view .LVU46
	bl	bsp_event_to_button_action_assign
.LVL10:
	.loc 1 151 5 is_stmt 1 discriminator 4 view .LVU47
	.loc 1 151 10 discriminator 4 view .LVU48
	.loc 1 151 13 is_stmt 0 discriminator 4 view .LVU49
	mov	r3, r0
	cbz	r0, .L6
	.loc 1 151 42 discriminator 1 view .LVU50
	cmp	r0, #7
	bne	.L6
	.loc 1 153 12 view .LVU51
	movs	r3, #0
.L6:
	.loc 1 154 1 view .LVU52
	mov	r0, r3
.LVL11:
	.loc 1 154 1 view .LVU53
	pop	{r3, pc}
.LFE325:
	.size	advertising_buttons_configure, .-advertising_buttons_configure
	.section	.text.ble_evt_handler,"ax",%progbits
	.align	1
	.syntax unified
	.thumb
	.thumb_func
	.fpu fpv4-sp-d16
	.type	ble_evt_handler, %function
ble_evt_handler:
.LVL12:
.LFB328:
	.loc 1 204 1 is_stmt 1 view -0
	@ args = 0, pretend = 0, frame = 0
	@ frame_needed = 0, uses_anonymous_args = 0
	.loc 1 204 1 is_stmt 0 view .LVU55
	push	{r3, lr}
.LCFI2:
	.loc 1 205 5 is_stmt 1 view .LVU56
	.loc 1 207 5 view .LVU57
	.loc 1 207 30 is_stmt 0 view .LVU58
	ldrh	r3, [r0]
	.loc 1 207 5 view .LVU59
	cmp	r3, #16
	beq	.L12
	cmp	r3, #17
	beq	.L13
.LVL13:
.L11:
	.loc 1 232 1 view .LVU60
	pop	{r3, pc}
.LVL14:
.L12:
	.loc 1 210 13 is_stmt 1 view .LVU61
	.loc 1 210 35 is_stmt 0 view .LVU62
	ldr	r3, .L18
	ldr	r3, [r3]
	.loc 1 210 16 view .LVU63
	cbz	r3, .L17
.LVL15:
.L15:
	.loc 1 213 58 is_stmt 1 discriminator 5 view .LVU64
	.loc 1 216 13 discriminator 5 view .LVU65
	.loc 1 216 30 is_stmt 0 discriminator 5 view .LVU66
	ldr	r2, .L18
	ldr	r3, [r2]
	adds	r3, r3, #1
	str	r3, [r2]
	.loc 1 217 13 is_stmt 1 discriminator 5 view .LVU67
	b	.L11
.LVL16:
.L17:
	.loc 1 212 17 view .LVU68
	.loc 1 212 28 is_stmt 0 view .LVU69
	bl	connection_buttons_configure
.LVL17:
	.loc 1 213 17 is_stmt 1 view .LVU70
	.loc 1 213 22 view .LVU71
	.loc 1 213 25 is_stmt 0 view .LVU72
	cmp	r0, #0
	beq	.L15
	.loc 1 213 74 discriminator 1 view .LVU73
	ldr	r3, .L18+4
	ldr	r3, [r3]
	.loc 1 213 54 discriminator 1 view .LVU74
	cmp	r3, #0
	beq	.L15
	.loc 1 213 21 is_stmt 1 discriminator 3 view .LVU75
	blx	r3
.LVL18:
	.loc 1 213 21 is_stmt 0 discriminator 3 view .LVU76
	b	.L15
.LVL19:
.L13:
	.loc 1 220 13 is_stmt 1 view .LVU77
	.loc 1 220 30 is_stmt 0 view .LVU78
	ldr	r2, .L18
	ldr	r3, [r2]
	subs	r3, r3, #1
	str	r3, [r2]
	.loc 1 222 13 is_stmt 1 view .LVU79
	.loc 1 222 16 is_stmt 0 view .LVU80
	cmp	r3, #0
	bne	.L11
	.loc 1 224 17 is_stmt 1 view .LVU81
	.loc 1 224 28 is_stmt 0 view .LVU82
	bl	advertising_buttons_configure
.LVL20:
	.loc 1 225 17 is_stmt 1 view .LVU83
	.loc 1 225 22 view .LVU84
	.loc 1 225 25 is_stmt 0 view .LVU85
	cmp	r0, #0
	beq	.L11
	.loc 1 225 74 discriminator 1 view .LVU86
	ldr	r3, .L18+4
	ldr	r3, [r3]
	.loc 1 225 54 discriminator 1 view .LVU87
	cmp	r3, #0
	beq	.L11
	.loc 1 225 21 is_stmt 1 discriminator 3 view .LVU88
	blx	r3
.LVL21:
	.loc 1 232 1 is_stmt 0 discriminator 3 view .LVU89
	b	.L11
.L19:
	.align	2
.L18:
	.word	.LANCHOR0
	.word	.LANCHOR1
.LFE328:
	.size	ble_evt_handler, .-ble_evt_handler
	.section	.text.startup_event_extract,"ax",%progbits
	.align	1
	.syntax unified
	.thumb
	.thumb_func
	.fpu fpv4-sp-d16
	.type	startup_event_extract, %function
startup_event_extract:
.LVL22:
.LFB326:
	.loc 1 166 1 is_stmt 1 view -0
	@ args = 0, pretend = 0, frame = 0
	@ frame_needed = 0, uses_anonymous_args = 0
	.loc 1 166 1 is_stmt 0 view .LVU91
	push	{r4, lr}
.LCFI3:
	mov	r4, r0
	.loc 1 168 5 is_stmt 1 view .LVU92
	.loc 1 168 9 is_stmt 0 view .LVU93
	movs	r0, #1
.LVL23:
	.loc 1 168 9 view .LVU94
	bl	bsp_button_is_pressed
.LVL24:
	.loc 1 168 8 view .LVU95
	cbz	r0, .L21
	.loc 1 170 9 is_stmt 1 view .LVU96
	.loc 1 170 26 is_stmt 0 view .LVU97
	movs	r3, #2
	strb	r3, [r4]
.L20:
	.loc 1 180 1 view .LVU98
	pop	{r4, pc}
.LVL25:
.L21:
	.loc 1 172 10 is_stmt 1 view .LVU99
	.loc 1 172 14 is_stmt 0 view .LVU100
	movs	r0, #0
	bl	bsp_button_is_pressed
.LVL26:
	.loc 1 172 13 view .LVU101
	cbz	r0, .L23
	.loc 1 174 9 is_stmt 1 view .LVU102
	.loc 1 174 26 is_stmt 0 view .LVU103
	movs	r3, #11
	strb	r3, [r4]
	b	.L20
.L23:
	.loc 1 178 9 is_stmt 1 view .LVU104
	.loc 1 178 26 is_stmt 0 view .LVU105
	movs	r3, #0
	strb	r3, [r4]
	.loc 1 180 1 view .LVU106
	b	.L20
.LFE326:
	.size	startup_event_extract, .-startup_event_extract
	.section	.text.bsp_btn_ble_sleep_mode_prepare,"ax",%progbits
	.align	1
	.global	bsp_btn_ble_sleep_mode_prepare
	.syntax unified
	.thumb
	.thumb_func
	.fpu fpv4-sp-d16
	.type	bsp_btn_ble_sleep_mode_prepare, %function
bsp_btn_ble_sleep_mode_prepare:
.LFB327:
	.loc 1 184 1 is_stmt 1 view -0
	@ args = 0, pretend = 0, frame = 0
	@ frame_needed = 0, uses_anonymous_args = 0
	push	{r3, lr}
.LCFI4:
	.loc 1 185 5 view .LVU108
	.loc 1 187 5 view .LVU109
	.loc 1 187 16 is_stmt 0 view .LVU110
	movs	r0, #0
	bl	bsp_wakeup_button_enable
.LVL27:
	.loc 1 188 5 is_stmt 1 view .LVU111
	.loc 1 188 10 view .LVU112
	.loc 1 188 13 is_stmt 0 view .LVU113
	cbz	r0, .L26
	mov	r3, r0
	.loc 1 188 42 discriminator 1 view .LVU114
	cmp	r0, #6
	bne	.L25
.L26:
	.loc 1 188 103 is_stmt 1 discriminator 4 view .LVU115
	.loc 1 190 5 discriminator 4 view .LVU116
	.loc 1 190 16 is_stmt 0 discriminator 4 view .LVU117
	movs	r0, #1
.LVL28:
	.loc 1 190 16 discriminator 4 view .LVU118
	bl	bsp_wakeup_button_enable
.LVL29:
	.loc 1 191 5 is_stmt 1 discriminator 4 view .LVU119
	.loc 1 191 10 discriminator 4 view .LVU120
	.loc 1 191 13 is_stmt 0 discriminator 4 view .LVU121
	mov	r3, r0
	cbz	r0, .L25
	.loc 1 191 42 discriminator 1 view .LVU122
	cmp	r0, #6
	bne	.L25
	.loc 1 193 12 view .LVU123
	movs	r3, #0
.L25:
	.loc 1 194 1 view .LVU124
	mov	r0, r3
.LVL30:
	.loc 1 194 1 view .LVU125
	pop	{r3, pc}
.LFE327:
	.size	bsp_btn_ble_sleep_mode_prepare, .-bsp_btn_ble_sleep_mode_prepare
	.section	.text.bsp_btn_ble_init,"ax",%progbits
	.align	1
	.global	bsp_btn_ble_init
	.syntax unified
	.thumb
	.thumb_func
	.fpu fpv4-sp-d16
	.type	bsp_btn_ble_init, %function
bsp_btn_ble_init:
.LVL31:
.LFB329:
	.loc 1 238 1 is_stmt 1 view -0
	@ args = 0, pretend = 0, frame = 0
	@ frame_needed = 0, uses_anonymous_args = 0
	.loc 1 238 1 is_stmt 0 view .LVU127
	push	{r3, lr}
.LCFI5:
	.loc 1 239 5 is_stmt 1 view .LVU128
.LVL32:
	.loc 1 241 5 view .LVU129
	.loc 1 241 21 is_stmt 0 view .LVU130
	ldr	r3, .L35
	str	r0, [r3]
	.loc 1 243 5 is_stmt 1 view .LVU131
	.loc 1 243 8 is_stmt 0 view .LVU132
	cbz	r1, .L30
	mov	r0, r1
.LVL33:
	.loc 1 245 9 is_stmt 1 view .LVU133
	bl	startup_event_extract
.LVL34:
.L30:
	.loc 1 248 5 view .LVU134
	.loc 1 248 27 is_stmt 0 view .LVU135
	ldr	r3, .L35+4
	ldr	r3, [r3]
	.loc 1 248 8 view .LVU136
	cbz	r3, .L34
	.loc 1 239 14 view .LVU137
	movs	r0, #0
	.loc 1 253 5 is_stmt 1 view .LVU138
.LVL35:
.L29:
	.loc 1 254 1 is_stmt 0 view .LVU139
	pop	{r3, pc}
.LVL36:
.L34:
	.loc 1 250 9 is_stmt 1 view .LVU140
	.loc 1 250 20 is_stmt 0 view .LVU141
	bl	advertising_buttons_configure
.LVL37:
	.loc 1 250 20 view .LVU142
	b	.L29
.L36:
	.align	2
.L35:
	.word	.LANCHOR1
	.word	.LANCHOR0
.LFE329:
	.size	bsp_btn_ble_init, .-bsp_btn_ble_init
	.section	.bss.m_error_handler,"aw",%nobits
	.align	2
	.set	.LANCHOR1,. + 0
	.type	m_error_handler, %object
	.size	m_error_handler, 4
m_error_handler:
	.space	4
	.section	.bss.m_num_connections,"aw",%nobits
	.align	2
	.set	.LANCHOR0,. + 0
	.type	m_num_connections, %object
	.size	m_num_connections, 4
m_num_connections:
	.space	4
	.section	.sdh_ble_observers1,"a"
	.align	2
	.type	m_ble_observer, %object
	.size	m_ble_observer, 8
m_ble_observer:
	.word	ble_evt_handler
	.word	0
	.section	.debug_frame,"",%progbits
.Lframe0:
	.4byte	.LECIE0-.LSCIE0
.LSCIE0:
	.4byte	0xffffffff
	.byte	0x3
	.ascii	"\000"
	.uleb128 0x1
	.sleb128 -4
	.uleb128 0xe
	.byte	0xc
	.uleb128 0xd
	.uleb128 0
	.align	2
.LECIE0:
.LSFDE0:
	.4byte	.LEFDE0-.LASFDE0
.LASFDE0:
	.4byte	.Lframe0
	.4byte	.LFB324
	.4byte	.LFE324-.LFB324
	.byte	0x4
	.4byte	.LCFI0-.LFB324
	.byte	0xe
	.uleb128 0x8
	.byte	0x83
	.uleb128 0x2
	.byte	0x8e
	.uleb128 0x1
	.align	2
.LEFDE0:
.LSFDE2:
	.4byte	.LEFDE2-.LASFDE2
.LASFDE2:
	.4byte	.Lframe0
	.4byte	.LFB325
	.4byte	.LFE325-.LFB325
	.byte	0x4
	.4byte	.LCFI1-.LFB325
	.byte	0xe
	.uleb128 0x8
	.byte	0x83
	.uleb128 0x2
	.byte	0x8e
	.uleb128 0x1
	.align	2
.LEFDE2:
.LSFDE4:
	.4byte	.LEFDE4-.LASFDE4
.LASFDE4:
	.4byte	.Lframe0
	.4byte	.LFB328
	.4byte	.LFE328-.LFB328
	.byte	0x4
	.4byte	.LCFI2-.LFB328
	.byte	0xe
	.uleb128 0x8
	.byte	0x83
	.uleb128 0x2
	.byte	0x8e
	.uleb128 0x1
	.align	2
.LEFDE4:
.LSFDE6:
	.4byte	.LEFDE6-.LASFDE6
.LASFDE6:
	.4byte	.Lframe0
	.4byte	.LFB326
	.4byte	.LFE326-.LFB326
	.byte	0x4
	.4byte	.LCFI3-.LFB326
	.byte	0xe
	.uleb128 0x8
	.byte	0x84
	.uleb128 0x2
	.byte	0x8e
	.uleb128 0x1
	.align	2
.LEFDE6:
.LSFDE8:
	.4byte	.LEFDE8-.LASFDE8
.LASFDE8:
	.4byte	.Lframe0
	.4byte	.LFB327
	.4byte	.LFE327-.LFB327
	.byte	0x4
	.4byte	.LCFI4-.LFB327
	.byte	0xe
	.uleb128 0x8
	.byte	0x83
	.uleb128 0x2
	.byte	0x8e
	.uleb128 0x1
	.align	2
.LEFDE8:
.LSFDE10:
	.4byte	.LEFDE10-.LASFDE10
.LASFDE10:
	.4byte	.Lframe0
	.4byte	.LFB329
	.4byte	.LFE329-.LFB329
	.byte	0x4
	.4byte	.LCFI5-.LFB329
	.byte	0xe
	.uleb128 0x8
	.byte	0x83
	.uleb128 0x2
	.byte	0x8e
	.uleb128 0x1
	.align	2
.LEFDE10:
	.text
.Letext0:
	.file 2 "../../../../../../components/softdevice/common/nrf_sdh_ble.h"
	.file 3 "../../../../../../components/softdevice/s132/headers/ble.h"