	.cpu cortex-m4
	.eabi_attribute 27, 1
	.eabi_attribute 28, 1
	.eabi_attribute 20, 1
	.eabi_attribute 21, 1
	.eabi_attribute 23, 3
	.eabi_attribute 24, 1
	.eabi_attribute 25, 1
	.eabi_attribute 26, 1
	.eabi_attribute 30, 1
	.eabi_attribute 34, 1
	.eabi_attribute 18, 4
	.file	"functions.c"
	.text
.Ltext0:
	.global	__aeabi_f2d
	.global	__aeabi_d2f
	.global	__aeabi_dcmpgt
	.global	__aeabi_dsub
	.global	__aeabi_dcmplt
	.global	__aeabi_dadd
	.section	.text.vFunc_Inf2pi,"ax",%progbits
	.align	1
	.global	vFunc_Inf2pi
	.syntax unified
	.thumb
	.thumb_func
	.fpu fpv4-sp-d16
	.type	vFunc_Inf2pi, %function
vFunc_Inf2pi:
.LVL0:
.LFB266:
	.file 1 "C:\\nRF5_SDK_15.0.0_a53641a\\examples\\ble_peripheral\\slam_application-master\\drivers\\functions.c"
	.loc 1 14 43 view -0
	@ args = 0, pretend = 0, frame = 0
	@ frame_needed = 0, uses_anonymous_args = 0
	.loc 1 14 43 is_stmt 0 view .LVU1
	push	{r3, r4, r5, r6, r7, lr}
.LCFI0:
	mov	r5, r0
	.loc 1 15 5 is_stmt 1 view .LVU2
	.loc 1 15 20 is_stmt 0 view .LVU3
	ldr	r0, [r0]	@ float
.LVL1:
	.loc 1 15 20 view .LVU4
	bl	__aeabi_f2d
.LVL2:
	vldr.64	d1, .L9
	vmov	d0, r0, r1
	bl	fmod
.LVL3:
	vmov	r0, r1, d0
	.loc 1 15 11 view .LVU5
	bl	__aeabi_d2f
.LVL4:
	mov	r4, r0	@ float
.LVL5:
	.loc 1 16 5 is_stmt 1 view .LVU6
	.loc 1 16 15 is_stmt 0 view .LVU7
	bl	__aeabi_f2d
.LVL6:
	.loc 1 16 15 view .LVU8
	mov	r6, r0
	mov	r7, r1
	.loc 1 16 7 view .LVU9
	adr	r3, .L9+8
	ldrd	r2, [r3]
	bl	__aeabi_dcmpgt
.LVL7:
	cbz	r0, .L2
	.loc 1 17 7 is_stmt 1 view .LVU10
	.loc 1 17 14 is_stmt 0 view .LVU11
	adr	r3, .L9
	ldrd	r2, [r3]
	mov	r0, r6
	mov	r1, r7
	bl	__aeabi_dsub
.LVL8:
	bl	__aeabi_d2f
.LVL9:
	mov	r4, r0	@ float
.LVL10:
.L2:
	.loc 1 19 5 is_stmt 1 view .LVU12
	.loc 1 19 15 is_stmt 0 view .LVU13
	mov	r0, r4	@ float
	bl	__aeabi_f2d
.LVL11:
	mov	r6, r0
	mov	r7, r1
	.loc 1 19 7 view .LVU14
	adr	r3, .L9+16
	ldrd	r2, [r3]
	bl	__aeabi_dcmplt
.LVL12:
	cbz	r0, .L4
	.loc 1 20 7 is_stmt 1 view .LVU15
	.loc 1 20 14 is_stmt 0 view .LVU16
	adr	r3, .L9
	ldrd	r2, [r3]
	mov	r0, r6
	mov	r1, r7
	bl	__aeabi_dadd
.LVL13:
	bl	__aeabi_d2f
.LVL14:
	mov	r4, r0	@ float
.LVL15:
.L4:
	.loc 1 22 5 is_stmt 1 view .LVU17
	.loc 1 22 23 is_stmt 0 view .LVU18
	str	r4, [r5]	@ float
	.loc 1 23 1 view .LVU19
	pop	{r3, r4, r5, r6, r7, pc}
.LVL16:
.L10:
	.loc 1 23 1 view .LVU20
	.align	3
.L9:
	.word	1413754136
	.word	1075388923
	.word	1413754136
	.word	1074340347
	.word	1413754136
	.word	-1073143301
.LFE266:
	.size	vFunc_Inf2pi, .-vFunc_Inf2pi
	.global	__aeabi_i2d
	.global	__aeabi_dmul
	.global	__aeabi_ddiv
	.global	__aeabi_d2iz
	.section	.text.distObjectX,"ax",%progbits
	.align	1
	.global	distObjectX
	.syntax unified
	.thumb
	.thumb_func
	.fpu fpv4-sp-d16
	.type	distObjectX, %function
distObjectX:
.LVL17:
.LFB267:
	.loc 1 26 108 is_stmt 1 view -0
	@ args = 4, pretend = 0, frame = 0
	@ frame_needed = 0, uses_anonymous_args = 0
	.loc 1 26 108 is_stmt 0 view .LVU22
	push	{r3, r4, r5, r6, r7, r8, r9, r10, fp, lr}
.LCFI1:
	mov	r7, r0
	mov	r6, r2
	mov	r8, r3
	ldrb	r9, [sp, #40]	@ zero_extendqisi2
	.loc 1 27 5 is_stmt 1 view .LVU23
	.loc 1 27 25 is_stmt 0 view .LVU24
	mov	r0, r1
.LVL18:
	.loc 1 27 25 view .LVU25
	bl	__aeabi_i2d
.LVL19:
	.loc 1 27 25 view .LVU26
	mov	r10, r0
	mov	fp, r1
	vmov	d0, r10, fp
	bl	cos
.LVL20:
	vmov	r0, r1, d0
	.loc 1 27 35 view .LVU27
	movs	r2, #0
	movs	r3, #0
	bl	__aeabi_dmul
.LVL21:
	mov	r4, r0
	mov	r5, r1
	.loc 1 27 23 view .LVU28
	mov	r0, r7
	bl	__aeabi_i2d
.LVL22:
	mov	r2, r4
	mov	r3, r5
	bl	__aeabi_dsub
.LVL23:
	mov	r4, r0
	mov	r5, r1
	.loc 1 27 78 view .LVU29
	movs	r0, #90
	mla	r0, r0, r9, r6
	bl	__aeabi_i2d
.LVL24:
	adr	r3, .L13+4
	ldrd	r2, [r3]
	bl	__aeabi_dmul
.LVL25:
	.loc 1 27 101 view .LVU30
	movs	r2, #0
	ldr	r3, .L13
	bl	__aeabi_ddiv
.LVL26:
	mov	r2, r0
	mov	r3, r1
	.loc 1 27 40 view .LVU31
	mov	r0, r10
	mov	r1, fp
	bl	__aeabi_dadd
.LVL27:
	vmov	d0, r0, r1
	bl	cos
.LVL28:
	vmov	r6, r7, d0
	.loc 1 27 109 view .LVU32
	ldrsh	r0, [r8, r9, lsl #1]
	bl	__aeabi_i2d
.LVL29:
	mov	r2, r6
	mov	r3, r7
	bl	__aeabi_dmul
.LVL30:
	mov	r2, r0
	mov	r3, r1
	.loc 1 27 38 view .LVU33
	mov	r0, r4
	mov	r1, r5
	bl	__aeabi_dadd
.LVL31:
	.loc 1 27 13 view .LVU34
	bl	__aeabi_d2iz
.LVL32:
	.loc 1 29 5 is_stmt 1 view .LVU35
	.loc 1 30 1 is_stmt 0 view .LVU36
	sxth	r0, r0
	.loc 1 30 1 view .LVU37
	pop	{r3, r4, r5, r6, r7, r8, r9, r10, fp, pc}
.LVL33:
.L14:
	.loc 1 30 1 view .LVU38
	.align	3
.L13:
	.word	1080459264
	.word	1413754136
	.word	1074340347
.LFE267:
	.size	distObjectX, .-distObjectX
	.section	.text.distObjectXlocal,"ax",%progbits
	.align	1
	.global	distObjectXlocal
	.syntax unified
	.thumb
	.thumb_func
	.fpu fpv4-sp-d16
	.type	distObjectXlocal, %function
distObjectXlocal:
.LVL34:
.LFB268:
	.loc 1 33 102 is_stmt 1 view -0
	@ args = 0, pretend = 0, frame = 0
	@ frame_needed = 0, uses_anonymous_args = 0
	.loc 1 33 102 is_stmt 0 view .LVU40
	push	{r4, r5, r6, r7, r8, lr}
.LCFI2:
	mov	r8, r0
	mov	r5, r2
	mov	r4, r3
	.loc 1 34 5 is_stmt 1 view .LVU41
	.loc 1 34 59 is_stmt 0 view .LVU42
	movs	r0, #90
.LVL35:
	.loc 1 34 59 view .LVU43
	mla	r0, r0, r3, r1
	bl	__aeabi_i2d
.LVL36:
	.loc 1 34 59 view .LVU44
	adr	r3, .L17+4
	ldrd	r2, [r3]
	bl	__aeabi_dmul
.LVL37:
	.loc 1 34 59 view .LVU45
	movs	r2, #0
	ldr	r3, .L17
	bl	__aeabi_ddiv
.LVL38:
	mov	r6, r0
	mov	r7, r1
	.loc 1 34 21 view .LVU46
	mov	r0, r8
	bl	__aeabi_i2d
.LVL39:
	mov	r2, r6
	mov	r3, r7
	bl	__aeabi_dadd
.LVL40:
	vmov	d0, r0, r1
	bl	cos
.LVL41:
	vmov	r6, r7, d0
	.loc 1 34 67 view .LVU47
	ldrsh	r0, [r5, r4, lsl #1]
	bl	__aeabi_i2d
.LVL42:
	mov	r2, r6
	mov	r3, r7
	bl	__aeabi_dmul
.LVL43:
	.loc 1 34 13 view .LVU48
	bl	__aeabi_d2iz
.LVL44:
	.loc 1 36 5 is_stmt 1 view .LVU49
	.loc 1 37 1 is_stmt 0 view .LVU50
	sxth	r0, r0
	.loc 1 37 1 view .LVU51
	pop	{r4, r5, r6, r7, r8, pc}
.LVL45:
.L18:
	.loc 1 37 1 view .LVU52
	.align	3
.L17:
	.word	1080459264
	.word	1413754136
	.word	1074340347
.LFE268:
	.size	distObjectXlocal, .-distObjectXlocal
	.section	.text.distObjectY,"ax",%progbits
	.align	1
	.global	distObjectY
	.syntax unified
	.thumb
	.thumb_func
	.fpu fpv4-sp-d16
	.type	distObjectY, %function
distObjectY:
.LVL46:
.LFB269:
	.loc 1 41 108 is_stmt 1 view -0
	@ args = 4, pretend = 0, frame = 0
	@ frame_needed = 0, uses_anonymous_args = 0
	.loc 1 41 108 is_stmt 0 view .LVU54
	push	{r3, r4, r5, r6, r7, r8, r9, r10, fp, lr}
.LCFI3:
	mov	r7, r0
	mov	r6, r2
	mov	r8, r3
	ldrb	r9, [sp, #40]	@ zero_extendqisi2
	.loc 1 42 5 is_stmt 1 view .LVU55
	.loc 1 42 25 is_stmt 0 view .LVU56
	mov	r0, r1
.LVL47:
	.loc 1 42 25 view .LVU57
	bl	__aeabi_i2d
.LVL48:
	.loc 1 42 25 view .LVU58
	mov	r10, r0
	mov	fp, r1
	vmov	d0, r10, fp
	bl	cos
.LVL49:
	vmov	r0, r1, d0
	.loc 1 42 35 view .LVU59
	movs	r2, #0
	movs	r3, #0
	bl	__aeabi_dmul
.LVL50:
	mov	r4, r0
	mov	r5, r1
	.loc 1 42 23 view .LVU60
	mov	r0, r7
	bl	__aeabi_i2d
.LVL51:
	mov	r2, r4
	mov	r3, r5
	bl	__aeabi_dsub
.LVL52:
	mov	r4, r0
	mov	r5, r1
	.loc 1 42 78 view .LVU61
	movs	r0, #90
	mla	r0, r0, r9, r6
	bl	__aeabi_i2d
.LVL53:
	adr	r3, .L21+4
	ldrd	r2, [r3]
	bl	__aeabi_dmul
.LVL54:
	.loc 1 42 101 view .LVU62
	movs	r2, #0
	ldr	r3, .L21
	bl	__aeabi_ddiv
.LVL55:
	mov	r2, r0
	mov	r3, r1
	.loc 1 42 40 view .LVU63
	mov	r0, r10
	mov	r1, fp
	bl	__aeabi_dadd
.LVL56:
	vmov	d0, r0, r1
	bl	sin
.LVL57:
	vmov	r6, r7, d0
	.loc 1 42 109 view .LVU64
	ldrsh	r0, [r8, r9, lsl #1]
	bl	__aeabi_i2d
.LVL58:
	mov	r2, r6
	mov	r3, r7
	bl	__aeabi_dmul
.LVL59:
	mov	r2, r0
	mov	r3, r1
	.loc 1 42 38 view .LVU65
	mov	r0, r4
	mov	r1, r5
	bl	__aeabi_dadd
.LVL60:
	.loc 1 42 13 view .LVU66
	bl	__aeabi_d2iz
.LVL61:
	.loc 1 44 5 is_stmt 1 view .LVU67
	.loc 1 45 1 is_stmt 0 view .LVU68
	sxth	r0, r0
	.loc 1 45 1 view .LVU69
	pop	{r3, r4, r5, r6, r7, r8, r9, r10, fp, pc}
.LVL62:
.L22:
	.loc 1 45 1 view .LVU70
	.align	3
.L21:
	.word	1080459264
	.word	1413754136
	.word	1074340347
.LFE269:
	.size	distObjectY, .-distObjectY
	.section	.text.distObjectYlocal,"ax",%progbits
	.align	1
	.global	distObjectYlocal
	.syntax unified
	.thumb
	.thumb_func
	.fpu fpv4-sp-d16
	.type	distObjectYlocal, %function
distObjectYlocal:
.LVL63:
.LFB270:
	.loc 1 48 102 is_stmt 1 view -0
	@ args = 0, pretend = 0, frame = 0
	@ frame_needed = 0, uses_anonymous_args = 0
	.loc 1 48 102 is_stmt 0 view .LVU72
	push	{r4, r5, r6, r7, r8, lr}
.LCFI4:
	mov	r8, r0
	mov	r5, r2
	mov	r4, r3
	.loc 1 49 5 is_stmt 1 view .LVU73
	.loc 1 49 59 is_stmt 0 view .LVU74
	movs	r0, #90
.LVL64:
	.loc 1 49 59 view .LVU75
	mla	r0, r0, r3, r1
	bl	__aeabi_i2d
.LVL65:
	.loc 1 49 59 view .LVU76
	adr	r3, .L25+4
	ldrd	r2, [r3]
	bl	__aeabi_dmul
.LVL66:
	.loc 1 49 59 view .LVU77
	movs	r2, #0
	ldr	r3, .L25
	bl	__aeabi_ddiv
.LVL67:
	mov	r6, r0
	mov	r7, r1
	.loc 1 49 21 view .LVU78
	mov	r0, r8
	bl	__aeabi_i2d
.LVL68:
	mov	r2, r6
	mov	r3, r7
	bl	__aeabi_dadd
.LVL69:
	vmov	d0, r0, r1
	bl	sin
.LVL70:
	vmov	r6, r7, d0
	.loc 1 49 67 view .LVU79
	ldrsh	r0, [r5, r4, lsl #1]
	bl	__aeabi_i2d
.LVL71:
	mov	r2, r6
	mov	r3, r7
	bl	__aeabi_dmul
.LVL72:
	.loc 1 49 13 view .LVU80
	bl	__aeabi_d2iz
.LVL73:
	.loc 1 51 5 is_stmt 1 view .LVU81
	.loc 1 52 1 is_stmt 0 view .LVU82
	sxth	r0, r0
	.loc 1 52 1 view .LVU83
	pop	{r4, r5, r6, r7, r8, pc}
.LVL74:
.L26:
	.loc 1 52 1 view .LVU84
	.align	3
.L25:
	.word	1080459264
	.word	1413754136
	.word	1074340347
.LFE270:
	.size	distObjectYlocal, .-distObjectYlocal
	.section	.text.sendNewPoseMessage,"ax",%progbits
	.align	1
	.global	sendNewPoseMessage
	.syntax unified
	.thumb
	.thumb_func
	.fpu fpv4-sp-d16
	.type	sendNewPoseMessage, %function
sendNewPoseMessage:
.LVL75:
.LFB271:
	.loc 1 56 101 is_stmt 1 view -0
	@ args = 4, pretend = 0, frame = 24
	@ frame_needed = 0, uses_anonymous_args = 0
	.loc 1 56 101 is_stmt 0 view .LVU86
	push	{r4, r5, r6, r7, r8, r9, r10, fp, lr}
.LCFI5:
	sub	sp, sp, #36
.LCFI6:
	mov	r10, r0
	mov	r9, r1
	mov	r6, r2
	mov	r8, r3
	ldr	r7, [sp, #72]
	.loc 1 57 2 is_stmt 1 view .LVU87
.LVL76:
	.loc 1 58 5 view .LVU88
	.loc 1 59 5 view .LVU89
	.loc 1 60 5 view .LVU90
	.loc 1 61 5 view .LVU91
	.loc 1 61 14 is_stmt 0 view .LVU92
	movs	r4, #0
	strb	r4, [sp, #30]
	.loc 1 63 5 is_stmt 1 view .LVU93
	.loc 1 63 13 is_stmt 0 view .LVU94
	strb	r0, [sp, #8]
	.loc 1 64 5 is_stmt 1 view .LVU95
	.loc 1 64 13 is_stmt 0 view .LVU96
	asrs	r3, r0, #8
.LVL77:
	.loc 1 64 13 view .LVU97
	strb	r3, [sp, #9]
	.loc 1 65 5 is_stmt 1 view .LVU98
	.loc 1 65 13 is_stmt 0 view .LVU99
	strb	r1, [sp, #10]
	.loc 1 66 5 is_stmt 1 view .LVU100
	.loc 1 66 13 is_stmt 0 view .LVU101
	asrs	r3, r1, #8
	strb	r3, [sp, #11]
	.loc 1 67 5 is_stmt 1 view .LVU102
	.loc 1 67 13 is_stmt 0 view .LVU103
	strb	r2, [sp, #12]
	.loc 1 68 5 is_stmt 1 view .LVU104
	.loc 1 68 13 is_stmt 0 view .LVU105
	asrs	r3, r2, #8
	strb	r3, [sp, #13]
	.loc 1 70 5 is_stmt 1 view .LVU106
.LBB2:
	.loc 1 70 9 view .LVU107
.LVL78:
	.loc 1 70 5 is_stmt 0 view .LVU108
	b	.L28
.LVL79:
.L29:
	.loc 1 82 13 is_stmt 1 view .LVU109
	.loc 1 82 39 is_stmt 0 view .LVU110
	rsb	r2, r4, #3
	.loc 1 82 29 view .LVU111
	movs	r3, #1
	lsl	r2, r3, r2
	.loc 1 82 22 view .LVU112
	ldrb	r3, [sp, #30]	@ zero_extendqisi2
	bic	r3, r3, r2
	strb	r3, [sp, #30]
.L30:
	.loc 1 70 27 is_stmt 1 discriminator 2 view .LVU113
	.loc 1 70 28 is_stmt 0 discriminator 2 view .LVU114
	adds	r4, r4, #1
.LVL80:
.L28:
	.loc 1 70 20 is_stmt 1 discriminator 1 view .LVU115
	.loc 1 70 5 is_stmt 0 discriminator 1 view .LVU116
	cmp	r4, #3
	bgt	.L33
	.loc 1 71 9 is_stmt 1 view .LVU117
	.loc 1 71 19 is_stmt 0 view .LVU118
	uxtb	r5, r4
	str	r5, [sp]
	mov	r3, r7
	mov	r2, r8
	mov	r1, r6
	mov	r0, r10
	bl	distObjectX
.LVL81:
	mov	fp, r0
.LVL82:
	.loc 1 72 9 is_stmt 1 view .LVU119
	.loc 1 72 19 is_stmt 0 view .LVU120
	str	r5, [sp]
	mov	r3, r7
	mov	r2, r8
	mov	r1, r6
	mov	r0, r9
	bl	distObjectY
.LVL83:
	.loc 1 73 9 is_stmt 1 view .LVU121
	.loc 1 73 15 is_stmt 0 view .LVU122
	lsls	r5, r4, #2
	.loc 1 73 17 view .LVU123
	adds	r3, r5, #6
	.loc 1 73 21 view .LVU124
	add	r2, sp, #32
	add	r3, r3, r2
	strb	fp, [r3, #-24]
	.loc 1 74 9 is_stmt 1 view .LVU125
	.loc 1 74 17 is_stmt 0 view .LVU126
	adds	r3, r5, #7
	.loc 1 74 21 view .LVU127
	add	r3, r3, r2
	asr	fp, fp, #8
.LVL84:
	.loc 1 74 21 view .LVU128
	strb	fp, [r3, #-24]
	.loc 1 75 9 is_stmt 1 view .LVU129
	.loc 1 75 17 is_stmt 0 view .LVU130
	adds	r3, r4, #2
	.loc 1 75 21 view .LVU131
	add	r3, r2, r3, lsl #2
	strb	r0, [r3, #-24]
	.loc 1 76 9 is_stmt 1 view .LVU132
	.loc 1 76 17 is_stmt 0 view .LVU133
	adds	r5, r5, #9
	.loc 1 76 21 view .LVU134
	add	r5, r5, r2
	asrs	r0, r0, #8
.LVL85:
	.loc 1 76 21 view .LVU135
	strb	r0, [r5, #-24]
	.loc 1 78 9 is_stmt 1 view .LVU136
	.loc 1 78 22 is_stmt 0 view .LVU137
	ldrsh	r3, [r7, r4, lsl #1]
	.loc 1 78 11 view .LVU138
	cmp	r3, #800
	bge	.L29
	.loc 1 79 13 is_stmt 1 view .LVU139
	.loc 1 79 38 is_stmt 0 view .LVU140
	rsb	r2, r4, #3
	.loc 1 79 28 view .LVU141
	movs	r3, #1
	lsl	r2, r3, r2
	.loc 1 79 22 view .LVU142
	ldrb	r3, [sp, #30]	@ zero_extendqisi2
	orrs	r3, r3, r2
	strb	r3, [sp, #30]
	b	.L30
.L33:
	.loc 1 79 22 view .LVU143
.LBE2:
	.loc 1 85 2 is_stmt 1 view .LVU144
	movs	r2, #23
	add	r1, sp, #8
.LVL86:
	.loc 1 85 2 is_stmt 0 view .LVU145
	movs	r0, #114
	bl	i2cSendNOADDR
.LVL87:
	.loc 1 86 1 view .LVU146
	add	sp, sp, #36
.LCFI7:
	@ sp needed
	pop	{r4, r5, r6, r7, r8, r9, r10, fp, pc}
	.loc 1 86 1 view .LVU147
.LFE271:
	.size	sendNewPoseMessage, .-sendNewPoseMessage
	.section	.text.sendOldPoseMessage,"ax",%progbits
	.align	1
	.global	sendOldPoseMessage
	.syntax unified
	.thumb
	.thumb_func
	.fpu fpv4-sp-d16
	.type	sendOldPoseMessage, %function
sendOldPoseMessage:
.LVL88:
.LFB272:
	.loc 1 92 101 is_stmt 1 view -0
	@ args = 4, pretend = 0, frame = 8
	@ frame_needed = 0, uses_anonymous_args = 0
	.loc 1 92 101 is_stmt 0 view .LVU149
	push	{r4, r5, r6, r7, r8, r9, r10, fp, lr}
.LCFI8:
	sub	sp, sp, #20
.LCFI9:
	mov	r8, r0
	mov	r7, r1
	mov	r10, r2
	mov	r9, r3
	ldr	r6, [sp, #56]
	.loc 1 93 2 is_stmt 1 view .LVU150
.LVL89:
	.loc 1 94 5 view .LVU151
	.loc 1 95 5 view .LVU152
	.loc 1 96 5 view .LVU153
	.loc 1 98 5 view .LVU154
	.loc 1 98 13 is_stmt 0 view .LVU155
	strb	r0, [sp, #8]
	.loc 1 99 5 is_stmt 1 view .LVU156
	.loc 1 99 13 is_stmt 0 view .LVU157
	asrs	r3, r0, #8
.LVL90:
	.loc 1 99 13 view .LVU158
	strb	r3, [sp, #9]
	.loc 1 100 5 is_stmt 1 view .LVU159
	.loc 1 100 13 is_stmt 0 view .LVU160
	strb	r1, [sp, #10]
	.loc 1 101 5 is_stmt 1 view .LVU161
	.loc 1 101 13 is_stmt 0 view .LVU162
	asrs	r3, r1, #8
	strb	r3, [sp, #11]
	.loc 1 103 5 is_stmt 1 view .LVU163
.LBB3:
	.loc 1 103 9 view .LVU164
.LVL91:
	.loc 1 103 13 is_stmt 0 view .LVU165
	movs	r4, #0
	.loc 1 103 5 view .LVU166
	b	.L35
.LVL92:
.L40:
	.loc 1 105 13 is_stmt 1 view .LVU167
	.loc 1 105 23 is_stmt 0 view .LVU168
	uxtb	fp, r4
	str	fp, [sp]
	mov	r3, r6
	mov	r2, r9
	mov	r1, r10
	mov	r0, r8
	bl	distObjectX
.LVL93:
	mov	r5, r0
.LVL94:
	.loc 1 106 13 is_stmt 1 view .LVU169
	.loc 1 106 23 is_stmt 0 view .LVU170
	str	fp, [sp]
	mov	r3, r6
	mov	r2, r9
	mov	r1, r10
	mov	r0, r7
	bl	distObjectY
.LVL95:
	.loc 1 107 13 is_stmt 1 view .LVU171
	.loc 1 107 21 is_stmt 0 view .LVU172
	strb	r5, [sp, #12]
	.loc 1 108 13 is_stmt 1 view .LVU173
	.loc 1 108 21 is_stmt 0 view .LVU174
	asrs	r5, r5, #8
.LVL96:
	.loc 1 108 21 view .LVU175
	strb	r5, [sp, #13]
	.loc 1 109 13 is_stmt 1 view .LVU176
	.loc 1 109 21 is_stmt 0 view .LVU177
	strb	r0, [sp, #14]
	.loc 1 110 13 is_stmt 1 view .LVU178
	.loc 1 110 21 is_stmt 0 view .LVU179
	asrs	r5, r0, #8
	strb	r5, [sp, #15]
	.loc 1 111 13 is_stmt 1 view .LVU180
	movs	r2, #8
	add	r1, sp, r2
	movs	r0, #114
.LVL97:
	.loc 1 111 13 is_stmt 0 view .LVU181
	bl	i2cSendNOADDR
.LVL98:
.L36:
	.loc 1 103 27 is_stmt 1 discriminator 2 view .LVU182
	.loc 1 103 28 is_stmt 0 discriminator 2 view .LVU183
	adds	r4, r4, #1
.LVL99:
.L35:
	.loc 1 103 20 is_stmt 1 discriminator 1 view .LVU184
	.loc 1 103 5 is_stmt 0 discriminator 1 view .LVU185
	cmp	r4, #3
	bgt	.L39
	.loc 1 104 9 is_stmt 1 view .LVU186
	.loc 1 104 22 is_stmt 0 view .LVU187
	ldrsh	r3, [r6, r4, lsl #1]
	.loc 1 104 11 view .LVU188
	cmp	r3, #800
	bge	.L36
	b	.L40
.L39:
.LBE3:
	.loc 1 114 1 view .LVU189
	add	sp, sp, #20
.LCFI10:
	@ sp needed
	pop	{r4, r5, r6, r7, r8, r9, r10, fp, pc}
	.loc 1 114 1 view .LVU190
.LFE272:
	.size	sendOldPoseMessage, .-sendOldPoseMessage
	.section	.debug_frame,"",%progbits
.Lframe0:
	.4byte	.LECIE0-.LSCIE0
.LSCIE0:
	.4byte	0xffffffff
	.byte	0x3
	.ascii	"\000"
	.uleb128 0x1
	.sleb128 -4
	.uleb128 0xe
	.byte	0xc
	.uleb128 0xd
	.uleb128 0
	.align	2
.LECIE0:
.LSFDE0:
	.4byte	.LEFDE0-.LASFDE0
.LASFDE0:
	.4byte	.Lframe0
	.4byte	.LFB266
	.4byte	.LFE266-.LFB266
	.byte	0x4
	.4byte	.LCFI0-.LFB266
	.byte	0xe
	.uleb128 0x18
	.byte	0x83
	.uleb128 0x6
	.byte	0x84
	.uleb128 0x5
	.byte	0x85
	.uleb128 0x4
	.byte	0x86
	.uleb128 0x3
	.byte	0x87
	.uleb128 0x2
	.byte	0x8e
	.uleb128 0x1
	.align	2
.LEFDE0:
.LSFDE2:
	.4byte	.LEFDE2-.LASFDE2
.LASFDE2:
	.4byte	.Lframe0
	.4byte	.LFB267
	.4byte	.LFE267-.LFB267
	.byte	0x4
	.4byte	.LCFI1-.LFB267
	.byte	0xe
	.uleb128 0x28
	.byte	0x83
	.uleb128 0xa
	.byte	0x84
	.uleb128 0x9
	.byte	0x85
	.uleb128 0x8
	.byte	0x86
	.uleb128 0x7
	.byte	0x87
	.uleb128 0x6
	.byte	0x88
	.uleb128 0x5
	.byte	0x89
	.uleb128 0x4
	.byte	0x8a
	.uleb128 0x3
	.byte	0x8b
	.uleb128 0x2
	.byte	0x8e
	.uleb128 0x1
	.align	2
.LEFDE2:
.LSFDE4:
	.4byte	.LEFDE4-.LASFDE4
.LASFDE4:
	.4byte	.Lframe0
	.4byte	.LFB268
	.4byte	.LFE268-.LFB268
	.byte	0x4
	.4byte	.LCFI2-.LFB268
	.byte	0xe
	.uleb128 0x18
	.byte	0x84
	.uleb128 0x6
	.byte	0x85
	.uleb128 0x5
	.byte	0x86
	.uleb128 0x4
	.byte	0x87
	.uleb128 0x3
	.byte	0x88
	.uleb128 0x2
	.byte	0x8e
	.uleb128 0x1
	.align	2
.LEFDE4:
.LSFDE6:
	.4byte	.LEFDE6-.LASFDE6
.LASFDE6:
	.4byte	.Lframe0
	.4byte	.LFB269
	.4byte	.LFE269-.LFB269
	.byte	0x4
	.4byte	.LCFI3-.LFB269
	.byte	0xe
	.uleb128 0x28
	.byte	0x83
	.uleb128 0xa
	.byte	0x84
	.uleb128 0x9
	.byte	0x85
	.uleb128 0x8
	.byte	0x86
	.uleb128 0x7
	.byte	0x87
	.uleb128 0x6
	.byte	0x88
	.uleb128 0x5
	.byte	0x89
	.uleb128 0x4
	.byte	0x8a
	.uleb128 0x3
	.byte	0x8b
	.uleb128 0x2
	.byte	0x8e
	.uleb128 0x1
	.align	2
.LEFDE6:
.LSFDE8:
	.4byte	.LEFDE8-.LASFDE8
.LASFDE8:
	.4byte	.Lframe0
	.4byte	.LFB270
	.4byte	.LFE270-.LFB270
	.byte	0x4
	.4byte	.LCFI4-.LFB270
	.byte	0xe
	.uleb128 0x18
	.byte	0x84
	.uleb128 0x6
	.byte	0x85
	.uleb128 0x5
	.byte	0x86
	.uleb128 0x4
	.byte	0x87
	.uleb128 0x3
	.byte	0x88
	.uleb128 0x2
	.byte	0x8e
	.uleb128 0x1
	.align	2
.LEFDE8:
.LSFDE10:
	.4byte	.LEFDE10-.LASFDE10
.LASFDE10:
	.4byte	.Lframe0
	.4byte	.LFB271
	.4byte	.LFE271-.LFB271
	.byte	0x4
	.4byte	.LCFI5-.LFB271
	.byte	0xe
	.uleb128 0x24
	.byte	0x84
	.uleb128 0x9
	.byte	0x85
	.uleb128 0x8
	.byte	0x86
	.uleb128 0x7
	.byte	0x87
	.uleb128 0x6
	.byte	0x88
	.uleb128 0x5
	.byte	0x89
	.uleb128 0x4
	.byte	0x8a
	.uleb128 0x3
	.byte	0x8b
	.uleb128 0x2
	.byte	0x8e
	.uleb128 0x1
	.byte	0x4
	.4byte	.LCFI6-.LCFI5
	.byte	0xe
	.uleb128 0x48
	.byte	0x4
	.4byte	.LCFI7-.LCFI6
	.byte	0xe
	.uleb128 0x24
	.align	2
.LEFDE10:
.LSFDE12:
	.4byte	.LEFDE12-.LASFDE12
.LASFDE12:
	.4byte	.Lframe0
	.4byte	.LFB272
	.4byte	.LFE272-.LFB272
	.byte	0x4
	.4byte	.LCFI8-.LFB272
	.byte	0xe
	.uleb128 0x24
	.byte	0x84
	.uleb128 0x9
	.byte	0x85
	.uleb128 0x8
	.byte	0x86
	.uleb128 0x7
	.byte	0x87
	.uleb128 0x6
	.byte	0x88
	.uleb128 0x5
	.byte	0x89
	.uleb128 0x4
	.byte	0x8a
	.uleb128 0x3
	.byte	0x8b
	.uleb128 0x2
	.byte	0x8e
	.uleb128 0x1
	.byte	0x4
	.4byte	.LCFI9-.LCFI8
	.byte	0xe
	.uleb128 0x38
	.byte	0x4
	.4byte	.LCFI10-.LCFI9
	.byte	0xe
	.uleb128 0x24
	.align	2
.LEFDE12:
	.text
.Letext0:
	.file 2 "../../../../../../components/softdevice/s132/headers/nrf_nvic.h"
	.file 3 "C:/Program Files (x86)/SEGGER/SEGGER Embedded Studio for ARM 4.50/include/stdint.h"