	.cpu cortex-m4
	.eabi_attribute 27, 1
	.eabi_attribute 28, 1
	.eabi_attribute 20, 1
	.eabi_attribute 21, 1
	.eabi_attribute 23, 3
	.eabi_attribute 24, 1
	.eabi_attribute 25, 1
	.eabi_attribute 26, 1
	.eabi_attribute 30, 1
	.eabi_attribute 34, 1
	.eabi_attribute 18, 4
	.file	"gatts_cache_manager.c"
	.text
.Ltext0:
	.section	.text.sd_ble_gatts_service_changed,"ax",%progbits
	.align	1
	.syntax unified
	.thumb
	.thumb_func
	.fpu fpv4-sp-d16
	.type	sd_ble_gatts_service_changed, %function
sd_ble_gatts_service_changed:
.LVL0:
.LFB205:
	.file 1 "../../../../../../components/softdevice/s132/headers/ble_gatts.h"
	.loc 1 672 160 view -0
	@ Naked Function: prologue and epilogue provided by programmer.
	@ args = 0, pretend = 0, frame = 0
	@ frame_needed = 0, uses_anonymous_args = 0
	.loc 1 672 162 view .LVU1
	.syntax unified
@ 672 "../../../../../../components/softdevice/s132/headers/ble_gatts.h" 1
	svc #175
bx r14
@ 0 "" 2
.LVL1:
	.loc 1 672 2 is_stmt 0 view .LVU2
	.thumb
	.syntax unified
.LFE205:
	.size	sd_ble_gatts_service_changed, .-sd_ble_gatts_service_changed
	.section	.text.sd_ble_gatts_sys_attr_set,"ax",%progbits
	.align	1
	.syntax unified
	.thumb
	.thumb_func
	.fpu fpv4-sp-d16
	.type	sd_ble_gatts_sys_attr_set, %function
sd_ble_gatts_sys_attr_set:
.LVL2:
.LFB207:
	.loc 1 749 175 is_stmt 1 view -0
	@ Naked Function: prologue and epilogue provided by programmer.
	@ args = 0, pretend = 0, frame = 0
	@ frame_needed = 0, uses_anonymous_args = 0
	.loc 1 749 177 view .LVU4
	.syntax unified
@ 749 "../../../../../../components/softdevice/s132/headers/ble_gatts.h" 1
	svc #177
bx r14
@ 0 "" 2
.LVL3:
	.loc 1 749 2 is_stmt 0 view .LVU5
	.thumb
	.syntax unified
.LFE207:
	.size	sd_ble_gatts_sys_attr_set, .-sd_ble_gatts_sys_attr_set
	.section	.text.sd_ble_gatts_sys_attr_get,"ax",%progbits
	.align	1
	.syntax unified
	.thumb
	.thumb_func
	.fpu fpv4-sp-d16
	.type	sd_ble_gatts_sys_attr_get, %function
sd_ble_gatts_sys_attr_get:
.LVL4:
.LFB208:
	.loc 1 782 172 is_stmt 1 view -0
	@ Naked Function: prologue and epilogue provided by programmer.
	@ args = 0, pretend = 0, frame = 0
	@ frame_needed = 0, uses_anonymous_args = 0
	.loc 1 782 174 view .LVU7
	.syntax unified
@ 782 "../../../../../../components/softdevice/s132/headers/ble_gatts.h" 1
	svc #178
bx r14
@ 0 "" 2
.LVL5:
	.loc 1 782 2 is_stmt 0 view .LVU8
	.thumb
	.syntax unified
.LFE208:
	.size	sd_ble_gatts_sys_attr_get, .-sd_ble_gatts_sys_attr_get
	.section	.text.sd_ble_gatts_initial_user_handle_get,"ax",%progbits
	.align	1
	.syntax unified
	.thumb
	.thumb_func
	.fpu fpv4-sp-d16
	.type	sd_ble_gatts_initial_user_handle_get, %function
sd_ble_gatts_initial_user_handle_get:
.LVL6:
.LFB209:
	.loc 1 792 122 is_stmt 1 view -0
	@ Naked Function: prologue and epilogue provided by programmer.
	@ args = 0, pretend = 0, frame = 0
	@ frame_needed = 0, uses_anonymous_args = 0
	.loc 1 792 124 view .LVU10
	.syntax unified
@ 792 "../../../../../../components/softdevice/s132/headers/ble_gatts.h" 1
	svc #179
bx r14
@ 0 "" 2
.LVL7:
	.loc 1 792 2 is_stmt 0 view .LVU11
	.thumb
	.syntax unified
.LFE209:
	.size	sd_ble_gatts_initial_user_handle_get, .-sd_ble_gatts_initial_user_handle_get
	.section	.text.internal_state_reset,"ax",%progbits
	.align	1
	.syntax unified
	.thumb
	.thumb_func
	.fpu fpv4-sp-d16
	.type	internal_state_reset, %function
internal_state_reset:
.LFB279:
	.file 2 "C:\\nRF5_SDK_15.0.0_a53641a\\components\\ble\\peer_manager\\gatts_cache_manager.c"
	.loc 2 65 1 is_stmt 1 view -0
	@ args = 0, pretend = 0, frame = 0
	@ frame_needed = 0, uses_anonymous_args = 0
	@ link register save eliminated.
	.loc 2 66 5 view .LVU13
	.loc 2 67 5 view .LVU14
	.loc 2 67 32 is_stmt 0 view .LVU15
	ldr	r3, .L6
	movw	r2, #65535
	strh	r2, [r3]	@ movhi
	.loc 2 70 5 is_stmt 1 view .LVU16
	.loc 2 71 1 is_stmt 0 view .LVU17
	bx	lr
.L7:
	.align	2
.L6:
	.word	.LANCHOR0
.LFE279:
	.size	internal_state_reset, .-internal_state_reset
	.section	.text.service_changed_pending_set,"ax",%progbits
	.align	1
	.syntax unified
	.thumb
	.thumb_func
	.fpu fpv4-sp-d16
	.type	service_changed_pending_set, %function
service_changed_pending_set:
.LFB280:
	.loc 2 82 1 is_stmt 1 view -0
	@ args = 0, pretend = 0, frame = 8
	@ frame_needed = 0, uses_anonymous_args = 0
	push	{lr}
.LCFI0:
	sub	sp, sp, #12
.LCFI1:
	.loc 2 83 5 view .LVU19
	.loc 2 85 5 view .LVU20
	.loc 2 87 5 view .LVU21
	.loc 2 90 5 view .LVU22
	.loc 2 90 26 is_stmt 0 view .LVU23
	ldr	r2, .L13
	mov	r3, sp
	ldm	r2, {r0, r1}
	stm	r3, {r0, r1}
	.loc 2 98 5 is_stmt 1 view .LVU24
	.loc 2 98 16 is_stmt 0 view .LVU25
	movs	r2, #0
	mov	r1, r3
	ldr	r3, .L13+4
	ldrh	r0, [r3]
	bl	pdb_raw_store
.LVL8:
	mov	r3, r0
.LVL9:
	.loc 2 99 5 is_stmt 1 view .LVU26
.L9:
	.loc 2 99 11 view .LVU27
	.loc 2 99 40 is_stmt 0 view .LVU28
	ldr	r2, .L13+4
	ldrh	r0, [r2]
.LVL10:
	.loc 2 99 11 view .LVU29
	movw	r2, #65535
	cmp	r0, r2
	beq	.L8
	.loc 2 99 51 discriminator 1 view .LVU30
	cmp	r3, #17
	beq	.L8
	.loc 2 101 9 is_stmt 1 view .LVU31
	.loc 2 101 38 is_stmt 0 view .LVU32
	bl	pdb_next_peer_id_get
.LVL11:
	.loc 2 101 36 view .LVU33
	ldr	r3, .L13+4
	strh	r0, [r3]	@ movhi
	.loc 2 102 9 is_stmt 1 view .LVU34
	.loc 2 102 20 is_stmt 0 view .LVU35
	movs	r2, #0
	mov	r1, sp
	bl	pdb_raw_store
.LVL12:
	mov	r3, r0
.LVL13:
	.loc 2 102 20 view .LVU36
	b	.L9
.LVL14:
.L8:
	.loc 2 104 1 view .LVU37
	add	sp, sp, #12
.LCFI2:
	@ sp needed
	ldr	pc, [sp], #4
.L14:
	.align	2
.L13:
	.word	.LANCHOR1
	.word	.LANCHOR0
.LFE280:
	.size	service_changed_pending_set, .-service_changed_pending_set
	.section	.text.gscm_pdb_evt_handler,"ax",%progbits
	.align	1
	.global	gscm_pdb_evt_handler
	.syntax unified
	.thumb
	.thumb_func
	.fpu fpv4-sp-d16
	.type	gscm_pdb_evt_handler, %function
gscm_pdb_evt_handler:
.LVL15:
.LFB281:
	.loc 2 115 1 is_stmt 1 view -0
	@ args = 0, pretend = 0, frame = 0
	@ frame_needed = 0, uses_anonymous_args = 0
	.loc 2 115 1 is_stmt 0 view .LVU39
	push	{r3, lr}
.LCFI3:
	.loc 2 116 5 is_stmt 1 view .LVU40
	.loc 2 116 36 is_stmt 0 view .LVU41
	ldr	r3, .L19
	ldrh	r2, [r3]
	.loc 2 116 8 view .LVU42
	movw	r3, #65535
	cmp	r2, r3
	bne	.L18
.LVL16:
.L15:
	.loc 2 120 1 view .LVU43
	pop	{r3, pc}
.LVL17:
.L18:
	.loc 2 118 9 is_stmt 1 view .LVU44
	bl	service_changed_pending_set
.LVL18:
	.loc 2 120 1 is_stmt 0 view .LVU45
	b	.L15
.L20:
	.align	2
.L19:
	.word	.LANCHOR0
.LFE281:
	.size	gscm_pdb_evt_handler, .-gscm_pdb_evt_handler
	.section	.text.gscm_init,"ax",%progbits
	.align	1
	.global	gscm_init
	.syntax unified
	.thumb
	.thumb_func
	.fpu fpv4-sp-d16
	.type	gscm_init, %function
gscm_init:
.LFB282:
	.loc 2 125 1 is_stmt 1 view -0
	@ args = 0, pretend = 0, frame = 0
	@ frame_needed = 0, uses_anonymous_args = 0
	push	{r3, lr}
.LCFI4:
	.loc 2 126 5 view .LVU47
	.loc 2 128 5 view .LVU48
	bl	internal_state_reset
.LVL19:
	.loc 2 129 5 view .LVU49
	.loc 2 131 5 view .LVU50
	.loc 2 132 1 is_stmt 0 view .LVU51
	movs	r0, #0
	pop	{r3, pc}
.LFE282:
	.size	gscm_init, .-gscm_init
	.section	.text.gscm_local_db_cache_update,"ax",%progbits
	.align	1
	.global	gscm_local_db_cache_update
	.syntax unified
	.thumb
	.thumb_func
	.fpu fpv4-sp-d16
	.type	gscm_local_db_cache_update, %function
gscm_local_db_cache_update:
.LVL20:
.LFB283:
	.loc 2 136 1 is_stmt 1 view -0
	@ args = 0, pretend = 0, frame = 8
	@ frame_needed = 0, uses_anonymous_args = 0
	.loc 2 136 1 is_stmt 0 view .LVU53
	push	{r4, r5, r6, r7, r8, lr}
.LCFI5:
	sub	sp, sp, #8
.LCFI6:
	mov	r7, r0
	.loc 2 137 5 is_stmt 1 view .LVU54
	.loc 2 139 5 view .LVU55
	.loc 2 139 28 is_stmt 0 view .LVU56
	bl	im_peer_id_get_by_conn_handle
.LVL21:
	.loc 2 140 5 is_stmt 1 view .LVU57
	.loc 2 142 5 view .LVU58
	.loc 2 142 8 is_stmt 0 view .LVU59
	movw	r3, #65535
	cmp	r0, r3
	beq	.L33
	mov	r6, r0
.LBB2:
	.loc 2 149 18 view .LVU60
	movs	r4, #1
	b	.L32
.LVL22:
.L39:
.LBB3:
	.loc 2 167 21 is_stmt 1 view .LVU61
	.loc 2 167 32 is_stmt 0 view .LVU62
	mov	r2, r6
	movs	r1, #8
	mov	r0, r6
.LVL23:
	.loc 2 167 32 view .LVU63
	bl	pdb_write_buf_store
.LVL24:
	mov	r5, r0
.LVL25:
	.loc 2 167 32 view .LVU64
.LBE3:
	.loc 2 194 17 is_stmt 1 view .LVU65
.L23:
	.loc 2 194 17 is_stmt 0 view .LVU66
.LBE2:
	.loc 2 198 1 view .LVU67
	mov	r0, r5
	add	sp, sp, #8
.LCFI7:
	@ sp needed
	pop	{r4, r5, r6, r7, r8, pc}
.LVL26:
.L40:
.LCFI8:
.LBB8:
.LBB6:
.LBB4:
	.loc 2 176 26 is_stmt 1 view .LVU68
	.loc 2 176 29 is_stmt 0 view .LVU69
	cmp	r0, #5
	bne	.L38
	.loc 2 179 34 view .LVU70
	mov	r5, r8
.LBE4:
.LBE6:
	.loc 2 154 38 view .LVU71
	mov	r8, #0
	b	.L28
.L38:
	.loc 2 154 38 view .LVU72
	mov	r8, #0
	b	.L28
.L25:
	.loc 2 189 18 is_stmt 1 view .LVU73
	.loc 2 189 21 is_stmt 0 view .LVU74
	cmp	r0, #7
	beq	.L31
	.loc 2 156 24 view .LVU75
	mov	r5, r0
	b	.L23
.LVL27:
.L29:
	.loc 2 194 17 is_stmt 1 view .LVU76
	.loc 2 194 9 is_stmt 0 view .LVU77
	cmp	r8, #0
	beq	.L23
.LVL28:
.L32:
	.loc 2 152 9 is_stmt 1 view .LVU78
	.loc 2 154 13 view .LVU79
	.loc 2 156 13 view .LVU80
	mov	r2, r4
	.loc 2 156 85 is_stmt 0 view .LVU81
	adds	r4, r4, #1
.LVL29:
	.loc 2 156 85 view .LVU82
	uxth	r4, r4
.LVL30:
	.loc 2 156 24 view .LVU83
	mov	r3, sp
	movs	r1, #8
	mov	r0, r6
	bl	pdb_write_buf_get
.LVL31:
	.loc 2 157 13 is_stmt 1 view .LVU84
	.loc 2 157 16 is_stmt 0 view .LVU85
	mov	r8, r0
	cmp	r0, #0
	bne	.L25
.LBB7:
	.loc 2 159 17 is_stmt 1 view .LVU86
	.loc 2 159 48 is_stmt 0 view .LVU87
	ldr	r1, [sp, #4]
.LVL32:
	.loc 2 161 17 is_stmt 1 view .LVU88
	.loc 2 161 40 is_stmt 0 view .LVU89
	movs	r3, #3
	mov	r2, r1
	str	r3, [r2], #4
	.loc 2 163 17 is_stmt 1 view .LVU90
	.loc 2 163 28 is_stmt 0 view .LVU91
	adds	r1, r1, #6
.LVL33:
	.loc 2 163 28 view .LVU92
	mov	r0, r7
.LVL34:
	.loc 2 163 28 view .LVU93
	bl	sd_ble_gatts_sys_attr_get
.LVL35:
	.loc 2 165 17 is_stmt 1 view .LVU94
	.loc 2 165 20 is_stmt 0 view .LVU95
	mov	r5, r0
	cmp	r0, #0
	beq	.L39
.LBB5:
	.loc 2 171 21 is_stmt 1 view .LVU96
	.loc 2 171 24 is_stmt 0 view .LVU97
	cmp	r0, #12
	bne	.L40
	.loc 2 174 50 view .LVU98
	mov	r8, #1
.L28:
.LVL36:
	.loc 2 182 21 is_stmt 1 view .LVU99
	.loc 2 182 51 is_stmt 0 view .LVU100
	movs	r1, #8
	mov	r0, r6
	bl	pdb_write_buf_release
.LVL37:
	.loc 2 183 21 is_stmt 1 view .LVU101
	.loc 2 183 24 is_stmt 0 view .LVU102
	cmp	r0, #0
	beq	.L29
	.loc 2 185 34 view .LVU103
	movs	r5, #3
.LVL38:
	.loc 2 185 34 view .LVU104
	b	.L29
.LVL39:
.L31:
	.loc 2 185 34 view .LVU105
.LBE5:
.LBE7:
	.loc 2 192 26 view .LVU106
	movs	r5, #12
.LVL40:
	.loc 2 192 26 view .LVU107
.LBE8:
	.loc 2 197 5 is_stmt 1 view .LVU108
	.loc 2 197 12 is_stmt 0 view .LVU109
	b	.L23
.LVL41:
.L33:
	.loc 2 144 16 view .LVU110
	movw	r5, #12290
	b	.L23
.LFE283:
	.size	gscm_local_db_cache_update, .-gscm_local_db_cache_update
	.section	.text.gscm_local_db_cache_apply,"ax",%progbits
	.align	1
	.global	gscm_local_db_cache_apply
	.syntax unified
	.thumb
	.thumb_func
	.fpu fpv4-sp-d16
	.type	gscm_local_db_cache_apply, %function
gscm_local_db_cache_apply:
.LVL42:
.LFB284:
	.loc 2 202 1 is_stmt 1 view -0
	@ args = 0, pretend = 0, frame = 8
	@ frame_needed = 0, uses_anonymous_args = 0
	.loc 2 202 1 is_stmt 0 view .LVU112
	push	{r4, r5, r6, r7, r8, lr}
.LCFI9:
	sub	sp, sp, #8
.LCFI10:
	mov	r5, r0
	.loc 2 203 5 is_stmt 1 view .LVU113
	.loc 2 205 5 view .LVU114
	.loc 2 205 28 is_stmt 0 view .LVU115
	bl	im_peer_id_get_by_conn_handle
.LVL43:
	.loc 2 206 5 is_stmt 1 view .LVU116
	.loc 2 207 5 view .LVU117
	.loc 2 208 5 view .LVU118
	.loc 2 209 5 view .LVU119
	.loc 2 210 5 view .LVU120
	.loc 2 211 4 view .LVU121
	.loc 2 213 5 view .LVU122
	.loc 2 213 8 is_stmt 0 view .LVU123
	movw	r3, #65535
	cmp	r0, r3
	bne	.L55
	.loc 2 210 14 view .LVU124
	movs	r4, #3
	.loc 2 209 14 view .LVU125
	movs	r6, #0
	.loc 2 208 21 view .LVU126
	mov	r7, r6
.LVL44:
.L42:
	.loc 2 208 21 view .LVU127
	mov	r8, #1
	b	.L44
.LVL45:
.L55:
	.loc 2 215 9 is_stmt 1 view .LVU128
	.loc 2 215 20 is_stmt 0 view .LVU129
	mov	r2, sp
	movs	r1, #8
	bl	pdb_peer_data_ptr_get
.LVL46:
	.loc 2 216 9 is_stmt 1 view .LVU130
	.loc 2 216 12 is_stmt 0 view .LVU131
	cbnz	r0, .L47
.LBB9:
	.loc 2 218 13 is_stmt 1 view .LVU132
	.loc 2 220 13 view .LVU133
	.loc 2 220 29 is_stmt 0 view .LVU134
	ldr	r3, [sp, #4]
.LVL47:
	.loc 2 221 13 is_stmt 1 view .LVU135
	.loc 2 221 29 is_stmt 0 view .LVU136
	adds	r7, r3, #6
.LVL48:
	.loc 2 222 13 is_stmt 1 view .LVU137
	.loc 2 222 26 is_stmt 0 view .LVU138
	ldrh	r6, [r3, #4]
.LVL49:
	.loc 2 223 13 is_stmt 1 view .LVU139
	.loc 2 223 28 is_stmt 0 view .LVU140
	ldr	r4, [r3]
.LVL50:
	.loc 2 223 28 view .LVU141
	b	.L42
.LVL51:
.L47:
	.loc 2 223 28 view .LVU142
.LBE9:
	.loc 2 210 14 view .LVU143
	movs	r4, #3
	.loc 2 209 14 view .LVU144
	movs	r6, #0
	.loc 2 208 21 view .LVU145
	mov	r7, r6
	b	.L42
.LVL52:
.L57:
	.loc 2 248 38 discriminator 1 view .LVU146
	cbz	r6, .L52
	.loc 2 241 36 view .LVU147
	mov	r8, #0
	.loc 2 253 32 view .LVU148
	movs	r4, #3
.LVL53:
	.loc 2 252 30 view .LVU149
	mov	r6, r8
.LVL54:
	.loc 2 252 30 view .LVU150
	b	.L43
.LVL55:
.L48:
	.loc 2 233 22 view .LVU151
	movs	r0, #17
.LVL56:
.L43:
	.loc 2 260 13 is_stmt 1 view .LVU152
	.loc 2 260 5 is_stmt 0 view .LVU153
	cmp	r0, #11
	bne	.L56
.LVL57:
.L44:
	.loc 2 227 5 is_stmt 1 view .LVU154
	.loc 2 229 9 view .LVU155
	.loc 2 229 20 is_stmt 0 view .LVU156
	mov	r3, r4
	mov	r2, r6
	mov	r1, r7
	mov	r0, r5
	bl	sd_ble_gatts_sys_attr_set
.LVL58:
	.loc 2 231 9 is_stmt 1 view .LVU157
	.loc 2 231 12 is_stmt 0 view .LVU158
	cmp	r0, #4
	beq	.L48
	.loc 2 235 14 is_stmt 1 view .LVU159
	.loc 2 235 17 is_stmt 0 view .LVU160
	cmp	r0, #8
	beq	.L49
	.loc 2 239 14 is_stmt 1 view .LVU161
	.loc 2 239 17 is_stmt 0 view .LVU162
	cmp	r0, #11
	bne	.L43
	.loc 2 241 13 is_stmt 1 view .LVU163
.LVL59:
	.loc 2 243 13 view .LVU164
	.loc 2 243 16 is_stmt 0 view .LVU165
	tst	r4, #2
	bne	.L50
	.loc 2 248 18 is_stmt 1 view .LVU166
	.loc 2 248 21 is_stmt 0 view .LVU167
	cmp	r7, #0
	beq	.L57
	.loc 2 241 36 view .LVU168
	mov	r8, #0
	.loc 2 253 32 view .LVU169
	movs	r4, #3
.LVL60:
	.loc 2 252 30 view .LVU170
	mov	r6, r8
.LVL61:
	.loc 2 251 33 view .LVU171
	mov	r7, r8
.LVL62:
	.loc 2 251 33 view .LVU172
	b	.L43
.LVL63:
.L49:
	.loc 2 237 22 view .LVU173
	movs	r0, #0
.LVL64:
	.loc 2 237 22 view .LVU174
	b	.L43
.LVL65:
.L50:
	.loc 2 241 36 view .LVU175
	mov	r8, #0
	.loc 2 246 32 view .LVU176
	movs	r4, #1
.LVL66:
	.loc 2 246 32 view .LVU177
	b	.L43
.LVL67:
.L52:
	.loc 2 241 36 view .LVU178
	mov	r8, #0
	.loc 2 257 26 view .LVU179
	movs	r0, #3
.LVL68:
	.loc 2 257 26 view .LVU180
	b	.L43
.LVL69:
.L56:
	.loc 2 262 5 is_stmt 1 view .LVU181
	.loc 2 262 8 is_stmt 0 view .LVU182
	cmp	r8, #0
	beq	.L58
.LVL70:
.L41:
	.loc 2 268 1 view .LVU183
	add	sp, sp, #8
.LCFI11:
	@ sp needed
	pop	{r4, r5, r6, r7, r8, pc}
.LVL71:
.L58:
.LCFI12:
	.loc 2 264 18 view .LVU184
	movs	r0, #11
.LVL72:
	.loc 2 267 5 is_stmt 1 view .LVU185
	.loc 2 267 12 is_stmt 0 view .LVU186
	b	.L41
.LFE284:
	.size	gscm_local_db_cache_apply, .-gscm_local_db_cache_apply
	.section	.text.gscm_local_database_has_changed,"ax",%progbits
	.align	1
	.global	gscm_local_database_has_changed
	.syntax unified
	.thumb
	.thumb_func
	.fpu fpv4-sp-d16
	.type	gscm_local_database_has_changed, %function
gscm_local_database_has_changed:
.LFB285:
	.loc 2 272 1 is_stmt 1 view -0
	@ args = 0, pretend = 0, frame = 0
	@ frame_needed = 0, uses_anonymous_args = 0
	push	{r3, lr}
.LCFI13:
	.loc 2 273 5 view .LVU188
	.loc 2 274 5 view .LVU189
	.loc 2 274 34 is_stmt 0 view .LVU190
	movw	r0, #65535
	bl	pdb_next_peer_id_get
.LVL73:
	.loc 2 274 32 view .LVU191
	ldr	r3, .L61
	strh	r0, [r3]	@ movhi
	.loc 2 275 5 is_stmt 1 view .LVU192
	bl	service_changed_pending_set
.LVL74:
	.loc 2 276 1 is_stmt 0 view .LVU193
	pop	{r3, pc}
.L62:
	.align	2
.L61:
	.word	.LANCHOR0
.LFE285:
	.size	gscm_local_database_has_changed, .-gscm_local_database_has_changed
	.section	.text.gscm_service_changed_ind_needed,"ax",%progbits
	.align	1
	.global	gscm_service_changed_ind_needed
	.syntax unified
	.thumb
	.thumb_func
	.fpu fpv4-sp-d16
	.type	gscm_service_changed_ind_needed, %function
gscm_service_changed_ind_needed:
.LVL75:
.LFB286:
	.loc 2 280 1 is_stmt 1 view -0
	@ args = 0, pretend = 0, frame = 16
	@ frame_needed = 0, uses_anonymous_args = 0
	.loc 2 280 1 is_stmt 0 view .LVU195
	push	{lr}
.LCFI14:
	sub	sp, sp, #20
.LCFI15:
	.loc 2 281 5 is_stmt 1 view .LVU196
	.loc 2 282 4 view .LVU197
	.loc 2 283 5 view .LVU198
	.loc 2 285 5 view .LVU199
	.loc 2 285 41 is_stmt 0 view .LVU200
	add	r3, sp, #15
	str	r3, [sp, #8]
	.loc 2 286 5 is_stmt 1 view .LVU201
	.loc 2 286 28 is_stmt 0 view .LVU202
	bl	im_peer_id_get_by_conn_handle
.LVL76:
	.loc 2 288 5 is_stmt 1 view .LVU203
	.loc 2 288 16 is_stmt 0 view .LVU204
	add	r2, sp, #4
	movs	r1, #1
	bl	pdb_peer_data_ptr_get
.LVL77:
	.loc 2 290 5 is_stmt 1 view .LVU205
	.loc 2 290 8 is_stmt 0 view .LVU206
	cbnz	r0, .L65
	.loc 2 295 5 is_stmt 1 view .LVU207
	.loc 2 295 22 is_stmt 0 view .LVU208
	ldr	r3, [sp, #8]
	.loc 2 295 12 view .LVU209
	ldrb	r0, [r3]	@ zero_extendqisi2
.LVL78:
.L64:
	.loc 2 296 1 view .LVU210
	add	sp, sp, #20
.LCFI16:
	@ sp needed
	ldr	pc, [sp], #4
.LVL79:
.L65:
.LCFI17:
	.loc 2 292 15 view .LVU211
	movs	r0, #0
.LVL80:
	.loc 2 292 15 view .LVU212
	b	.L64
.LFE286:
	.size	gscm_service_changed_ind_needed, .-gscm_service_changed_ind_needed
	.section	.text.gscm_service_changed_ind_send,"ax",%progbits
	.align	1
	.global	gscm_service_changed_ind_send
	.syntax unified
	.thumb
	.thumb_func
	.fpu fpv4-sp-d16
	.type	gscm_service_changed_ind_send, %function
gscm_service_changed_ind_send:
.LVL81:
.LFB287:
	.loc 2 300 1 is_stmt 1 view -0
	@ args = 0, pretend = 0, frame = 0
	@ frame_needed = 0, uses_anonymous_args = 0
	.loc 2 300 1 is_stmt 0 view .LVU214
	push	{r4, lr}
.LCFI18:
	mov	r4, r0
	.loc 2 301 5 is_stmt 1 view .LVU215
	.loc 2 302 5 view .LVU216
.LVL82:
	.loc 2 303 5 view .LVU217
	.loc 2 305 5 view .LVU218
	.loc 2 305 16 is_stmt 0 view .LVU219
	ldr	r0, .L73
.LVL83:
	.loc 2 305 16 view .LVU220
	bl	sd_ble_gatts_initial_user_handle_get
.LVL84:
	.loc 2 307 5 is_stmt 1 view .LVU221
	.loc 2 307 8 is_stmt 0 view .LVU222
	cbz	r0, .L70
	.loc 2 309 16 view .LVU223
	movs	r0, #3
.LVL85:
.L67:
	.loc 2 322 1 view .LVU224
	pop	{r4, pc}
.LVL86:
.L69:
	.loc 2 319 13 is_stmt 1 view .LVU225
	.loc 2 319 5 is_stmt 0 view .LVU226
	movw	r3, #12291
	cmp	r0, r3
	bne	.L67
.L70:
	.loc 2 312 5 is_stmt 1 view .LVU227
	.loc 2 314 9 view .LVU228
	.loc 2 314 20 is_stmt 0 view .LVU229
	movw	r2, #65535
	ldr	r3, .L73
	ldrh	r1, [r3]
	mov	r0, r4
.LVL87:
	.loc 2 314 20 view .LVU230
	bl	sd_ble_gatts_service_changed
.LVL88:
	.loc 2 315 9 is_stmt 1 view .LVU231
	.loc 2 315 12 is_stmt 0 view .LVU232
	movw	r3, #12291
	cmp	r0, r3
	bne	.L69
	.loc 2 317 13 is_stmt 1 view .LVU233
	.loc 2 317 26 is_stmt 0 view .LVU234
	ldr	r2, .L73
	ldrh	r3, [r2]
	adds	r3, r3, #1
	strh	r3, [r2]	@ movhi
	b	.L69
.L74:
	.align	2
.L73:
	.word	.LANCHOR2
.LFE287:
	.size	gscm_service_changed_ind_send, .-gscm_service_changed_ind_send
	.section	.text.gscm_db_change_notification_done,"ax",%progbits
	.align	1
	.global	gscm_db_change_notification_done
	.syntax unified
	.thumb
	.thumb_func
	.fpu fpv4-sp-d16
	.type	gscm_db_change_notification_done, %function
gscm_db_change_notification_done:
.LVL89:
.LFB288:
	.loc 2 326 1 is_stmt 1 view -0
	@ args = 0, pretend = 0, frame = 8
	@ frame_needed = 0, uses_anonymous_args = 0
	.loc 2 326 1 is_stmt 0 view .LVU236
	push	{r4, lr}
.LCFI19:
	sub	sp, sp, #8
.LCFI20:
	mov	r4, r0
	.loc 2 327 5 is_stmt 1 view .LVU237
	.loc 2 330 5 view .LVU238
	.loc 2 333 5 view .LVU239
	.loc 2 333 26 is_stmt 0 view .LVU240
	mov	r3, sp
	ldr	r2, .L77
	ldm	r2, {r0, r1}
.LVL90:
	.loc 2 333 26 view .LVU241
	stm	r3, {r0, r1}
	.loc 2 343 5 is_stmt 1 view .LVU242
	.loc 2 343 12 is_stmt 0 view .LVU243
	movs	r2, #0
	mov	r1, r3
	mov	r0, r4
	bl	pdb_raw_store
.LVL91:
	.loc 2 345 1 view .LVU244
	add	sp, sp, #8
.LCFI21:
	@ sp needed
	pop	{r4, pc}
.L78:
	.align	2
.L77:
	.word	.LANCHOR1+8
.LFE288:
	.size	gscm_db_change_notification_done, .-gscm_db_change_notification_done
	.section .rodata
	.align	2
	.set	.LANCHOR1,. + 0
.LC2:
	.short	1
	.byte	1
	.space	1
	.word	service_changed_pending.9662
.LC3:
	.short	1
	.byte	1
	.space	1
	.word	service_changed_pending.9718
	.section	.bss.m_current_sc_store_peer_id,"aw",%nobits
	.align	1
	.set	.LANCHOR0,. + 0
	.type	m_current_sc_store_peer_id, %object
	.size	m_current_sc_store_peer_id, 2
m_current_sc_store_peer_id:
	.space	2
	.section	.bss.start_handle.9710,"aw",%nobits
	.align	1
	.set	.LANCHOR2,. + 0
	.type	start_handle.9710, %object
	.size	start_handle.9710, 2
start_handle.9710:
	.space	2
	.section	.rodata.service_changed_pending.9662,"a"
	.align	2
	.type	service_changed_pending.9662, %object
	.size	service_changed_pending.9662, 4
service_changed_pending.9662:
	.word	1
	.section	.rodata.service_changed_pending.9718,"a"
	.align	2
	.type	service_changed_pending.9718, %object
	.size	service_changed_pending.9718, 4
service_changed_pending.9718:
	.space	4
	.section	.debug_frame,"",%progbits
.Lframe0:
	.4byte	.LECIE0-.LSCIE0
.LSCIE0:
	.4byte	0xffffffff
	.byte	0x3
	.ascii	"\000"
	.uleb128 0x1
	.sleb128 -4
	.uleb128 0xe
	.byte	0xc
	.uleb128 0xd
	.uleb128 0
	.align	2
.LECIE0:
.LSFDE0:
	.4byte	.LEFDE0-.LASFDE0
.LASFDE0:
	.4byte	.Lframe0
	.4byte	.LFB205
	.4byte	.LFE205-.LFB205
	.align	2
.LEFDE0:
.LSFDE2:
	.4byte	.LEFDE2-.LASFDE2
.LASFDE2:
	.4byte	.Lframe0
	.4byte	.LFB207
	.4byte	.LFE207-.LFB207
	.align	2
.LEFDE2:
.LSFDE4:
	.4byte	.LEFDE4-.LASFDE4
.LASFDE4:
	.4byte	.Lframe0
	.4byte	.LFB208
	.4byte	.LFE208-.LFB208
	.align	2
.LEFDE4:
.LSFDE6:
	.4byte	.LEFDE6-.LASFDE6
.LASFDE6:
	.4byte	.Lframe0
	.4byte	.LFB209
	.4byte	.LFE209-.LFB209
	.align	2
.LEFDE6:
.LSFDE8:
	.4byte	.LEFDE8-.LASFDE8
.LASFDE8:
	.4byte	.Lframe0
	.4byte	.LFB279
	.4byte	.LFE279-.LFB279
	.align	2
.LEFDE8:
.LSFDE10:
	.4byte	.LEFDE10-.LASFDE10
.LASFDE10:
	.4byte	.Lframe0
	.4byte	.LFB280
	.4byte	.LFE280-.LFB280
	.byte	0x4
	.4byte	.LCFI0-.LFB280
	.byte	0xe
	.uleb128 0x4
	.byte	0x8e
	.uleb128 0x1
	.byte	0x4
	.4byte	.LCFI1-.LCFI0
	.byte	0xe
	.uleb128 0x10
	.byte	0x4
	.4byte	.LCFI2-.LCFI1
	.byte	0xe
	.uleb128 0x4
	.align	2
.LEFDE10:
.LSFDE12:
	.4byte	.LEFDE12-.LASFDE12
.LASFDE12:
	.4byte	.Lframe0
	.4byte	.LFB281
	.4byte	.LFE281-.LFB281
	.byte	0x4
	.4byte	.LCFI3-.LFB281
	.byte	0xe
	.uleb128 0x8
	.byte	0x83
	.uleb128 0x2
	.byte	0x8e
	.uleb128 0x1
	.align	2
.LEFDE12:
.LSFDE14:
	.4byte	.LEFDE14-.LASFDE14
.LASFDE14:
	.4byte	.Lframe0
	.4byte	.LFB282
	.4byte	.LFE282-.LFB282
	.byte	0x4
	.4byte	.LCFI4-.LFB282
	.byte	0xe
	.uleb128 0x8
	.byte	0x83
	.uleb128 0x2
	.byte	0x8e
	.uleb128 0x1
	.align	2
.LEFDE14:
.LSFDE16:
	.4byte	.LEFDE16-.LASFDE16
.LASFDE16:
	.4byte	.Lframe0
	.4byte	.LFB283
	.4byte	.LFE283-.LFB283
	.byte	0x4
	.4byte	.LCFI5-.LFB283
	.byte	0xe
	.uleb128 0x18
	.byte	0x84
	.uleb128 0x6
	.byte	0x85
	.uleb128 0x5
	.byte	0x86
	.uleb128 0x4
	.byte	0x87
	.uleb128 0x3
	.byte	0x88
	.uleb128 0x2
	.byte	0x8e
	.uleb128 0x1
	.byte	0x4
	.4byte	.LCFI6-.LCFI5
	.byte	0xe
	.uleb128 0x20
	.byte	0x4
	.4byte	.LCFI7-.LCFI6
	.byte	0xa
	.byte	0xe
	.uleb128 0x18
	.byte	0x4
	.4byte	.LCFI8-.LCFI7
	.byte	0xb
	.align	2
.LEFDE16:
.LSFDE18:
	.4byte	.LEFDE18-.LASFDE18
.LASFDE18:
	.4byte	.Lframe0
	.4byte	.LFB284
	.4byte	.LFE284-.LFB284
	.byte	0x4
	.4byte	.LCFI9-.LFB284
	.byte	0xe
	.uleb128 0x18
	.byte	0x84
	.uleb128 0x6
	.byte	0x85
	.uleb128 0x5
	.byte	0x86
	.uleb128 0x4
	.byte	0x87
	.uleb128 0x3
	.byte	0x88
	.uleb128 0x2
	.byte	0x8e
	.uleb128 0x1
	.byte	0x4
	.4byte	.LCFI10-.LCFI9
	.byte	0xe
	.uleb128 0x20
	.byte	0x4
	.4byte	.LCFI11-.LCFI10
	.byte	0xa
	.byte	0xe
	.uleb128 0x18
	.byte	0x4
	.4byte	.LCFI12-.LCFI11
	.byte	0xb
	.align	2
.LEFDE18:
.LSFDE20:
	.4byte	.LEFDE20-.LASFDE20
.LASFDE20:
	.4byte	.Lframe0
	.4byte	.LFB285
	.4byte	.LFE285-.LFB285
	.byte	0x4
	.4byte	.LCFI13-.LFB285
	.byte	0xe
	.uleb128 0x8
	.byte	0x83
	.uleb128 0x2
	.byte	0x8e
	.uleb128 0x1
	.align	2
.LEFDE20:
.LSFDE22:
	.4byte	.LEFDE22-.LASFDE22
.LASFDE22:
	.4byte	.Lframe0
	.4byte	.LFB286
	.4byte	.LFE286-.LFB286
	.byte	0x4
	.4byte	.LCFI14-.LFB286
	.byte	0xe
	.uleb128 0x4
	.byte	0x8e
	.uleb128 0x1
	.byte	0x4
	.4byte	.LCFI15-.LCFI14
	.byte	0xe
	.uleb128 0x18
	.byte	0x4
	.4byte	.LCFI16-.LCFI15
	.byte	0xa
	.byte	0xe
	.uleb128 0x4
	.byte	0x4
	.4byte	.LCFI17-.LCFI16
	.byte	0xb
	.align	2
.LEFDE22:
.LSFDE24:
	.4byte	.LEFDE24-.LASFDE24
.LASFDE24:
	.4byte	.Lframe0
	.4byte	.LFB287
	.4byte	.LFE287-.LFB287
	.byte	0x4
	.4byte	.LCFI18-.LFB287
	.byte	0xe
	.uleb128 0x8
	.byte	0x84
	.uleb128 0x2
	.byte	0x8e
	.uleb128 0x1
	.align	2
.LEFDE24:
.LSFDE26:
	.4byte	.LEFDE26-.LASFDE26
.LASFDE26:
	.4byte	.Lframe0
	.4byte	.LFB288
	.4byte	.LFE288-.LFB288
	.byte	0x4
	.4byte	.LCFI19-.LFB288
	.byte	0xe
	.uleb128 0x8
	.byte	0x84
	.uleb128 0x2
	.byte	0x8e
	.uleb128 0x1
	.byte	0x4
	.4byte	.LCFI20-.LCFI19
	.byte	0xe
	.uleb128 0x10
	.byte	0x4
	.4byte	.LCFI21-.LCFI20
	.byte	0xe
	.uleb128 0x8
	.align	2
.LEFDE26:
	.text
.Letext0:
	.file 3 "C:\\nRF5_SDK_15.0.0_a53641a\\components\\ble\\peer_manager\\peer_manager_internal.h"
	.file 4 "C:/Program Files (x86)/SEGGER/SEGGER Embedded Studio for ARM 4.50/include/stdint.h"
	.file 5 "C:\\nRF5_SDK_15.0.0_a53641a\\components\\ble\\peer_manager\\peer_manager_types.h"