	.cpu cortex-m4
	.eabi_attribute 27, 1
	.eabi_attribute 28, 1
	.eabi_attribute 20, 1
	.eabi_attribute 21, 1
	.eabi_attribute 23, 3
	.eabi_attribute 24, 1
	.eabi_attribute 25, 1
	.eabi_attribute 26, 1
	.eabi_attribute 30, 1
	.eabi_attribute 34, 1
	.eabi_attribute 18, 4
	.file	"i2c.c"
	.text
.Ltext0:
	.section	.rodata.i2cInit.str1.4,"aMS",%progbits,1
	.align	2
.LC0:
	.ascii	"I2c INIT FAILED!\012\000"
	.section	.text.i2cInit,"ax",%progbits
	.align	1
	.global	i2cInit
	.syntax unified
	.thumb
	.thumb_func
	.fpu fpv4-sp-d16
	.type	i2cInit, %function
i2cInit:
.LFB277:
	.file 1 "C:\\nRF5_SDK_15.0.0_a53641a\\examples\\ble_peripheral\\slam_application-master\\drivers\\i2c.c"
	.loc 1 25 15 view -0
	@ args = 0, pretend = 0, frame = 0
	@ frame_needed = 0, uses_anonymous_args = 0
	push	{r3, lr}
.LCFI0:
	.loc 1 26 7 view .LVU1
	.loc 1 26 22 is_stmt 0 view .LVU2
	movs	r0, #1
	bl	xQueueCreateMutex
.LVL0:
	.loc 1 26 20 view .LVU3
	ldr	r3, .L5
	str	r0, [r3]
	.loc 1 27 9 is_stmt 1 view .LVU4
	.loc 1 27 12 is_stmt 0 view .LVU5
	ldr	r1, .L5+4
	ldr	r0, .L5+8
	bl	nrf_twi_mngr_init
.LVL1:
	.loc 1 27 11 view .LVU6
	cbnz	r0, .L4
.L1:
	.loc 1 30 1 view .LVU7
	pop	{r3, pc}
.L4:
	.loc 1 28 13 is_stmt 1 discriminator 3 view .LVU8
	.loc 1 28 92 discriminator 3 view .LVU9
	.loc 1 28 150 discriminator 3 view .LVU10
	.loc 1 28 234 is_stmt 0 discriminator 3 view .LVU11
	ldr	r3, .L5+12
	ldrh	r0, [r3]
	.loc 1 28 245 discriminator 3 view .LVU12
	lsls	r0, r0, #16
	.loc 1 28 150 discriminator 3 view .LVU13
	ldr	r1, .L5+16
	orr	r0, r0, #2
	bl	nrf_log_frontend_std_0
.LVL2:
	.loc 1 28 279 is_stmt 1 discriminator 3 view .LVU14
	.loc 1 30 1 is_stmt 0 discriminator 3 view .LVU15
	b	.L1
.L6:
	.align	2
.L5:
	.word	.LANCHOR0
	.word	.LANCHOR1
	.word	.LANCHOR2
	.word	m_nrf_log_app_logs_data_dynamic
	.word	.LC0
.LFE277:
	.size	i2cInit, .-i2cInit
	.section	.rodata.i2cSend.str1.4,"aMS",%progbits,1
	.align	2
.LC1:
	.ascii	"I2C send failed!\012\000"
	.section	.text.i2cSend,"ax",%progbits
	.align	1
	.global	i2cSend
	.syntax unified
	.thumb
	.thumb_func
	.fpu fpv4-sp-d16
	.type	i2cSend, %function
i2cSend:
.LVL3:
.LFB278:
	.loc 1 32 68 is_stmt 1 view -0
	@ args = 0, pretend = 0, frame = 8
	@ frame_needed = 0, uses_anonymous_args = 0
	.loc 1 32 68 is_stmt 0 view .LVU17
	push	{r4, r5, lr}
.LCFI1:
	sub	sp, sp, #20
.LCFI2:
	.loc 1 33 6 is_stmt 1 view .LVU18
	.loc 1 34 7 view .LVU19
	.loc 1 34 16 is_stmt 0 view .LVU20
	ldr	r4, .L14
	strb	r1, [r4]
	.loc 1 35 7 is_stmt 1 view .LVU21
.LBB2:
	.loc 1 35 11 view .LVU22
.LVL4:
	.loc 1 35 15 is_stmt 0 view .LVU23
	movs	r1, #0
.LVL5:
.L8:
	.loc 1 35 20 is_stmt 1 discriminator 1 view .LVU24
	.loc 1 35 7 is_stmt 0 discriminator 1 view .LVU25
	cmp	r3, r1
	ble	.L12
	.loc 1 36 11 is_stmt 1 discriminator 3 view .LVU26
	.loc 1 36 27 is_stmt 0 discriminator 3 view .LVU27
	adds	r4, r2, r1
	.loc 1 36 19 discriminator 3 view .LVU28
	adds	r1, r1, #1
.LVL6:
	.loc 1 36 27 discriminator 3 view .LVU29
	ldrb	r5, [r4]	@ zero_extendqisi2
	.loc 1 36 22 discriminator 3 view .LVU30
	ldr	r4, .L14
	strb	r5, [r4, r1]
	.loc 1 35 26 is_stmt 1 discriminator 3 view .LVU31
.LVL7:
	.loc 1 35 26 is_stmt 0 discriminator 3 view .LVU32
	b	.L8
.L12:
	.loc 1 35 26 discriminator 3 view .LVU33
.LBE2:
	.loc 1 38 7 is_stmt 1 view .LVU34
	.loc 1 38 37 is_stmt 0 view .LVU35
	ldr	r2, .L14
.LVL8:
	.loc 1 38 37 view .LVU36
	str	r2, [sp, #8]
	.loc 1 39 54 view .LVU37
	adds	r3, r3, #1
.LVL9:
	.loc 1 38 37 view .LVU38
	strb	r3, [sp, #12]
	.loc 1 39 88 view .LVU39
	lsls	r0, r0, #1
.LVL10:
	.loc 1 38 37 view .LVU40
	strb	r0, [sp, #13]
	movs	r4, #1
	strb	r4, [sp, #14]
	.loc 1 41 7 is_stmt 1 view .LVU41
	movs	r1, #200
.LVL11:
	.loc 1 41 7 is_stmt 0 view .LVU42
	ldr	r3, .L14+4
	ldr	r0, [r3]
	bl	xQueueSemaphoreTake
.LVL12:
	.loc 1 42 7 is_stmt 1 view .LVU43
	.loc 1 42 10 is_stmt 0 view .LVU44
	movs	r3, #0
	str	r3, [sp]
	mov	r3, r4
	add	r2, sp, #8
	ldr	r1, .L14+8
	ldr	r0, .L14+12
	bl	nrf_twi_mngr_perform
.LVL13:
	.loc 1 42 9 view .LVU45
	cbnz	r0, .L13
.L10:
	.loc 1 43 277 is_stmt 1 discriminator 5 view .LVU46
	.loc 1 45 7 discriminator 5 view .LVU47
	movs	r3, #0
	mov	r2, r3
	mov	r1, r3
	ldr	r0, .L14+4
	ldr	r0, [r0]
	bl	xQueueGenericSend
.LVL14:
	.loc 1 46 1 is_stmt 0 discriminator 5 view .LVU48
	add	sp, sp, #20
.LCFI3:
	@ sp needed
	pop	{r4, r5, pc}
.L13:
.LCFI4:
	.loc 1 43 11 is_stmt 1 discriminator 3 view .LVU49
	.loc 1 43 90 discriminator 3 view .LVU50
	.loc 1 43 148 discriminator 3 view .LVU51
	.loc 1 43 232 is_stmt 0 discriminator 3 view .LVU52
	ldr	r3, .L14+16
	ldrh	r0, [r3]
	.loc 1 43 243 discriminator 3 view .LVU53
	lsls	r0, r0, #16
	.loc 1 43 148 discriminator 3 view .LVU54
	ldr	r1, .L14+20
	orr	r0, r0, #2
	bl	nrf_log_frontend_std_0
.LVL15:
	b	.L10
.L15:
	.align	2
.L14:
	.word	.LANCHOR3
	.word	.LANCHOR0
	.word	.LANCHOR1
	.word	.LANCHOR2
	.word	m_nrf_log_app_logs_data_dynamic
	.word	.LC1
.LFE278:
	.size	i2cSend, .-i2cSend
	.section	.rodata.i2cRecive.str1.4,"aMS",%progbits,1
	.align	2
.LC2:
	.ascii	"I2C recive failed!\012\000"
	.section	.text.i2cRecive,"ax",%progbits
	.align	1
	.global	i2cRecive
	.syntax unified
	.thumb
	.thumb_func
	.fpu fpv4-sp-d16
	.type	i2cRecive, %function
i2cRecive:
.LVL16:
.LFB279:
	.loc 1 48 73 is_stmt 1 view -0
	@ args = 0, pretend = 0, frame = 24
	@ frame_needed = 0, uses_anonymous_args = 0
	.loc 1 48 73 is_stmt 0 view .LVU56
	push	{r4, lr}
.LCFI5:
	sub	sp, sp, #32
.LCFI6:
	strb	r1, [sp, #15]
	.loc 1 49 7 is_stmt 1 view .LVU57
	.loc 1 49 37 is_stmt 0 view .LVU58
	add	r1, sp, #15
.LVL17:
	.loc 1 49 37 view .LVU59
	str	r1, [sp, #16]
	movs	r1, #1
.LVL18:
	.loc 1 49 37 view .LVU60
	strb	r1, [sp, #20]
	.loc 1 50 82 view .LVU61
	lsls	r0, r0, r1
.LVL19:
	.loc 1 49 37 view .LVU62
	strb	r0, [sp, #21]
	strb	r1, [sp, #22]
	str	r2, [sp, #24]
	strb	r3, [sp, #28]
	.loc 1 51 83 view .LVU63
	orrs	r0, r0, r1
	.loc 1 49 37 view .LVU64
	strb	r0, [sp, #29]
	movs	r4, #0
	strb	r4, [sp, #30]
	.loc 1 53 7 is_stmt 1 view .LVU65
	movs	r1, #200
	ldr	r3, .L20
.LVL20:
	.loc 1 53 7 is_stmt 0 view .LVU66
	ldr	r0, [r3]
	bl	xQueueSemaphoreTake
.LVL21:
	.loc 1 54 7 is_stmt 1 view .LVU67
	.loc 1 54 10 is_stmt 0 view .LVU68
	str	r4, [sp]
	movs	r3, #2
	add	r2, sp, #16
	ldr	r1, .L20+4
	ldr	r0, .L20+8
	bl	nrf_twi_mngr_perform
.LVL22:
	.loc 1 54 9 view .LVU69
	cbnz	r0, .L19
.L17:
	.loc 1 55 279 is_stmt 1 discriminator 5 view .LVU70
	.loc 1 57 7 discriminator 5 view .LVU71
	movs	r3, #0
	mov	r2, r3
	mov	r1, r3
	ldr	r0, .L20
	ldr	r0, [r0]
	bl	xQueueGenericSend
.LVL23:
	.loc 1 58 1 is_stmt 0 discriminator 5 view .LVU72
	add	sp, sp, #32
.LCFI7:
	@ sp needed
	pop	{r4, pc}
.L19:
.LCFI8:
	.loc 1 55 11 is_stmt 1 discriminator 3 view .LVU73
	.loc 1 55 90 discriminator 3 view .LVU74
	.loc 1 55 148 discriminator 3 view .LVU75
	.loc 1 55 232 is_stmt 0 discriminator 3 view .LVU76
	ldr	r3, .L20+12
	ldrh	r0, [r3]
	.loc 1 55 243 discriminator 3 view .LVU77
	lsls	r0, r0, #16
	.loc 1 55 148 discriminator 3 view .LVU78
	ldr	r1, .L20+16
	orr	r0, r0, #2
	bl	nrf_log_frontend_std_0
.LVL24:
	b	.L17
.L21:
	.align	2
.L20:
	.word	.LANCHOR0
	.word	.LANCHOR1
	.word	.LANCHOR2
	.word	m_nrf_log_app_logs_data_dynamic
	.word	.LC2
.LFE279:
	.size	i2cRecive, .-i2cRecive
	.section	.rodata.i2cSendNOADDR.str1.4,"aMS",%progbits,1
	.align	2
.LC3:
	.ascii	"I2CsendNOADDR failed!\012\000"
	.section	.text.i2cSendNOADDR,"ax",%progbits
	.align	1
	.global	i2cSendNOADDR
	.syntax unified
	.thumb
	.thumb_func
	.fpu fpv4-sp-d16
	.type	i2cSendNOADDR, %function
i2cSendNOADDR:
.LVL25:
.LFB280:
	.loc 1 60 63 is_stmt 1 view -0
	@ args = 0, pretend = 0, frame = 8
	@ frame_needed = 0, uses_anonymous_args = 0
	.loc 1 60 63 is_stmt 0 view .LVU80
	push	{r4, lr}
.LCFI9:
	sub	sp, sp, #16
.LCFI10:
	.loc 1 61 7 is_stmt 1 view .LVU81
	.loc 1 61 37 is_stmt 0 view .LVU82
	str	r1, [sp, #8]
	strb	r2, [sp, #12]
	.loc 1 62 83 view .LVU83
	lsls	r0, r0, #1
.LVL26:
	.loc 1 61 37 view .LVU84
	strb	r0, [sp, #13]
	movs	r4, #1
	strb	r4, [sp, #14]
	.loc 1 64 7 is_stmt 1 view .LVU85
	movs	r1, #200
.LVL27:
	.loc 1 64 7 is_stmt 0 view .LVU86
	ldr	r3, .L26
	ldr	r0, [r3]
	bl	xQueueSemaphoreTake
.LVL28:
	.loc 1 65 7 is_stmt 1 view .LVU87
	.loc 1 65 10 is_stmt 0 view .LVU88
	movs	r3, #0
	str	r3, [sp]
	mov	r3, r4
	add	r2, sp, #8
	ldr	r1, .L26+4
	ldr	r0, .L26+8
	bl	nrf_twi_mngr_perform
.LVL29:
	.loc 1 65 9 view .LVU89
	cbnz	r0, .L25
.L23:
	.loc 1 66 282 is_stmt 1 discriminator 5 view .LVU90
	.loc 1 68 7 discriminator 5 view .LVU91
	movs	r3, #0
	mov	r2, r3
	mov	r1, r3
	ldr	r0, .L26
	ldr	r0, [r0]
	bl	xQueueGenericSend
.LVL30:
	.loc 1 69 1 is_stmt 0 discriminator 5 view .LVU92
	add	sp, sp, #16
.LCFI11:
	@ sp needed
	pop	{r4, pc}
.L25:
.LCFI12:
	.loc 1 66 11 is_stmt 1 discriminator 3 view .LVU93
	.loc 1 66 90 discriminator 3 view .LVU94
	.loc 1 66 148 discriminator 3 view .LVU95
	.loc 1 66 232 is_stmt 0 discriminator 3 view .LVU96
	ldr	r3, .L26+12
	ldrh	r0, [r3]
	.loc 1 66 243 discriminator 3 view .LVU97
	lsls	r0, r0, #16
	.loc 1 66 148 discriminator 3 view .LVU98
	ldr	r1, .L26+16
	orr	r0, r0, #2
	bl	nrf_log_frontend_std_0
.LVL31:
	b	.L23
.L27:
	.align	2
.L26:
	.word	.LANCHOR0
	.word	.LANCHOR1
	.word	.LANCHOR2
	.word	m_nrf_log_app_logs_data_dynamic
	.word	.LC3
.LFE280:
	.size	i2cSendNOADDR, .-i2cSendNOADDR
	.section	.rodata.i2cReciveNOADDR.str1.4,"aMS",%progbits,1
	.align	2
.LC4:
	.ascii	"I2CreciveNOADDR failed!\012\000"
	.section	.text.i2cReciveNOADDR,"ax",%progbits
	.align	1
	.global	i2cReciveNOADDR
	.syntax unified
	.thumb
	.thumb_func
	.fpu fpv4-sp-d16
	.type	i2cReciveNOADDR, %function
i2cReciveNOADDR:
.LVL32:
.LFB281:
	.loc 1 71 65 is_stmt 1 view -0
	@ args = 0, pretend = 0, frame = 8
	@ frame_needed = 0, uses_anonymous_args = 0
	.loc 1 71 65 is_stmt 0 view .LVU100
	push	{r4, lr}
.LCFI13:
	sub	sp, sp, #16
.LCFI14:
	.loc 1 72 7 is_stmt 1 view .LVU101
	.loc 1 72 37 is_stmt 0 view .LVU102
	str	r1, [sp, #8]
	strb	r2, [sp, #12]
	.loc 1 73 77 view .LVU103
	lsls	r0, r0, #1
.LVL33:
	.loc 1 73 83 view .LVU104
	orr	r0, r0, #1
	.loc 1 72 37 view .LVU105
	strb	r0, [sp, #13]
	movs	r4, #0
	strb	r4, [sp, #14]
	.loc 1 75 7 is_stmt 1 view .LVU106
	movs	r1, #200
.LVL34:
	.loc 1 75 7 is_stmt 0 view .LVU107
	ldr	r3, .L32
	ldr	r0, [r3]
	bl	xQueueSemaphoreTake
.LVL35:
	.loc 1 76 7 is_stmt 1 view .LVU108
	.loc 1 76 10 is_stmt 0 view .LVU109
	str	r4, [sp]
	movs	r3, #1
	add	r2, sp, #8
	ldr	r1, .L32+4
	ldr	r0, .L32+8
	bl	nrf_twi_mngr_perform
.LVL36:
	.loc 1 76 9 view .LVU110
	cbnz	r0, .L31
.L29:
	.loc 1 77 284 is_stmt 1 discriminator 5 view .LVU111
	.loc 1 79 7 discriminator 5 view .LVU112
	movs	r3, #0
	mov	r2, r3
	mov	r1, r3
	ldr	r0, .L32
	ldr	r0, [r0]
	bl	xQueueGenericSend
.LVL37:
	.loc 1 80 1 is_stmt 0 discriminator 5 view .LVU113
	add	sp, sp, #16
.LCFI15:
	@ sp needed
	pop	{r4, pc}
.L31:
.LCFI16:
	.loc 1 77 11 is_stmt 1 discriminator 3 view .LVU114
	.loc 1 77 90 discriminator 3 view .LVU115
	.loc 1 77 148 discriminator 3 view .LVU116
	.loc 1 77 232 is_stmt 0 discriminator 3 view .LVU117
	ldr	r3, .L32+12
	ldrh	r0, [r3]
	.loc 1 77 243 discriminator 3 view .LVU118
	lsls	r0, r0, #16
	.loc 1 77 148 discriminator 3 view .LVU119
	ldr	r1, .L32+16
	orr	r0, r0, #2
	bl	nrf_log_frontend_std_0
.LVL38:
	b	.L29
.L33:
	.align	2
.L32:
	.word	.LANCHOR0
	.word	.LANCHOR1
	.word	.LANCHOR2
	.word	m_nrf_log_app_logs_data_dynamic
	.word	.LC4
.LFE281:
	.size	i2cReciveNOADDR, .-i2cReciveNOADDR
	.section	.text.getTWIManagerAddress,"ax",%progbits
	.align	1
	.global	getTWIManagerAddress
	.syntax unified
	.thumb
	.thumb_func
	.fpu fpv4-sp-d16
	.type	getTWIManagerAddress, %function
getTWIManagerAddress:
.LFB282:
	.loc 1 83 45 is_stmt 1 view -0
	@ args = 0, pretend = 0, frame = 0
	@ frame_needed = 0, uses_anonymous_args = 0
	@ link register save eliminated.
	.loc 1 84 9 view .LVU121
	.loc 1 85 1 is_stmt 0 view .LVU122
	ldr	r0, .L35
	bx	lr
.L36:
	.align	2
.L35:
	.word	.LANCHOR2
.LFE282:
	.size	getTWIManagerAddress, .-getTWIManagerAddress
	.section	.text.getBusConfig,"ax",%progbits
	.align	1
	.global	getBusConfig
	.syntax unified
	.thumb
	.thumb_func
	.fpu fpv4-sp-d16
	.type	getBusConfig, %function
getBusConfig:
.LFB283:
	.loc 1 87 43 is_stmt 1 view -0
	@ args = 0, pretend = 0, frame = 0
	@ frame_needed = 0, uses_anonymous_args = 0
	@ link register save eliminated.
	.loc 1 88 9 view .LVU124
	.loc 1 89 1 is_stmt 0 view .LVU125
	ldr	r0, .L38
	bx	lr
.L39:
	.align	2
.L38:
	.word	.LANCHOR1
.LFE283:
	.size	getBusConfig, .-getBusConfig
	.global	m_nrf_twi_mngr_queue
	.global	m_nrf_log_queue_m_nrf_twi_mngr_queue_logs_data_dynamic
	.global	m_nrf_log_queue_m_nrf_twi_mngr_queue_logs_data_const
	.section	.rodata.str1.4,"aMS",%progbits,1
	.align	2
.LC5:
	.ascii	"queue.m_nrf_twi_mngr_queue\000"
	.global	i2cSemaphore
	.section	.bss.buffer.9946,"aw",%nobits
	.align	2
	.set	.LANCHOR3,. + 0
	.type	buffer.9946, %object
	.size	buffer.9946, 6
buffer.9946:
	.space	6
	.section	.bss.i2cSemaphore,"aw",%nobits
	.align	2
	.set	.LANCHOR0,. + 0
	.type	i2cSemaphore, %object
	.size	i2cSemaphore, 4
i2cSemaphore:
	.space	4
	.section	.bss.m_nrf_twi_mngr_cb,"aw",%nobits
	.align	2
	.type	m_nrf_twi_mngr_cb, %object
	.size	m_nrf_twi_mngr_cb, 28
m_nrf_twi_mngr_cb:
	.space	28
	.section	.bss.m_nrf_twi_mngr_queue_nrf_queue_buffer,"aw",%nobits
	.align	2
	.type	m_nrf_twi_mngr_queue_nrf_queue_buffer, %object
	.size	m_nrf_twi_mngr_queue_nrf_queue_buffer, 24
m_nrf_twi_mngr_queue_nrf_queue_buffer:
	.space	24
	.section	.bss.m_nrf_twi_mngr_queue_nrf_queue_cb,"aw",%nobits
	.align	2
	.type	m_nrf_twi_mngr_queue_nrf_queue_cb, %object
	.size	m_nrf_twi_mngr_queue_nrf_queue_cb, 12
m_nrf_twi_mngr_queue_nrf_queue_cb:
	.space	12
	.section	.log_const_data_queue_m_nrf_twi_mngr_queue,"a"
	.align	2
	.type	m_nrf_log_queue_m_nrf_twi_mngr_queue_logs_data_const, %object
	.size	m_nrf_log_queue_m_nrf_twi_mngr_queue_logs_data_const, 8
m_nrf_log_queue_m_nrf_twi_mngr_queue_logs_data_const:
	.word	.LC5
	.byte	0
	.byte	0
	.byte	0
	.byte	3
	.section	.log_dynamic_data_queue_m_nrf_twi_mngr_queue,"aw"
	.align	2
	.type	m_nrf_log_queue_m_nrf_twi_mngr_queue_logs_data_dynamic, %object
	.size	m_nrf_log_queue_m_nrf_twi_mngr_queue_logs_data_dynamic, 4
m_nrf_log_queue_m_nrf_twi_mngr_queue_logs_data_dynamic:
	.space	4
	.section	.nrf_queue,"a"
	.align	2
	.type	m_nrf_twi_mngr_queue, %object
	.size	m_nrf_twi_mngr_queue, 24
m_nrf_twi_mngr_queue:
	.word	m_nrf_twi_mngr_queue_nrf_queue_cb
	.word	m_nrf_twi_mngr_queue_nrf_queue_buffer
	.word	5
	.word	4
	.byte	1
	.space	3
	.word	m_nrf_log_queue_m_nrf_twi_mngr_queue_logs_data_dynamic
	.section	.rodata.bus_config,"a"
	.align	2
	.set	.LANCHOR1,. + 0
	.type	bus_config, %object
	.size	bus_config, 16
bus_config:
	.word	6
	.word	7
	.word	107479040
	.byte	7
	.byte	0
	.space	2
	.section	.rodata.m_nrf_twi_mngr,"a"
	.align	2
	.set	.LANCHOR2,. + 0
	.type	m_nrf_twi_mngr, %object
	.size	m_nrf_twi_mngr, 24
m_nrf_twi_mngr:
	.word	m_nrf_twi_mngr_cb
	.word	m_nrf_twi_mngr_queue
	.byte	1
	.space	3
	.word	1073758208
	.byte	0
	.space	3
	.byte	0
	.space	3
	.section	.debug_frame,"",%progbits
.Lframe0:
	.4byte	.LECIE0-.LSCIE0
.LSCIE0:
	.4byte	0xffffffff
	.byte	0x3
	.ascii	"\000"
	.uleb128 0x1
	.sleb128 -4
	.uleb128 0xe
	.byte	0xc
	.uleb128 0xd
	.uleb128 0
	.align	2
.LECIE0:
.LSFDE0:
	.4byte	.LEFDE0-.LASFDE0
.LASFDE0:
	.4byte	.Lframe0
	.4byte	.LFB277
	.4byte	.LFE277-.LFB277
	.byte	0x4
	.4byte	.LCFI0-.LFB277
	.byte	0xe
	.uleb128 0x8
	.byte	0x83
	.uleb128 0x2
	.byte	0x8e
	.uleb128 0x1
	.align	2
.LEFDE0:
.LSFDE2:
	.4byte	.LEFDE2-.LASFDE2
.LASFDE2:
	.4byte	.Lframe0
	.4byte	.LFB278
	.4byte	.LFE278-.LFB278
	.byte	0x4
	.4byte	.LCFI1-.LFB278
	.byte	0xe
	.uleb128 0xc
	.byte	0x84
	.uleb128 0x3
	.byte	0x85
	.uleb128 0x2
	.byte	0x8e
	.uleb128 0x1
	.byte	0x4
	.4byte	.LCFI2-.LCFI1
	.byte	0xe
	.uleb128 0x20
	.byte	0x4
	.4byte	.LCFI3-.LCFI2
	.byte	0xa
	.byte	0xe
	.uleb128 0xc
	.byte	0x4
	.4byte	.LCFI4-.LCFI3
	.byte	0xb
	.align	2
.LEFDE2:
.LSFDE4:
	.4byte	.LEFDE4-.LASFDE4
.LASFDE4:
	.4byte	.Lframe0
	.4byte	.LFB279
	.4byte	.LFE279-.LFB279
	.byte	0x4
	.4byte	.LCFI5-.LFB279
	.byte	0xe
	.uleb128 0x8
	.byte	0x84
	.uleb128 0x2
	.byte	0x8e
	.uleb128 0x1
	.byte	0x4
	.4byte	.LCFI6-.LCFI5
	.byte	0xe
	.uleb128 0x28
	.byte	0x4
	.4byte	.LCFI7-.LCFI6
	.byte	0xa
	.byte	0xe
	.uleb128 0x8
	.byte	0x4
	.4byte	.LCFI8-.LCFI7
	.byte	0xb
	.align	2
.LEFDE4:
.LSFDE6:
	.4byte	.LEFDE6-.LASFDE6
.LASFDE6:
	.4byte	.Lframe0
	.4byte	.LFB280
	.4byte	.LFE280-.LFB280
	.byte	0x4
	.4byte	.LCFI9-.LFB280
	.byte	0xe
	.uleb128 0x8
	.byte	0x84
	.uleb128 0x2
	.byte	0x8e
	.uleb128 0x1
	.byte	0x4
	.4byte	.LCFI10-.LCFI9
	.byte	0xe
	.uleb128 0x18
	.byte	0x4
	.4byte	.LCFI11-.LCFI10
	.byte	0xa
	.byte	0xe
	.uleb128 0x8
	.byte	0x4
	.4byte	.LCFI12-.LCFI11
	.byte	0xb
	.align	2
.LEFDE6:
.LSFDE8:
	.4byte	.LEFDE8-.LASFDE8
.LASFDE8:
	.4byte	.Lframe0
	.4byte	.LFB281
	.4byte	.LFE281-.LFB281
	.byte	0x4
	.4byte	.LCFI13-.LFB281
	.byte	0xe
	.uleb128 0x8
	.byte	0x84
	.uleb128 0x2
	.byte	0x8e
	.uleb128 0x1
	.byte	0x4
	.4byte	.LCFI14-.LCFI13
	.byte	0xe
	.uleb128 0x18
	.byte	0x4
	.4byte	.LCFI15-.LCFI14
	.byte	0xa
	.byte	0xe
	.uleb128 0x8
	.byte	0x4
	.4byte	.LCFI16-.LCFI15
	.byte	0xb
	.align	2
.LEFDE8:
.LSFDE10:
	.4byte	.LEFDE10-.LASFDE10
.LASFDE10:
	.4byte	.Lframe0
	.4byte	.LFB282
	.4byte	.LFE282-.LFB282
	.align	2
.LEFDE10:
.LSFDE12:
	.4byte	.LEFDE12-.LASFDE12
.LASFDE12:
	.4byte	.Lframe0
	.4byte	.LFB283
	.4byte	.LFE283-.LFB283
	.align	2
.LEFDE12:
	.text
.Letext0:
	.file 2 "../../../../../../components/libraries/twi_mngr/nrf_twi_mngr.h"
	.file 3 "../../../../../../integration/nrfx/legacy/nrf_drv_twi.h"
	.file 4 "../../../../../../components/libraries/queue/nrf_queue.h"