	.cpu cortex-m4
	.eabi_attribute 27, 1
	.eabi_attribute 28, 1
	.eabi_attribute 20, 1
	.eabi_attribute 21, 1
	.eabi_attribute 23, 3
	.eabi_attribute 24, 1
	.eabi_attribute 25, 1
	.eabi_attribute 26, 1
	.eabi_attribute 30, 1
	.eabi_attribute 34, 1
	.eabi_attribute 18, 4
	.file	"main.c"
	.text
.Ltext0:
	.section	.rodata.user_task.str1.4,"aMS",%progbits,1
	.align	2
.LC0:
	.ascii	"X: %i Y: %i\000"
	.global	__aeabi_f2d
	.global	__aeabi_dmul
	.global	__aeabi_ddiv
	.global	__aeabi_d2iz
	.align	2
.LC1:
	.ascii	"HEADING: %i\000"
	.section	.text.user_task,"ax",%progbits
	.align	1
	.syntax unified
	.thumb
	.thumb_func
	.fpu fpv4-sp-d16
	.type	user_task, %function
user_task:
.LVL0:
.LFB411:
	.file 1 "C:\\nRF5_SDK_15.0.0_a53641a\\examples\\ble_peripheral\\slam_application-master\\main.c"
	.loc 1 144 34 view -0
	@ args = 0, pretend = 0, frame = 40
	@ frame_needed = 0, uses_anonymous_args = 0
	.loc 1 144 34 is_stmt 0 view .LVU1
	push	{lr}
.LCFI0:
	sub	sp, sp, #44
.LCFI1:
	.loc 1 159 5 is_stmt 1 view .LVU2
	bl	vPortEnterCritical
.LVL1:
	.loc 1 160 5 view .LVU3
	bl	motor_init
.LVL2:
	.loc 1 161 5 view .LVU4
	bl	servo_init
.LVL3:
	.loc 1 162 5 view .LVU5
	bl	encoder_init_int
.LVL4:
	.loc 1 163 5 view .LVU6
	bl	vPortExitCritical
.LVL5:
	.loc 1 164 5 view .LVU7
	bl	i2cInit
.LVL6:
	.loc 1 165 5 view .LVU8
	movs	r0, #30
	bl	vTaskDelay
.LVL7:
	.loc 1 166 5 view .LVU9
	bl	IMU_init
.LVL8:
	.loc 1 170 5 view .LVU10
	movs	r1, #1
	ldr	r3, .L4+8
	ldr	r0, [r3]
	bl	vTaskPrioritySet
.LVL9:
	.loc 1 171 5 view .LVU11
	movw	r0, #5000
	bl	vTaskDelay
.LVL10:
	.loc 1 174 5 view .LVU12
	.loc 1 175 5 view .LVU13
	.loc 1 180 2 view .LVU14
	.loc 1 181 2 view .LVU15
	.loc 1 182 1 view .LVU16
	.loc 1 183 1 view .LVU17
.L2:
	.loc 1 185 5 view .LVU18
	.loc 1 186 9 view .LVU19
	mov	r0, #1000
	bl	vTaskDelay
.LVL11:
	.loc 1 187 9 view .LVU20
	ldr	r3, .L4+12
	ldrsh	r3, [r3]
	ldr	r2, .L4+16
	ldrsh	r2, [r2]
	ldr	r1, .L4+20
	add	r0, sp, #20
	bl	sprintf
.LVL12:
	.loc 1 188 9 view .LVU21
	add	r1, sp, #20
	movs	r0, #1
	bl	display_text_on_line
.LVL13:
	.loc 1 189 9 view .LVU22
	.loc 1 189 55 is_stmt 0 view .LVU23
	ldr	r3, .L4+24
	ldr	r0, [r3]	@ float
	bl	__aeabi_f2d
.LVL14:
	movs	r2, #0
	ldr	r3, .L4+28
	bl	__aeabi_dmul
.LVL15:
	.loc 1 189 62 view .LVU24
	adr	r3, .L4
	ldrd	r2, [r3]
	bl	__aeabi_ddiv
.LVL16:
	.loc 1 189 9 view .LVU25
	bl	__aeabi_d2iz
.LVL17:
	mov	r2, r0
	ldr	r1, .L4+32
	mov	r0, sp
	bl	sprintf
.LVL18:
	.loc 1 190 9 is_stmt 1 view .LVU26
	mov	r1, sp
	movs	r0, #2
	bl	display_text_on_line
.LVL19:
	.loc 1 198 3 view .LVU27
	b	.L2
.L5:
	.align	3
.L4:
	.word	1413754136
	.word	1074340347
	.word	.LANCHOR0
	.word	.LANCHOR1
	.word	.LANCHOR2
	.word	.LC0
	.word	.LANCHOR3
	.word	1080459264
	.word	.LC1
.LFE411:
	.size	user_task, .-user_task
	.section	.rodata.log_init.str1.4,"aMS",%progbits,1
	.align	2
.LC2:
	.ascii	"C:\\nRF5_SDK_15.0.0_a53641a\\examples\\ble_peripher"
	.ascii	"al\\slam_application-master\\main.c\000"
	.section	.text.log_init,"ax",%progbits
	.align	1
	.syntax unified
	.thumb
	.thumb_func
	.fpu fpv4-sp-d16
	.type	log_init, %function
log_init:
.LFB412:
	.loc 1 238 28 view -0
	@ args = 0, pretend = 0, frame = 0
	@ frame_needed = 0, uses_anonymous_args = 0
	push	{r3, lr}
.LCFI2:
	.loc 1 239 5 view .LVU29
	.loc 1 239 27 is_stmt 0 view .LVU30
	mov	r1, #32768
	movs	r0, #0
	bl	nrf_log_init
.LVL20:
	.loc 1 240 5 is_stmt 1 view .LVU31
.LBB2:
	.loc 1 240 10 view .LVU32
	.loc 1 240 54 view .LVU33
	.loc 1 240 57 is_stmt 0 view .LVU34
	cbnz	r0, .L9
.LVL21:
.L6:
	.loc 1 240 57 view .LVU35
.LBE2:
	.loc 1 243 1 view .LVU36
	pop	{r3, pc}
.LVL22:
.L9:
.LBB3:
	.loc 1 240 91 is_stmt 1 discriminator 1 view .LVU37
	.loc 1 240 96 discriminator 1 view .LVU38
	ldr	r2, .L10
	movs	r1, #240
	bl	app_error_handler
.LVL23:
	.loc 1 240 247 discriminator 1 view .LVU39
.LBE3:
	.loc 1 240 262 discriminator 1 view .LVU40
	.loc 1 243 1 is_stmt 0 discriminator 1 view .LVU41
	b	.L6
.L11:
	.align	2
.L10:
	.word	.LC2
.LFE412:
	.size	log_init, .-log_init
	.section	.text.clock_init,"ax",%progbits
	.align	1
	.syntax unified
	.thumb
	.thumb_func
	.fpu fpv4-sp-d16
	.type	clock_init, %function
clock_init:
.LFB410:
	.loc 1 127 30 is_stmt 1 view -0
	@ args = 0, pretend = 0, frame = 0
	@ frame_needed = 0, uses_anonymous_args = 0
	push	{r3, lr}
.LCFI3:
	.loc 1 128 5 view .LVU43
	.loc 1 128 27 is_stmt 0 view .LVU44
	bl	nrf_drv_clock_init
.LVL24:
	.loc 1 129 5 is_stmt 1 view .LVU45
.LBB4:
	.loc 1 129 10 view .LVU46
	.loc 1 129 54 view .LVU47
	.loc 1 129 57 is_stmt 0 view .LVU48
	cbnz	r0, .L15
.LVL25:
.L12:
	.loc 1 129 57 view .LVU49
.LBE4:
	.loc 1 130 1 view .LVU50
	pop	{r3, pc}
.LVL26:
.L15:
.LBB5:
	.loc 1 129 91 is_stmt 1 discriminator 1 view .LVU51
	.loc 1 129 96 discriminator 1 view .LVU52
	ldr	r2, .L16
	movs	r1, #129
	bl	app_error_handler
.LVL27:
	.loc 1 129 247 discriminator 1 view .LVU53
.LBE5:
	.loc 1 129 262 discriminator 1 view .LVU54
	.loc 1 130 1 is_stmt 0 discriminator 1 view .LVU55
	b	.L12
.L17:
	.align	2
.L16:
	.word	.LC2
.LFE410:
	.size	clock_init, .-clock_init
	.section	.text.vApplicationIdleHook,"ax",%progbits
	.align	1
	.global	vApplicationIdleHook
	.syntax unified
	.thumb
	.thumb_func
	.fpu fpv4-sp-d16
	.type	vApplicationIdleHook, %function
vApplicationIdleHook:
.LFB409:
	.loc 1 119 33 is_stmt 1 view -0
	@ args = 0, pretend = 0, frame = 0
	@ frame_needed = 0, uses_anonymous_args = 0
	@ link register save eliminated.
	.loc 1 123 1 view .LVU57
	bx	lr
.LFE409:
	.size	vApplicationIdleHook, .-vApplicationIdleHook
	.section	.rodata.main.str1.4,"aMS",%progbits,1
	.align	2
.LC3:
	.ascii	"DISP\000"
	.align	2
.LC4:
	.ascii	"USER\000"
	.align	2
.LC5:
	.ascii	"SD\000"
	.align	2
.LC6:
	.ascii	"POSE\000"
	.align	2
.LC7:
	.ascii	"POSC\000"
	.align	2
.LC8:
	.ascii	"SnsT\000"
	.align	2
.LC9:
	.ascii	"COM\000"
	.align	2
.LC10:
	.ascii	"ARQ\000"
	.align	2
.LC11:
	.ascii	"vARQTask Creation Failed\000"
	.align	2
.LC12:
	.ascii	"\012Initialization done. SLAM application now start"
	.ascii	"ing.\012.\000"
	.section	.text.main,"ax",%progbits
	.align	1
	.global	main
	.syntax unified
	.thumb
	.thumb_func
	.fpu fpv4-sp-d16
	.type	main, %function
main:
.LFB413:
	.loc 1 245 16 view -0
	@ Volatile: function does not return.
	@ args = 0, pretend = 0, frame = 8
	@ frame_needed = 0, uses_anonymous_args = 0
	push	{lr}
.LCFI4:
	sub	sp, sp, #20
.LCFI5:
	.loc 1 247 4 view .LVU59
	.loc 1 248 5 view .LVU60
	bl	log_init
.LVL28:
	.loc 1 249 5 view .LVU61
	bl	clock_init
.LVL29:
	.loc 1 251 5 view .LVU62
	bl	ir_init
.LVL30:
	.loc 1 296 5 view .LVU63
	bl	BLE_init
.LVL31:
	.loc 1 297 5 view .LVU64
	bl	arq_init
.LVL32:
	.loc 1 300 2 view .LVU65
	.loc 1 300 18 is_stmt 0 view .LVU66
	movs	r2, #0
	movs	r1, #20
	movs	r0, #5
	bl	xQueueGenericCreate
.LVL33:
	.loc 1 300 16 view .LVU67
	ldr	r3, .L40
	str	r0, [r3]
	.loc 1 301 2 is_stmt 1 view .LVU68
	.loc 1 301 18 is_stmt 0 view .LVU69
	movs	r2, #0
	movs	r1, #8
	movs	r0, #5
	bl	xQueueGenericCreate
.LVL34:
	.loc 1 301 16 view .LVU70
	ldr	r3, .L40+4
	str	r0, [r3]
	.loc 1 302 2 is_stmt 1 view .LVU71
	.loc 1 302 20 is_stmt 0 view .LVU72
	movs	r2, #0
	movs	r1, #8
	movs	r0, #1
	bl	xQueueGenericCreate
.LVL35:
	.loc 1 302 18 view .LVU73
	ldr	r3, .L40+8
	str	r0, [r3]
	.loc 1 303 2 is_stmt 1 view .LVU74
	.loc 1 303 16 is_stmt 0 view .LVU75
	movs	r2, #0
	movs	r1, #1
	mov	r0, r1
	bl	xQueueGenericCreate
.LVL36:
	.loc 1 303 14 view .LVU76
	ldr	r3, .L40+12
	str	r0, [r3]
	.loc 1 306 2 is_stmt 1 view .LVU77
	.loc 1 306 14 is_stmt 0 view .LVU78
	movs	r0, #1
	bl	xQueueCreateMutex
.LVL37:
	.loc 1 306 12 view .LVU79
	ldr	r3, .L40+16
	str	r0, [r3]
	.loc 1 307 2 is_stmt 1 view .LVU80
	.loc 1 307 15 is_stmt 0 view .LVU81
	movs	r0, #1
	bl	xQueueCreateMutex
.LVL38:
	.loc 1 307 13 view .LVU82
	ldr	r3, .L40+20
	str	r0, [r3]
	.loc 1 308 2 is_stmt 1 view .LVU83
	.loc 1 308 15 is_stmt 0 view .LVU84
	movs	r0, #1
	bl	xQueueCreateMutex
.LVL39:
	.loc 1 308 13 view .LVU85
	ldr	r3, .L40+24
	str	r0, [r3]
	.loc 1 309 2 is_stmt 1 view .LVU86
	.loc 1 309 20 is_stmt 0 view .LVU87
	movs	r2, #3
	movs	r1, #0
	movs	r0, #1
	bl	xQueueGenericCreate
.LVL40:
	.loc 1 309 18 view .LVU88
	ldr	r3, .L40+28
	str	r0, [r3]
	.loc 1 310 2 is_stmt 1 view .LVU89
	.loc 1 310 22 is_stmt 0 view .LVU90
	movs	r2, #3
	movs	r1, #0
	movs	r0, #1
	bl	xQueueGenericCreate
.LVL41:
	.loc 1 310 20 view .LVU91
	ldr	r3, .L40+32
	str	r0, [r3]
	.loc 1 311 2 is_stmt 1 view .LVU92
	.loc 1 311 20 is_stmt 0 view .LVU93
	movs	r0, #1
	bl	xQueueCreateMutex
.LVL42:
	.loc 1 311 18 view .LVU94
	ldr	r3, .L40+36
	str	r0, [r3]
	.loc 1 318 5 is_stmt 1 view .LVU95
	.loc 1 318 37 is_stmt 0 view .LVU96
	ldr	r3, .L40+40
	str	r3, [sp, #4]
	movs	r3, #1
	str	r3, [sp]
	movs	r3, #0
	movs	r2, #128
	ldr	r1, .L40+44
	ldr	r0, .L40+48
	bl	xTaskCreate
.LVL43:
	.loc 1 318 8 view .LVU97
	cmp	r0, #1
	bne	.L31
.L20:
	.loc 1 319 162 is_stmt 1 discriminator 1 view .LVU98
	.loc 1 321 5 discriminator 1 view .LVU99
	.loc 1 321 37 is_stmt 0 discriminator 1 view .LVU100
	ldr	r3, .L40+52
	str	r3, [sp, #4]
	movs	r3, #4
	str	r3, [sp]
	movs	r3, #0
	movs	r2, #128
	ldr	r1, .L40+56
	ldr	r0, .L40+60
	bl	xTaskCreate
.LVL44:
	.loc 1 321 8 discriminator 1 view .LVU101
	cmp	r0, #1
	bne	.L32
.L21:
	.loc 1 322 162 is_stmt 1 discriminator 1 view .LVU102
	.loc 1 325 5 discriminator 1 view .LVU103
	.loc 1 325 37 is_stmt 0 discriminator 1 view .LVU104
	ldr	r3, .L40+64
	str	r3, [sp, #4]
	movs	r3, #1
	str	r3, [sp]
	movs	r3, #0
	mov	r2, #256
	ldr	r1, .L40+68
	ldr	r0, .L40+72
	bl	xTaskCreate
.LVL45:
	.loc 1 325 8 discriminator 1 view .LVU105
	cmp	r0, #1
	bne	.L33
.L22:
	.loc 1 326 162 is_stmt 1 discriminator 1 view .LVU106
	.loc 1 328 5 discriminator 1 view .LVU107
	.loc 1 328 37 is_stmt 0 discriminator 1 view .LVU108
	ldr	r3, .L40+76
	str	r3, [sp, #4]
	movs	r3, #3
	str	r3, [sp]
	movs	r3, #0
	mov	r2, #256
	ldr	r1, .L40+80
	ldr	r0, .L40+84
	bl	xTaskCreate
.LVL46:
	.loc 1 328 8 discriminator 1 view .LVU109
	cmp	r0, #1
	bne	.L34
.L23:
	.loc 1 329 162 is_stmt 1 discriminator 1 view .LVU110
	.loc 1 331 5 discriminator 1 view .LVU111
	.loc 1 331 37 is_stmt 0 discriminator 1 view .LVU112
	ldr	r3, .L40+88
	str	r3, [sp, #4]
	movs	r3, #1
	str	r3, [sp]
	movs	r3, #0
	mov	r2, #512
	ldr	r1, .L40+92
	ldr	r0, .L40+96
	bl	xTaskCreate
.LVL47:
	.loc 1 331 8 discriminator 1 view .LVU113
	cmp	r0, #1
	bne	.L35
.L24:
	.loc 1 332 162 is_stmt 1 discriminator 1 view .LVU114
	.loc 1 334 5 discriminator 1 view .LVU115
	.loc 1 334 37 is_stmt 0 discriminator 1 view .LVU116
	ldr	r3, .L40+100
	str	r3, [sp, #4]
	movs	r3, #1
	str	r3, [sp]
	movs	r3, #0
	mov	r2, #256
	ldr	r1, .L40+104
	ldr	r0, .L40+108
	bl	xTaskCreate
.LVL48:
	.loc 1 334 8 discriminator 1 view .LVU117
	cmp	r0, #1
	bne	.L36
.L25:
	.loc 1 335 156 is_stmt 1 discriminator 1 view .LVU118
	.loc 1 337 2 discriminator 1 view .LVU119
	.loc 1 337 34 is_stmt 0 discriminator 1 view .LVU120
	ldr	r3, .L40+112
	str	r3, [sp, #4]
	movs	r3, #1
	str	r3, [sp]
	movs	r3, #0
	mov	r2, #256
	ldr	r1, .L40+116
	ldr	r0, .L40+120
	bl	xTaskCreate
.LVL49:
	.loc 1 337 5 discriminator 1 view .LVU121
	cmp	r0, #1
	bne	.L37
.L26:
	.loc 1 338 166 is_stmt 1 discriminator 1 view .LVU122
	.loc 1 341 5 discriminator 1 view .LVU123
	.loc 1 341 9 is_stmt 0 discriminator 1 view .LVU124
	ldr	r3, .L40+124
	ldrb	r3, [r3]	@ zero_extendqisi2
	.loc 1 341 8 discriminator 1 view .LVU125
	cmp	r3, #0
	bne	.L38
.L27:
	.loc 1 351 5 is_stmt 1 discriminator 3 view .LVU126
	.loc 1 351 78 discriminator 3 view .LVU127
	.loc 1 351 133 discriminator 3 view .LVU128
	.loc 1 351 214 is_stmt 0 discriminator 3 view .LVU129
	ldr	r3, .L40+128
	ldrh	r0, [r3]
	.loc 1 351 225 discriminator 3 view .LVU130
	lsls	r0, r0, #16
	.loc 1 351 133 discriminator 3 view .LVU131
	ldr	r1, .L40+132
	orr	r0, r0, #3
	bl	nrf_log_frontend_std_0
.LVL50:
	.loc 1 351 297 is_stmt 1 discriminator 3 view .LVU132
	.loc 1 353 5 discriminator 3 view .LVU133
	bl	vTaskStartScheduler
.LVL51:
.L29:
	.loc 1 355 5 discriminator 1 view .LVU134
	.loc 1 361 9 discriminator 1 view .LVU135
	.loc 1 361 14 discriminator 1 view .LVU136
	ldr	r2, .L40+136
	movw	r1, #361
	movs	r0, #15
	bl	app_error_handler
.LVL52:
	.loc 1 361 163 discriminator 1 view .LVU137
	.loc 1 355 11 discriminator 1 view .LVU138
	b	.L29
.L31:
	.loc 1 319 9 view .LVU139
	.loc 1 319 14 view .LVU140
	ldr	r2, .L40+136
	movw	r1, #319
	movs	r0, #4
	bl	app_error_handler
.LVL53:
	b	.L20
.L32:
	.loc 1 322 9 view .LVU141
	.loc 1 322 14 view .LVU142
	ldr	r2, .L40+136
	mov	r1, #322
	movs	r0, #4
	bl	app_error_handler
.LVL54:
	b	.L21
.L33:
	.loc 1 326 9 view .LVU143
	.loc 1 326 14 view .LVU144
	ldr	r2, .L40+136
	mov	r1, #326
	movs	r0, #4
	bl	app_error_handler
.LVL55:
	b	.L22
.L34:
	.loc 1 329 9 view .LVU145
	.loc 1 329 14 view .LVU146
	ldr	r2, .L40+136
	movw	r1, #329
	movs	r0, #4
	bl	app_error_handler
.LVL56:
	b	.L23
.L35:
	.loc 1 332 9 view .LVU147
	.loc 1 332 14 view .LVU148
	ldr	r2, .L40+136
	mov	r1, #332
	movs	r0, #4
	bl	app_error_handler
.LVL57:
	b	.L24
.L36:
	.loc 1 335 3 view .LVU149
	.loc 1 335 8 view .LVU150
	ldr	r2, .L40+136
	movw	r1, #335
	movs	r0, #4
	bl	app_error_handler
.LVL58:
	b	.L25
.L37:
	.loc 1 338 13 view .LVU151
	.loc 1 338 18 view .LVU152
	ldr	r2, .L40+136
	mov	r1, #338
	movs	r0, #4
	bl	app_error_handler
.LVL59:
	b	.L26
.L38:
	.loc 1 342 9 view .LVU153
	.loc 1 342 40 is_stmt 0 view .LVU154
	ldr	r3, .L40+140
	str	r3, [sp, #4]
	movs	r3, #2
	str	r3, [sp]
	movs	r3, #0
	mov	r2, #256
	ldr	r1, .L40+144
	ldr	r0, .L40+148
	bl	xTaskCreate
.LVL60:
	.loc 1 342 11 view .LVU155
	cmp	r0, #1
	bne	.L39
.L28:
	.loc 1 344 166 is_stmt 1 discriminator 1 view .LVU156
	.loc 1 346 9 discriminator 1 view .LVU157
	ldr	r3, .L40+140
	ldr	r0, [r3]
	bl	vTaskSuspend
.LVL61:
	.loc 1 349 9 discriminator 1 view .LVU158
	add	r1, sp, #15
	ldr	r0, .L40+152
	bl	nrf_sdh_freertos_init
.LVL62:
	b	.L27
.L39:
	.loc 1 343 13 discriminator 2 view .LVU159
	.loc 1 343 86 discriminator 2 view .LVU160
	.loc 1 343 141 discriminator 2 view .LVU161
	.loc 1 343 222 is_stmt 0 discriminator 2 view .LVU162
	ldr	r3, .L40+128
	ldrh	r0, [r3]
	.loc 1 343 233 discriminator 2 view .LVU163
	lsls	r0, r0, #16
	.loc 1 343 141 discriminator 2 view .LVU164
	ldr	r1, .L40+156
	orr	r0, r0, #3
	bl	nrf_log_frontend_std_0
.LVL63:
	.loc 1 344 13 is_stmt 1 discriminator 2 view .LVU165
	.loc 1 344 18 discriminator 2 view .LVU166
	ldr	r2, .L40+136
	mov	r1, #344
	movs	r0, #4
	bl	app_error_handler
.LVL64:
	b	.L28
.L41:
	.align	2
.L40:
	.word	queue_display
	.word	.LANCHOR4
	.word	.LANCHOR5
	.word	.LANCHOR6
	.word	.LANCHOR7
	.word	.LANCHOR8
	.word	.LANCHOR9
	.word	.LANCHOR10
	.word	.LANCHOR11
	.word	.LANCHOR12
	.word	.LANCHOR13
	.word	.LC3
	.word	display_task
	.word	.LANCHOR0
	.word	.LC4
	.word	user_task
	.word	.LANCHOR14
	.word	.LC5
	.word	microsd_task
	.word	.LANCHOR15
	.word	.LC6
	.word	vMainPoseEstimatorTask
	.word	.LANCHOR16
	.word	.LC7
	.word	vMainPoseControllerTask
	.word	.LANCHOR17
	.word	.LC8
	.word	vMainSensorTowerTask
	.word	.LANCHOR18
	.word	.LC9
	.word	vMainCommunicationTask
	.word	.LANCHOR19
	.word	m_nrf_log_app_logs_data_dynamic
	.word	.LC12
	.word	.LC2
	.word	.LANCHOR20
	.word	.LC10
	.word	vARQTask
	.word	advertising_start
	.word	.LC11
.LFE413:
	.size	main, .-main
	.global	LeftMotorDirection
	.global	RightMotorDirection
	.global	shared_SPI_init
	.global	gLeftWheelTicks
	.global	gRightWheelTicks
	.global	gRight
	.global	gLeft
	.global	gY_hat
	.global	gX_hat
	.global	gTheta_hat
	.global	USEBLUETOOTH
	.global	gPaused
	.global	gHandshook
	.global	queue_microsd
	.global	scanStatusQ
	.global	poseControllerQ
	.global	xCollisionMutex
	.global	mutex_spi
	.global	xCommandReadyBSem
	.global	xControllerBSem
	.global	xTickMutex
	.global	xPoseMutex
	.global	xScanLock
	.global	arq_task
	.global	sensor_tower_task
	.global	communication_task
	.global	pose_controller_task
	.global	pose_estimator_task
	.global	handle_microsd_task
	.global	handle_user_task
	.global	handle_display_task
	.section	.bss.USEBLUETOOTH,"aw",%nobits
	.set	.LANCHOR19,. + 0
	.type	USEBLUETOOTH, %object
	.size	USEBLUETOOTH, 1
USEBLUETOOTH:
	.space	1
	.section	.bss.arq_task,"aw",%nobits
	.align	2
	.set	.LANCHOR20,. + 0
	.type	arq_task, %object
	.size	arq_task, 4
arq_task:
	.space	4
	.section	.bss.communication_task,"aw",%nobits
	.align	2
	.set	.LANCHOR18,. + 0
	.type	communication_task, %object
	.size	communication_task, 4
communication_task:
	.space	4
	.section	.bss.gHandshook,"aw",%nobits
	.type	gHandshook, %object
	.size	gHandshook, 1
gHandshook:
	.space	1
	.section	.bss.gLeft,"aw",%nobits
	.align	2
	.type	gLeft, %object
	.size	gLeft, 4
gLeft:
	.space	4
	.section	.bss.gLeftWheelTicks,"aw",%nobits
	.align	1
	.type	gLeftWheelTicks, %object
	.size	gLeftWheelTicks, 2
gLeftWheelTicks:
	.space	2
	.section	.bss.gPaused,"aw",%nobits
	.type	gPaused, %object
	.size	gPaused, 1
gPaused:
	.space	1
	.section	.bss.gRight,"aw",%nobits
	.align	2
	.type	gRight, %object
	.size	gRight, 4
gRight:
	.space	4
	.section	.bss.gRightWheelTicks,"aw",%nobits
	.align	1
	.type	gRightWheelTicks, %object
	.size	gRightWheelTicks, 2
gRightWheelTicks:
	.space	2
	.section	.bss.gTheta_hat,"aw",%nobits
	.align	2
	.set	.LANCHOR3,. + 0
	.type	gTheta_hat, %object
	.size	gTheta_hat, 4
gTheta_hat:
	.space	4
	.section	.bss.gX_hat,"aw",%nobits
	.align	1
	.set	.LANCHOR2,. + 0
	.type	gX_hat, %object
	.size	gX_hat, 2
gX_hat:
	.space	2
	.section	.bss.gY_hat,"aw",%nobits
	.align	1
	.set	.LANCHOR1,. + 0
	.type	gY_hat, %object
	.size	gY_hat, 2
gY_hat:
	.space	2
	.section	.bss.handle_display_task,"aw",%nobits
	.align	2
	.set	.LANCHOR13,. + 0
	.type	handle_display_task, %object
	.size	handle_display_task, 4
handle_display_task:
	.space	4
	.section	.bss.handle_microsd_task,"aw",%nobits
	.align	2
	.set	.LANCHOR14,. + 0
	.type	handle_microsd_task, %object
	.size	handle_microsd_task, 4
handle_microsd_task:
	.space	4
	.section	.bss.handle_user_task,"aw",%nobits
	.align	2
	.set	.LANCHOR0,. + 0
	.type	handle_user_task, %object
	.size	handle_user_task, 4
handle_user_task:
	.space	4
	.section	.bss.mutex_spi,"aw",%nobits
	.align	2
	.set	.LANCHOR7,. + 0
	.type	mutex_spi, %object
	.size	mutex_spi, 4
mutex_spi:
	.space	4
	.section	.bss.poseControllerQ,"aw",%nobits
	.align	2
	.set	.LANCHOR5,. + 0
	.type	poseControllerQ, %object
	.size	poseControllerQ, 4
poseControllerQ:
	.space	4
	.section	.bss.pose_controller_task,"aw",%nobits
	.align	2
	.set	.LANCHOR16,. + 0
	.type	pose_controller_task, %object
	.size	pose_controller_task, 4
pose_controller_task:
	.space	4
	.section	.bss.pose_estimator_task,"aw",%nobits
	.align	2
	.set	.LANCHOR15,. + 0
	.type	pose_estimator_task, %object
	.size	pose_estimator_task, 4
pose_estimator_task:
	.space	4
	.section	.bss.queue_microsd,"aw",%nobits
	.align	2
	.set	.LANCHOR4,. + 0
	.type	queue_microsd, %object
	.size	queue_microsd, 4
queue_microsd:
	.space	4
	.section	.bss.scanStatusQ,"aw",%nobits
	.align	2
	.set	.LANCHOR6,. + 0
	.type	scanStatusQ, %object
	.size	scanStatusQ, 4
scanStatusQ:
	.space	4
	.section	.bss.sensor_tower_task,"aw",%nobits
	.align	2
	.set	.LANCHOR17,. + 0
	.type	sensor_tower_task, %object
	.size	sensor_tower_task, 4
sensor_tower_task:
	.space	4
	.section	.bss.shared_SPI_init,"aw",%nobits
	.type	shared_SPI_init, %object
	.size	shared_SPI_init, 1
shared_SPI_init:
	.space	1
	.section	.bss.xCollisionMutex,"aw",%nobits
	.align	2
	.set	.LANCHOR12,. + 0
	.type	xCollisionMutex, %object
	.size	xCollisionMutex, 4
xCollisionMutex:
	.space	4
	.section	.bss.xCommandReadyBSem,"aw",%nobits
	.align	2
	.set	.LANCHOR11,. + 0
	.type	xCommandReadyBSem, %object
	.size	xCommandReadyBSem, 4
xCommandReadyBSem:
	.space	4
	.section	.bss.xControllerBSem,"aw",%nobits
	.align	2
	.set	.LANCHOR10,. + 0
	.type	xControllerBSem, %object
	.size	xControllerBSem, 4
xControllerBSem:
	.space	4
	.section	.bss.xPoseMutex,"aw",%nobits
	.align	2
	.set	.LANCHOR8,. + 0
	.type	xPoseMutex, %object
	.size	xPoseMutex, 4
xPoseMutex:
	.space	4
	.section	.bss.xScanLock,"aw",%nobits
	.align	2
	.type	xScanLock, %object
	.size	xScanLock, 4
xScanLock:
	.space	4
	.section	.bss.xTickMutex,"aw",%nobits
	.align	2
	.set	.LANCHOR9,. + 0
	.type	xTickMutex, %object
	.size	xTickMutex, 4
xTickMutex:
	.space	4
	.section	.data.LeftMotorDirection,"aw"
	.align	2
	.type	LeftMotorDirection, %object
	.size	LeftMotorDirection, 4
LeftMotorDirection:
	.word	1
	.section	.data.RightMotorDirection,"aw"
	.align	2
	.type	RightMotorDirection, %object
	.size	RightMotorDirection, 4
RightMotorDirection:
	.word	1
	.section	.debug_frame,"",%progbits
.Lframe0:
	.4byte	.LECIE0-.LSCIE0
.LSCIE0:
	.4byte	0xffffffff
	.byte	0x3
	.ascii	"\000"
	.uleb128 0x1
	.sleb128 -4
	.uleb128 0xe
	.byte	0xc
	.uleb128 0xd
	.uleb128 0
	.align	2
.LECIE0:
.LSFDE0:
	.4byte	.LEFDE0-.LASFDE0
.LASFDE0:
	.4byte	.Lframe0
	.4byte	.LFB411
	.4byte	.LFE411-.LFB411
	.byte	0x4
	.4byte	.LCFI0-.LFB411
	.byte	0xe
	.uleb128 0x4
	.byte	0x8e
	.uleb128 0x1
	.byte	0x4
	.4byte	.LCFI1-.LCFI0
	.byte	0xe
	.uleb128 0x30
	.align	2
.LEFDE0:
.LSFDE2:
	.4byte	.LEFDE2-.LASFDE2
.LASFDE2:
	.4byte	.Lframe0
	.4byte	.LFB412
	.4byte	.LFE412-.LFB412
	.byte	0x4
	.4byte	.LCFI2-.LFB412
	.byte	0xe
	.uleb128 0x8
	.byte	0x83
	.uleb128 0x2
	.byte	0x8e
	.uleb128 0x1
	.align	2
.LEFDE2:
.LSFDE4:
	.4byte	.LEFDE4-.LASFDE4
.LASFDE4:
	.4byte	.Lframe0
	.4byte	.LFB410
	.4byte	.LFE410-.LFB410
	.byte	0x4
	.4byte	.LCFI3-.LFB410
	.byte	0xe
	.uleb128 0x8
	.byte	0x83
	.uleb128 0x2
	.byte	0x8e
	.uleb128 0x1
	.align	2
.LEFDE4:
.LSFDE6:
	.4byte	.LEFDE6-.LASFDE6
.LASFDE6:
	.4byte	.Lframe0
	.4byte	.LFB409
	.4byte	.LFE409-.LFB409
	.align	2
.LEFDE6:
.LSFDE8:
	.4byte	.LEFDE8-.LASFDE8
.LASFDE8:
	.4byte	.Lframe0
	.4byte	.LFB413
	.4byte	.LFE413-.LFB413
	.byte	0x4
	.4byte	.LCFI4-.LFB413
	.byte	0xe
	.uleb128 0x4
	.byte	0x8e
	.uleb128 0x1
	.byte	0x4
	.4byte	.LCFI5-.LCFI4
	.byte	0xe
	.uleb128 0x18
	.align	2
.LEFDE8:
	.text
.Letext0:
	.file 2 "../../../software/globals.h"