	.cpu cortex-m4
	.eabi_attribute 27, 1
	.eabi_attribute 28, 1
	.eabi_attribute 20, 1
	.eabi_attribute 21, 1
	.eabi_attribute 23, 3
	.eabi_attribute 24, 1
	.eabi_attribute 25, 1
	.eabi_attribute 26, 1
	.eabi_attribute 30, 1
	.eabi_attribute 34, 1
	.eabi_attribute 18, 4
	.file	"nrf_log_str_formatter.c"
	.text
.Ltext0:
	.section	.rodata.prefix_process.str1.4,"aMS",%progbits,1
	.align	2
.LC0:
	.ascii	"\033[1;31m\000"
	.align	2
.LC1:
	.ascii	"%sLogs dropped (%d)%s\015\012\000"
	.align	2
.LC2:
	.ascii	"\033[0m\000"
	.align	2
.LC3:
	.ascii	"%s\000"
	.align	2
.LC4:
	.ascii	"<%s> %s: \000"
	.section	.text.prefix_process,"ax",%progbits
	.align	1
	.syntax unified
	.thumb
	.thumb_func
	.fpu fpv4-sp-d16
	.type	prefix_process, %function
prefix_process:
.LVL0:
.LFB210:
	.file 1 "C:\\nRF5_SDK_15.0.0_a53641a\\components\\libraries\\experimental_log\\src\\nrf_log_str_formatter.c"
	.loc 1 108 1 view -0
	@ args = 0, pretend = 0, frame = 0
	@ frame_needed = 0, uses_anonymous_args = 0
	.loc 1 108 1 is_stmt 0 view .LVU1
	push	{r4, r5, r6, lr}
.LCFI0:
	sub	sp, sp, #8
.LCFI1:
	mov	r4, r0
	mov	r5, r1
	.loc 1 109 5 is_stmt 1 view .LVU2
	.loc 1 109 17 is_stmt 0 view .LVU3
	ldrh	r3, [r0, #6]
	.loc 1 109 8 view .LVU4
	cbnz	r3, .L6
.LVL1:
.L2:
	.loc 1 118 5 is_stmt 1 view .LVU5
	.loc 1 118 19 is_stmt 0 view .LVU6
	ldrb	r1, [r4, #8]	@ zero_extendqisi2
	.loc 1 118 8 view .LVU7
	cmp	r1, #5
	beq	.L1
	.loc 1 120 9 is_stmt 1 view .LVU8
	.loc 1 120 21 is_stmt 0 view .LVU9
	ldrb	r3, [r4, #9]	@ zero_extendqisi2
	.loc 1 120 12 view .LVU10
	cbnz	r3, .L7
.L4:
	.loc 1 125 9 is_stmt 1 view .LVU11
	.loc 1 127 9 view .LVU12
	.loc 1 128 35 is_stmt 0 view .LVU13
	ldrb	r2, [r4, #8]	@ zero_extendqisi2
	.loc 1 127 9 view .LVU14
	ldr	r3, .L8
	ldr	r6, [r3, r2, lsl #2]
	movs	r1, #0
	ldrh	r0, [r4, #4]
	bl	nrf_log_module_name_get
.LVL2:
	mov	r3, r0
	mov	r2, r6
	ldr	r1, .L8+4
	mov	r0, r5
	bl	nrf_fprintf
.LVL3:
.L1:
	.loc 1 130 1 view .LVU15
	add	sp, sp, #8
.LCFI2:
	@ sp needed
	pop	{r4, r5, r6, pc}
.LVL4:
.L6:
.LCFI3:
	.loc 1 111 9 is_stmt 1 view .LVU16
	ldr	r2, .L8+8
	str	r2, [sp]
	ldr	r2, .L8+12
	ldr	r1, .L8+16
.LVL5:
	.loc 1 111 9 is_stmt 0 view .LVU17
	mov	r0, r5
.LVL6:
	.loc 1 111 9 view .LVU18
	bl	nrf_fprintf
.LVL7:
	b	.L2
.L7:
	.loc 1 122 13 is_stmt 1 view .LVU19
	.loc 1 123 36 is_stmt 0 view .LVU20
	ldrh	r0, [r4, #4]
	bl	nrf_log_color_id_get
.LVL8:
	.loc 1 122 13 view .LVU21
	ldr	r3, .L8+20
	ldr	r2, [r3, r0, lsl #2]
	ldr	r1, .L8+24
	mov	r0, r5
	bl	nrf_fprintf
.LVL9:
	b	.L4
.L9:
	.align	2
.L8:
	.word	.LANCHOR1
	.word	.LC4
	.word	.LC2
	.word	.LC0
	.word	.LC1
	.word	.LANCHOR0
	.word	.LC3
.LFE210:
	.size	prefix_process, .-prefix_process
	.section	.rodata.postfix_process.str1.4,"aMS",%progbits,1
	.align	2
.LC5:
	.ascii	"\015\012\000"
	.section	.text.postfix_process,"ax",%progbits
	.align	1
	.syntax unified
	.thumb
	.thumb_func
	.fpu fpv4-sp-d16
	.type	postfix_process, %function
postfix_process:
.LVL10:
.LFB211:
	.loc 1 135 1 is_stmt 1 view -0
	@ args = 0, pretend = 0, frame = 0
	@ frame_needed = 0, uses_anonymous_args = 0
	.loc 1 135 1 is_stmt 0 view .LVU23
	push	{r4, lr}
.LCFI4:
	mov	r4, r1
	.loc 1 136 5 is_stmt 1 view .LVU24
	.loc 1 136 19 is_stmt 0 view .LVU25
	ldrb	r3, [r0, #8]	@ zero_extendqisi2
	.loc 1 136 8 view .LVU26
	cmp	r3, #5
	beq	.L11
	.loc 1 138 9 is_stmt 1 view .LVU27
	.loc 1 138 21 is_stmt 0 view .LVU28
	ldrb	r3, [r0, #9]	@ zero_extendqisi2
	.loc 1 138 12 view .LVU29
	cbnz	r3, .L15
.LVL11:
.L12:
	.loc 1 142 9 is_stmt 1 view .LVU30
	ldr	r1, .L16
	mov	r0, r4
	bl	nrf_fprintf
.LVL12:
.L13:
	.loc 1 148 5 view .LVU31
	mov	r0, r4
	bl	nrf_fprintf_buffer_flush
.LVL13:
	.loc 1 149 1 is_stmt 0 view .LVU32
	pop	{r4, pc}
.LVL14:
.L15:
	.loc 1 140 13 is_stmt 1 view .LVU33
	ldr	r2, .L16+4
.LVL15:
	.loc 1 140 13 is_stmt 0 view .LVU34
	ldr	r1, .L16+8
.LVL16:
	.loc 1 140 13 view .LVU35
	mov	r0, r4
.LVL17:
	.loc 1 140 13 view .LVU36
	bl	nrf_fprintf
.LVL18:
	b	.L12
.LVL19:
.L11:
	.loc 1 144 10 is_stmt 1 view .LVU37
	.loc 1 144 13 is_stmt 0 view .LVU38
	cmp	r2, #0
	beq	.L13
	.loc 1 146 9 is_stmt 1 view .LVU39
	ldr	r1, .L16
.LVL20:
	.loc 1 146 9 is_stmt 0 view .LVU40
	mov	r0, r4
.LVL21:
	.loc 1 146 9 view .LVU41
	bl	nrf_fprintf
.LVL22:
	.loc 1 146 9 view .LVU42
	b	.L13
.L17:
	.align	2
.L16:
	.word	.LC5
	.word	.LC2
	.word	.LC3
.LFE211:
	.size	postfix_process, .-postfix_process
	.section	.text.nrf_log_std_entry_process,"ax",%progbits
	.align	1
	.global	nrf_log_std_entry_process
	.syntax unified
	.thumb
	.thumb_func
	.fpu fpv4-sp-d16
	.type	nrf_log_std_entry_process, %function
nrf_log_std_entry_process:
.LVL23:
.LFB212:
	.loc 1 156 1 is_stmt 1 view -0
	@ args = 4, pretend = 0, frame = 0
	@ frame_needed = 0, uses_anonymous_args = 0
	.loc 1 156 1 is_stmt 0 view .LVU44
	push	{r4, r5, r6, r7, r8, r9, lr}
.LCFI5:
	sub	sp, sp, #20
.LCFI6:
	mov	r8, r0
	mov	r5, r1
	mov	r7, r2
	mov	r6, r3
	ldr	r4, [sp, #48]
	.loc 1 157 4 is_stmt 1 view .LVU45
	.loc 1 157 9 is_stmt 0 view .LVU46
	ldrb	r9, [r4, #12]	@ zero_extendqisi2
.LVL24:
	.loc 1 158 5 is_stmt 1 view .LVU47
	.loc 1 158 23 is_stmt 0 view .LVU48
	movs	r3, #0
.LVL25:
	.loc 1 158 23 view .LVU49
	strb	r3, [r4, #12]
	.loc 1 160 5 is_stmt 1 view .LVU50
	mov	r1, r4
.LVL26:
	.loc 1 160 5 is_stmt 0 view .LVU51
	mov	r0, r6
.LVL27:
	.loc 1 160 5 view .LVU52
	bl	prefix_process
.LVL28:
	.loc 1 162 5 is_stmt 1 view .LVU53
	cmp	r7, #6
	bhi	.L19
	tbb	[pc, r7]
.L21:
	.byte	(.L27-.L21)/2
	.byte	(.L26-.L21)/2
	.byte	(.L25-.L21)/2
	.byte	(.L24-.L21)/2
	.byte	(.L23-.L21)/2
	.byte	(.L22-.L21)/2
	.byte	(.L20-.L21)/2
	.p2align 1
.L27:
	.loc 1 165 13 view .LVU54
	mov	r1, r8
	mov	r0, r4
	bl	nrf_fprintf
.LVL29:
	.loc 1 166 13 view .LVU55
.L19:
	.loc 1 190 5 view .LVU56
	movs	r2, #0
	mov	r1, r4
	mov	r0, r6
	bl	postfix_process
.LVL30:
	.loc 1 191 5 view .LVU57
	.loc 1 191 23 is_stmt 0 view .LVU58
	strb	r9, [r4, #12]
	.loc 1 192 1 view .LVU59
	add	sp, sp, #20
.LCFI7:
	@ sp needed
	pop	{r4, r5, r6, r7, r8, r9, pc}
.LVL31:
.L26:
.LCFI8:
	.loc 1 168 13 is_stmt 1 view .LVU60
	ldr	r2, [r5]
	mov	r1, r8
	mov	r0, r4
	bl	nrf_fprintf
.LVL32:
	.loc 1 169 13 view .LVU61
	b	.L19
.L25:
	.loc 1 171 13 view .LVU62
	ldr	r3, [r5, #4]
	ldr	r2, [r5]
	mov	r1, r8
	mov	r0, r4
	bl	nrf_fprintf
.LVL33:
	.loc 1 172 13 view .LVU63
	b	.L19
.L24:
	.loc 1 174 13 view .LVU64
	ldr	r3, [r5, #8]
	str	r3, [sp]
	ldr	r3, [r5, #4]
	ldr	r2, [r5]
	mov	r1, r8
	mov	r0, r4
	bl	nrf_fprintf
.LVL34:
	.loc 1 175 13 view .LVU65
	b	.L19
.L23:
	.loc 1 177 13 view .LVU66
	ldr	r3, [r5, #12]
	str	r3, [sp, #4]
	ldr	r3, [r5, #8]
	str	r3, [sp]
	ldr	r3, [r5, #4]
	ldr	r2, [r5]
	mov	r1, r8
	mov	r0, r4
	bl	nrf_fprintf
.LVL35:
	.loc 1 178 13 view .LVU67
	b	.L19
.L22:
	.loc 1 180 13 view .LVU68
	ldr	r3, [r5, #16]
	str	r3, [sp, #8]
	ldr	r3, [r5, #12]
	str	r3, [sp, #4]
	ldr	r3, [r5, #8]
	str	r3, [sp]
	ldr	r3, [r5, #4]
	ldr	r2, [r5]
	mov	r1, r8
	mov	r0, r4
	bl	nrf_fprintf
.LVL36:
	.loc 1 181 13 view .LVU69
	b	.L19
.L20:
	.loc 1 183 13 view .LVU70
	ldr	r3, [r5, #20]
	str	r3, [sp, #12]
	ldr	r3, [r5, #16]
	str	r3, [sp, #8]
	ldr	r3, [r5, #12]
	str	r3, [sp, #4]
	ldr	r3, [r5, #8]
	str	r3, [sp]
	ldr	r3, [r5, #4]
	ldr	r2, [r5]
	mov	r1, r8
	mov	r0, r4
	bl	nrf_fprintf
.LVL37:
	.loc 1 184 13 view .LVU71
	b	.L19
.LFE212:
	.size	nrf_log_std_entry_process, .-nrf_log_std_entry_process
	.section	.rodata.nrf_log_hexdump_entry_process.str1.4,"aMS",%progbits,1
	.align	2
.LC6:
	.ascii	" %02x\000"
	.align	2
.LC7:
	.ascii	"   \000"
	.align	2
.LC8:
	.ascii	"|\000"
	.align	2
.LC9:
	.ascii	"%c\000"
	.align	2
.LC10:
	.ascii	" \000"
	.section	.text.nrf_log_hexdump_entry_process,"ax",%progbits
	.align	1
	.global	nrf_log_hexdump_entry_process
	.syntax unified
	.thumb
	.thumb_func
	.fpu fpv4-sp-d16
	.type	nrf_log_hexdump_entry_process, %function
nrf_log_hexdump_entry_process:
.LVL38:
.LFB213:
	.loc 1 200 1 view -0
	@ args = 0, pretend = 0, frame = 0
	@ frame_needed = 0, uses_anonymous_args = 0
	.loc 1 201 5 view .LVU73
	.loc 1 201 8 is_stmt 0 view .LVU74
	cmp	r1, #8
	bls	.L44
	bx	lr
.L44:
	.loc 1 200 1 view .LVU75
	push	{r4, r5, r6, r7, r8, r9, r10, lr}
.LCFI9:
	mov	r7, r0
	mov	r6, r1
	mov	r8, r2
	mov	r5, r3
	.loc 1 205 4 is_stmt 1 view .LVU76
	.loc 1 205 9 is_stmt 0 view .LVU77
	ldrb	r9, [r3, #12]	@ zero_extendqisi2
.LVL39:
	.loc 1 206 5 is_stmt 1 view .LVU78
	.loc 1 206 23 is_stmt 0 view .LVU79
	movs	r4, #0
	strb	r4, [r3, #12]
	.loc 1 208 5 is_stmt 1 view .LVU80
	mov	r1, r3
.LVL40:
	.loc 1 208 5 is_stmt 0 view .LVU81
	mov	r0, r2
.LVL41:
	.loc 1 208 5 view .LVU82
	bl	prefix_process
.LVL42:
	.loc 1 210 5 is_stmt 1 view .LVU83
	.loc 1 212 5 view .LVU84
	.loc 1 212 5 is_stmt 0 view .LVU85
	b	.L31
.LVL43:
.L32:
	.loc 1 220 13 is_stmt 1 view .LVU86
	ldr	r1, .L47
	mov	r0, r5
	bl	nrf_fprintf
.LVL44:
.L33:
	.loc 1 212 24 discriminator 2 view .LVU87
	.loc 1 212 25 is_stmt 0 discriminator 2 view .LVU88
	adds	r4, r4, #1
.LVL45:
.L31:
	.loc 1 212 17 is_stmt 1 discriminator 1 view .LVU89
	.loc 1 212 5 is_stmt 0 discriminator 1 view .LVU90
	cmp	r4, #7
	bhi	.L45
	.loc 1 214 9 is_stmt 1 view .LVU91
	.loc 1 214 12 is_stmt 0 view .LVU92
	cmp	r4, r6
	bcs	.L32
	.loc 1 216 13 is_stmt 1 view .LVU93
	ldrb	r2, [r7, r4]	@ zero_extendqisi2
	ldr	r1, .L47+4
	mov	r0, r5
	bl	nrf_fprintf
.LVL46:
	b	.L33
.L45:
	.loc 1 223 5 view .LVU94
	ldr	r1, .L47+8
	mov	r0, r5
	bl	nrf_fprintf
.LVL47:
	.loc 1 225 5 view .LVU95
	.loc 1 225 12 is_stmt 0 view .LVU96
	movs	r4, #0
	.loc 1 225 5 view .LVU97
	b	.L35
.LVL48:
.L37:
.LBB2:
	.loc 1 230 13 discriminator 4 view .LVU98
	mov	r2, r10
	ldr	r1, .L47+12
	mov	r0, r5
	bl	nrf_fprintf
.LVL49:
.L38:
	.loc 1 230 13 discriminator 4 view .LVU99
.LBE2:
	.loc 1 225 24 is_stmt 1 discriminator 2 view .LVU100
	.loc 1 225 25 is_stmt 0 discriminator 2 view .LVU101
	adds	r4, r4, #1
.LVL50:
.L35:
	.loc 1 225 17 is_stmt 1 discriminator 1 view .LVU102
	.loc 1 225 5 is_stmt 0 discriminator 1 view .LVU103
	cmp	r4, #7
	bhi	.L46
	.loc 1 227 9 is_stmt 1 view .LVU104
	.loc 1 227 12 is_stmt 0 view .LVU105
	cmp	r4, r6
	bcs	.L36
.LBB3:
	.loc 1 229 13 is_stmt 1 view .LVU106
	.loc 1 229 18 is_stmt 0 view .LVU107
	ldrb	r10, [r7, r4]	@ zero_extendqisi2
	.loc 1 230 13 is_stmt 1 view .LVU108
	.loc 1 230 38 is_stmt 0 view .LVU109
	mov	r0, r10
	bl	isprint
.LVL51:
	.loc 1 230 13 view .LVU110
	cmp	r0, #0
	bne	.L37
	mov	r10, #46
	b	.L37
.L36:
	.loc 1 230 13 view .LVU111
.LBE3:
	.loc 1 234 13 is_stmt 1 view .LVU112
	ldr	r1, .L47+16
	mov	r0, r5
	bl	nrf_fprintf
.LVL52:
	b	.L38
.L46:
	.loc 1 238 5 view .LVU113
	movs	r2, #1
	mov	r1, r5
	mov	r0, r8
	bl	postfix_process
.LVL53:
	.loc 1 240 5 view .LVU114
	.loc 1 240 23 is_stmt 0 view .LVU115
	strb	r9, [r5, #12]
	.loc 1 241 1 view .LVU116
	pop	{r4, r5, r6, r7, r8, r9, r10, pc}
.LVL54:
.L48:
	.loc 1 241 1 view .LVU117
	.align	2
.L47:
	.word	.LC7
	.word	.LC6
	.word	.LC8
	.word	.LC9
	.word	.LC10
.LFE213:
	.size	nrf_log_hexdump_entry_process, .-nrf_log_hexdump_entry_process
	.section	.text.nrf_log_str_formatter_timestamp_freq_set,"ax",%progbits
	.align	1
	.global	nrf_log_str_formatter_timestamp_freq_set
	.syntax unified
	.thumb
	.thumb_func
	.fpu fpv4-sp-d16
	.type	nrf_log_str_formatter_timestamp_freq_set, %function
nrf_log_str_formatter_timestamp_freq_set:
.LVL55:
.LFB214:
	.loc 1 244 1 is_stmt 1 view -0
	@ args = 0, pretend = 0, frame = 0
	@ frame_needed = 0, uses_anonymous_args = 0
	@ link register save eliminated.
	.loc 1 245 5 view .LVU119
	.loc 1 245 21 is_stmt 0 view .LVU120
	ldr	r3, .L53
	movs	r2, #1
	str	r2, [r3]
	.loc 1 249 5 is_stmt 1 view .LVU121
.L50:
	.loc 1 249 11 view .LVU122
	ldr	r3, .L53+4
	cmp	r0, r3
	bls	.L52
	.loc 1 251 9 view .LVU123
	.loc 1 251 14 is_stmt 0 view .LVU124
	lsrs	r0, r0, #1
.LVL56:
	.loc 1 252 9 is_stmt 1 view .LVU125
	.loc 1 252 25 is_stmt 0 view .LVU126
	ldr	r2, .L53
	ldr	r3, [r2]
	lsls	r3, r3, #1
	str	r3, [r2]
	b	.L50
.L52:
	.loc 1 255 1 view .LVU127
	bx	lr
.L54:
	.align	2
.L53:
	.word	.LANCHOR2
	.word	1000000
.LFE214:
	.size	nrf_log_str_formatter_timestamp_freq_set, .-nrf_log_str_formatter_timestamp_freq_set
	.section	.rodata.str1.4,"aMS",%progbits,1
	.align	2
.LC11:
	.ascii	"\033[1;30m\000"
	.align	2
.LC12:
	.ascii	"\033[1;32m\000"
	.align	2
.LC13:
	.ascii	"\033[1;33m\000"
	.align	2
.LC14:
	.ascii	"\033[1;34m\000"
	.align	2
.LC15:
	.ascii	"\033[1;35m\000"
	.align	2
.LC16:
	.ascii	"\033[1;36m\000"
	.align	2
.LC17:
	.ascii	"\033[1;37m\000"
	.align	2
.LC18:
	.ascii	"error\000"
	.align	2
.LC19:
	.ascii	"warning\000"
	.align	2
.LC20:
	.ascii	"info\000"
	.align	2
.LC21:
	.ascii	"debug\000"
	.section	.bss.m_timestamp_div,"aw",%nobits
	.align	2
	.set	.LANCHOR2,. + 0
	.type	m_timestamp_div, %object
	.size	m_timestamp_div, 4
m_timestamp_div:
	.space	4
	.section	.rodata.m_colors,"a"
	.align	2
	.set	.LANCHOR0,. + 0
	.type	m_colors, %object
	.size	m_colors, 36
m_colors:
	.word	.LC2
	.word	.LC11
	.word	.LC0
	.word	.LC12
	.word	.LC13
	.word	.LC14
	.word	.LC15
	.word	.LC16
	.word	.LC17
	.section	.rodata.severity_names,"a"
	.align	2
	.set	.LANCHOR1,. + 0
	.type	severity_names, %object
	.size	severity_names, 20
severity_names:
	.word	0
	.word	.LC18
	.word	.LC19
	.word	.LC20
	.word	.LC21
	.section	.debug_frame,"",%progbits
.Lframe0:
	.4byte	.LECIE0-.LSCIE0
.LSCIE0:
	.4byte	0xffffffff
	.byte	0x3
	.ascii	"\000"
	.uleb128 0x1
	.sleb128 -4
	.uleb128 0xe
	.byte	0xc
	.uleb128 0xd
	.uleb128 0
	.align	2
.LECIE0:
.LSFDE0:
	.4byte	.LEFDE0-.LASFDE0
.LASFDE0:
	.4byte	.Lframe0
	.4byte	.LFB210
	.4byte	.LFE210-.LFB210
	.byte	0x4
	.4byte	.LCFI0-.LFB210
	.byte	0xe
	.uleb128 0x10
	.byte	0x84
	.uleb128 0x4
	.byte	0x85
	.uleb128 0x3
	.byte	0x86
	.uleb128 0x2
	.byte	0x8e
	.uleb128 0x1
	.byte	0x4
	.4byte	.LCFI1-.LCFI0
	.byte	0xe
	.uleb128 0x18
	.byte	0x4
	.4byte	.LCFI2-.LCFI1
	.byte	0xa
	.byte	0xe
	.uleb128 0x10
	.byte	0x4
	.4byte	.LCFI3-.LCFI2
	.byte	0xb
	.align	2
.LEFDE0:
.LSFDE2:
	.4byte	.LEFDE2-.LASFDE2
.LASFDE2:
	.4byte	.Lframe0
	.4byte	.LFB211
	.4byte	.LFE211-.LFB211
	.byte	0x4
	.4byte	.LCFI4-.LFB211
	.byte	0xe
	.uleb128 0x8
	.byte	0x84
	.uleb128 0x2
	.byte	0x8e
	.uleb128 0x1
	.align	2
.LEFDE2:
.LSFDE4:
	.4byte	.LEFDE4-.LASFDE4
.LASFDE4:
	.4byte	.Lframe0
	.4byte	.LFB212
	.4byte	.LFE212-.LFB212
	.byte	0x4
	.4byte	.LCFI5-.LFB212
	.byte	0xe
	.uleb128 0x1c
	.byte	0x84
	.uleb128 0x7
	.byte	0x85
	.uleb128 0x6
	.byte	0x86
	.uleb128 0x5
	.byte	0x87
	.uleb128 0x4
	.byte	0x88
	.uleb128 0x3
	.byte	0x89
	.uleb128 0x2
	.byte	0x8e
	.uleb128 0x1
	.byte	0x4
	.4byte	.LCFI6-.LCFI5
	.byte	0xe
	.uleb128 0x30
	.byte	0x4
	.4byte	.LCFI7-.LCFI6
	.byte	0xa
	.byte	0xe
	.uleb128 0x1c
	.byte	0x4
	.4byte	.LCFI8-.LCFI7
	.byte	0xb
	.align	2
.LEFDE4:
.LSFDE6:
	.4byte	.LEFDE6-.LASFDE6
.LASFDE6:
	.4byte	.Lframe0
	.4byte	.LFB213
	.4byte	.LFE213-.LFB213
	.byte	0x4
	.4byte	.LCFI9-.LFB213
	.byte	0xe
	.uleb128 0x20
	.byte	0x84
	.uleb128 0x8
	.byte	0x85
	.uleb128 0x7
	.byte	0x86
	.uleb128 0x6
	.byte	0x87
	.uleb128 0x5
	.byte	0x88
	.uleb128 0x4
	.byte	0x89
	.uleb128 0x3
	.byte	0x8a
	.uleb128 0x2
	.byte	0x8e
	.uleb128 0x1
	.align	2
.LEFDE6:
.LSFDE8:
	.4byte	.LEFDE8-.LASFDE8
.LASFDE8:
	.4byte	.Lframe0
	.4byte	.LFB214
	.4byte	.LFE214-.LFB214
	.align	2
.LEFDE8:
	.text
.Letext0:
	.file 2 "../../../../../../components/libraries/experimental_log/nrf_log_str_formatter.h"
	.file 3 "C:/Program Files (x86)/SEGGER/SEGGER Embedded Studio for ARM 4.50/include/stdint.h"
	.file 4 "../../../../../../components/libraries/experimental_log/nrf_log_types.h"