	.cpu cortex-m4
	.eabi_attribute 27, 1
	.eabi_attribute 28, 1
	.eabi_attribute 20, 1
	.eabi_attribute 21, 1
	.eabi_attribute 23, 3
	.eabi_attribute 24, 1
	.eabi_attribute 25, 1
	.eabi_attribute 26, 1
	.eabi_attribute 30, 1
	.eabi_attribute 34, 1
	.eabi_attribute 18, 4
	.file	"nrf_fstorage_sd.c"
	.text
.Ltext0:
	.section	.text.sd_flash_write,"ax",%progbits
	.align	1
	.syntax unified
	.thumb
	.thumb_func
	.fpu fpv4-sp-d16
	.type	sd_flash_write, %function
sd_flash_write:
.LVL0:
.LFB178:
	.file 1 "../../../../../../components/softdevice/s132/headers/nrf_soc.h"
	.loc 1 812 137 view -0
	@ Naked Function: prologue and epilogue provided by programmer.
	@ args = 0, pretend = 0, frame = 0
	@ frame_needed = 0, uses_anonymous_args = 0
	.loc 1 812 139 view .LVU1
	.syntax unified
@ 812 "../../../../../../components/softdevice/s132/headers/nrf_soc.h" 1
	svc #41
bx r14
@ 0 "" 2
.LVL1:
	.loc 1 812 2 is_stmt 0 view .LVU2
	.thumb
	.syntax unified
.LFE178:
	.size	sd_flash_write, .-sd_flash_write
	.section	.text.sd_flash_page_erase,"ax",%progbits
	.align	1
	.syntax unified
	.thumb
	.thumb_func
	.fpu fpv4-sp-d16
	.type	sd_flash_page_erase, %function
sd_flash_page_erase:
.LVL2:
.LFB179:
	.loc 1 844 107 is_stmt 1 view -0
	@ Naked Function: prologue and epilogue provided by programmer.
	@ args = 0, pretend = 0, frame = 0
	@ frame_needed = 0, uses_anonymous_args = 0
	.loc 1 844 109 view .LVU4
	.syntax unified
@ 844 "../../../../../../components/softdevice/s132/headers/nrf_soc.h" 1
	svc #40
bx r14
@ 0 "" 2
.LVL3:
	.loc 1 844 2 is_stmt 0 view .LVU5
	.thumb
	.syntax unified
.LFE179:
	.size	sd_flash_page_erase, .-sd_flash_page_erase
	.section	.text.event_send,"ax",%progbits
	.align	1
	.syntax unified
	.thumb
	.thumb_func
	.fpu fpv4-sp-d16
	.type	event_send, %function
event_send:
.LVL4:
.LFB200:
	.file 2 "C:\\nRF5_SDK_15.0.0_a53641a\\components\\libraries\\fstorage\\nrf_fstorage_sd.c"
	.loc 2 160 1 is_stmt 1 view -0
	@ args = 0, pretend = 0, frame = 24
	@ frame_needed = 0, uses_anonymous_args = 0
	.loc 2 161 5 view .LVU7
	.loc 2 161 13 is_stmt 0 view .LVU8
	ldr	r3, [r0]
	.loc 2 161 19 view .LVU9
	ldr	r3, [r3, #8]
	.loc 2 161 8 view .LVU10
	cbz	r3, .L10
	.loc 2 160 1 view .LVU11
	push	{lr}
.LCFI0:
	sub	sp, sp, #28
.LCFI1:
	.loc 2 167 5 is_stmt 1 view .LVU12
	.loc 2 167 24 is_stmt 0 view .LVU13
	movs	r3, #0
	str	r3, [sp]
	str	r3, [sp, #8]
	str	r3, [sp, #12]
	str	r3, [sp, #16]
	str	r1, [sp, #4]
	.loc 2 170 24 view .LVU14
	ldr	r3, [r0, #8]
	.loc 2 167 24 view .LVU15
	str	r3, [sp, #20]
	.loc 2 173 5 is_stmt 1 view .LVU16
	.loc 2 173 17 is_stmt 0 view .LVU17
	ldrb	r3, [r0, #4]	@ zero_extendqisi2
	.loc 2 173 5 view .LVU18
	cbz	r3, .L6
	cmp	r3, #1
	beq	.L7
.L8:
	.loc 2 193 5 is_stmt 1 view .LVU19
	.loc 2 193 9 is_stmt 0 view .LVU20
	ldr	r3, [r0]
	.loc 2 193 15 view .LVU21
	ldr	r3, [r3, #8]
	.loc 2 193 5 view .LVU22
	mov	r0, sp
.LVL5:
	.loc 2 193 5 view .LVU23
	blx	r3
.LVL6:
	.loc 2 194 1 view .LVU24
	add	sp, sp, #28
.LCFI2:
	@ sp needed
	ldr	pc, [sp], #4
.LVL7:
.L6:
.LCFI3:
	.loc 2 176 13 is_stmt 1 view .LVU25
	.loc 2 176 20 is_stmt 0 view .LVU26
	movs	r3, #1
	strb	r3, [sp]
	.loc 2 177 13 is_stmt 1 view .LVU27
	.loc 2 177 35 is_stmt 0 view .LVU28
	ldr	r3, [r0, #16]
	.loc 2 177 22 view .LVU29
	str	r3, [sp, #8]
	.loc 2 178 13 is_stmt 1 view .LVU30
	.loc 2 178 36 is_stmt 0 view .LVU31
	ldr	r3, [r0, #12]
	.loc 2 178 23 view .LVU32
	str	r3, [sp, #12]
	.loc 2 179 13 is_stmt 1 view .LVU33
	.loc 2 179 34 is_stmt 0 view .LVU34
	ldr	r3, [r0, #20]
	.loc 2 179 21 view .LVU35
	str	r3, [sp, #16]
	.loc 2 180 13 is_stmt 1 view .LVU36
	b	.L8
.L7:
	.loc 2 183 13 view .LVU37
	.loc 2 183 20 is_stmt 0 view .LVU38
	movs	r3, #2
	strb	r3, [sp]
	.loc 2 184 13 is_stmt 1 view .LVU39
	.loc 2 184 36 is_stmt 0 view .LVU40
	ldr	r3, [r0, #12]
	.loc 2 184 42 view .LVU41
	lsls	r3, r3, #12
	.loc 2 184 22 view .LVU42
	str	r3, [sp, #8]
	.loc 2 185 13 is_stmt 1 view .LVU43
	.loc 2 185 34 is_stmt 0 view .LVU44
	ldr	r3, [r0, #20]
	.loc 2 185 21 view .LVU45
	str	r3, [sp, #16]
	.loc 2 186 13 is_stmt 1 view .LVU46
	b	.L8
.L10:
.LCFI4:
	.loc 2 186 13 is_stmt 0 view .LVU47
	bx	lr
.LFE200:
	.size	event_send, .-event_send
	.section	.text.write_execute,"ax",%progbits
	.align	1
	.syntax unified
	.thumb
	.thumb_func
	.fpu fpv4-sp-d16
	.type	write_execute, %function
write_execute:
.LVL8:
.LFB201:
	.loc 2 199 1 is_stmt 1 view -0
	@ args = 0, pretend = 0, frame = 0
	@ frame_needed = 0, uses_anonymous_args = 0
	.loc 2 199 1 is_stmt 0 view .LVU49
	push	{r4, lr}
.LCFI5:
	.loc 2 200 5 is_stmt 1 view .LVU50
	.loc 2 202 5 view .LVU51
	.loc 2 202 30 is_stmt 0 view .LVU52
	ldr	r2, [r0, #20]
	.loc 2 202 48 view .LVU53
	ldr	r3, [r0, #24]
	.loc 2 202 35 view .LVU54
	subs	r2, r2, r3
	.loc 2 202 15 view .LVU55
	cmp	r2, #4096
	it	cs
	movcs	r2, #4096
.LVL9:
	.loc 2 203 5 is_stmt 1 view .LVU56
	.loc 2 203 35 is_stmt 0 view .LVU57
	lsrs	r2, r2, #2
.LVL10:
	.loc 2 206 5 is_stmt 1 view .LVU58
	.loc 2 206 48 is_stmt 0 view .LVU59
	ldr	r4, [r0, #16]
.LVL11:
	.loc 2 207 5 is_stmt 1 view .LVU60
	.loc 2 207 63 is_stmt 0 view .LVU61
	ldr	r1, [r0, #12]
.LVL12:
	.loc 2 209 5 is_stmt 1 view .LVU62
	.loc 2 209 12 is_stmt 0 view .LVU63
	cmp	r2, #1
	it	cc
	movcc	r2, #1
.LVL13:
	.loc 2 209 12 view .LVU64
	add	r1, r1, r3
.LVL14:
	.loc 2 209 12 view .LVU65
	adds	r0, r3, r4
.LVL15:
	.loc 2 209 12 view .LVU66
	bl	sd_flash_write
.LVL16:
	.loc 2 210 1 view .LVU67
	pop	{r4, pc}
.LFE201:
	.size	write_execute, .-write_execute
	.section	.text.erase_execute,"ax",%progbits
	.align	1
	.syntax unified
	.thumb
	.thumb_func
	.fpu fpv4-sp-d16
	.type	erase_execute, %function
erase_execute:
.LVL17:
.LFB202:
	.loc 2 215 1 is_stmt 1 view -0
	@ args = 0, pretend = 0, frame = 0
	@ frame_needed = 0, uses_anonymous_args = 0
	.loc 2 215 1 is_stmt 0 view .LVU69
	push	{r3, lr}
.LCFI6:
	.loc 2 216 5 is_stmt 1 view .LVU70
	.loc 2 216 43 is_stmt 0 view .LVU71
	ldr	r2, [r0, #12]
	.loc 2 216 62 view .LVU72
	ldr	r0, [r0, #16]
.LVL18:
	.loc 2 216 12 view .LVU73
	add	r0, r0, r2
	bl	sd_flash_page_erase
.LVL19:
	.loc 2 217 1 view .LVU74
	pop	{r3, pc}
.LFE202:
	.size	erase_execute, .-erase_execute
	.section	.text.on_operation_success,"ax",%progbits
	.align	1
	.syntax unified
	.thumb
	.thumb_func
	.fpu fpv4-sp-d16
	.type	on_operation_success, %function
on_operation_success:
.LVL20:
.LFB207:
	.loc 2 315 1 is_stmt 1 view -0
	@ args = 0, pretend = 0, frame = 0
	@ frame_needed = 0, uses_anonymous_args = 0
	@ link register save eliminated.
	.loc 2 317 5 view .LVU76
	.loc 2 317 21 is_stmt 0 view .LVU77
	ldr	r3, .L23
	movs	r2, #0
	str	r2, [r3, #12]
	.loc 2 319 5 is_stmt 1 view .LVU78
	.loc 2 319 17 is_stmt 0 view .LVU79
	ldrb	r3, [r0, #4]	@ zero_extendqisi2
	.loc 2 319 5 view .LVU80
	cbz	r3, .L18
	cmp	r3, #1
	beq	.L19
	mov	r0, r2
.LVL21:
	.loc 2 319 5 view .LVU81
	bx	lr
.LVL22:
.L18:
.LBB2:
	.loc 2 325 13 is_stmt 1 view .LVU82
	.loc 2 325 53 is_stmt 0 view .LVU83
	ldr	r2, [r0, #20]
	.loc 2 325 71 view .LVU84
	ldr	r3, [r0, #24]
	.loc 2 325 58 view .LVU85
	subs	r1, r2, r3
.LVL23:
	.loc 2 328 13 is_stmt 1 view .LVU86
	.loc 2 328 32 is_stmt 0 view .LVU87
	cmp	r1, #4096
	ite	ls
	addls	r3, r3, r1
	addhi	r3, r3, #4096
	str	r3, [r0, #24]
	.loc 2 330 13 is_stmt 1 view .LVU88
	.loc 2 330 16 is_stmt 0 view .LVU89
	cmp	r2, r3
	beq	.L21
.LBE2:
	.loc 2 351 11 view .LVU90
	movs	r0, #0
.LVL24:
	.loc 2 351 11 view .LVU91
	bx	lr
.LVL25:
.L19:
	.loc 2 338 13 is_stmt 1 view .LVU92
	.loc 2 338 24 is_stmt 0 view .LVU93
	ldr	r3, [r0, #16]
	.loc 2 338 33 view .LVU94
	adds	r3, r3, #1
	str	r3, [r0, #16]
	.loc 2 340 13 is_stmt 1 view .LVU95
	.loc 2 340 52 is_stmt 0 view .LVU96
	ldr	r2, [r0, #20]
	.loc 2 340 16 view .LVU97
	cmp	r3, r2
	beq	.L22
	.loc 2 351 11 view .LVU98
	movs	r0, #0
.LVL26:
	.loc 2 351 11 view .LVU99
	bx	lr
.LVL27:
.L21:
.LBB3:
	.loc 2 332 23 view .LVU100
	movs	r0, #1
.LVL28:
	.loc 2 332 23 view .LVU101
	bx	lr
.LVL29:
.L22:
	.loc 2 332 23 view .LVU102
.LBE3:
	.loc 2 342 23 view .LVU103
	movs	r0, #1
.LVL30:
	.loc 2 352 1 view .LVU104
	bx	lr
.L24:
	.align	2
.L23:
	.word	.LANCHOR0
.LFE207:
	.size	on_operation_success, .-on_operation_success
	.section	.text.on_operation_failure,"ax",%progbits
	.align	1
	.syntax unified
	.thumb
	.thumb_func
	.fpu fpv4-sp-d16
	.type	on_operation_failure, %function
on_operation_failure:
.LVL31:
.LFB208:
	.loc 2 357 1 is_stmt 1 view -0
	@ args = 0, pretend = 0, frame = 0
	@ frame_needed = 0, uses_anonymous_args = 0
	@ link register save eliminated.
	.loc 2 358 5 view .LVU106
	.loc 2 360 5 view .LVU107
	.loc 2 360 12 is_stmt 0 view .LVU108
	ldr	r2, .L29
	ldr	r3, [r2, #12]
	.loc 2 360 20 view .LVU109
	adds	r3, r3, #1
	str	r3, [r2, #12]
	.loc 2 362 5 is_stmt 1 view .LVU110
	.loc 2 362 8 is_stmt 0 view .LVU111
	cmp	r3, #8
	bhi	.L28
	.loc 2 369 11 view .LVU112
	movs	r0, #0
.LVL32:
	.loc 2 370 1 view .LVU113
	bx	lr
.LVL33:
.L28:
	.loc 2 365 9 is_stmt 1 view .LVU114
	.loc 2 365 25 is_stmt 0 view .LVU115
	mov	r3, r2
	movs	r2, #0
	str	r2, [r3, #12]
	.loc 2 366 9 is_stmt 1 view .LVU116
	.loc 2 366 15 is_stmt 0 view .LVU117
	movs	r0, #1
.LVL34:
	.loc 2 366 15 view .LVU118
	bx	lr
.L30:
	.align	2
.L29:
	.word	.LANCHOR0
.LFE208:
	.size	on_operation_failure, .-on_operation_failure
	.section	.text.rmap,"ax",%progbits
	.align	1
	.syntax unified
	.thumb
	.thumb_func
	.fpu fpv4-sp-d16
	.type	rmap, %function
rmap:
.LVL35:
.LFB214:
	.loc 2 486 1 is_stmt 1 view -0
	@ args = 0, pretend = 0, frame = 0
	@ frame_needed = 0, uses_anonymous_args = 0
	@ link register save eliminated.
	.loc 2 487 5 view .LVU120
	.loc 2 489 5 view .LVU121
	.loc 2 490 1 is_stmt 0 view .LVU122
	mov	r0, r1
.LVL36:
	.loc 2 490 1 view .LVU123
	bx	lr
.LFE214:
	.size	rmap, .-rmap
	.section	.text.wmap,"ax",%progbits
	.align	1
	.syntax unified
	.thumb
	.thumb_func
	.fpu fpv4-sp-d16
	.type	wmap, %function
wmap:
.LVL37:
.LFB215:
	.loc 2 494 1 is_stmt 1 view -0
	@ args = 0, pretend = 0, frame = 0
	@ frame_needed = 0, uses_anonymous_args = 0
	@ link register save eliminated.
	.loc 2 495 5 view .LVU125
	.loc 2 496 5 view .LVU126
	.loc 2 499 5 view .LVU127
	.loc 2 500 1 is_stmt 0 view .LVU128
	movs	r0, #0
.LVL38:
	.loc 2 500 1 view .LVU129
	bx	lr
.LFE215:
	.size	wmap, .-wmap
	.section	.text.is_busy,"ax",%progbits
	.align	1
	.syntax unified
	.thumb
	.thumb_func
	.fpu fpv4-sp-d16
	.type	is_busy, %function
is_busy:
.LVL39:
.LFB216:
	.loc 2 504 1 is_stmt 1 view -0
	@ args = 0, pretend = 0, frame = 0
	@ frame_needed = 0, uses_anonymous_args = 0
	@ link register save eliminated.
	.loc 2 505 5 view .LVU131
	.loc 2 507 5 view .LVU132
	.loc 2 507 20 is_stmt 0 view .LVU133
	ldr	r3, .L34
	ldrb	r0, [r3, #8]	@ zero_extendqisi2
.LVL40:
	.loc 2 508 1 view .LVU134
	subs	r0, r0, #0
	it	ne
	movne	r0, #1
	bx	lr
.L35:
	.align	2
.L34:
	.word	.LANCHOR0
.LFE216:
	.size	is_busy, .-is_busy
	.section	.text.nrf_fstorage_sdh_req_handler,"ax",%progbits
	.align	1
	.global	nrf_fstorage_sdh_req_handler
	.syntax unified
	.thumb
	.thumb_func
	.fpu fpv4-sp-d16
	.type	nrf_fstorage_sdh_req_handler, %function
nrf_fstorage_sdh_req_handler:
.LVL41:
.LFB218:
	.loc 2 583 1 is_stmt 1 view -0
	@ args = 0, pretend = 0, frame = 0
	@ frame_needed = 0, uses_anonymous_args = 0
	@ link register save eliminated.
	.loc 2 584 5 view .LVU136
	.loc 2 585 5 view .LVU137
	.loc 2 587 5 view .LVU138
	.loc 2 587 20 is_stmt 0 view .LVU139
	ldr	r3, .L37
	movs	r2, #1
	strb	r2, [r3, #17]
	.loc 2 590 5 is_stmt 1 view .LVU140
	.loc 2 590 20 is_stmt 0 view .LVU141
	ldrb	r0, [r3, #8]	@ zero_extendqisi2
.LVL42:
	.loc 2 591 1 view .LVU142
	clz	r0, r0
	lsrs	r0, r0, #5
	bx	lr
.L38:
	.align	2
.L37:
	.word	.LANCHOR0
.LFE218:
	.size	nrf_fstorage_sdh_req_handler, .-nrf_fstorage_sdh_req_handler
	.section	.text.queue_free,"ax",%progbits
	.align	1
	.syntax unified
	.thumb
	.thumb_func
	.fpu fpv4-sp-d16
	.type	queue_free, %function
queue_free:
.LFB203:
	.loc 2 222 1 is_stmt 1 view -0
	@ args = 0, pretend = 0, frame = 0
	@ frame_needed = 0, uses_anonymous_args = 0
	push	{r3, lr}
.LCFI7:
	.loc 2 223 5 view .LVU144
	.loc 2 223 12 is_stmt 0 view .LVU145
	ldr	r1, .L41
	ldr	r0, .L41+4
	bl	nrf_atfifo_item_free
.LVL43:
	.loc 2 224 1 view .LVU146
	pop	{r3, pc}
.L42:
	.align	2
.L41:
	.word	.LANCHOR1
	.word	.LANCHOR2
.LFE203:
	.size	queue_free, .-queue_free
	.section	.text.queue_load_next,"ax",%progbits
	.align	1
	.syntax unified
	.thumb
	.thumb_func
	.fpu fpv4-sp-d16
	.type	queue_load_next, %function
queue_load_next:
.LFB204:
	.loc 2 229 1 is_stmt 1 view -0
	@ args = 0, pretend = 0, frame = 0
	@ frame_needed = 0, uses_anonymous_args = 0
	push	{r3, lr}
.LCFI8:
	.loc 2 230 5 view .LVU148
	.loc 2 230 18 is_stmt 0 view .LVU149
	ldr	r1, .L45
	ldr	r0, .L45+4
	bl	nrf_atfifo_item_get
.LVL44:
	.loc 2 230 16 view .LVU150
	ldr	r3, .L45+8
	str	r0, [r3]
	.loc 2 232 5 is_stmt 1 view .LVU151
	.loc 2 233 1 is_stmt 0 view .LVU152
	subs	r0, r0, #0
	it	ne
	movne	r0, #1
	pop	{r3, pc}
.L46:
	.align	2
.L45:
	.word	.LANCHOR1
	.word	.LANCHOR2
	.word	.LANCHOR3
.LFE204:
	.size	queue_load_next, .-queue_load_next
	.section	.text.queue_process,"ax",%progbits
	.align	1
	.syntax unified
	.thumb
	.thumb_func
	.fpu fpv4-sp-d16
	.type	queue_process, %function
queue_process:
.LFB205:
	.loc 2 238 1 is_stmt 1 view -0
	@ args = 0, pretend = 0, frame = 0
	@ frame_needed = 0, uses_anonymous_args = 0
	push	{r3, lr}
.LCFI9:
	.loc 2 239 5 view .LVU154
	.loc 2 241 5 view .LVU155
	.loc 2 241 16 is_stmt 0 view .LVU156
	ldr	r3, .L58
	ldrb	r3, [r3, #8]	@ zero_extendqisi2
	.loc 2 241 8 view .LVU157
	cbz	r3, .L57
.L48:
	.loc 2 251 5 is_stmt 1 view .LVU158
	.loc 2 251 19 is_stmt 0 view .LVU159
	ldr	r3, .L58
	movs	r2, #2
	strb	r2, [r3, #8]
	.loc 2 253 5 is_stmt 1 view .LVU160
	.loc 2 253 23 is_stmt 0 view .LVU161
	ldr	r3, .L58+4
	ldr	r0, [r3]
	ldrb	r3, [r0, #4]	@ zero_extendqisi2
	.loc 2 253 5 view .LVU162
	cbz	r3, .L50
	cmp	r3, #1
	beq	.L51
.L52:
	.loc 2 291 13 is_stmt 1 view .LVU163
	movs	r1, #3
	ldr	r3, .L58+4
	ldr	r0, [r3]
	bl	event_send
.LVL45:
	.loc 2 293 13 view .LVU164
	.loc 2 293 27 is_stmt 0 view .LVU165
	ldr	r3, .L58
	movs	r2, #0
	strb	r2, [r3, #8]
	.loc 2 294 13 is_stmt 1 view .LVU166
	.loc 2 294 35 is_stmt 0 view .LVU167
	str	r2, [r3, #4]
	.loc 2 296 13 is_stmt 1 view .LVU168
	bl	queue_free
.LVL46:
	.loc 2 297 11 view .LVU169
.L47:
	.loc 2 299 1 is_stmt 0 view .LVU170
	pop	{r3, pc}
.L57:
	.loc 2 243 9 is_stmt 1 view .LVU171
	.loc 2 243 14 is_stmt 0 view .LVU172
	bl	queue_load_next
.LVL47:
	.loc 2 243 12 view .LVU173
	cmp	r0, #0
	bne	.L48
	.loc 2 246 13 is_stmt 1 view .LVU174
	.loc 2 246 35 is_stmt 0 view .LVU175
	ldr	r3, .L58
	movs	r2, #0
	str	r2, [r3, #4]
	.loc 2 247 13 is_stmt 1 view .LVU176
	b	.L47
.L50:
	.loc 2 256 13 view .LVU177
	.loc 2 256 18 is_stmt 0 view .LVU178
	bl	write_execute
.LVL48:
	.loc 2 257 13 is_stmt 1 view .LVU179
.L53:
	.loc 2 268 5 view .LVU180
	cbz	r0, .L54
	.loc 2 268 5 is_stmt 0 view .LVU181
	cmp	r0, #17
	bne	.L52
	.loc 2 285 13 is_stmt 1 view .LVU182
	.loc 2 285 27 is_stmt 0 view .LVU183
	ldr	r3, .L58
	movs	r2, #1
	strb	r2, [r3, #8]
	.loc 2 286 11 is_stmt 1 view .LVU184
	.loc 2 286 9 is_stmt 0 view .LVU185
	b	.L47
.LVL49:
.L51:
	.loc 2 260 13 is_stmt 1 view .LVU186
	.loc 2 260 18 is_stmt 0 view .LVU187
	bl	erase_execute
.LVL50:
	.loc 2 261 13 is_stmt 1 view .LVU188
	b	.L53
.L54:
	.loc 2 275 13 view .LVU189
	.loc 2 275 25 is_stmt 0 view .LVU190
	ldr	r3, .L58
	ldrb	r3, [r3, #16]	@ zero_extendqisi2
	.loc 2 275 16 view .LVU191
	cmp	r3, #0
	bne	.L47
	.loc 2 277 17 is_stmt 1 view .LVU192
	movs	r1, #0
	movs	r0, #2
.LVL51:
	.loc 2 277 17 is_stmt 0 view .LVU193
	bl	nrf_fstorage_sys_evt_handler
.LVL52:
	b	.L47
.L59:
	.align	2
.L58:
	.word	.LANCHOR0
	.word	.LANCHOR3
.LFE205:
	.size	queue_process, .-queue_process
	.section	.text.nrf_fstorage_sys_evt_handler,"ax",%progbits
	.align	1
	.global	nrf_fstorage_sys_evt_handler
	.syntax unified
	.thumb
	.thumb_func
	.fpu fpv4-sp-d16
	.type	nrf_fstorage_sys_evt_handler, %function
nrf_fstorage_sys_evt_handler:
.LVL53:
.LFB217:
	.loc 2 512 1 is_stmt 1 view -0
	@ args = 0, pretend = 0, frame = 0
	@ frame_needed = 0, uses_anonymous_args = 0
	.loc 2 513 5 view .LVU195
	.loc 2 515 5 view .LVU196
	.loc 2 516 9 is_stmt 0 view .LVU197
	subs	r3, r0, #2
	.loc 2 515 8 view .LVU198
	cmp	r3, #1
	bhi	.L70
	.loc 2 512 1 view .LVU199
	push	{r4, lr}
.LCFI10:
	mov	r4, r0
	.loc 2 522 5 is_stmt 1 view .LVU200
	.loc 2 522 20 is_stmt 0 view .LVU201
	ldr	r3, .L74
	ldrb	r3, [r3, #8]	@ zero_extendqisi2
	.loc 2 522 5 view .LVU202
	cbz	r3, .L60
	cmp	r3, #2
	bne	.L62
.LBB4:
	.loc 2 537 12 is_stmt 1 view .LVU203
.LVL54:
	.loc 2 539 13 view .LVU204
	cmp	r0, #2
	beq	.L63
	cmp	r0, #3
	beq	.L64
.LVL55:
.L62:
	.loc 2 539 13 is_stmt 0 view .LVU205
.LBE4:
	.loc 2 570 5 is_stmt 1 view .LVU206
	.loc 2 570 17 is_stmt 0 view .LVU207
	ldr	r3, .L74
	ldrb	r3, [r3, #17]	@ zero_extendqisi2
	.loc 2 570 8 view .LVU208
	cbnz	r3, .L67
	.loc 2 572 9 is_stmt 1 view .LVU209
	bl	queue_process
.LVL56:
.L60:
	.loc 2 579 1 is_stmt 0 view .LVU210
	pop	{r4, pc}
.LVL57:
.L63:
.LBB5:
	.loc 2 542 21 is_stmt 1 view .LVU211
	.loc 2 542 42 is_stmt 0 view .LVU212
	ldr	r3, .L74+4
	ldr	r0, [r3]
.LVL58:
	.loc 2 542 42 view .LVU213
	bl	on_operation_success
.LVL59:
	.loc 2 543 21 is_stmt 1 view .LVU214
.L65:
	.loc 2 553 13 view .LVU215
	.loc 2 553 16 is_stmt 0 view .LVU216
	cmp	r0, #0
	beq	.L62
	.loc 2 557 17 is_stmt 1 view .LVU217
	.loc 2 557 31 is_stmt 0 view .LVU218
	ldr	r3, .L74
	movs	r2, #0
	strb	r2, [r3, #8]
	.loc 2 559 17 is_stmt 1 view .LVU219
	ldr	r3, .L74+4
	ldr	r0, [r3]
.LVL60:
	.loc 2 559 17 is_stmt 0 view .LVU220
	cmp	r4, #2
	beq	.L73
	movs	r1, #13
.L66:
	.loc 2 559 17 discriminator 4 view .LVU221
	bl	event_send
.LVL61:
	.loc 2 565 17 is_stmt 1 discriminator 4 view .LVU222
	bl	queue_free
.LVL62:
	b	.L62
.LVL63:
.L64:
	.loc 2 546 21 view .LVU223
	.loc 2 546 42 is_stmt 0 view .LVU224
	ldr	r3, .L74+4
	ldr	r0, [r3]
.LVL64:
	.loc 2 546 42 view .LVU225
	bl	on_operation_failure
.LVL65:
	.loc 2 547 21 is_stmt 1 view .LVU226
	b	.L65
.LVL66:
.L73:
	.loc 2 559 17 is_stmt 0 view .LVU227
	mov	r1, r2
	b	.L66
.L67:
	.loc 2 559 17 view .LVU228
.LBE5:
	.loc 2 577 9 is_stmt 1 view .LVU229
	.loc 2 577 16 is_stmt 0 view .LVU230
	bl	nrf_sdh_request_continue
.LVL67:
	b	.L60
.LVL68:
.L70:
.LCFI11:
	.loc 2 577 16 view .LVU231
	bx	lr
.L75:
	.align	2
.L74:
	.word	.LANCHOR0
	.word	.LANCHOR3
.LFE217:
	.size	nrf_fstorage_sys_evt_handler, .-nrf_fstorage_sys_evt_handler
	.section	.text.nrf_fstorage_sdh_state_handler,"ax",%progbits
	.align	1
	.global	nrf_fstorage_sdh_state_handler
	.syntax unified
	.thumb
	.thumb_func
	.fpu fpv4-sp-d16
	.type	nrf_fstorage_sdh_state_handler, %function
nrf_fstorage_sdh_state_handler:
.LVL69:
.LFB219:
	.loc 2 595 1 is_stmt 1 view -0
	@ args = 0, pretend = 0, frame = 0
	@ frame_needed = 0, uses_anonymous_args = 0
	.loc 2 596 5 view .LVU233
	.loc 2 598 5 view .LVU234
	.loc 2 598 8 is_stmt 0 view .LVU235
	cmp	r0, #1
	beq	.L77
	.loc 2 599 9 view .LVU236
	cmp	r0, #3
	beq	.L77
	bx	lr
.L77:
	.loc 2 595 1 view .LVU237
	push	{r3, lr}
.LCFI12:
	.loc 2 601 9 is_stmt 1 view .LVU238
	.loc 2 601 24 is_stmt 0 view .LVU239
	ldr	r3, .L82
	movs	r2, #0
	strb	r2, [r3, #17]
	.loc 2 602 9 is_stmt 1 view .LVU240
	.loc 2 602 37 is_stmt 0 view .LVU241
	cmp	r0, #1
	ite	ne
	movne	r0, #0
.LVL70:
	.loc 2 602 37 view .LVU242
	moveq	r0, #1
	.loc 2 602 28 view .LVU243
	strb	r0, [r3, #16]
	.loc 2 605 9 is_stmt 1 view .LVU244
	bl	queue_process
.LVL71:
	.loc 2 607 1 is_stmt 0 view .LVU245
	pop	{r3, pc}
.L83:
	.align	2
.L82:
	.word	.LANCHOR0
.LFE219:
	.size	nrf_fstorage_sdh_state_handler, .-nrf_fstorage_sdh_state_handler
	.section	.text.queue_start,"ax",%progbits
	.align	1
	.syntax unified
	.thumb
	.thumb_func
	.fpu fpv4-sp-d16
	.type	queue_start, %function
queue_start:
.LFB206:
	.loc 2 304 1 is_stmt 1 view -0
	@ args = 0, pretend = 0, frame = 0
	@ frame_needed = 0, uses_anonymous_args = 0
	push	{r3, lr}
.LCFI13:
	.loc 2 305 5 view .LVU247
	.loc 2 305 12 is_stmt 0 view .LVU248
	ldr	r0, .L88
	bl	nrf_atomic_flag_set_fetch
.LVL72:
	.loc 2 305 8 view .LVU249
	cbnz	r0, .L84
	.loc 2 306 21 view .LVU250
	ldr	r3, .L88+4
	ldrb	r3, [r3, #17]	@ zero_extendqisi2
	.loc 2 306 9 view .LVU251
	cbz	r3, .L87
.L84:
	.loc 2 310 1 view .LVU252
	pop	{r3, pc}
.L87:
	.loc 2 308 9 is_stmt 1 view .LVU253
	bl	queue_process
.LVL73:
	.loc 2 310 1 is_stmt 0 view .LVU254
	b	.L84
.L89:
	.align	2
.L88:
	.word	.LANCHOR0+4
	.word	.LANCHOR0
.LFE206:
	.size	queue_start, .-queue_start
	.section	.text.erase,"ax",%progbits
	.align	1
	.syntax unified
	.thumb
	.thumb_func
	.fpu fpv4-sp-d16
	.type	erase, %function
erase:
.LVL74:
.LFB213:
	.loc 2 455 1 is_stmt 1 view -0
	@ args = 0, pretend = 0, frame = 8
	@ frame_needed = 0, uses_anonymous_args = 0
	.loc 2 455 1 is_stmt 0 view .LVU256
	push	{r4, r5, r6, r7, r8, lr}
.LCFI14:
	sub	sp, sp, #8
.LCFI15:
	mov	r7, r0
	mov	r8, r1
	mov	r6, r2
	mov	r5, r3
	.loc 2 456 5 is_stmt 1 view .LVU257
	.loc 2 457 5 view .LVU258
	.loc 2 460 5 view .LVU259
	.loc 2 460 12 is_stmt 0 view .LVU260
	add	r1, sp, #4
.LVL75:
	.loc 2 460 12 view .LVU261
	ldr	r0, .L94
.LVL76:
	.loc 2 460 12 view .LVU262
	bl	nrf_atfifo_item_alloc
.LVL77:
	.loc 2 462 5 is_stmt 1 view .LVU263
	.loc 2 462 8 is_stmt 0 view .LVU264
	cbz	r0, .L92
	mov	r4, r0
	.loc 2 468 5 is_stmt 1 view .LVU265
	movs	r2, #28
	movs	r1, #0
	bl	memset
.LVL78:
	.loc 2 470 5 view .LVU266
	.loc 2 470 19 is_stmt 0 view .LVU267
	movs	r3, #1
	strb	r3, [r4, #4]
	.loc 2 471 5 is_stmt 1 view .LVU268
	.loc 2 471 16 is_stmt 0 view .LVU269
	str	r7, [r4]
	.loc 2 472 5 is_stmt 1 view .LVU270
	.loc 2 472 19 is_stmt 0 view .LVU271
	str	r5, [r4, #8]
	.loc 2 473 5 is_stmt 1 view .LVU272
	.loc 2 473 35 is_stmt 0 view .LVU273
	lsr	r1, r8, #12
	.loc 2 473 22 view .LVU274
	str	r1, [r4, #12]
	.loc 2 474 5 is_stmt 1 view .LVU275
	.loc 2 474 32 is_stmt 0 view .LVU276
	str	r6, [r4, #20]
	.loc 2 477 5 is_stmt 1 view .LVU277
	.loc 2 477 12 is_stmt 0 view .LVU278
	add	r1, sp, #4
	ldr	r0, .L94
	bl	nrf_atfifo_item_put
.LVL79:
	.loc 2 479 5 is_stmt 1 view .LVU279
	bl	queue_start
.LVL80:
	.loc 2 481 5 view .LVU280
	.loc 2 481 12 is_stmt 0 view .LVU281
	movs	r0, #0
.LVL81:
.L90:
	.loc 2 482 1 view .LVU282
	add	sp, sp, #8
.LCFI16:
	@ sp needed
	pop	{r4, r5, r6, r7, r8, pc}
.LVL82:
.L92:
.LCFI17:
	.loc 2 464 16 view .LVU283
	movs	r0, #4
.LVL83:
	.loc 2 464 16 view .LVU284
	b	.L90
.L95:
	.align	2
.L94:
	.word	.LANCHOR2
.LFE213:
	.size	erase, .-erase
	.section	.text.write,"ax",%progbits
	.align	1
	.syntax unified
	.thumb
	.thumb_func
	.fpu fpv4-sp-d16
	.type	write, %function
write:
.LVL84:
.LFB211:
	.loc 2 412 1 is_stmt 1 view -0
	@ args = 4, pretend = 0, frame = 8
	@ frame_needed = 0, uses_anonymous_args = 0
	.loc 2 412 1 is_stmt 0 view .LVU286
	push	{r4, r5, r6, r7, r8, r9, lr}
.LCFI18:
	sub	sp, sp, #12
.LCFI19:
	mov	r8, r0
	mov	r7, r1
	mov	r9, r2
	mov	r6, r3
	.loc 2 413 5 is_stmt 1 view .LVU287
	.loc 2 414 5 view .LVU288
	.loc 2 417 5 view .LVU289
	.loc 2 417 12 is_stmt 0 view .LVU290
	add	r1, sp, #4
.LVL85:
	.loc 2 417 12 view .LVU291
	ldr	r0, .L100
.LVL86:
	.loc 2 417 12 view .LVU292
	bl	nrf_atfifo_item_alloc
.LVL87:
	.loc 2 419 5 is_stmt 1 view .LVU293
	.loc 2 419 8 is_stmt 0 view .LVU294
	cbz	r0, .L98
	mov	r4, r0
	.loc 2 425 5 is_stmt 1 view .LVU295
	movs	r2, #28
	movs	r1, #0
	bl	memset
.LVL88:
	.loc 2 427 5 view .LVU296
	.loc 2 427 19 is_stmt 0 view .LVU297
	movs	r5, #0
	strb	r5, [r4, #4]
	.loc 2 428 5 is_stmt 1 view .LVU298
	.loc 2 428 16 is_stmt 0 view .LVU299
	str	r8, [r4]
	.loc 2 429 5 is_stmt 1 view .LVU300
	.loc 2 429 19 is_stmt 0 view .LVU301
	ldr	r3, [sp, #40]
	str	r3, [r4, #8]
	.loc 2 430 5 is_stmt 1 view .LVU302
	.loc 2 430 22 is_stmt 0 view .LVU303
	str	r7, [r4, #16]
	.loc 2 431 5 is_stmt 1 view .LVU304
	.loc 2 431 23 is_stmt 0 view .LVU305
	str	r9, [r4, #12]
	.loc 2 432 5 is_stmt 1 view .LVU306
	.loc 2 432 21 is_stmt 0 view .LVU307
	str	r6, [r4, #20]
	.loc 2 435 5 is_stmt 1 view .LVU308
	.loc 2 435 12 is_stmt 0 view .LVU309
	add	r1, sp, #4
	ldr	r0, .L100
	bl	nrf_atfifo_item_put
.LVL89:
	.loc 2 437 5 is_stmt 1 view .LVU310
	bl	queue_start
.LVL90:
	.loc 2 439 5 view .LVU311
	.loc 2 439 12 is_stmt 0 view .LVU312
	mov	r0, r5
.LVL91:
.L96:
	.loc 2 440 1 view .LVU313
	add	sp, sp, #12
.LCFI20:
	@ sp needed
	pop	{r4, r5, r6, r7, r8, r9, pc}
.LVL92:
.L98:
.LCFI21:
	.loc 2 421 16 view .LVU314
	movs	r0, #4
.LVL93:
	.loc 2 421 16 view .LVU315
	b	.L96
.L101:
	.align	2
.L100:
	.word	.LANCHOR2
.LFE211:
	.size	write, .-write
	.section	.text.read,"ax",%progbits
	.align	1
	.syntax unified
	.thumb
	.thumb_func
	.fpu fpv4-sp-d16
	.type	read, %function
read:
.LVL94:
.LFB212:
	.loc 2 444 1 is_stmt 1 view -0
	@ args = 0, pretend = 0, frame = 0
	@ frame_needed = 0, uses_anonymous_args = 0
	.loc 2 444 1 is_stmt 0 view .LVU317
	push	{r3, lr}
.LCFI22:
	mov	r0, r2
.LVL95:
	.loc 2 445 5 is_stmt 1 view .LVU318
	mov	r2, r3
.LVL96:
	.loc 2 445 5 is_stmt 0 view .LVU319
	bl	memcpy
.LVL97:
	.loc 2 447 5 is_stmt 1 view .LVU320
	.loc 2 448 1 is_stmt 0 view .LVU321
	movs	r0, #0
	pop	{r3, pc}
.LFE212:
	.size	read, .-read
	.section	.text.uninit,"ax",%progbits
	.align	1
	.syntax unified
	.thumb
	.thumb_func
	.fpu fpv4-sp-d16
	.type	uninit, %function
uninit:
.LVL98:
.LFB210:
	.loc 2 392 1 is_stmt 1 view -0
	@ args = 0, pretend = 0, frame = 0
	@ frame_needed = 0, uses_anonymous_args = 0
	.loc 2 392 1 is_stmt 0 view .LVU323
	push	{r3, lr}
.LCFI23:
	.loc 2 393 5 is_stmt 1 view .LVU324
	.loc 2 394 5 view .LVU325
	.loc 2 399 5 view .LVU326
	movs	r2, #20
	movs	r1, #0
.LVL99:
	.loc 2 399 5 is_stmt 0 view .LVU327
	ldr	r0, .L106
.LVL100:
	.loc 2 399 5 view .LVU328
	bl	memset
.LVL101:
	.loc 2 401 5 is_stmt 1 view .LVU329
	.loc 2 401 12 is_stmt 0 view .LVU330
	ldr	r0, .L106+4
	bl	nrf_atfifo_clear
.LVL102:
	.loc 2 403 5 is_stmt 1 view .LVU331
	.loc 2 404 1 is_stmt 0 view .LVU332
	movs	r0, #0
	pop	{r3, pc}
.L107:
	.align	2
.L106:
	.word	.LANCHOR0
	.word	.LANCHOR2
.LFE210:
	.size	uninit, .-uninit
	.section	.text.init,"ax",%progbits
	.align	1
	.syntax unified
	.thumb
	.thumb_func
	.fpu fpv4-sp-d16
	.type	init, %function
init:
.LVL103:
.LFB209:
	.loc 2 374 1 is_stmt 1 view -0
	@ args = 0, pretend = 0, frame = 0
	@ frame_needed = 0, uses_anonymous_args = 0
	.loc 2 374 1 is_stmt 0 view .LVU334
	push	{r3, lr}
.LCFI24:
	.loc 2 375 5 is_stmt 1 view .LVU335
	.loc 2 377 5 view .LVU336
	.loc 2 377 24 is_stmt 0 view .LVU337
	ldr	r3, .L112
	str	r3, [r0, #4]
	.loc 2 379 5 is_stmt 1 view .LVU338
	.loc 2 379 10 is_stmt 0 view .LVU339
	ldr	r0, .L112+4
.LVL104:
	.loc 2 379 10 view .LVU340
	bl	nrf_atomic_flag_set_fetch
.LVL105:
	.loc 2 379 8 view .LVU341
	cbz	r0, .L111
.L109:
	.loc 2 387 5 is_stmt 1 view .LVU342
	.loc 2 388 1 is_stmt 0 view .LVU343
	movs	r0, #0
	pop	{r3, pc}
.L111:
	.loc 2 382 9 is_stmt 1 view .LVU344
	.loc 2 382 30 is_stmt 0 view .LVU345
	bl	nrf_sdh_is_enabled
.LVL106:
	.loc 2 382 28 view .LVU346
	ldr	r3, .L112+4
	strb	r0, [r3, #16]
	.loc 2 384 9 is_stmt 1 view .LVU347
	.loc 2 384 16 is_stmt 0 view .LVU348
	movs	r3, #28
	movs	r2, #140
	ldr	r1, .L112+8
	ldr	r0, .L112+12
	bl	nrf_atfifo_init
.LVL107:
	b	.L109
.L113:
	.align	2
.L112:
	.word	.LANCHOR4
	.word	.LANCHOR0
	.word	.LANCHOR5
	.word	.LANCHOR2
.LFE209:
	.size	init, .-init
	.global	nrf_fstorage_sd
	.global	m_req_obs
	.global	m_nrf_log_atfifo_m_fifo_logs_data_dynamic
	.global	m_nrf_log_atfifo_m_fifo_logs_data_const
	.section	.rodata.str1.4,"aMS",%progbits,1
	.align	2
.LC0:
	.ascii	"atfifo.m_fifo\000"
	.section	.bss.m_fifo_data,"aw",%nobits
	.align	2
	.set	.LANCHOR5,. + 0
	.type	m_fifo_data, %object
	.size	m_fifo_data, 140
m_fifo_data:
	.space	140
	.section	.bss.m_flags,"aw",%nobits
	.align	2
	.set	.LANCHOR0,. + 0
	.type	m_flags, %object
	.size	m_flags, 20
m_flags:
	.space	20
	.section	.bss.m_iget_ctx,"aw",%nobits
	.align	2
	.set	.LANCHOR1,. + 0
	.type	m_iget_ctx, %object
	.size	m_iget_ctx, 4
m_iget_ctx:
	.space	4
	.section	.bss.m_p_cur_op,"aw",%nobits
	.align	2
	.set	.LANCHOR3,. + 0
	.type	m_p_cur_op, %object
	.size	m_p_cur_op, 4
m_p_cur_op:
	.space	4
	.section	.data.m_fifo_inst,"aw"
	.align	2
	.set	.LANCHOR2,. + 0
	.type	m_fifo_inst, %object
	.size	m_fifo_inst, 20
m_fifo_inst:
	.word	0
	.space	12
	.word	m_nrf_log_atfifo_m_fifo_logs_data_dynamic
	.section	.log_const_data_atfifo_m_fifo,"a"
	.align	2
	.type	m_nrf_log_atfifo_m_fifo_logs_data_const, %object
	.size	m_nrf_log_atfifo_m_fifo_logs_data_const, 8
m_nrf_log_atfifo_m_fifo_logs_data_const:
	.word	.LC0
	.byte	0
	.byte	0
	.byte	0
	.byte	3
	.section	.log_dynamic_data_atfifo_m_fifo,"aw"
	.align	2
	.type	m_nrf_log_atfifo_m_fifo_logs_data_dynamic, %object
	.size	m_nrf_log_atfifo_m_fifo_logs_data_dynamic, 4
m_nrf_log_atfifo_m_fifo_logs_data_dynamic:
	.space	4
	.section	.rodata.m_flash_info,"a"
	.align	2
	.set	.LANCHOR4,. + 0
	.type	m_flash_info, %object
	.size	m_flash_info, 12
m_flash_info:
	.word	4096
	.word	4
	.byte	1
	.byte	0
	.space	2
	.section	.rodata.nrf_fstorage_sd,"a"
	.align	2
	.type	nrf_fstorage_sd, %object
	.size	nrf_fstorage_sd, 32
nrf_fstorage_sd:
	.word	init
	.word	uninit
	.word	read
	.word	write
	.word	erase
	.word	rmap
	.word	wmap
	.word	is_busy
	.section	.sdh_req_observers0,"a"
	.align	2
	.type	m_req_obs, %object
	.size	m_req_obs, 8
m_req_obs:
	.word	nrf_fstorage_sdh_req_handler
	.space	4
	.section	.sdh_soc_observers0,"a"
	.align	2
	.type	m_sys_obs, %object
	.size	m_sys_obs, 8
m_sys_obs:
	.word	nrf_fstorage_sys_evt_handler
	.word	0
	.section	.sdh_state_observers0,"a"
	.align	2
	.type	m_state_obs, %object
	.size	m_state_obs, 8
m_state_obs:
	.word	nrf_fstorage_sdh_state_handler
	.space	4
	.section	.debug_frame,"",%progbits
.Lframe0:
	.4byte	.LECIE0-.LSCIE0
.LSCIE0:
	.4byte	0xffffffff
	.byte	0x3
	.ascii	"\000"
	.uleb128 0x1
	.sleb128 -4
	.uleb128 0xe
	.byte	0xc
	.uleb128 0xd
	.uleb128 0
	.align	2
.LECIE0:
.LSFDE0:
	.4byte	.LEFDE0-.LASFDE0
.LASFDE0:
	.4byte	.Lframe0
	.4byte	.LFB178
	.4byte	.LFE178-.LFB178
	.align	2
.LEFDE0:
.LSFDE2:
	.4byte	.LEFDE2-.LASFDE2
.LASFDE2:
	.4byte	.Lframe0
	.4byte	.LFB179
	.4byte	.LFE179-.LFB179
	.align	2
.LEFDE2:
.LSFDE4:
	.4byte	.LEFDE4-.LASFDE4
.LASFDE4:
	.4byte	.Lframe0
	.4byte	.LFB200
	.4byte	.LFE200-.LFB200
	.byte	0x4
	.4byte	.LCFI0-.LFB200
	.byte	0xe
	.uleb128 0x4
	.byte	0x8e
	.uleb128 0x1
	.byte	0x4
	.4byte	.LCFI1-.LCFI0
	.byte	0xe
	.uleb128 0x20
	.byte	0x4
	.4byte	.LCFI2-.LCFI1
	.byte	0xa
	.byte	0xe
	.uleb128 0x4
	.byte	0x4
	.4byte	.LCFI3-.LCFI2
	.byte	0xb
	.byte	0x4
	.4byte	.LCFI4-.LCFI3
	.byte	0xe
	.uleb128 0
	.byte	0xce
	.align	2
.LEFDE4:
.LSFDE6:
	.4byte	.LEFDE6-.LASFDE6
.LASFDE6:
	.4byte	.Lframe0
	.4byte	.LFB201
	.4byte	.LFE201-.LFB201
	.byte	0x4
	.4byte	.LCFI5-.LFB201
	.byte	0xe
	.uleb128 0x8
	.byte	0x84
	.uleb128 0x2
	.byte	0x8e
	.uleb128 0x1
	.align	2
.LEFDE6:
.LSFDE8:
	.4byte	.LEFDE8-.LASFDE8
.LASFDE8:
	.4byte	.Lframe0
	.4byte	.LFB202
	.4byte	.LFE202-.LFB202
	.byte	0x4
	.4byte	.LCFI6-.LFB202
	.byte	0xe
	.uleb128 0x8
	.byte	0x83
	.uleb128 0x2
	.byte	0x8e
	.uleb128 0x1
	.align	2
.LEFDE8:
.LSFDE10:
	.4byte	.LEFDE10-.LASFDE10
.LASFDE10:
	.4byte	.Lframe0
	.4byte	.LFB207
	.4byte	.LFE207-.LFB207
	.align	2
.LEFDE10:
.LSFDE12:
	.4byte	.LEFDE12-.LASFDE12
.LASFDE12:
	.4byte	.Lframe0
	.4byte	.LFB208
	.4byte	.LFE208-.LFB208
	.align	2
.LEFDE12:
.LSFDE14:
	.4byte	.LEFDE14-.LASFDE14
.LASFDE14:
	.4byte	.Lframe0
	.4byte	.LFB214
	.4byte	.LFE214-.LFB214
	.align	2
.LEFDE14:
.LSFDE16:
	.4byte	.LEFDE16-.LASFDE16
.LASFDE16:
	.4byte	.Lframe0
	.4byte	.LFB215
	.4byte	.LFE215-.LFB215
	.align	2
.LEFDE16:
.LSFDE18:
	.4byte	.LEFDE18-.LASFDE18
.LASFDE18:
	.4byte	.Lframe0
	.4byte	.LFB216
	.4byte	.LFE216-.LFB216
	.align	2
.LEFDE18:
.LSFDE20:
	.4byte	.LEFDE20-.LASFDE20
.LASFDE20:
	.4byte	.Lframe0
	.4byte	.LFB218
	.4byte	.LFE218-.LFB218
	.align	2
.LEFDE20:
.LSFDE22:
	.4byte	.LEFDE22-.LASFDE22
.LASFDE22:
	.4byte	.Lframe0
	.4byte	.LFB203
	.4byte	.LFE203-.LFB203
	.byte	0x4
	.4byte	.LCFI7-.LFB203
	.byte	0xe
	.uleb128 0x8
	.byte	0x83
	.uleb128 0x2
	.byte	0x8e
	.uleb128 0x1
	.align	2
.LEFDE22:
.LSFDE24:
	.4byte	.LEFDE24-.LASFDE24
.LASFDE24:
	.4byte	.Lframe0
	.4byte	.LFB204
	.4byte	.LFE204-.LFB204
	.byte	0x4
	.4byte	.LCFI8-.LFB204
	.byte	0xe
	.uleb128 0x8
	.byte	0x83
	.uleb128 0x2
	.byte	0x8e
	.uleb128 0x1
	.align	2
.LEFDE24:
.LSFDE26:
	.4byte	.LEFDE26-.LASFDE26
.LASFDE26:
	.4byte	.Lframe0
	.4byte	.LFB205
	.4byte	.LFE205-.LFB205
	.byte	0x4
	.4byte	.LCFI9-.LFB205
	.byte	0xe
	.uleb128 0x8
	.byte	0x83
	.uleb128 0x2
	.byte	0x8e
	.uleb128 0x1
	.align	2
.LEFDE26:
.LSFDE28:
	.4byte	.LEFDE28-.LASFDE28
.LASFDE28:
	.4byte	.Lframe0
	.4byte	.LFB217
	.4byte	.LFE217-.LFB217
	.byte	0x4
	.4byte	.LCFI10-.LFB217
	.byte	0xe
	.uleb128 0x8
	.byte	0x84
	.uleb128 0x2
	.byte	0x8e
	.uleb128 0x1
	.byte	0x4
	.4byte	.LCFI11-.LCFI10
	.byte	0xe
	.uleb128 0
	.byte	0xc4
	.byte	0xce
	.align	2
.LEFDE28:
.LSFDE30:
	.4byte	.LEFDE30-.LASFDE30
.LASFDE30:
	.4byte	.Lframe0
	.4byte	.LFB219
	.4byte	.LFE219-.LFB219
	.byte	0x4
	.4byte	.LCFI12-.LFB219
	.byte	0xe
	.uleb128 0x8
	.byte	0x83
	.uleb128 0x2
	.byte	0x8e
	.uleb128 0x1
	.align	2
.LEFDE30:
.LSFDE32:
	.4byte	.LEFDE32-.LASFDE32
.LASFDE32:
	.4byte	.Lframe0
	.4byte	.LFB206
	.4byte	.LFE206-.LFB206
	.byte	0x4
	.4byte	.LCFI13-.LFB206
	.byte	0xe
	.uleb128 0x8
	.byte	0x83
	.uleb128 0x2
	.byte	0x8e
	.uleb128 0x1
	.align	2
.LEFDE32:
.LSFDE34:
	.4byte	.LEFDE34-.LASFDE34
.LASFDE34:
	.4byte	.Lframe0
	.4byte	.LFB213
	.4byte	.LFE213-.LFB213
	.byte	0x4
	.4byte	.LCFI14-.LFB213
	.byte	0xe
	.uleb128 0x18
	.byte	0x84
	.uleb128 0x6
	.byte	0x85
	.uleb128 0x5
	.byte	0x86
	.uleb128 0x4
	.byte	0x87
	.uleb128 0x3
	.byte	0x88
	.uleb128 0x2
	.byte	0x8e
	.uleb128 0x1
	.byte	0x4
	.4byte	.LCFI15-.LCFI14
	.byte	0xe
	.uleb128 0x20
	.byte	0x4
	.4byte	.LCFI16-.LCFI15
	.byte	0xa
	.byte	0xe
	.uleb128 0x18
	.byte	0x4
	.4byte	.LCFI17-.LCFI16
	.byte	0xb
	.align	2
.LEFDE34:
.LSFDE36:
	.4byte	.LEFDE36-.LASFDE36
.LASFDE36:
	.4byte	.Lframe0
	.4byte	.LFB211
	.4byte	.LFE211-.LFB211
	.byte	0x4
	.4byte	.LCFI18-.LFB211
	.byte	0xe
	.uleb128 0x1c
	.byte	0x84
	.uleb128 0x7
	.byte	0x85
	.uleb128 0x6
	.byte	0x86
	.uleb128 0x5
	.byte	0x87
	.uleb128 0x4
	.byte	0x88
	.uleb128 0x3
	.byte	0x89
	.uleb128 0x2
	.byte	0x8e
	.uleb128 0x1
	.byte	0x4
	.4byte	.LCFI19-.LCFI18
	.byte	0xe
	.uleb128 0x28
	.byte	0x4
	.4byte	.LCFI20-.LCFI19
	.byte	0xa
	.byte	0xe
	.uleb128 0x1c
	.byte	0x4
	.4byte	.LCFI21-.LCFI20
	.byte	0xb
	.align	2
.LEFDE36:
.LSFDE38:
	.4byte	.LEFDE38-.LASFDE38
.LASFDE38:
	.4byte	.Lframe0
	.4byte	.LFB212
	.4byte	.LFE212-.LFB212
	.byte	0x4
	.4byte	.LCFI22-.LFB212
	.byte	0xe
	.uleb128 0x8
	.byte	0x83
	.uleb128 0x2
	.byte	0x8e
	.uleb128 0x1
	.align	2
.LEFDE38:
.LSFDE40:
	.4byte	.LEFDE40-.LASFDE40
.LASFDE40:
	.4byte	.Lframe0
	.4byte	.LFB210
	.4byte	.LFE210-.LFB210
	.byte	0x4
	.4byte	.LCFI23-.LFB210
	.byte	0xe
	.uleb128 0x8
	.byte	0x83
	.uleb128 0x2
	.byte	0x8e
	.uleb128 0x1
	.align	2
.LEFDE40:
.LSFDE42:
	.4byte	.LEFDE42-.LASFDE42
.LASFDE42:
	.4byte	.Lframe0
	.4byte	.LFB209
	.4byte	.LFE209-.LFB209
	.byte	0x4
	.4byte	.LCFI24-.LFB209
	.byte	0xe
	.uleb128 0x8
	.byte	0x83
	.uleb128 0x2
	.byte	0x8e
	.uleb128 0x1
	.align	2
.LEFDE42:
	.text
.Letext0:
	.file 3 "../../../../../../components/libraries/atomic/nrf_atomic.h"
	.file 4 "C:/Program Files (x86)/SEGGER/SEGGER Embedded Studio for ARM 4.50/include/stdint.h"