	.cpu cortex-m4
	.eabi_attribute 27, 1
	.eabi_attribute 28, 1
	.eabi_attribute 20, 1
	.eabi_attribute 21, 1
	.eabi_attribute 23, 3
	.eabi_attribute 24, 1
	.eabi_attribute 25, 1
	.eabi_attribute 26, 1
	.eabi_attribute 30, 1
	.eabi_attribute 34, 1
	.eabi_attribute 18, 4
	.file	"nrf_atflags.c"
	.text
.Ltext0:
	.section	.text.nrf_atflags_set,"ax",%progbits
	.align	1
	.global	nrf_atflags_set
	.syntax unified
	.thumb
	.thumb_func
	.fpu fpv4-sp-d16
	.type	nrf_atflags_set, %function
nrf_atflags_set:
.LVL0:
.LFB142:
	.file 1 "C:\\nRF5_SDK_15.0.0_a53641a\\components\\libraries\\atomic_flags\\nrf_atflags.c"
	.loc 1 66 1 view -0
	@ args = 0, pretend = 0, frame = 0
	@ frame_needed = 0, uses_anonymous_args = 0
	.loc 1 66 1 is_stmt 0 view .LVU1
	push	{r3, lr}
.LCFI0:
	.loc 1 67 5 is_stmt 1 view .LVU2
	.loc 1 67 67 is_stmt 0 view .LVU3
	lsrs	r3, r1, #5
	.loc 1 67 122 view .LVU4
	and	r1, r1, #31
.LVL1:
	.loc 1 67 26 view .LVU5
	movs	r2, #1
	lsl	r1, r2, r1
	add	r0, r0, r3, lsl #2
.LVL2:
	.loc 1 67 26 view .LVU6
	bl	nrf_atomic_u32_or
.LVL3:
	.loc 1 68 5 is_stmt 1 view .LVU7
	.loc 1 69 1 is_stmt 0 view .LVU8
	pop	{r3, pc}
.LFE142:
	.size	nrf_atflags_set, .-nrf_atflags_set
	.section	.text.nrf_atflags_fetch_set,"ax",%progbits
	.align	1
	.global	nrf_atflags_fetch_set
	.syntax unified
	.thumb
	.thumb_func
	.fpu fpv4-sp-d16
	.type	nrf_atflags_fetch_set, %function
nrf_atflags_fetch_set:
.LVL4:
.LFB143:
	.loc 1 73 1 is_stmt 1 view -0
	@ args = 0, pretend = 0, frame = 0
	@ frame_needed = 0, uses_anonymous_args = 0
	.loc 1 73 1 is_stmt 0 view .LVU10
	push	{r4, lr}
.LCFI1:
	.loc 1 74 5 is_stmt 1 view .LVU11
	.loc 1 74 60 is_stmt 0 view .LVU12
	lsrs	r3, r1, #5
	.loc 1 74 115 view .LVU13
	and	r4, r1, #31
	.loc 1 74 13 view .LVU14
	movs	r1, #1
.LVL5:
	.loc 1 74 13 view .LVU15
	lsls	r1, r1, r4
	add	r0, r0, r3, lsl #2
.LVL6:
	.loc 1 74 13 view .LVU16
	bl	nrf_atomic_u32_fetch_or
.LVL7:
	.loc 1 75 70 view .LVU17
	lsrs	r0, r0, r4
	.loc 1 76 1 view .LVU18
	and	r0, r0, #1
	pop	{r4, pc}
.LFE143:
	.size	nrf_atflags_fetch_set, .-nrf_atflags_fetch_set
	.section	.text.nrf_atflags_clear,"ax",%progbits
	.align	1
	.global	nrf_atflags_clear
	.syntax unified
	.thumb
	.thumb_func
	.fpu fpv4-sp-d16
	.type	nrf_atflags_clear, %function
nrf_atflags_clear:
.LVL8:
.LFB144:
	.loc 1 80 1 is_stmt 1 view -0
	@ args = 0, pretend = 0, frame = 0
	@ frame_needed = 0, uses_anonymous_args = 0
	.loc 1 80 1 is_stmt 0 view .LVU20
	push	{r3, lr}
.LCFI2:
	.loc 1 81 5 is_stmt 1 view .LVU21
	.loc 1 81 68 is_stmt 0 view .LVU22
	lsrs	r2, r1, #5
	.loc 1 81 124 view .LVU23
	and	r1, r1, #31
.LVL9:
	.loc 1 81 107 view .LVU24
	movs	r3, #1
	lsl	r1, r3, r1
	.loc 1 81 26 view .LVU25
	mvns	r1, r1
	add	r0, r0, r2, lsl #2
.LVL10:
	.loc 1 81 26 view .LVU26
	bl	nrf_atomic_u32_and
.LVL11:
	.loc 1 82 5 is_stmt 1 view .LVU27
	.loc 1 83 1 is_stmt 0 view .LVU28
	pop	{r3, pc}
.LFE144:
	.size	nrf_atflags_clear, .-nrf_atflags_clear
	.section	.text.nrf_atflags_fetch_clear,"ax",%progbits
	.align	1
	.global	nrf_atflags_fetch_clear
	.syntax unified
	.thumb
	.thumb_func
	.fpu fpv4-sp-d16
	.type	nrf_atflags_fetch_clear, %function
nrf_atflags_fetch_clear:
.LVL12:
.LFB145:
	.loc 1 87 1 is_stmt 1 view -0
	@ args = 0, pretend = 0, frame = 0
	@ frame_needed = 0, uses_anonymous_args = 0
	.loc 1 87 1 is_stmt 0 view .LVU30
	push	{r4, lr}
.LCFI3:
	.loc 1 88 5 is_stmt 1 view .LVU31
	.loc 1 88 61 is_stmt 0 view .LVU32
	lsrs	r3, r1, #5
	.loc 1 88 117 view .LVU33
	and	r4, r1, #31
	.loc 1 88 100 view .LVU34
	movs	r1, #1
.LVL13:
	.loc 1 88 100 view .LVU35
	lsls	r1, r1, r4
	.loc 1 88 13 view .LVU36
	mvns	r1, r1
	add	r0, r0, r3, lsl #2
.LVL14:
	.loc 1 88 13 view .LVU37
	bl	nrf_atomic_u32_fetch_and
.LVL15:
	.loc 1 89 70 view .LVU38
	lsrs	r0, r0, r4
	.loc 1 90 1 view .LVU39
	and	r0, r0, #1
	pop	{r4, pc}
.LFE145:
	.size	nrf_atflags_fetch_clear, .-nrf_atflags_fetch_clear
	.section	.text.nrf_atflags_get,"ax",%progbits
	.align	1
	.global	nrf_atflags_get
	.syntax unified
	.thumb
	.thumb_func
	.fpu fpv4-sp-d16
	.type	nrf_atflags_get, %function
nrf_atflags_get:
.LVL16:
.LFB146:
	.loc 1 94 1 is_stmt 1 view -0
	@ args = 0, pretend = 0, frame = 0
	@ frame_needed = 0, uses_anonymous_args = 0
	@ link register save eliminated.
	.loc 1 95 5 view .LVU41
	.loc 1 95 35 is_stmt 0 view .LVU42
	lsrs	r3, r1, #5
	.loc 1 95 20 view .LVU43
	ldr	r0, [r0, r3, lsl #2]
.LVL17:
	.loc 1 95 91 view .LVU44
	and	r1, r1, #31
.LVL18:
	.loc 1 95 124 view .LVU45
	lsrs	r0, r0, r1
	.loc 1 96 1 view .LVU46
	and	r0, r0, #1
	bx	lr
.LFE146:
	.size	nrf_atflags_get, .-nrf_atflags_get
	.section	.text.nrf_atflags_init,"ax",%progbits
	.align	1
	.global	nrf_atflags_init
	.syntax unified
	.thumb
	.thumb_func
	.fpu fpv4-sp-d16
	.type	nrf_atflags_init, %function
nrf_atflags_init:
.LVL19:
.LFB147:
	.loc 1 100 1 is_stmt 1 view -0
	@ args = 0, pretend = 0, frame = 0
	@ frame_needed = 0, uses_anonymous_args = 0
	@ link register save eliminated.
	.loc 1 100 1 is_stmt 0 view .LVU48
	push	{r4}
.LCFI4:
	mov	r4, r0
	.loc 1 101 5 is_stmt 1 view .LVU49
	.loc 1 101 54 is_stmt 0 view .LVU50
	subs	r2, r2, #1
.LVL20:
	.loc 1 101 59 view .LVU51
	lsrs	r2, r2, #5
.LVL21:
	.loc 1 101 14 view .LVU52
	adds	r0, r2, #1
.LVL22:
	.loc 1 103 5 is_stmt 1 view .LVU53
	.loc 1 103 8 is_stmt 0 view .LVU54
	cmp	r0, r1
	bls	.L14
	.loc 1 111 12 view .LVU55
	movs	r0, #0
.LVL23:
.L10:
	.loc 1 112 1 view .LVU56
	ldr	r4, [sp], #4
.LCFI5:
.LVL24:
	.loc 1 112 1 view .LVU57
	bx	lr
.LVL25:
.L14:
.LCFI6:
.LBB16:
	.loc 1 105 23 view .LVU58
	movs	r3, #0
.L11:
.LVL26:
	.loc 1 105 30 is_stmt 1 discriminator 1 view .LVU59
	.loc 1 105 9 is_stmt 0 discriminator 1 view .LVU60
	cmp	r3, r0
	bcs	.L10
	.loc 1 107 13 is_stmt 1 discriminator 3 view .LVU61
	.loc 1 107 24 is_stmt 0 discriminator 3 view .LVU62
	movs	r2, #0
	str	r2, [r4, r3, lsl #2]
	.loc 1 105 60 is_stmt 1 discriminator 3 view .LVU63
	.loc 1 105 61 is_stmt 0 discriminator 3 view .LVU64
	adds	r3, r3, #1
.LVL27:
	.loc 1 105 61 discriminator 3 view .LVU65
	b	.L11
.LBE16:
.LFE147:
	.size	nrf_atflags_init, .-nrf_atflags_init
	.section	.text.nrf_atflags_find_and_set_flag,"ax",%progbits
	.align	1
	.global	nrf_atflags_find_and_set_flag
	.syntax unified
	.thumb
	.thumb_func
	.fpu fpv4-sp-d16
	.type	nrf_atflags_find_and_set_flag, %function
nrf_atflags_find_and_set_flag:
.LVL28:
.LFB148:
	.loc 1 115 1 is_stmt 1 view -0
	@ args = 0, pretend = 0, frame = 0
	@ frame_needed = 0, uses_anonymous_args = 0
	.loc 1 115 1 is_stmt 0 view .LVU67
	push	{r4, r5, r6, r7, r8, lr}
.LCFI7:
	mov	r6, r0
	mov	r7, r1
	.loc 1 116 5 is_stmt 1 view .LVU68
.LBB17:
	.loc 1 116 10 view .LVU69
.LVL29:
	.loc 1 116 19 is_stmt 0 view .LVU70
	movs	r5, #0
	.loc 1 116 5 view .LVU71
	b	.L17
.LVL30:
.L24:
.LBB18:
.LBB19:
	.loc 1 131 13 is_stmt 1 view .LVU72
	.loc 1 131 55 is_stmt 0 view .LVU73
	ldr	r3, [r8]
	.loc 1 131 26 view .LVU74
	mvns	r3, r3
.LVL31:
.LBB20:
.LBI20:
	.file 2 "../../../../../../components/toolchain/cmsis/include/cmsis_gcc.h"
	.loc 2 526 55 is_stmt 1 view .LVU75
.LBB21:
	.loc 2 528 3 view .LVU76
	.loc 2 531 4 view .LVU77
	.syntax unified
@ 531 "../../../../../../components/toolchain/cmsis/include/cmsis_gcc.h" 1
	rbit r3, r3
@ 0 "" 2
.LVL32:
	.loc 2 544 3 view .LVU78
	.loc 2 544 3 is_stmt 0 view .LVU79
	.thumb
	.syntax unified
.LBE21:
.LBE20:
	.loc 1 131 26 view .LVU80
	clz	r3, r3
.LVL33:
.L18:
	.loc 1 131 26 view .LVU81
.LBE19:
	.loc 1 120 15 is_stmt 1 view .LVU82
	cmp	r3, #31
	bhi	.L19
.LBB22:
	.loc 1 122 13 view .LVU83
	.loc 1 122 22 is_stmt 0 view .LVU84
	add	r4, r3, r5, lsl #5
.LVL34:
	.loc 1 123 13 is_stmt 1 view .LVU85
	.loc 1 123 16 is_stmt 0 view .LVU86
	cmp	r7, r4
	bls	.L19
	.loc 1 127 13 is_stmt 1 view .LVU87
	.loc 1 127 18 is_stmt 0 view .LVU88
	mov	r1, r4
	mov	r0, r6
	bl	nrf_atflags_fetch_set
.LVL35:
	.loc 1 127 16 view .LVU89
	cmp	r0, #0
	bne	.L24
.LVL36:
.L16:
	.loc 1 127 16 view .LVU90
.LBE22:
.LBE18:
.LBE17:
	.loc 1 136 1 view .LVU91
	mov	r0, r4
	pop	{r4, r5, r6, r7, r8, pc}
.LVL37:
.L19:
.LBB26:
	.loc 1 116 84 is_stmt 1 discriminator 2 view .LVU92
	.loc 1 116 85 is_stmt 0 discriminator 2 view .LVU93
	adds	r5, r5, #1
.LVL38:
.L17:
	.loc 1 116 26 is_stmt 1 discriminator 1 view .LVU94
	.loc 1 116 43 is_stmt 0 discriminator 1 view .LVU95
	subs	r3, r7, #1
	.loc 1 116 48 discriminator 1 view .LVU96
	lsrs	r3, r3, #5
	.loc 1 116 79 discriminator 1 view .LVU97
	adds	r3, r3, #1
	.loc 1 116 5 discriminator 1 view .LVU98
	cmp	r3, r5
	bls	.L25
.LBB25:
	.loc 1 119 9 is_stmt 1 view .LVU99
	.loc 1 119 60 is_stmt 0 view .LVU100
	add	r8, r6, r5, lsl #2
	ldr	r3, [r6, r5, lsl #2]
	.loc 1 119 31 view .LVU101
	mvns	r3, r3
.LVL39:
.LBB23:
.LBI23:
	.loc 2 526 55 is_stmt 1 view .LVU102
.LBB24:
	.loc 2 528 3 view .LVU103
	.loc 2 531 4 view .LVU104
	.syntax unified
@ 531 "../../../../../../components/toolchain/cmsis/include/cmsis_gcc.h" 1
	rbit r3, r3
@ 0 "" 2
.LVL40:
	.loc 2 544 3 view .LVU105
	.loc 2 544 3 is_stmt 0 view .LVU106
	.thumb
	.syntax unified
.LBE24:
.LBE23:
	.loc 1 119 31 view .LVU107
	clz	r3, r3
.LVL41:
	.loc 1 120 9 is_stmt 1 view .LVU108
	.loc 1 120 15 is_stmt 0 view .LVU109
	b	.L18
.LVL42:
.L25:
	.loc 1 120 15 view .LVU110
.LBE25:
.LBE26:
	.loc 1 135 12 view .LVU111
	mov	r4, r7
	b	.L16
.LFE148:
	.size	nrf_atflags_find_and_set_flag, .-nrf_atflags_find_and_set_flag
	.section	.text.nrf_atflags_find_and_clear_flag,"ax",%progbits
	.align	1
	.global	nrf_atflags_find_and_clear_flag
	.syntax unified
	.thumb
	.thumb_func
	.fpu fpv4-sp-d16
	.type	nrf_atflags_find_and_clear_flag, %function
nrf_atflags_find_and_clear_flag:
.LVL43:
.LFB149:
	.loc 1 139 1 is_stmt 1 view -0
	@ args = 0, pretend = 0, frame = 0
	@ frame_needed = 0, uses_anonymous_args = 0
	.loc 1 139 1 is_stmt 0 view .LVU113
	push	{r4, r5, r6, r7, r8, lr}
.LCFI8:
	mov	r6, r0
	mov	r7, r1
	.loc 1 140 5 is_stmt 1 view .LVU114
.LBB27:
	.loc 1 140 10 view .LVU115
.LVL44:
	.loc 1 140 19 is_stmt 0 view .LVU116
	movs	r5, #0
	.loc 1 140 5 view .LVU117
	b	.L27
.LVL45:
.L34:
.LBB28:
.LBB29:
	.loc 1 155 13 is_stmt 1 view .LVU118
	.loc 1 155 25 is_stmt 0 view .LVU119
	ldr	r3, [r8]
.LVL46:
.LBB30:
.LBI30:
	.loc 2 526 55 is_stmt 1 view .LVU120
.LBB31:
	.loc 2 528 3 view .LVU121
	.loc 2 531 4 view .LVU122
	.syntax unified
@ 531 "../../../../../../components/toolchain/cmsis/include/cmsis_gcc.h" 1
	rbit r3, r3
@ 0 "" 2
.LVL47:
	.loc 2 544 3 view .LVU123
	.loc 2 544 3 is_stmt 0 view .LVU124
	.thumb
	.syntax unified
.LBE31:
.LBE30:
	.loc 1 155 25 view .LVU125
	clz	r3, r3
.LVL48:
.L28:
	.loc 1 155 25 view .LVU126
.LBE29:
	.loc 1 144 15 is_stmt 1 view .LVU127
	cmp	r3, #31
	bhi	.L29
.LBB32:
	.loc 1 146 13 view .LVU128
	.loc 1 146 22 is_stmt 0 view .LVU129
	add	r4, r3, r5, lsl #5
.LVL49:
	.loc 1 147 13 is_stmt 1 view .LVU130
	.loc 1 147 16 is_stmt 0 view .LVU131
	cmp	r7, r4
	bls	.L29
	.loc 1 151 13 is_stmt 1 view .LVU132
	.loc 1 151 17 is_stmt 0 view .LVU133
	mov	r1, r4
	mov	r0, r6
	bl	nrf_atflags_fetch_clear
.LVL50:
	.loc 1 151 16 view .LVU134
	cmp	r0, #0
	beq	.L34
.LVL51:
.L26:
	.loc 1 151 16 view .LVU135
.LBE32:
.LBE28:
.LBE27:
	.loc 1 160 1 view .LVU136
	mov	r0, r4
	pop	{r4, r5, r6, r7, r8, pc}
.LVL52:
.L29:
.LBB36:
	.loc 1 140 84 is_stmt 1 discriminator 2 view .LVU137
	.loc 1 140 85 is_stmt 0 discriminator 2 view .LVU138
	adds	r5, r5, #1
.LVL53:
.L27:
	.loc 1 140 26 is_stmt 1 discriminator 1 view .LVU139
	.loc 1 140 43 is_stmt 0 discriminator 1 view .LVU140
	subs	r3, r7, #1
	.loc 1 140 48 discriminator 1 view .LVU141
	lsrs	r3, r3, #5
	.loc 1 140 79 discriminator 1 view .LVU142
	adds	r3, r3, #1
	.loc 1 140 5 discriminator 1 view .LVU143
	cmp	r3, r5
	bls	.L35
.LBB35:
	.loc 1 143 9 is_stmt 1 view .LVU144
	.loc 1 143 58 is_stmt 0 view .LVU145
	add	r8, r6, r5, lsl #2
	.loc 1 143 30 view .LVU146
	ldr	r3, [r6, r5, lsl #2]
.LVL54:
.LBB33:
.LBI33:
	.loc 2 526 55 is_stmt 1 view .LVU147
.LBB34:
	.loc 2 528 3 view .LVU148
	.loc 2 531 4 view .LVU149
	.syntax unified
@ 531 "../../../../../../components/toolchain/cmsis/include/cmsis_gcc.h" 1
	rbit r3, r3
@ 0 "" 2
.LVL55:
	.loc 2 544 3 view .LVU150
	.loc 2 544 3 is_stmt 0 view .LVU151
	.thumb
	.syntax unified
.LBE34:
.LBE33:
	.loc 1 143 30 view .LVU152
	clz	r3, r3
.LVL56:
	.loc 1 144 9 is_stmt 1 view .LVU153
	.loc 1 144 15 is_stmt 0 view .LVU154
	b	.L28
.LVL57:
.L35:
	.loc 1 144 15 view .LVU155
.LBE35:
.LBE36:
	.loc 1 159 12 view .LVU156
	mov	r4, r7
	b	.L26
.LFE149:
	.size	nrf_atflags_find_and_clear_flag, .-nrf_atflags_find_and_clear_flag
	.section	.debug_frame,"",%progbits
.Lframe0:
	.4byte	.LECIE0-.LSCIE0
.LSCIE0:
	.4byte	0xffffffff
	.byte	0x3
	.ascii	"\000"
	.uleb128 0x1
	.sleb128 -4
	.uleb128 0xe
	.byte	0xc
	.uleb128 0xd
	.uleb128 0
	.align	2
.LECIE0:
.LSFDE0:
	.4byte	.LEFDE0-.LASFDE0
.LASFDE0:
	.4byte	.Lframe0
	.4byte	.LFB142
	.4byte	.LFE142-.LFB142
	.byte	0x4
	.4byte	.LCFI0-.LFB142
	.byte	0xe
	.uleb128 0x8
	.byte	0x83
	.uleb128 0x2
	.byte	0x8e
	.uleb128 0x1
	.align	2
.LEFDE0:
.LSFDE2:
	.4byte	.LEFDE2-.LASFDE2
.LASFDE2:
	.4byte	.Lframe0
	.4byte	.LFB143
	.4byte	.LFE143-.LFB143
	.byte	0x4
	.4byte	.LCFI1-.LFB143
	.byte	0xe
	.uleb128 0x8
	.byte	0x84
	.uleb128 0x2
	.byte	0x8e
	.uleb128 0x1
	.align	2
.LEFDE2:
.LSFDE4:
	.4byte	.LEFDE4-.LASFDE4
.LASFDE4:
	.4byte	.Lframe0
	.4byte	.LFB144
	.4byte	.LFE144-.LFB144
	.byte	0x4
	.4byte	.LCFI2-.LFB144
	.byte	0xe
	.uleb128 0x8
	.byte	0x83
	.uleb128 0x2
	.byte	0x8e
	.uleb128 0x1
	.align	2
.LEFDE4:
.LSFDE6:
	.4byte	.LEFDE6-.LASFDE6
.LASFDE6:
	.4byte	.Lframe0
	.4byte	.LFB145
	.4byte	.LFE145-.LFB145
	.byte	0x4
	.4byte	.LCFI3-.LFB145
	.byte	0xe
	.uleb128 0x8
	.byte	0x84
	.uleb128 0x2
	.byte	0x8e
	.uleb128 0x1
	.align	2
.LEFDE6:
.LSFDE8:
	.4byte	.LEFDE8-.LASFDE8
.LASFDE8:
	.4byte	.Lframe0
	.4byte	.LFB146
	.4byte	.LFE146-.LFB146
	.align	2
.LEFDE8:
.LSFDE10:
	.4byte	.LEFDE10-.LASFDE10
.LASFDE10:
	.4byte	.Lframe0
	.4byte	.LFB147
	.4byte	.LFE147-.LFB147
	.byte	0x4
	.4byte	.LCFI4-.LFB147
	.byte	0xe
	.uleb128 0x4
	.byte	0x84
	.uleb128 0x1
	.byte	0x4
	.4byte	.LCFI5-.LCFI4
	.byte	0xa
	.byte	0xc4
	.byte	0xe
	.uleb128 0
	.byte	0x4
	.4byte	.LCFI6-.LCFI5
	.byte	0xb
	.align	2
.LEFDE10:
.LSFDE12:
	.4byte	.LEFDE12-.LASFDE12
.LASFDE12:
	.4byte	.Lframe0
	.4byte	.LFB148
	.4byte	.LFE148-.LFB148
	.byte	0x4
	.4byte	.LCFI7-.LFB148
	.byte	0xe
	.uleb128 0x18
	.byte	0x84
	.uleb128 0x6
	.byte	0x85
	.uleb128 0x5
	.byte	0x86
	.uleb128 0x4
	.byte	0x87
	.uleb128 0x3
	.byte	0x88
	.uleb128 0x2
	.byte	0x8e
	.uleb128 0x1
	.align	2
.LEFDE12:
.LSFDE14:
	.4byte	.LEFDE14-.LASFDE14
.LASFDE14:
	.4byte	.Lframe0
	.4byte	.LFB149
	.4byte	.LFE149-.LFB149
	.byte	0x4
	.4byte	.LCFI8-.LFB149
	.byte	0xe
	.uleb128 0x18
	.byte	0x84
	.uleb128 0x6
	.byte	0x85
	.uleb128 0x5
	.byte	0x86
	.uleb128 0x4
	.byte	0x87
	.uleb128 0x3
	.byte	0x88
	.uleb128 0x2
	.byte	0x8e
	.uleb128 0x1
	.align	2
.LEFDE14:
	.text
.Letext0:
	.file 3 "C:/Program Files (x86)/SEGGER/SEGGER Embedded Studio for ARM 4.50/include/__crossworks.h"