	.cpu cortex-m4
	.eabi_attribute 27, 1
	.eabi_attribute 28, 1
	.eabi_attribute 20, 1
	.eabi_attribute 21, 1
	.eabi_attribute 23, 3
	.eabi_attribute 24, 1
	.eabi_attribute 25, 1
	.eabi_attribute 26, 1
	.eabi_attribute 30, 1
	.eabi_attribute 34, 1
	.eabi_attribute 18, 4
	.file	"nrf_queue.c"
	.text
.Ltext0:
	.section	.text.queue_read,"ax",%progbits
	.align	1
	.syntax unified
	.thumb
	.thumb_func
	.fpu fpv4-sp-d16
	.type	queue_read, %function
queue_read:
.LVL0:
.LFB207:
	.file 1 "C:\\nRF5_SDK_15.0.0_a53641a\\components\\libraries\\queue\\nrf_queue.c"
	.loc 1 400 1 view -0
	@ args = 0, pretend = 0, frame = 0
	@ frame_needed = 0, uses_anonymous_args = 0
	.loc 1 400 1 is_stmt 0 view .LVU1
	push	{r4, r5, r6, r7, r8, lr}
.LCFI0:
	mov	r4, r0
	mov	r8, r1
	mov	r6, r2
	.loc 1 401 5 is_stmt 1 view .LVU2
	.loc 1 401 27 is_stmt 0 view .LVU3
	ldr	r3, [r0]
	.loc 1 401 12 view .LVU4
	ldr	r7, [r3]
.LVL1:
	.loc 1 402 5 is_stmt 1 view .LVU5
	.loc 1 402 12 is_stmt 0 view .LVU6
	ldr	r5, [r3, #4]
.LVL2:
	.loc 1 403 5 is_stmt 1 view .LVU7
	.loc 1 403 58 is_stmt 0 view .LVU8
	cmp	r7, r5
	bhi	.L2
	.loc 1 403 58 discriminator 1 view .LVU9
	subs	r5, r5, r7
.LVL3:
.L3:
	.loc 1 404 5 is_stmt 1 discriminator 4 view .LVU10
	.loc 1 404 61 is_stmt 0 discriminator 4 view .LVU11
	ldr	r1, [r4, #4]
.LVL4:
	.loc 1 405 61 discriminator 4 view .LVU12
	ldr	r2, [r4, #12]
.LVL5:
	.loc 1 405 44 discriminator 4 view .LVU13
	mla	r1, r7, r2, r1
.LVL6:
	.loc 1 407 5 is_stmt 1 discriminator 4 view .LVU14
	.loc 1 407 8 is_stmt 0 discriminator 4 view .LVU15
	cmp	r5, r6
	bcc	.L4
	.loc 1 409 9 is_stmt 1 view .LVU16
	mul	r2, r6, r2
	mov	r0, r8
.LVL7:
	.loc 1 409 9 is_stmt 0 view .LVU17
	bl	memcpy
.LVL8:
	.loc 1 413 9 is_stmt 1 view .LVU18
	.loc 1 413 40 is_stmt 0 view .LVU19
	add	r6, r6, r7
.LVL9:
	.loc 1 413 67 view .LVU20
	ldr	r3, [r4, #8]
	.loc 1 415 30 view .LVU21
	cmp	r6, r3
	bls	.L5
	movs	r6, #0
.L5:
	.loc 1 413 16 view .LVU22
	ldr	r3, [r4]
	.loc 1 413 30 view .LVU23
	str	r6, [r3]
.LVL10:
.L1:
	.loc 1 431 1 view .LVU24
	pop	{r4, r5, r6, r7, r8, pc}
.LVL11:
.L2:
	.loc 1 403 68 discriminator 2 view .LVU25
	ldr	r5, [r0, #8]
.LVL12:
	.loc 1 403 79 discriminator 2 view .LVU26
	subs	r5, r5, r7
	.loc 1 403 58 discriminator 2 view .LVU27
	adds	r5, r5, #1
	b	.L3
.LVL13:
.L4:
.LBB30:
	.loc 1 419 9 is_stmt 1 view .LVU28
	.loc 1 419 16 is_stmt 0 view .LVU29
	mul	r7, r5, r2
.LVL14:
	.loc 1 420 9 is_stmt 1 view .LVU30
	mov	r2, r7
	mov	r0, r8
.LVL15:
	.loc 1 420 9 is_stmt 0 view .LVU31
	bl	memcpy
.LVL16:
	.loc 1 424 9 is_stmt 1 view .LVU32
	.loc 1 424 16 is_stmt 0 view .LVU33
	subs	r5, r6, r5
.LVL17:
	.loc 1 425 9 is_stmt 1 view .LVU34
	.loc 1 427 39 is_stmt 0 view .LVU35
	ldr	r2, [r4, #12]
	.loc 1 425 9 view .LVU36
	mul	r2, r5, r2
	ldr	r1, [r4, #4]
	add	r0, r8, r7
	bl	memcpy
.LVL18:
	.loc 1 429 9 is_stmt 1 view .LVU37
	.loc 1 429 16 is_stmt 0 view .LVU38
	ldr	r3, [r4]
	.loc 1 429 30 view .LVU39
	str	r5, [r3]
.LBE30:
	.loc 1 431 1 view .LVU40
	b	.L1
.LFE207:
	.size	queue_read, .-queue_read
	.section	.rodata.nrf_queue_is_full.str1.4,"aMS",%progbits,1
	.align	2
.LC0:
	.ascii	"C:\\nRF5_SDK_15.0.0_a53641a\\components\\libraries\\"
	.ascii	"queue\\nrf_queue.c\000"
	.section	.text.nrf_queue_is_full,"ax",%progbits
	.align	1
	.global	nrf_queue_is_full
	.syntax unified
	.thumb
	.thumb_func
	.fpu fpv4-sp-d16
	.type	nrf_queue_is_full, %function
nrf_queue_is_full:
.LVL19:
.LFB201:
	.loc 1 137 1 is_stmt 1 view -0
	@ args = 0, pretend = 0, frame = 0
	@ frame_needed = 0, uses_anonymous_args = 0
	.loc 1 137 1 is_stmt 0 view .LVU42
	push	{r4, r5, r6, lr}
.LCFI1:
	.loc 1 138 5 is_stmt 1 view .LVU43
	.loc 1 138 14 view .LVU44
	.loc 1 138 17 is_stmt 0 view .LVU45
	mov	r5, r0
	cbz	r0, .L14
.LVL20:
.L9:
	.loc 1 138 141 is_stmt 1 discriminator 5 view .LVU46
	.loc 1 139 5 discriminator 5 view .LVU47
	.loc 1 139 27 is_stmt 0 discriminator 5 view .LVU48
	ldr	r3, [r5]
	.loc 1 139 12 discriminator 5 view .LVU49
	ldr	r6, [r3]
.LVL21:
	.loc 1 140 5 is_stmt 1 discriminator 5 view .LVU50
	.loc 1 140 12 is_stmt 0 discriminator 5 view .LVU51
	ldr	r4, [r3, #4]
.LVL22:
	.loc 1 142 5 is_stmt 1 discriminator 5 view .LVU52
.LBB31:
.LBI31:
	.loc 1 117 22 discriminator 5 view .LVU53
.LBB32:
	.loc 1 119 5 discriminator 5 view .LVU54
	.loc 1 119 14 discriminator 5 view .LVU55
	.loc 1 119 17 is_stmt 0 discriminator 5 view .LVU56
	cbz	r5, .L15
.L10:
	.loc 1 119 141 is_stmt 1 view .LVU57
	.loc 1 120 5 view .LVU58
	.loc 1 120 26 is_stmt 0 view .LVU59
	ldr	r3, [r5, #8]
	.loc 1 120 46 view .LVU60
	cmp	r4, r3
	bcs	.L12
	adds	r0, r4, #1
.L11:
.LVL23:
	.loc 1 120 46 view .LVU61
.LBE32:
.LBE31:
	.loc 1 143 1 view .LVU62
	cmp	r6, r0
	ite	ne
	movne	r0, #0
	moveq	r0, #1
	pop	{r4, r5, r6, pc}
.LVL24:
.L14:
	.loc 1 138 17 is_stmt 1 discriminator 4 view .LVU63
	ldr	r1, .L16
	movs	r0, #138
.LVL25:
	.loc 1 138 17 is_stmt 0 discriminator 4 view .LVU64
	bl	assert_nrf_callback
.LVL26:
	b	.L9
.LVL27:
.L15:
.LBB34:
.LBB33:
	.loc 1 119 17 is_stmt 1 view .LVU65
	ldr	r1, .L16
	movs	r0, #119
	bl	assert_nrf_callback
.LVL28:
	b	.L10
.L12:
	.loc 1 120 46 is_stmt 0 view .LVU66
	movs	r0, #0
	b	.L11
.L17:
	.align	2
.L16:
	.word	.LC0
.LBE33:
.LBE34:
.LFE201:
	.size	nrf_queue_is_full, .-nrf_queue_is_full
	.section	.text.nrf_queue_push,"ax",%progbits
	.align	1
	.global	nrf_queue_push
	.syntax unified
	.thumb
	.thumb_func
	.fpu fpv4-sp-d16
	.type	nrf_queue_push, %function
nrf_queue_push:
.LVL29:
.LFB202:
	.loc 1 146 1 is_stmt 1 view -0
	@ args = 0, pretend = 0, frame = 8
	@ frame_needed = 0, uses_anonymous_args = 0
	.loc 1 146 1 is_stmt 0 view .LVU68
	push	{r4, r5, r6, r7, r8, r9, lr}
.LCFI2:
	sub	sp, sp, #12
.LCFI3:
	mov	r5, r1
	.loc 1 147 5 is_stmt 1 view .LVU69
.LVL30:
	.loc 1 149 5 view .LVU70
	.loc 1 149 14 view .LVU71
	.loc 1 149 17 is_stmt 0 view .LVU72
	mov	r4, r0
	cmp	r0, #0
	beq	.L42
.LVL31:
.L19:
	.loc 1 149 141 is_stmt 1 discriminator 1 view .LVU73
	.loc 1 150 5 discriminator 1 view .LVU74
	.loc 1 150 14 discriminator 1 view .LVU75
	.loc 1 150 17 is_stmt 0 discriminator 1 view .LVU76
	cmp	r5, #0
	beq	.L43
.L20:
	.loc 1 150 141 is_stmt 1 discriminator 5 view .LVU77
.LBB35:
	.loc 1 152 7 discriminator 5 view .LVU78
	.loc 1 152 15 is_stmt 0 discriminator 5 view .LVU79
	movs	r3, #0
	strb	r3, [sp, #7]
	.loc 1 152 32 is_stmt 1 discriminator 5 view .LVU80
	add	r0, sp, #7
	bl	app_util_critical_region_enter
.LVL32:
	.loc 1 152 77 discriminator 5 view .LVU81
	.loc 1 153 4 discriminator 5 view .LVU82
	.loc 1 153 19 is_stmt 0 discriminator 5 view .LVU83
	mov	r0, r4
	bl	nrf_queue_is_full
.LVL33:
	.loc 1 155 5 is_stmt 1 discriminator 5 view .LVU84
	.loc 1 155 8 is_stmt 0 discriminator 5 view .LVU85
	mov	r9, r0
	cbz	r0, .L21
	.loc 1 155 29 discriminator 1 view .LVU86
	ldrb	r3, [r4, #16]	@ zero_extendqisi2
	.loc 1 155 18 discriminator 1 view .LVU87
	cmp	r3, #0
	bne	.L37
.L21:
.LBB36:
	.loc 1 158 9 is_stmt 1 view .LVU88
	.loc 1 158 35 is_stmt 0 view .LVU89
	ldr	r7, [r4]
	.loc 1 158 16 view .LVU90
	ldr	r8, [r7, #4]
.LVL34:
	.loc 1 159 9 is_stmt 1 view .LVU91
	.loc 1 159 31 is_stmt 0 view .LVU92
	ldr	r6, [r7, #4]
.LVL35:
.LBB37:
.LBI37:
	.loc 1 117 22 is_stmt 1 view .LVU93
.LBB38:
	.loc 1 119 5 view .LVU94
	.loc 1 119 14 view .LVU95
	.loc 1 119 17 is_stmt 0 view .LVU96
	cbz	r4, .L44
.LVL36:
.L23:
	.loc 1 119 141 is_stmt 1 view .LVU97
	.loc 1 120 5 view .LVU98
	.loc 1 120 26 is_stmt 0 view .LVU99
	ldr	r3, [r4, #8]
	.loc 1 120 46 view .LVU100
	cmp	r6, r3
	bcs	.L38
	adds	r6, r6, #1
.LVL37:
.L24:
	.loc 1 120 46 view .LVU101
.LBE38:
.LBE37:
	.loc 1 159 29 view .LVU102
	str	r6, [r7, #4]
	.loc 1 160 9 is_stmt 1 view .LVU103
	.loc 1 160 12 is_stmt 0 view .LVU104
	cmp	r9, #0
	beq	.L25
	.loc 1 163 13 is_stmt 1 discriminator 5 view .LVU105
	.loc 1 163 286 discriminator 5 view .LVU106
	.loc 1 164 13 discriminator 5 view .LVU107
	.loc 1 164 71 is_stmt 0 discriminator 5 view .LVU108
	ldr	r7, [r4]
	.loc 1 164 36 discriminator 5 view .LVU109
	ldr	r6, [r7]
.LVL38:
.LBB40:
.LBI40:
	.loc 1 117 22 is_stmt 1 discriminator 5 view .LVU110
.LBB41:
	.loc 1 119 5 discriminator 5 view .LVU111
	.loc 1 119 14 discriminator 5 view .LVU112
	.loc 1 119 17 is_stmt 0 discriminator 5 view .LVU113
	cbz	r4, .L45
.L26:
	.loc 1 119 141 is_stmt 1 view .LVU114
	.loc 1 120 5 view .LVU115
	.loc 1 120 26 is_stmt 0 view .LVU116
	ldr	r3, [r4, #8]
	.loc 1 120 46 view .LVU117
	cmp	r6, r3
	bcs	.L39
	adds	r6, r6, #1
.LVL39:
.L27:
	.loc 1 120 46 view .LVU118
.LBE41:
.LBE40:
	.loc 1 164 34 view .LVU119
	str	r6, [r7]
.L25:
	.loc 1 168 9 is_stmt 1 view .LVU120
	.loc 1 168 24 is_stmt 0 view .LVU121
	ldr	r2, [r4, #12]
	subs	r3, r2, #1
	cmp	r3, #7
	bhi	.L28
	tbb	[pc, r3]
.L30:
	.byte	(.L33-.L30)/2
	.byte	(.L32-.L30)/2
	.byte	(.L28-.L30)/2
	.byte	(.L31-.L30)/2
	.byte	(.L28-.L30)/2
	.byte	(.L28-.L30)/2
	.byte	(.L28-.L30)/2
	.byte	(.L29-.L30)/2
.LVL40:
	.p2align 1
.L42:
	.loc 1 168 24 view .LVU122
.LBE36:
.LBE35:
	.loc 1 149 17 is_stmt 1 discriminator 4 view .LVU123
	ldr	r1, .L46
.LVL41:
	.loc 1 149 17 is_stmt 0 discriminator 4 view .LVU124
	movs	r0, #149
.LVL42:
	.loc 1 149 17 discriminator 4 view .LVU125
	bl	assert_nrf_callback
.LVL43:
	b	.L19
.L43:
	.loc 1 150 17 is_stmt 1 discriminator 4 view .LVU126
	ldr	r1, .L46
	movs	r0, #150
	bl	assert_nrf_callback
.LVL44:
	b	.L20
.LVL45:
.L44:
.LBB51:
.LBB49:
.LBB43:
.LBB39:
	.loc 1 119 17 view .LVU127
	ldr	r1, .L46
	movs	r0, #119
.LVL46:
	.loc 1 119 17 is_stmt 0 view .LVU128
	bl	assert_nrf_callback
.LVL47:
	b	.L23
.L38:
	.loc 1 120 46 view .LVU129
	movs	r6, #0
.LVL48:
	.loc 1 120 46 view .LVU130
	b	.L24
.LVL49:
.L45:
	.loc 1 120 46 view .LVU131
.LBE39:
.LBE43:
.LBB44:
.LBB42:
	.loc 1 119 17 is_stmt 1 view .LVU132
	ldr	r1, .L46
	movs	r0, #119
	bl	assert_nrf_callback
.LVL50:
	b	.L26
.L39:
	.loc 1 120 46 is_stmt 0 view .LVU133
	movs	r6, #0
.LVL51:
	.loc 1 120 46 view .LVU134
	b	.L27
.LVL52:
.L33:
	.loc 1 120 46 view .LVU135
.LBE42:
.LBE44:
	.loc 1 171 17 is_stmt 1 view .LVU136
	.loc 1 171 36 is_stmt 0 view .LVU137
	ldr	r3, [r4, #4]
	.loc 1 171 61 view .LVU138
	ldrb	r2, [r5]	@ zero_extendqisi2
	.loc 1 171 59 view .LVU139
	strb	r2, [r3, r8]
	.loc 1 172 17 is_stmt 1 view .LVU140
.L34:
	.loc 1 194 9 view .LVU141
.LVL53:
.LBB45:
.LBI45:
	.loc 1 129 22 view .LVU142
.LBB46:
	.loc 1 131 5 view .LVU143
	.loc 1 131 27 is_stmt 0 view .LVU144
	ldr	r2, [r4]
	.loc 1 131 12 view .LVU145
	ldr	r1, [r2]
.LVL54:
	.loc 1 132 5 is_stmt 1 view .LVU146
	.loc 1 132 12 is_stmt 0 view .LVU147
	ldr	r3, [r2, #4]
.LVL55:
	.loc 1 133 5 is_stmt 1 view .LVU148
	.loc 1 133 45 is_stmt 0 view .LVU149
	cmp	r1, r3
	bhi	.L35
	subs	r3, r3, r1
.LVL56:
.L36:
	.loc 1 133 45 view .LVU150
.LBE46:
.LBE45:
	.loc 1 195 9 is_stmt 1 view .LVU151
	.loc 1 195 26 is_stmt 0 view .LVU152
	ldr	r1, [r2, #8]
	.loc 1 195 12 view .LVU153
	cmp	r1, r3
	bcs	.L40
	.loc 1 197 13 is_stmt 1 view .LVU154
	.loc 1 197 44 is_stmt 0 view .LVU155
	str	r3, [r2, #8]
.LBE49:
.LBE51:
	.loc 1 147 16 view .LVU156
	movs	r4, #0
.LVL57:
.L22:
.LBB52:
	.loc 1 205 5 is_stmt 1 view .LVU157
	ldrb	r0, [sp, #7]	@ zero_extendqisi2
	bl	app_util_critical_region_exit
.LVL58:
.LBE52:
	.loc 1 205 50 view .LVU158
	.loc 1 207 5 view .LVU159
	.loc 1 207 306 view .LVU160
	.loc 1 208 5 view .LVU161
	.loc 1 209 1 is_stmt 0 view .LVU162
	mov	r0, r4
	add	sp, sp, #12
.LCFI4:
	@ sp needed
	pop	{r4, r5, r6, r7, r8, r9, pc}
.LVL59:
.L32:
.LCFI5:
.LBB53:
.LBB50:
	.loc 1 175 17 is_stmt 1 view .LVU163
	.loc 1 175 37 is_stmt 0 view .LVU164
	ldr	r3, [r4, #4]
	.loc 1 175 62 view .LVU165
	ldrh	r2, [r5]
	.loc 1 175 60 view .LVU166
	strh	r2, [r3, r8, lsl #1]	@ movhi
	.loc 1 176 17 is_stmt 1 view .LVU167
	b	.L34
.L31:
	.loc 1 179 17 view .LVU168
	.loc 1 179 37 is_stmt 0 view .LVU169
	ldr	r3, [r4, #4]
	.loc 1 179 62 view .LVU170
	ldr	r2, [r5]
	.loc 1 179 60 view .LVU171
	str	r2, [r3, r8, lsl #2]
	.loc 1 180 17 is_stmt 1 view .LVU172
	b	.L34
.L29:
	.loc 1 183 17 view .LVU173
	.loc 1 183 37 is_stmt 0 view .LVU174
	ldr	r3, [r4, #4]
	.loc 1 183 48 view .LVU175
	add	r3, r3, r8, lsl #3
	.loc 1 183 62 view .LVU176
	ldrd	r0, [r5]
	.loc 1 183 60 view .LVU177
	strd	r0, [r3]
	.loc 1 184 17 is_stmt 1 view .LVU178
	b	.L34
.L28:
	.loc 1 187 17 view .LVU179
	.loc 1 187 48 is_stmt 0 view .LVU180
	ldr	r0, [r4, #4]
	.loc 1 187 17 view .LVU181
	mov	r1, r5
	mla	r0, r8, r2, r0
	bl	memcpy
.LVL60:
	.loc 1 190 17 is_stmt 1 view .LVU182
	b	.L34
.LVL61:
.L35:
.LBB48:
.LBB47:
	.loc 1 133 55 is_stmt 0 view .LVU183
	ldr	r0, [r4, #8]
	.loc 1 133 66 view .LVU184
	subs	r1, r0, r1
.LVL62:
	.loc 1 133 74 view .LVU185
	add	r3, r3, r1
.LVL63:
	.loc 1 133 45 view .LVU186
	adds	r3, r3, #1
	b	.L36
.LVL64:
.L37:
	.loc 1 133 45 view .LVU187
.LBE47:
.LBE48:
.LBE50:
	.loc 1 202 16 view .LVU188
	movs	r4, #4
.LVL65:
	.loc 1 202 16 view .LVU189
	b	.L22
.LVL66:
.L40:
	.loc 1 202 16 view .LVU190
.LBE53:
	.loc 1 147 16 view .LVU191
	movs	r4, #0
.LVL67:
	.loc 1 147 16 view .LVU192
	b	.L22
.L47:
	.align	2
.L46:
	.word	.LC0
.LFE202:
	.size	nrf_queue_push, .-nrf_queue_push
	.section	.text.nrf_queue_read,"ax",%progbits
	.align	1
	.global	nrf_queue_read
	.syntax unified
	.thumb
	.thumb_func
	.fpu fpv4-sp-d16
	.type	nrf_queue_read, %function
nrf_queue_read:
.LVL68:
.LFB208:
	.loc 1 436 1 is_stmt 1 view -0
	@ args = 0, pretend = 0, frame = 8
	@ frame_needed = 0, uses_anonymous_args = 0
	.loc 1 436 1 is_stmt 0 view .LVU194
	push	{r4, r5, r6, lr}
.LCFI6:
	sub	sp, sp, #8
.LCFI7:
	mov	r5, r1
	mov	r4, r2
	.loc 1 437 5 is_stmt 1 view .LVU195
.LVL69:
	.loc 1 439 5 view .LVU196
	.loc 1 439 14 view .LVU197
	.loc 1 439 17 is_stmt 0 view .LVU198
	mov	r6, r0
	cbz	r0, .L57
.LVL70:
.L49:
	.loc 1 439 141 is_stmt 1 discriminator 1 view .LVU199
	.loc 1 440 5 discriminator 1 view .LVU200
	.loc 1 440 14 discriminator 1 view .LVU201
	.loc 1 440 17 is_stmt 0 discriminator 1 view .LVU202
	cbz	r5, .L58
.L50:
	.loc 1 440 141 is_stmt 1 discriminator 5 view .LVU203
	.loc 1 442 5 discriminator 5 view .LVU204
	.loc 1 442 8 is_stmt 0 discriminator 5 view .LVU205
	cbnz	r4, .L59
.LVL71:
.L51:
	.loc 1 463 1 view .LVU206
	mov	r0, r4
	add	sp, sp, #8
.LCFI8:
	@ sp needed
	pop	{r4, r5, r6, pc}
.LVL72:
.L57:
.LCFI9:
	.loc 1 439 17 is_stmt 1 discriminator 4 view .LVU207
	ldr	r1, .L61
.LVL73:
	.loc 1 439 17 is_stmt 0 discriminator 4 view .LVU208
	movw	r0, #439
.LVL74:
	.loc 1 439 17 discriminator 4 view .LVU209
	bl	assert_nrf_callback
.LVL75:
	.loc 1 439 17 discriminator 4 view .LVU210
	b	.L49
.L58:
	.loc 1 440 17 is_stmt 1 discriminator 4 view .LVU211
	ldr	r1, .L61
	mov	r0, #440
	bl	assert_nrf_callback
.LVL76:
	b	.L50
.L59:
.LBB54:
	.loc 1 447 7 view .LVU212
	.loc 1 447 15 is_stmt 0 view .LVU213
	movs	r3, #0
	strb	r3, [sp, #7]
	.loc 1 447 32 is_stmt 1 view .LVU214
	add	r0, sp, #7
	bl	app_util_critical_region_enter
.LVL77:
	.loc 1 447 77 view .LVU215
	.loc 1 449 5 view .LVU216
.LBB55:
.LBI55:
	.loc 1 129 22 view .LVU217
.LBB56:
	.loc 1 131 5 view .LVU218
	.loc 1 131 27 is_stmt 0 view .LVU219
	ldr	r3, [r6]
	.loc 1 131 12 view .LVU220
	ldr	r2, [r3]
.LVL78:
	.loc 1 132 5 is_stmt 1 view .LVU221
	.loc 1 132 12 is_stmt 0 view .LVU222
	ldr	r3, [r3, #4]
.LVL79:
	.loc 1 133 5 is_stmt 1 view .LVU223
	.loc 1 133 45 is_stmt 0 view .LVU224
	cmp	r2, r3
	bhi	.L52
	subs	r3, r3, r2
.LVL80:
.L53:
	.loc 1 133 45 view .LVU225
.LBE56:
.LBE55:
	.loc 1 449 8 view .LVU226
	cmp	r4, r3
	bls	.L60
	.loc 1 455 16 view .LVU227
	movs	r4, #5
.LVL81:
.L54:
	.loc 1 458 5 is_stmt 1 view .LVU228
	ldrb	r0, [sp, #7]	@ zero_extendqisi2
	bl	app_util_critical_region_exit
.LVL82:
.LBE54:
	.loc 1 458 50 view .LVU229
	.loc 1 460 5 view .LVU230
	.loc 1 461 70 view .LVU231
	.loc 1 462 5 view .LVU232
	.loc 1 462 12 is_stmt 0 view .LVU233
	b	.L51
.LVL83:
.L52:
.LBB59:
.LBB58:
.LBB57:
	.loc 1 133 55 view .LVU234
	ldr	r1, [r6, #8]
	.loc 1 133 66 view .LVU235
	subs	r2, r1, r2
.LVL84:
	.loc 1 133 74 view .LVU236
	add	r3, r3, r2
.LVL85:
	.loc 1 133 45 view .LVU237
	adds	r3, r3, #1
	b	.L53
.LVL86:
.L60:
	.loc 1 133 45 view .LVU238
.LBE57:
.LBE58:
	.loc 1 451 9 is_stmt 1 view .LVU239
	mov	r2, r4
	mov	r1, r5
	mov	r0, r6
	bl	queue_read
.LVL87:
.LBE59:
	.loc 1 437 16 is_stmt 0 view .LVU240
	movs	r4, #0
.LVL88:
.LBB60:
	.loc 1 437 16 view .LVU241
	b	.L54
.L62:
	.align	2
.L61:
	.word	.LC0
.LBE60:
.LFE208:
	.size	nrf_queue_read, .-nrf_queue_read
	.section	.text.nrf_queue_out,"ax",%progbits
	.align	1
	.global	nrf_queue_out
	.syntax unified
	.thumb
	.thumb_func
	.fpu fpv4-sp-d16
	.type	nrf_queue_out, %function
nrf_queue_out:
.LVL89:
.LFB209:
	.loc 1 468 1 is_stmt 1 view -0
	@ args = 0, pretend = 0, frame = 8
	@ frame_needed = 0, uses_anonymous_args = 0
	.loc 1 468 1 is_stmt 0 view .LVU243
	push	{r4, r5, r6, lr}
.LCFI10:
	sub	sp, sp, #8
.LCFI11:
	mov	r5, r1
	mov	r4, r2
	.loc 1 469 5 is_stmt 1 view .LVU244
	.loc 1 469 14 view .LVU245
	.loc 1 469 17 is_stmt 0 view .LVU246
	mov	r6, r0
	cbz	r0, .L70
.LVL90:
.L64:
	.loc 1 469 141 is_stmt 1 discriminator 1 view .LVU247
	.loc 1 470 5 discriminator 1 view .LVU248
	.loc 1 470 14 discriminator 1 view .LVU249
	.loc 1 470 17 is_stmt 0 discriminator 1 view .LVU250
	cbz	r5, .L71
.L65:
	.loc 1 470 141 is_stmt 1 discriminator 5 view .LVU251
	.loc 1 472 5 discriminator 5 view .LVU252
.LVL91:
	.loc 1 474 5 discriminator 5 view .LVU253
	.loc 1 474 8 is_stmt 0 discriminator 5 view .LVU254
	cbnz	r4, .L72
.LVL92:
.L66:
	.loc 1 491 1 view .LVU255
	mov	r0, r4
	add	sp, sp, #8
.LCFI12:
	@ sp needed
	pop	{r4, r5, r6, pc}
.LVL93:
.L70:
.LCFI13:
	.loc 1 469 17 is_stmt 1 discriminator 4 view .LVU256
	ldr	r1, .L73
.LVL94:
	.loc 1 469 17 is_stmt 0 discriminator 4 view .LVU257
	movw	r0, #469
.LVL95:
	.loc 1 469 17 discriminator 4 view .LVU258
	bl	assert_nrf_callback
.LVL96:
	.loc 1 469 17 discriminator 4 view .LVU259
	b	.L64
.L71:
	.loc 1 470 17 is_stmt 1 discriminator 4 view .LVU260
	ldr	r1, .L73
	mov	r0, #470
	bl	assert_nrf_callback
.LVL97:
	b	.L65
.LVL98:
.L72:
.LBB61:
	.loc 1 479 7 view .LVU261
	.loc 1 479 15 is_stmt 0 view .LVU262
	movs	r3, #0
	strb	r3, [sp, #7]
	.loc 1 479 32 is_stmt 1 view .LVU263
	add	r0, sp, #7
	bl	app_util_critical_region_enter
.LVL99:
	.loc 1 479 77 view .LVU264
	.loc 1 481 5 view .LVU265
.LBB62:
.LBI62:
	.loc 1 129 22 view .LVU266
.LBB63:
	.loc 1 131 5 view .LVU267
	.loc 1 131 27 is_stmt 0 view .LVU268
	ldr	r3, [r6]
	.loc 1 131 12 view .LVU269
	ldr	r2, [r3]
.LVL100:
	.loc 1 132 5 is_stmt 1 view .LVU270
	.loc 1 132 12 is_stmt 0 view .LVU271
	ldr	r3, [r3, #4]
.LVL101:
	.loc 1 133 5 is_stmt 1 view .LVU272
	.loc 1 133 45 is_stmt 0 view .LVU273
	cmp	r2, r3
	bhi	.L67
	subs	r3, r3, r2
.LVL102:
.L68:
	.loc 1 133 45 view .LVU274
.LBE63:
.LBE62:
	.loc 1 482 5 is_stmt 1 view .LVU275
	.loc 1 482 19 is_stmt 0 view .LVU276
	cmp	r4, r3
	it	cs
	movcs	r4, r3
.LVL103:
	.loc 1 484 5 is_stmt 1 view .LVU277
	mov	r2, r4
	mov	r1, r5
	mov	r0, r6
	bl	queue_read
.LVL104:
	.loc 1 486 5 view .LVU278
	ldrb	r0, [sp, #7]	@ zero_extendqisi2
	bl	app_util_critical_region_exit
.LVL105:
.LBE61:
	.loc 1 486 50 view .LVU279
	.loc 1 488 5 view .LVU280
	.loc 1 489 81 view .LVU281
	.loc 1 490 5 view .LVU282
	.loc 1 490 12 is_stmt 0 view .LVU283
	b	.L66
.LVL106:
.L67:
.LBB66:
.LBB65:
.LBB64:
	.loc 1 133 55 view .LVU284
	ldr	r1, [r6, #8]
	.loc 1 133 66 view .LVU285
	subs	r2, r1, r2
.LVL107:
	.loc 1 133 74 view .LVU286
	add	r3, r3, r2
.LVL108:
	.loc 1 133 45 view .LVU287
	adds	r3, r3, #1
	b	.L68
.L74:
	.align	2
.L73:
	.word	.LC0
.LBE64:
.LBE65:
.LBE66:
.LFE209:
	.size	nrf_queue_out, .-nrf_queue_out
	.section	.text.nrf_queue_reset,"ax",%progbits
	.align	1
	.global	nrf_queue_reset
	.syntax unified
	.thumb
	.thumb_func
	.fpu fpv4-sp-d16
	.type	nrf_queue_reset, %function
nrf_queue_reset:
.LVL109:
.LFB210:
	.loc 1 494 1 is_stmt 1 view -0
	@ args = 0, pretend = 0, frame = 8
	@ frame_needed = 0, uses_anonymous_args = 0
	.loc 1 494 1 is_stmt 0 view .LVU289
	push	{r4, r5, lr}
.LCFI14:
	sub	sp, sp, #12
.LCFI15:
	.loc 1 495 5 is_stmt 1 view .LVU290
	.loc 1 495 14 view .LVU291
	.loc 1 495 17 is_stmt 0 view .LVU292
	mov	r5, r0
	cbz	r0, .L78
.LVL110:
.L76:
	.loc 1 495 141 is_stmt 1 discriminator 5 view .LVU293
.LBB67:
	.loc 1 497 7 discriminator 5 view .LVU294
	.loc 1 497 15 is_stmt 0 discriminator 5 view .LVU295
	movs	r4, #0
	strb	r4, [sp, #7]
	.loc 1 497 32 is_stmt 1 discriminator 5 view .LVU296
	add	r0, sp, #7
	bl	app_util_critical_region_enter
.LVL111:
	.loc 1 497 77 discriminator 5 view .LVU297
	.loc 1 499 5 discriminator 5 view .LVU298
	movs	r2, #12
	mov	r1, r4
	ldr	r0, [r5]
	bl	memset
.LVL112:
	.loc 1 501 5 discriminator 5 view .LVU299
	ldrb	r0, [sp, #7]	@ zero_extendqisi2
	bl	app_util_critical_region_exit
.LVL113:
.LBE67:
	.loc 1 501 50 discriminator 5 view .LVU300
	.loc 1 503 5 discriminator 5 view .LVU301
	.loc 1 503 236 discriminator 5 view .LVU302
	.loc 1 504 1 is_stmt 0 discriminator 5 view .LVU303
	add	sp, sp, #12
.LCFI16:
	@ sp needed
	pop	{r4, r5, pc}
.LVL114:
.L78:
.LCFI17:
	.loc 1 495 17 is_stmt 1 discriminator 4 view .LVU304
	ldr	r1, .L79
	movw	r0, #495
.LVL115:
	.loc 1 495 17 is_stmt 0 discriminator 4 view .LVU305
	bl	assert_nrf_callback
.LVL116:
	b	.L76
.L80:
	.align	2
.L79:
	.word	.LC0
.LFE210:
	.size	nrf_queue_reset, .-nrf_queue_reset
	.section	.text.nrf_queue_utilization_get,"ax",%progbits
	.align	1
	.global	nrf_queue_utilization_get
	.syntax unified
	.thumb
	.thumb_func
	.fpu fpv4-sp-d16
	.type	nrf_queue_utilization_get, %function
nrf_queue_utilization_get:
.LVL117:
.LFB211:
	.loc 1 507 1 is_stmt 1 view -0
	@ args = 0, pretend = 0, frame = 8
	@ frame_needed = 0, uses_anonymous_args = 0
	.loc 1 507 1 is_stmt 0 view .LVU307
	push	{r4, r5, lr}
.LCFI18:
	sub	sp, sp, #12
.LCFI19:
	.loc 1 508 5 is_stmt 1 view .LVU308
	.loc 1 509 5 view .LVU309
	.loc 1 509 14 view .LVU310
	.loc 1 509 17 is_stmt 0 view .LVU311
	mov	r5, r0
	cbz	r0, .L86
.LVL118:
.L82:
	.loc 1 509 141 is_stmt 1 discriminator 5 view .LVU312
.LBB68:
	.loc 1 511 7 discriminator 5 view .LVU313
	.loc 1 511 15 is_stmt 0 discriminator 5 view .LVU314
	movs	r3, #0
	strb	r3, [sp, #7]
	.loc 1 511 32 is_stmt 1 discriminator 5 view .LVU315
	add	r0, sp, #7
	bl	app_util_critical_region_enter
.LVL119:
	.loc 1 511 77 discriminator 5 view .LVU316
	.loc 1 513 5 discriminator 5 view .LVU317
.LBB69:
.LBI69:
	.loc 1 129 22 discriminator 5 view .LVU318
.LBB70:
	.loc 1 131 5 discriminator 5 view .LVU319
	.loc 1 131 27 is_stmt 0 discriminator 5 view .LVU320
	ldr	r3, [r5]
	.loc 1 131 12 discriminator 5 view .LVU321
	ldr	r4, [r3]
.LVL120:
	.loc 1 132 5 is_stmt 1 discriminator 5 view .LVU322
	.loc 1 132 12 is_stmt 0 discriminator 5 view .LVU323
	ldr	r3, [r3, #4]
.LVL121:
	.loc 1 133 5 is_stmt 1 discriminator 5 view .LVU324
	.loc 1 133 45 is_stmt 0 discriminator 5 view .LVU325
	cmp	r4, r3
	bhi	.L83
	.loc 1 133 45 view .LVU326
	subs	r4, r3, r4
.LVL122:
.L84:
	.loc 1 133 45 view .LVU327
.LBE70:
.LBE69:
	.loc 1 515 5 is_stmt 1 view .LVU328
	ldrb	r0, [sp, #7]	@ zero_extendqisi2
	bl	app_util_critical_region_exit
.LVL123:
.LBE68:
	.loc 1 515 50 view .LVU329
	.loc 1 517 5 view .LVU330
	.loc 1 518 1 is_stmt 0 view .LVU331
	mov	r0, r4
	add	sp, sp, #12
.LCFI20:
	@ sp needed
	pop	{r4, r5, pc}
.LVL124:
.L86:
.LCFI21:
	.loc 1 509 17 is_stmt 1 discriminator 4 view .LVU332
	ldr	r1, .L87
	movw	r0, #509
.LVL125:
	.loc 1 509 17 is_stmt 0 discriminator 4 view .LVU333
	bl	assert_nrf_callback
.LVL126:
	b	.L82
.LVL127:
.L83:
.LBB73:
.LBB72:
.LBB71:
	.loc 1 133 55 view .LVU334
	ldr	r2, [r5, #8]
	.loc 1 133 66 view .LVU335
	subs	r4, r2, r4
.LVL128:
	.loc 1 133 74 view .LVU336
	add	r3, r3, r4
.LVL129:
	.loc 1 133 45 view .LVU337
	adds	r4, r3, #1
	b	.L84
.L88:
	.align	2
.L87:
	.word	.LC0
.LBE71:
.LBE72:
.LBE73:
.LFE211:
	.size	nrf_queue_utilization_get, .-nrf_queue_utilization_get
	.section	.text.nrf_queue_is_empty,"ax",%progbits
	.align	1
	.global	nrf_queue_is_empty
	.syntax unified
	.thumb
	.thumb_func
	.fpu fpv4-sp-d16
	.type	nrf_queue_is_empty, %function
nrf_queue_is_empty:
.LVL130:
.LFB212:
	.loc 1 521 1 is_stmt 1 view -0
	@ args = 0, pretend = 0, frame = 0
	@ frame_needed = 0, uses_anonymous_args = 0
	.loc 1 521 1 is_stmt 0 view .LVU339
	push	{r4, lr}
.LCFI22:
	.loc 1 522 5 is_stmt 1 view .LVU340
	.loc 1 522 14 view .LVU341
	.loc 1 522 17 is_stmt 0 view .LVU342
	mov	r4, r0
	cbz	r0, .L92
.LVL131:
.L90:
	.loc 1 522 141 is_stmt 1 discriminator 5 view .LVU343
	.loc 1 523 5 discriminator 5 view .LVU344
	.loc 1 523 27 is_stmt 0 discriminator 5 view .LVU345
	ldr	r3, [r4]
	.loc 1 523 12 discriminator 5 view .LVU346
	ldr	r0, [r3]
.LVL132:
	.loc 1 524 5 is_stmt 1 discriminator 5 view .LVU347
	.loc 1 524 12 is_stmt 0 discriminator 5 view .LVU348
	ldr	r3, [r3, #4]
.LVL133:
	.loc 1 525 5 is_stmt 1 discriminator 5 view .LVU349
	.loc 1 526 1 is_stmt 0 discriminator 5 view .LVU350
	cmp	r0, r3
	ite	ne
	movne	r0, #0
.LVL134:
	.loc 1 526 1 discriminator 5 view .LVU351
	moveq	r0, #1
	pop	{r4, pc}
.LVL135:
.L92:
	.loc 1 522 17 is_stmt 1 discriminator 4 view .LVU352
	ldr	r1, .L93
	movw	r0, #522
.LVL136:
	.loc 1 522 17 is_stmt 0 discriminator 4 view .LVU353
	bl	assert_nrf_callback
.LVL137:
	b	.L90
.L94:
	.align	2
.L93:
	.word	.LC0
.LFE212:
	.size	nrf_queue_is_empty, .-nrf_queue_is_empty
	.section	.text.nrf_queue_generic_pop,"ax",%progbits
	.align	1
	.global	nrf_queue_generic_pop
	.syntax unified
	.thumb
	.thumb_func
	.fpu fpv4-sp-d16
	.type	nrf_queue_generic_pop, %function
nrf_queue_generic_pop:
.LVL138:
.LFB203:
	.loc 1 214 1 is_stmt 1 view -0
	@ args = 0, pretend = 0, frame = 8
	@ frame_needed = 0, uses_anonymous_args = 0
	.loc 1 214 1 is_stmt 0 view .LVU355
	push	{r4, r5, r6, r7, r8, lr}
.LCFI23:
	sub	sp, sp, #8
.LCFI24:
	mov	r4, r1
	mov	r6, r2
	.loc 1 215 5 is_stmt 1 view .LVU356
.LVL139:
	.loc 1 217 5 view .LVU357
	.loc 1 217 14 view .LVU358
	.loc 1 217 17 is_stmt 0 view .LVU359
	mov	r5, r0
	cbz	r0, .L111
.LVL140:
.L96:
	.loc 1 217 141 is_stmt 1 discriminator 1 view .LVU360
	.loc 1 218 5 discriminator 1 view .LVU361
	.loc 1 218 14 discriminator 1 view .LVU362
	.loc 1 218 17 is_stmt 0 discriminator 1 view .LVU363
	cbz	r4, .L112
.L97:
	.loc 1 218 141 is_stmt 1 discriminator 5 view .LVU364
.LBB74:
	.loc 1 220 7 discriminator 5 view .LVU365
	.loc 1 220 15 is_stmt 0 discriminator 5 view .LVU366
	movs	r3, #0
	strb	r3, [sp, #7]
	.loc 1 220 32 is_stmt 1 discriminator 5 view .LVU367
	add	r0, sp, #7
	bl	app_util_critical_region_enter
.LVL141:
	.loc 1 220 77 discriminator 5 view .LVU368
	.loc 1 222 5 discriminator 5 view .LVU369
	.loc 1 222 10 is_stmt 0 discriminator 5 view .LVU370
	mov	r0, r5
	bl	nrf_queue_is_empty
.LVL142:
	.loc 1 222 8 discriminator 5 view .LVU371
	cmp	r0, #0
	bne	.L108
.LBB75:
	.loc 1 225 9 is_stmt 1 view .LVU372
	.loc 1 225 34 is_stmt 0 view .LVU373
	ldr	r7, [r5]
	.loc 1 225 16 view .LVU374
	ldr	r8, [r7]
.LVL143:
	.loc 1 228 9 is_stmt 1 view .LVU375
	.loc 1 228 12 is_stmt 0 view .LVU376
	cbnz	r6, .L99
	.loc 1 230 13 is_stmt 1 view .LVU377
	.loc 1 230 36 is_stmt 0 view .LVU378
	ldr	r6, [r7]
.LVL144:
.LBB76:
.LBI76:
	.loc 1 117 22 is_stmt 1 view .LVU379
.LBB77:
	.loc 1 119 5 view .LVU380
	.loc 1 119 14 view .LVU381
	.loc 1 119 17 is_stmt 0 view .LVU382
	cbz	r5, .L113
.L100:
	.loc 1 119 141 is_stmt 1 view .LVU383
	.loc 1 120 5 view .LVU384
	.loc 1 120 26 is_stmt 0 view .LVU385
	ldr	r3, [r5, #8]
	.loc 1 120 46 view .LVU386
	cmp	r6, r3
	bcs	.L109
	adds	r6, r6, #1
.LVL145:
	.loc 1 120 46 view .LVU387
	b	.L101
.LVL146:
.L111:
	.loc 1 120 46 view .LVU388
.LBE77:
.LBE76:
.LBE75:
.LBE74:
	.loc 1 217 17 is_stmt 1 discriminator 4 view .LVU389
	ldr	r1, .L114
.LVL147:
	.loc 1 217 17 is_stmt 0 discriminator 4 view .LVU390
	movs	r0, #217
.LVL148:
	.loc 1 217 17 discriminator 4 view .LVU391
	bl	assert_nrf_callback
.LVL149:
	.loc 1 217 17 discriminator 4 view .LVU392
	b	.L96
.L112:
	.loc 1 218 17 is_stmt 1 discriminator 4 view .LVU393
	ldr	r1, .L114
	movs	r0, #218
	bl	assert_nrf_callback
.LVL150:
	b	.L97
.LVL151:
.L113:
.LBB86:
.LBB80:
.LBB79:
.LBB78:
	.loc 1 119 17 view .LVU394
	ldr	r1, .L114
	movs	r0, #119
	bl	assert_nrf_callback
.LVL152:
	b	.L100
.L109:
	.loc 1 120 46 is_stmt 0 view .LVU395
	movs	r6, #0
.LVL153:
.L101:
	.loc 1 120 46 view .LVU396
.LBE78:
.LBE79:
	.loc 1 230 34 view .LVU397
	str	r6, [r7]
.L99:
	.loc 1 234 9 is_stmt 1 view .LVU398
	.loc 1 234 24 is_stmt 0 view .LVU399
	ldr	r2, [r5, #12]
	subs	r3, r2, #1
	cmp	r3, #7
	bhi	.L102
	tbb	[pc, r3]
.L104:
	.byte	(.L107-.L104)/2
	.byte	(.L106-.L104)/2
	.byte	(.L102-.L104)/2
	.byte	(.L105-.L104)/2
	.byte	(.L102-.L104)/2
	.byte	(.L102-.L104)/2
	.byte	(.L102-.L104)/2
	.byte	(.L103-.L104)/2
	.p2align 1
.L107:
	.loc 1 237 17 is_stmt 1 view .LVU400
	.loc 1 237 62 is_stmt 0 view .LVU401
	ldr	r3, [r5, #4]
	.loc 1 237 73 view .LVU402
	ldrb	r3, [r3, r8]	@ zero_extendqisi2
	.loc 1 237 41 view .LVU403
	strb	r3, [r4]
	.loc 1 238 17 is_stmt 1 view .LVU404
.LBE80:
.LBE86:
	.loc 1 215 16 is_stmt 0 view .LVU405
	movs	r4, #0
.LVL154:
.LBB87:
.LBB81:
	.loc 1 238 17 view .LVU406
	b	.L98
.LVL155:
.L106:
	.loc 1 241 17 is_stmt 1 view .LVU407
	.loc 1 241 64 is_stmt 0 view .LVU408
	ldr	r3, [r5, #4]
	.loc 1 241 75 view .LVU409
	ldrh	r3, [r3, r8, lsl #1]
	.loc 1 241 42 view .LVU410
	strh	r3, [r4]	@ movhi
	.loc 1 242 17 is_stmt 1 view .LVU411
.LBE81:
.LBE87:
	.loc 1 215 16 is_stmt 0 view .LVU412
	movs	r4, #0
.LVL156:
.LBB88:
.LBB82:
	.loc 1 242 17 view .LVU413
	b	.L98
.LVL157:
.L105:
	.loc 1 245 17 is_stmt 1 view .LVU414
	.loc 1 245 64 is_stmt 0 view .LVU415
	ldr	r3, [r5, #4]
	.loc 1 245 75 view .LVU416
	ldr	r3, [r3, r8, lsl #2]
	.loc 1 245 42 view .LVU417
	str	r3, [r4]
	.loc 1 246 17 is_stmt 1 view .LVU418
.LBE82:
.LBE88:
	.loc 1 215 16 is_stmt 0 view .LVU419
	movs	r4, #0
.LVL158:
.LBB89:
.LBB83:
	.loc 1 246 17 view .LVU420
	b	.L98
.LVL159:
.L103:
	.loc 1 249 17 is_stmt 1 view .LVU421
	.loc 1 249 64 is_stmt 0 view .LVU422
	ldr	r3, [r5, #4]
	.loc 1 249 75 view .LVU423
	add	r8, r3, r8, lsl #3
.LVL160:
	.loc 1 249 75 view .LVU424
	ldrd	r2, [r8]
	.loc 1 249 42 view .LVU425
	strd	r2, [r4]
	.loc 1 250 17 is_stmt 1 view .LVU426
.LBE83:
.LBE89:
	.loc 1 215 16 is_stmt 0 view .LVU427
	movs	r4, #0
.LVL161:
.LBB90:
.LBB84:
	.loc 1 250 17 view .LVU428
	b	.L98
.LVL162:
.L102:
	.loc 1 253 17 is_stmt 1 view .LVU429
	.loc 1 254 54 is_stmt 0 view .LVU430
	ldr	r1, [r5, #4]
	.loc 1 253 17 view .LVU431
	mla	r1, r8, r2, r1
	mov	r0, r4
	bl	memcpy
.LVL163:
	.loc 1 256 17 is_stmt 1 view .LVU432
.LBE84:
.LBE90:
	.loc 1 215 16 is_stmt 0 view .LVU433
	movs	r4, #0
.LVL164:
.LBB91:
.LBB85:
	.loc 1 256 17 view .LVU434
	b	.L98
.LVL165:
.L108:
	.loc 1 256 17 view .LVU435
.LBE85:
	.loc 1 261 16 view .LVU436
	movs	r4, #5
.LVL166:
.L98:
	.loc 1 264 5 is_stmt 1 view .LVU437
	ldrb	r0, [sp, #7]	@ zero_extendqisi2
	bl	app_util_critical_region_exit
.LVL167:
.LBE91:
	.loc 1 264 50 view .LVU438
	.loc 1 265 5 view .LVU439
	.loc 1 266 93 view .LVU440
	.loc 1 267 5 view .LVU441
	.loc 1 268 1 is_stmt 0 view .LVU442
	mov	r0, r4
	add	sp, sp, #8
.LCFI25:
	@ sp needed
	pop	{r4, r5, r6, r7, r8, pc}
.LVL168:
.L115:
	.loc 1 268 1 view .LVU443
	.align	2
.L114:
	.word	.LC0
.LFE203:
	.size	nrf_queue_generic_pop, .-nrf_queue_generic_pop
	.section	.text.nrf_queue_available_get,"ax",%progbits
	.align	1
	.global	nrf_queue_available_get
	.syntax unified
	.thumb
	.thumb_func
	.fpu fpv4-sp-d16
	.type	nrf_queue_available_get, %function
nrf_queue_available_get:
.LVL169:
.LFB213:
	.loc 1 529 1 is_stmt 1 view -0
	@ args = 0, pretend = 0, frame = 0
	@ frame_needed = 0, uses_anonymous_args = 0
	.loc 1 529 1 is_stmt 0 view .LVU445
	push	{r3, r4, r5, lr}
.LCFI26:
	.loc 1 530 5 is_stmt 1 view .LVU446
	.loc 1 530 14 view .LVU447
	.loc 1 530 17 is_stmt 0 view .LVU448
	mov	r4, r0
	cbz	r0, .L119
.LVL170:
.L117:
	.loc 1 530 141 is_stmt 1 discriminator 5 view .LVU449
	.loc 1 531 5 discriminator 5 view .LVU450
	.loc 1 531 19 is_stmt 0 discriminator 5 view .LVU451
	ldr	r5, [r4, #8]
	.loc 1 531 28 discriminator 5 view .LVU452
	mov	r0, r4
	bl	nrf_queue_utilization_get
.LVL171:
	.loc 1 532 1 discriminator 5 view .LVU453
	subs	r0, r5, r0
	pop	{r3, r4, r5, pc}
.LVL172:
.L119:
	.loc 1 530 17 is_stmt 1 discriminator 4 view .LVU454
	ldr	r1, .L120
	movw	r0, #530
.LVL173:
	.loc 1 530 17 is_stmt 0 discriminator 4 view .LVU455
	bl	assert_nrf_callback
.LVL174:
	b	.L117
.L121:
	.align	2
.L120:
	.word	.LC0
.LFE213:
	.size	nrf_queue_available_get, .-nrf_queue_available_get
	.section	.text.queue_write,"ax",%progbits
	.align	1
	.syntax unified
	.thumb
	.thumb_func
	.fpu fpv4-sp-d16
	.type	queue_write, %function
queue_write:
.LVL175:
.LFB204:
	.loc 1 278 1 is_stmt 1 view -0
	@ args = 0, pretend = 0, frame = 0
	@ frame_needed = 0, uses_anonymous_args = 0
	.loc 1 278 1 is_stmt 0 view .LVU457
	push	{r3, r4, r5, r6, r7, r8, r9, lr}
.LCFI27:
	mov	r4, r0
	mov	r7, r1
	mov	r6, r2
	.loc 1 279 5 is_stmt 1 view .LVU458
	.loc 1 279 29 is_stmt 0 view .LVU459
	bl	nrf_queue_available_get
.LVL176:
	.loc 1 279 29 view .LVU460
	mov	r8, r0
.LVL177:
	.loc 1 280 5 is_stmt 1 view .LVU461
	.loc 1 280 32 is_stmt 0 view .LVU462
	ldr	r5, [r4, #8]
	.loc 1 280 52 view .LVU463
	ldr	r3, [r4]
	.loc 1 280 58 view .LVU464
	ldr	r2, [r3, #4]
	.loc 1 280 43 view .LVU465
	subs	r5, r5, r2
	.loc 1 280 12 view .LVU466
	adds	r5, r5, #1
.LVL178:
	.loc 1 281 5 is_stmt 1 view .LVU467
	.loc 1 281 50 is_stmt 0 view .LVU468
	ldr	r0, [r4, #4]
.LVL179:
	.loc 1 282 42 view .LVU469
	ldr	r3, [r3, #4]
	.loc 1 282 58 view .LVU470
	ldr	r2, [r4, #12]
	.loc 1 282 27 view .LVU471
	mla	r0, r2, r3, r0
.LVL180:
	.loc 1 283 5 is_stmt 1 view .LVU472
	.loc 1 283 8 is_stmt 0 view .LVU473
	cmp	r5, r6
	bcc	.L123
	.loc 1 285 9 is_stmt 1 view .LVU474
	mul	r2, r6, r2
	mov	r1, r7
	bl	memcpy
.LVL181:
	.loc 1 289 9 view .LVU475
	.loc 1 289 40 is_stmt 0 view .LVU476
	ldr	r1, [r4]
	.loc 1 289 46 view .LVU477
	ldr	r3, [r1, #4]
	.loc 1 289 53 view .LVU478
	add	r3, r3, r6
	.loc 1 289 80 view .LVU479
	ldr	r2, [r4, #8]
	.loc 1 291 29 view .LVU480
	cmp	r3, r2
	bhi	.L131
	.loc 1 290 45 discriminator 1 view .LVU481
	ldr	r2, [r1, #4]
	.loc 1 291 29 discriminator 1 view .LVU482
	add	r6, r6, r2
.LVL182:
	.loc 1 291 29 discriminator 1 view .LVU483
	b	.L124
.LVL183:
.L131:
	.loc 1 291 29 view .LVU484
	movs	r6, #0
.LVL184:
.L124:
	.loc 1 289 29 view .LVU485
	str	r6, [r1, #4]
.LVL185:
.L125:
	.loc 1 314 5 is_stmt 1 view .LVU486
.LBB92:
.LBI92:
	.loc 1 129 22 view .LVU487
.LBB93:
	.loc 1 131 5 view .LVU488
	.loc 1 131 27 is_stmt 0 view .LVU489
	ldr	r2, [r4]
	.loc 1 131 12 view .LVU490
	ldr	r1, [r2]
.LVL186:
	.loc 1 132 5 is_stmt 1 view .LVU491
	.loc 1 132 12 is_stmt 0 view .LVU492
	ldr	r3, [r2, #4]
.LVL187:
	.loc 1 133 5 is_stmt 1 view .LVU493
	.loc 1 133 45 is_stmt 0 view .LVU494
	cmp	r1, r3
	bhi	.L128
	subs	r3, r3, r1
.LVL188:
.L129:
	.loc 1 133 45 view .LVU495
.LBE93:
.LBE92:
	.loc 1 315 5 is_stmt 1 view .LVU496
	.loc 1 315 22 is_stmt 0 view .LVU497
	ldr	r1, [r2, #8]
	.loc 1 315 8 view .LVU498
	cmp	r1, r3
	bcs	.L122
	.loc 1 317 9 is_stmt 1 view .LVU499
	.loc 1 317 40 is_stmt 0 view .LVU500
	str	r3, [r2, #8]
.L122:
	.loc 1 319 1 view .LVU501
	pop	{r3, r4, r5, r6, r7, r8, r9, pc}
.LVL189:
.L123:
.LBB95:
	.loc 1 295 9 is_stmt 1 view .LVU502
	.loc 1 295 16 is_stmt 0 view .LVU503
	mul	r9, r5, r2
.LVL190:
	.loc 1 296 9 is_stmt 1 view .LVU504
	mov	r2, r9
	mov	r1, r7
	bl	memcpy
.LVL191:
	.loc 1 300 9 view .LVU505
	.loc 1 300 16 is_stmt 0 view .LVU506
	subs	r5, r6, r5
.LVL192:
	.loc 1 301 9 is_stmt 1 view .LVU507
	.loc 1 303 39 is_stmt 0 view .LVU508
	ldr	r2, [r4, #12]
	.loc 1 301 9 view .LVU509
	mul	r2, r5, r2
	add	r1, r7, r9
	ldr	r0, [r4, #4]
	bl	memcpy
.LVL193:
	.loc 1 305 9 is_stmt 1 view .LVU510
	.loc 1 305 16 is_stmt 0 view .LVU511
	ldr	r3, [r4]
	.loc 1 305 29 view .LVU512
	str	r5, [r3, #4]
	.loc 1 306 9 is_stmt 1 view .LVU513
	.loc 1 306 12 is_stmt 0 view .LVU514
	cmp	r8, r6
	bcs	.L125
	.loc 1 309 13 is_stmt 1 view .LVU515
	.loc 1 309 71 is_stmt 0 view .LVU516
	ldr	r6, [r4]
.LVL194:
	.loc 1 309 36 view .LVU517
	ldr	r5, [r6, #4]
.LVL195:
.LBB96:
.LBI96:
	.loc 1 117 22 is_stmt 1 view .LVU518
.LBB97:
	.loc 1 119 5 view .LVU519
	.loc 1 119 14 view .LVU520
	.loc 1 119 17 is_stmt 0 view .LVU521
	cbz	r4, .L134
.LVL196:
.L126:
	.loc 1 119 141 is_stmt 1 view .LVU522
	.loc 1 120 5 view .LVU523
	.loc 1 120 26 is_stmt 0 view .LVU524
	ldr	r3, [r4, #8]
	.loc 1 120 46 view .LVU525
	cmp	r5, r3
	bcs	.L132
	adds	r5, r5, #1
.LVL197:
.L127:
	.loc 1 120 46 view .LVU526
.LBE97:
.LBE96:
	.loc 1 309 34 view .LVU527
	str	r5, [r6]
	b	.L125
.LVL198:
.L134:
.LBB99:
.LBB98:
	.loc 1 119 17 is_stmt 1 view .LVU528
	ldr	r1, .L135
	movs	r0, #119
	bl	assert_nrf_callback
.LVL199:
	.loc 1 119 17 is_stmt 0 view .LVU529
	b	.L126
.L132:
	.loc 1 120 46 view .LVU530
	movs	r5, #0
.LVL200:
	.loc 1 120 46 view .LVU531
	b	.L127
.LVL201:
.L128:
	.loc 1 120 46 view .LVU532
.LBE98:
.LBE99:
.LBE95:
.LBB100:
.LBB94:
	.loc 1 133 55 view .LVU533
	ldr	r0, [r4, #8]
	.loc 1 133 66 view .LVU534
	subs	r1, r0, r1
.LVL202:
	.loc 1 133 74 view .LVU535
	add	r3, r3, r1
.LVL203:
	.loc 1 133 45 view .LVU536
	adds	r3, r3, #1
	b	.L129
.L136:
	.align	2
.L135:
	.word	.LC0
.LBE94:
.LBE100:
.LFE204:
	.size	queue_write, .-queue_write
	.section	.text.nrf_queue_write,"ax",%progbits
	.align	1
	.global	nrf_queue_write
	.syntax unified
	.thumb
	.thumb_func
	.fpu fpv4-sp-d16
	.type	nrf_queue_write, %function
nrf_queue_write:
.LVL204:
.LFB205:
	.loc 1 324 1 is_stmt 1 view -0
	@ args = 0, pretend = 0, frame = 8
	@ frame_needed = 0, uses_anonymous_args = 0
	.loc 1 324 1 is_stmt 0 view .LVU538
	push	{r4, r5, r6, lr}
.LCFI28:
	sub	sp, sp, #8
.LCFI29:
	mov	r5, r1
	mov	r4, r2
	.loc 1 325 5 is_stmt 1 view .LVU539
.LVL205:
	.loc 1 327 5 view .LVU540
	.loc 1 327 14 view .LVU541
	.loc 1 327 17 is_stmt 0 view .LVU542
	mov	r6, r0
	cbz	r0, .L146
.LVL206:
.L138:
	.loc 1 327 141 is_stmt 1 discriminator 1 view .LVU543
	.loc 1 328 5 discriminator 1 view .LVU544
	.loc 1 328 14 discriminator 1 view .LVU545
	.loc 1 328 17 is_stmt 0 discriminator 1 view .LVU546
	cbz	r5, .L147
.L139:
	.loc 1 328 141 is_stmt 1 discriminator 1 view .LVU547
	.loc 1 329 5 discriminator 1 view .LVU548
	.loc 1 329 14 discriminator 1 view .LVU549
	.loc 1 329 42 is_stmt 0 discriminator 1 view .LVU550
	ldr	r3, [r6, #8]
	.loc 1 329 17 discriminator 1 view .LVU551
	cmp	r3, r4
	bcc	.L148
.L140:
	.loc 1 329 185 is_stmt 1 discriminator 5 view .LVU552
	.loc 1 331 5 discriminator 5 view .LVU553
	.loc 1 331 8 is_stmt 0 discriminator 5 view .LVU554
	cbnz	r4, .L149
.LVL207:
.L141:
	.loc 1 353 1 view .LVU555
	mov	r0, r4
	add	sp, sp, #8
.LCFI30:
	@ sp needed
	pop	{r4, r5, r6, pc}
.LVL208:
.L146:
.LCFI31:
	.loc 1 327 17 is_stmt 1 discriminator 4 view .LVU556
	ldr	r1, .L150
.LVL209:
	.loc 1 327 17 is_stmt 0 discriminator 4 view .LVU557
	movw	r0, #327
.LVL210:
	.loc 1 327 17 discriminator 4 view .LVU558
	bl	assert_nrf_callback
.LVL211:
	.loc 1 327 17 discriminator 4 view .LVU559
	b	.L138
.L147:
	.loc 1 328 17 is_stmt 1 discriminator 4 view .LVU560
	ldr	r1, .L150
	mov	r0, #328
	bl	assert_nrf_callback
.LVL212:
	b	.L139
.L148:
	.loc 1 329 61 discriminator 4 view .LVU561
	ldr	r1, .L150
	movw	r0, #329
	bl	assert_nrf_callback
.LVL213:
	b	.L140
.L149:
.LBB101:
	.loc 1 336 7 view .LVU562
	.loc 1 336 15 is_stmt 0 view .LVU563
	movs	r3, #0
	strb	r3, [sp, #7]
	.loc 1 336 32 is_stmt 1 view .LVU564
	add	r0, sp, #7
	bl	app_util_critical_region_enter
.LVL214:
	.loc 1 336 77 view .LVU565
	.loc 1 338 5 view .LVU566
	.loc 1 338 10 is_stmt 0 view .LVU567
	mov	r0, r6
	bl	nrf_queue_available_get
.LVL215:
	.loc 1 338 8 view .LVU568
	cmp	r0, r4
	bcs	.L142
	.loc 1 339 17 view .LVU569
	ldrb	r3, [r6, #16]	@ zero_extendqisi2
	.loc 1 339 6 view .LVU570
	cbnz	r3, .L144
.L142:
	.loc 1 341 9 is_stmt 1 view .LVU571
	mov	r2, r4
	mov	r1, r5
	mov	r0, r6
	bl	queue_write
.LVL216:
.LBE101:
	.loc 1 325 16 is_stmt 0 view .LVU572
	movs	r4, #0
.LVL217:
.L143:
.LBB102:
	.loc 1 348 5 is_stmt 1 view .LVU573
	ldrb	r0, [sp, #7]	@ zero_extendqisi2
	bl	app_util_critical_region_exit
.LVL218:
.LBE102:
	.loc 1 348 50 view .LVU574
	.loc 1 350 5 view .LVU575
	.loc 1 351 70 view .LVU576
	.loc 1 352 5 view .LVU577
	.loc 1 352 12 is_stmt 0 view .LVU578
	b	.L141
.LVL219:
.L144:
.LBB103:
	.loc 1 345 16 view .LVU579
	movs	r4, #4
.LVL220:
	.loc 1 345 16 view .LVU580
	b	.L143
.L151:
	.align	2
.L150:
	.word	.LC0
.LBE103:
.LFE205:
	.size	nrf_queue_write, .-nrf_queue_write
	.section	.text.nrf_queue_in,"ax",%progbits
	.align	1
	.global	nrf_queue_in
	.syntax unified
	.thumb
	.thumb_func
	.fpu fpv4-sp-d16
	.type	nrf_queue_in, %function
nrf_queue_in:
.LVL221:
.LFB206:
	.loc 1 359 1 is_stmt 1 view -0
	@ args = 0, pretend = 0, frame = 8
	@ frame_needed = 0, uses_anonymous_args = 0
	.loc 1 359 1 is_stmt 0 view .LVU582
	push	{r4, r5, r6, lr}
.LCFI32:
	sub	sp, sp, #8
.LCFI33:
	mov	r5, r1
	mov	r4, r2
	.loc 1 360 5 is_stmt 1 view .LVU583
	.loc 1 360 14 view .LVU584
	.loc 1 360 17 is_stmt 0 view .LVU585
	mov	r6, r0
	cbz	r0, .L159
.LVL222:
.L153:
	.loc 1 360 141 is_stmt 1 discriminator 1 view .LVU586
	.loc 1 361 5 discriminator 1 view .LVU587
	.loc 1 361 14 discriminator 1 view .LVU588
	.loc 1 361 17 is_stmt 0 discriminator 1 view .LVU589
	cbz	r5, .L160
.L154:
	.loc 1 361 141 is_stmt 1 discriminator 5 view .LVU590
	.loc 1 363 5 discriminator 5 view .LVU591
.LVL223:
	.loc 1 365 5 discriminator 5 view .LVU592
	.loc 1 365 8 is_stmt 0 discriminator 5 view .LVU593
	cbnz	r4, .L161
.LVL224:
.L155:
	.loc 1 390 1 view .LVU594
	mov	r0, r4
	add	sp, sp, #8
.LCFI34:
	@ sp needed
	pop	{r4, r5, r6, pc}
.LVL225:
.L159:
.LCFI35:
	.loc 1 360 17 is_stmt 1 discriminator 4 view .LVU595
	ldr	r1, .L162
.LVL226:
	.loc 1 360 17 is_stmt 0 discriminator 4 view .LVU596
	mov	r0, #360
.LVL227:
	.loc 1 360 17 discriminator 4 view .LVU597
	bl	assert_nrf_callback
.LVL228:
	.loc 1 360 17 discriminator 4 view .LVU598
	b	.L153
.L160:
	.loc 1 361 17 is_stmt 1 discriminator 4 view .LVU599
	ldr	r1, .L162
	movw	r0, #361
	bl	assert_nrf_callback
.LVL229:
	b	.L154
.LVL230:
.L161:
.LBB104:
	.loc 1 370 7 view .LVU600
	.loc 1 370 15 is_stmt 0 view .LVU601
	movs	r3, #0
	strb	r3, [sp, #7]
	.loc 1 370 32 is_stmt 1 view .LVU602
	add	r0, sp, #7
	bl	app_util_critical_region_enter
.LVL231:
	.loc 1 370 77 view .LVU603
	.loc 1 372 5 view .LVU604
	.loc 1 372 16 is_stmt 0 view .LVU605
	ldrb	r3, [r6, #16]	@ zero_extendqisi2
	.loc 1 372 8 view .LVU606
	cbnz	r3, .L156
	.loc 1 374 9 is_stmt 1 view .LVU607
	.loc 1 374 52 is_stmt 0 view .LVU608
	ldr	r3, [r6, #8]
	.loc 1 374 23 view .LVU609
	cmp	r4, r3
	it	cs
	movcs	r4, r3
.LVL232:
.L157:
	.loc 1 382 5 is_stmt 1 view .LVU610
	mov	r2, r4
	mov	r1, r5
	mov	r0, r6
	bl	queue_write
.LVL233:
	.loc 1 384 5 view .LVU611
	ldrb	r0, [sp, #7]	@ zero_extendqisi2
	bl	app_util_critical_region_exit
.LVL234:
.LBE104:
	.loc 1 384 50 view .LVU612
	.loc 1 386 5 view .LVU613
	.loc 1 387 81 view .LVU614
	.loc 1 389 5 view .LVU615
	.loc 1 389 12 is_stmt 0 view .LVU616
	b	.L155
.LVL235:
.L156:
.LBB106:
.LBB105:
	.loc 1 378 9 is_stmt 1 view .LVU617
	.loc 1 378 28 is_stmt 0 view .LVU618
	mov	r0, r6
	bl	nrf_queue_available_get
.LVL236:
	.loc 1 379 9 is_stmt 1 view .LVU619
	.loc 1 379 23 is_stmt 0 view .LVU620
	cmp	r4, r0
	it	cs
	movcs	r4, r0
.LVL237:
	.loc 1 379 23 view .LVU621
	b	.L157
.L163:
	.align	2
.L162:
	.word	.LC0
.LBE105:
.LBE106:
.LFE206:
	.size	nrf_queue_in, .-nrf_queue_in
	.section	.text.nrf_queue_max_utilization_get,"ax",%progbits
	.align	1
	.global	nrf_queue_max_utilization_get
	.syntax unified
	.thumb
	.thumb_func
	.fpu fpv4-sp-d16
	.type	nrf_queue_max_utilization_get, %function
nrf_queue_max_utilization_get:
.LVL238:
.LFB214:
	.loc 1 535 1 is_stmt 1 view -0
	@ args = 0, pretend = 0, frame = 0
	@ frame_needed = 0, uses_anonymous_args = 0
	.loc 1 535 1 is_stmt 0 view .LVU623
	push	{r4, lr}
.LCFI36:
	.loc 1 536 5 is_stmt 1 view .LVU624
	.loc 1 536 14 view .LVU625
	.loc 1 536 17 is_stmt 0 view .LVU626
	mov	r4, r0
	cbz	r0, .L167
.LVL239:
.L165:
	.loc 1 536 141 is_stmt 1 discriminator 5 view .LVU627
	.loc 1 537 5 discriminator 5 view .LVU628
	.loc 1 537 19 is_stmt 0 discriminator 5 view .LVU629
	ldr	r3, [r4]
	.loc 1 538 1 discriminator 5 view .LVU630
	ldr	r0, [r3, #8]
	pop	{r4, pc}
.LVL240:
.L167:
	.loc 1 536 17 is_stmt 1 discriminator 4 view .LVU631
	ldr	r1, .L168
	mov	r0, #536
.LVL241:
	.loc 1 536 17 is_stmt 0 discriminator 4 view .LVU632
	bl	assert_nrf_callback
.LVL242:
	b	.L165
.L169:
	.align	2
.L168:
	.word	.LC0
.LFE214:
	.size	nrf_queue_max_utilization_get, .-nrf_queue_max_utilization_get
	.section	.text.nrf_queue_max_utilization_reset,"ax",%progbits
	.align	1
	.global	nrf_queue_max_utilization_reset
	.syntax unified
	.thumb
	.thumb_func
	.fpu fpv4-sp-d16
	.type	nrf_queue_max_utilization_reset, %function
nrf_queue_max_utilization_reset:
.LVL243:
.LFB215:
	.loc 1 541 1 is_stmt 1 view -0
	@ args = 0, pretend = 0, frame = 0
	@ frame_needed = 0, uses_anonymous_args = 0
	.loc 1 541 1 is_stmt 0 view .LVU634
	push	{r4, lr}
.LCFI37:
	.loc 1 542 5 is_stmt 1 view .LVU635
	.loc 1 542 14 view .LVU636
	.loc 1 542 17 is_stmt 0 view .LVU637
	mov	r4, r0
	cbz	r0, .L173
.LVL244:
.L171:
	.loc 1 542 141 is_stmt 1 discriminator 5 view .LVU638
	.loc 1 543 5 discriminator 5 view .LVU639
	.loc 1 543 12 is_stmt 0 discriminator 5 view .LVU640
	ldr	r3, [r4]
	.loc 1 543 36 discriminator 5 view .LVU641
	movs	r2, #0
	str	r2, [r3, #8]
	.loc 1 544 1 discriminator 5 view .LVU642
	pop	{r4, pc}
.LVL245:
.L173:
	.loc 1 542 17 is_stmt 1 discriminator 4 view .LVU643
	ldr	r1, .L174
	movw	r0, #542
.LVL246:
	.loc 1 542 17 is_stmt 0 discriminator 4 view .LVU644
	bl	assert_nrf_callback
.LVL247:
	b	.L171
.L175:
	.align	2
.L174:
	.word	.LC0
.LFE215:
	.size	nrf_queue_max_utilization_reset, .-nrf_queue_max_utilization_reset
	.section	.debug_frame,"",%progbits
.Lframe0:
	.4byte	.LECIE0-.LSCIE0
.LSCIE0:
	.4byte	0xffffffff
	.byte	0x3
	.ascii	"\000"
	.uleb128 0x1
	.sleb128 -4
	.uleb128 0xe
	.byte	0xc
	.uleb128 0xd
	.uleb128 0
	.align	2
.LECIE0:
.LSFDE0:
	.4byte	.LEFDE0-.LASFDE0
.LASFDE0:
	.4byte	.Lframe0
	.4byte	.LFB207
	.4byte	.LFE207-.LFB207
	.byte	0x4
	.4byte	.LCFI0-.LFB207
	.byte	0xe
	.uleb128 0x18
	.byte	0x84
	.uleb128 0x6
	.byte	0x85
	.uleb128 0x5
	.byte	0x86
	.uleb128 0x4
	.byte	0x87
	.uleb128 0x3
	.byte	0x88
	.uleb128 0x2
	.byte	0x8e
	.uleb128 0x1
	.align	2
.LEFDE0:
.LSFDE2:
	.4byte	.LEFDE2-.LASFDE2
.LASFDE2:
	.4byte	.Lframe0
	.4byte	.LFB201
	.4byte	.LFE201-.LFB201
	.byte	0x4
	.4byte	.LCFI1-.LFB201
	.byte	0xe
	.uleb128 0x10
	.byte	0x84
	.uleb128 0x4
	.byte	0x85
	.uleb128 0x3
	.byte	0x86
	.uleb128 0x2
	.byte	0x8e
	.uleb128 0x1
	.align	2
.LEFDE2:
.LSFDE4:
	.4byte	.LEFDE4-.LASFDE4
.LASFDE4:
	.4byte	.Lframe0
	.4byte	.LFB202
	.4byte	.LFE202-.LFB202
	.byte	0x4
	.4byte	.LCFI2-.LFB202
	.byte	0xe
	.uleb128 0x1c
	.byte	0x84
	.uleb128 0x7
	.byte	0x85
	.uleb128 0x6
	.byte	0x86
	.uleb128 0x5
	.byte	0x87
	.uleb128 0x4
	.byte	0x88
	.uleb128 0x3
	.byte	0x89
	.uleb128 0x2
	.byte	0x8e
	.uleb128 0x1
	.byte	0x4
	.4byte	.LCFI3-.LCFI2
	.byte	0xe
	.uleb128 0x28
	.byte	0x4
	.4byte	.LCFI4-.LCFI3
	.byte	0xa
	.byte	0xe
	.uleb128 0x1c
	.byte	0x4
	.4byte	.LCFI5-.LCFI4
	.byte	0xb
	.align	2
.LEFDE4:
.LSFDE6:
	.4byte	.LEFDE6-.LASFDE6
.LASFDE6:
	.4byte	.Lframe0
	.4byte	.LFB208
	.4byte	.LFE208-.LFB208
	.byte	0x4
	.4byte	.LCFI6-.LFB208
	.byte	0xe
	.uleb128 0x10
	.byte	0x84
	.uleb128 0x4
	.byte	0x85
	.uleb128 0x3
	.byte	0x86
	.uleb128 0x2
	.byte	0x8e
	.uleb128 0x1
	.byte	0x4
	.4byte	.LCFI7-.LCFI6
	.byte	0xe
	.uleb128 0x18
	.byte	0x4
	.4byte	.LCFI8-.LCFI7
	.byte	0xa
	.byte	0xe
	.uleb128 0x10
	.byte	0x4
	.4byte	.LCFI9-.LCFI8
	.byte	0xb
	.align	2
.LEFDE6:
.LSFDE8:
	.4byte	.LEFDE8-.LASFDE8
.LASFDE8:
	.4byte	.Lframe0
	.4byte	.LFB209
	.4byte	.LFE209-.LFB209
	.byte	0x4
	.4byte	.LCFI10-.LFB209
	.byte	0xe
	.uleb128 0x10
	.byte	0x84
	.uleb128 0x4
	.byte	0x85
	.uleb128 0x3
	.byte	0x86
	.uleb128 0x2
	.byte	0x8e
	.uleb128 0x1
	.byte	0x4
	.4byte	.LCFI11-.LCFI10
	.byte	0xe
	.uleb128 0x18
	.byte	0x4
	.4byte	.LCFI12-.LCFI11
	.byte	0xa
	.byte	0xe
	.uleb128 0x10
	.byte	0x4
	.4byte	.LCFI13-.LCFI12
	.byte	0xb
	.align	2
.LEFDE8:
.LSFDE10:
	.4byte	.LEFDE10-.LASFDE10
.LASFDE10:
	.4byte	.Lframe0
	.4byte	.LFB210
	.4byte	.LFE210-.LFB210
	.byte	0x4
	.4byte	.LCFI14-.LFB210
	.byte	0xe
	.uleb128 0xc
	.byte	0x84
	.uleb128 0x3
	.byte	0x85
	.uleb128 0x2
	.byte	0x8e
	.uleb128 0x1
	.byte	0x4
	.4byte	.LCFI15-.LCFI14
	.byte	0xe
	.uleb128 0x18
	.byte	0x4
	.4byte	.LCFI16-.LCFI15
	.byte	0xa
	.byte	0xe
	.uleb128 0xc
	.byte	0x4
	.4byte	.LCFI17-.LCFI16
	.byte	0xb
	.align	2
.LEFDE10:
.LSFDE12:
	.4byte	.LEFDE12-.LASFDE12
.LASFDE12:
	.4byte	.Lframe0
	.4byte	.LFB211
	.4byte	.LFE211-.LFB211
	.byte	0x4
	.4byte	.LCFI18-.LFB211
	.byte	0xe
	.uleb128 0xc
	.byte	0x84
	.uleb128 0x3
	.byte	0x85
	.uleb128 0x2
	.byte	0x8e
	.uleb128 0x1
	.byte	0x4
	.4byte	.LCFI19-.LCFI18
	.byte	0xe
	.uleb128 0x18
	.byte	0x4
	.4byte	.LCFI20-.LCFI19
	.byte	0xa
	.byte	0xe
	.uleb128 0xc
	.byte	0x4
	.4byte	.LCFI21-.LCFI20
	.byte	0xb
	.align	2
.LEFDE12:
.LSFDE14:
	.4byte	.LEFDE14-.LASFDE14
.LASFDE14:
	.4byte	.Lframe0
	.4byte	.LFB212
	.4byte	.LFE212-.LFB212
	.byte	0x4
	.4byte	.LCFI22-.LFB212
	.byte	0xe
	.uleb128 0x8
	.byte	0x84
	.uleb128 0x2
	.byte	0x8e
	.uleb128 0x1
	.align	2
.LEFDE14:
.LSFDE16:
	.4byte	.LEFDE16-.LASFDE16
.LASFDE16:
	.4byte	.Lframe0
	.4byte	.LFB203
	.4byte	.LFE203-.LFB203
	.byte	0x4
	.4byte	.LCFI23-.LFB203
	.byte	0xe
	.uleb128 0x18
	.byte	0x84
	.uleb128 0x6
	.byte	0x85
	.uleb128 0x5
	.byte	0x86
	.uleb128 0x4
	.byte	0x87
	.uleb128 0x3
	.byte	0x88
	.uleb128 0x2
	.byte	0x8e
	.uleb128 0x1
	.byte	0x4
	.4byte	.LCFI24-.LCFI23
	.byte	0xe
	.uleb128 0x20
	.byte	0x4
	.4byte	.LCFI25-.LCFI24
	.byte	0xe
	.uleb128 0x18
	.align	2
.LEFDE16:
.LSFDE18:
	.4byte	.LEFDE18-.LASFDE18
.LASFDE18:
	.4byte	.Lframe0
	.4byte	.LFB213
	.4byte	.LFE213-.LFB213
	.byte	0x4
	.4byte	.LCFI26-.LFB213
	.byte	0xe
	.uleb128 0x10
	.byte	0x83
	.uleb128 0x4
	.byte	0x84
	.uleb128 0x3
	.byte	0x85
	.uleb128 0x2
	.byte	0x8e
	.uleb128 0x1
	.align	2
.LEFDE18:
.LSFDE20:
	.4byte	.LEFDE20-.LASFDE20
.LASFDE20:
	.4byte	.Lframe0
	.4byte	.LFB204
	.4byte	.LFE204-.LFB204
	.byte	0x4
	.4byte	.LCFI27-.LFB204
	.byte	0xe
	.uleb128 0x20
	.byte	0x83
	.uleb128 0x8
	.byte	0x84
	.uleb128 0x7
	.byte	0x85
	.uleb128 0x6
	.byte	0x86
	.uleb128 0x5
	.byte	0x87
	.uleb128 0x4
	.byte	0x88
	.uleb128 0x3
	.byte	0x89
	.uleb128 0x2
	.byte	0x8e
	.uleb128 0x1
	.align	2
.LEFDE20:
.LSFDE22:
	.4byte	.LEFDE22-.LASFDE22
.LASFDE22:
	.4byte	.Lframe0
	.4byte	.LFB205
	.4byte	.LFE205-.LFB205
	.byte	0x4
	.4byte	.LCFI28-.LFB205
	.byte	0xe
	.uleb128 0x10
	.byte	0x84
	.uleb128 0x4
	.byte	0x85
	.uleb128 0x3
	.byte	0x86
	.uleb128 0x2
	.byte	0x8e
	.uleb128 0x1
	.byte	0x4
	.4byte	.LCFI29-.LCFI28
	.byte	0xe
	.uleb128 0x18
	.byte	0x4
	.4byte	.LCFI30-.LCFI29
	.byte	0xa
	.byte	0xe
	.uleb128 0x10
	.byte	0x4
	.4byte	.LCFI31-.LCFI30
	.byte	0xb
	.align	2
.LEFDE22:
.LSFDE24:
	.4byte	.LEFDE24-.LASFDE24
.LASFDE24:
	.4byte	.Lframe0
	.4byte	.LFB206
	.4byte	.LFE206-.LFB206
	.byte	0x4
	.4byte	.LCFI32-.LFB206
	.byte	0xe
	.uleb128 0x10
	.byte	0x84
	.uleb128 0x4
	.byte	0x85
	.uleb128 0x3
	.byte	0x86
	.uleb128 0x2
	.byte	0x8e
	.uleb128 0x1
	.byte	0x4
	.4byte	.LCFI33-.LCFI32
	.byte	0xe
	.uleb128 0x18
	.byte	0x4
	.4byte	.LCFI34-.LCFI33
	.byte	0xa
	.byte	0xe
	.uleb128 0x10
	.byte	0x4
	.4byte	.LCFI35-.LCFI34
	.byte	0xb
	.align	2
.LEFDE24:
.LSFDE26:
	.4byte	.LEFDE26-.LASFDE26
.LASFDE26:
	.4byte	.Lframe0
	.4byte	.LFB214
	.4byte	.LFE214-.LFB214
	.byte	0x4
	.4byte	.LCFI36-.LFB214
	.byte	0xe
	.uleb128 0x8
	.byte	0x84
	.uleb128 0x2
	.byte	0x8e
	.uleb128 0x1
	.align	2
.LEFDE26:
.LSFDE28:
	.4byte	.LEFDE28-.LASFDE28
.LASFDE28:
	.4byte	.Lframe0
	.4byte	.LFB215
	.4byte	.LFE215-.LFB215
	.byte	0x4
	.4byte	.LCFI37-.LFB215
	.byte	0xe
	.uleb128 0x8
	.byte	0x84
	.uleb128 0x2
	.byte	0x8e
	.uleb128 0x1
	.align	2
.LEFDE28:
	.text
.Letext0:
	.file 2 "C:\\nRF5_SDK_15.0.0_a53641a\\components\\libraries\\queue\\nrf_queue.h"
	.file 3 "C:/Program Files (x86)/SEGGER/SEGGER Embedded Studio for ARM 4.50/include/string.h"
	.file 4 "../../../../../../components/libraries/experimental_log/nrf_log_types.h"