	.cpu cortex-m4
	.eabi_attribute 27, 1
	.eabi_attribute 28, 1
	.eabi_attribute 20, 1
	.eabi_attribute 21, 1
	.eabi_attribute 23, 3
	.eabi_attribute 24, 1
	.eabi_attribute 25, 1
	.eabi_attribute 26, 1
	.eabi_attribute 30, 1
	.eabi_attribute 34, 1
	.eabi_attribute 18, 4
	.file	"nrf_fstorage.c"
	.text
.Ltext0:
	.section	.text.addr_is_within_bounds,"ax",%progbits
	.align	1
	.syntax unified
	.thumb
	.thumb_func
	.fpu fpv4-sp-d16
	.type	addr_is_within_bounds, %function
addr_is_within_bounds:
.LVL0:
.LFB150:
	.file 1 "C:\\nRF5_SDK_15.0.0_a53641a\\components\\libraries\\fstorage\\nrf_fstorage.c"
	.loc 1 225 1 view -0
	@ args = 0, pretend = 0, frame = 0
	@ frame_needed = 0, uses_anonymous_args = 0
	@ link register save eliminated.
	.loc 1 226 5 view .LVU1
	.loc 1 226 27 is_stmt 0 view .LVU2
	ldr	r3, [r0, #12]
	.loc 1 227 13 view .LVU3
	cmp	r3, r1
	bhi	.L3
	.loc 1 227 22 discriminator 1 view .LVU4
	add	r1, r1, r2
.LVL1:
	.loc 1 227 28 discriminator 1 view .LVU5
	subs	r1, r1, #1
	.loc 1 227 39 discriminator 1 view .LVU6
	ldr	r3, [r0, #16]
	.loc 1 227 13 discriminator 1 view .LVU7
	cmp	r1, r3
	bls	.L4
	.loc 1 227 13 view .LVU8
	movs	r0, #0
.LVL2:
	.loc 1 227 13 view .LVU9
	bx	lr
.LVL3:
.L3:
	.loc 1 227 13 view .LVU10
	movs	r0, #0
.LVL4:
	.loc 1 227 13 view .LVU11
	bx	lr
.LVL5:
.L4:
	.loc 1 227 13 view .LVU12
	movs	r0, #1
.LVL6:
	.loc 1 228 1 view .LVU13
	bx	lr
.LFE150:
	.size	addr_is_within_bounds, .-addr_is_within_bounds
	.section	.text.addr_is_aligned32,"ax",%progbits
	.align	1
	.syntax unified
	.thumb
	.thumb_func
	.fpu fpv4-sp-d16
	.type	addr_is_aligned32, %function
addr_is_aligned32:
.LVL7:
.LFB151:
	.loc 1 232 1 is_stmt 1 view -0
	@ args = 0, pretend = 0, frame = 0
	@ frame_needed = 0, uses_anonymous_args = 0
	@ link register save eliminated.
	.loc 1 233 5 view .LVU15
	.loc 1 233 12 is_stmt 0 view .LVU16
	tst	r0, #3
	.loc 1 234 1 view .LVU17
	ite	eq
	moveq	r0, #1
.LVL8:
	.loc 1 234 1 view .LVU18
	movne	r0, #0
	bx	lr
.LFE151:
	.size	addr_is_aligned32, .-addr_is_aligned32
	.section	.text.addr_is_page_aligned,"ax",%progbits
	.align	1
	.syntax unified
	.thumb
	.thumb_func
	.fpu fpv4-sp-d16
	.type	addr_is_page_aligned, %function
addr_is_page_aligned:
.LVL9:
.LFB152:
	.loc 1 239 1 is_stmt 1 view -0
	@ args = 0, pretend = 0, frame = 0
	@ frame_needed = 0, uses_anonymous_args = 0
	@ link register save eliminated.
	.loc 1 240 5 view .LVU20
	.loc 1 240 25 is_stmt 0 view .LVU21
	ldr	r3, [r0, #4]
	.loc 1 240 39 view .LVU22
	ldr	r3, [r3]
	.loc 1 240 52 view .LVU23
	subs	r3, r3, #1
	.loc 1 240 58 view .LVU24
	tst	r3, r1
	.loc 1 241 1 view .LVU25
	ite	eq
	moveq	r0, #1
.LVL10:
	.loc 1 241 1 view .LVU26
	movne	r0, #0
	bx	lr
.LFE152:
	.size	addr_is_page_aligned, .-addr_is_page_aligned
	.section	.rodata.nrf_fstorage_init.str1.4,"aMS",%progbits,1
	.align	2
.LC0:
	.ascii	"p_fs\000"
	.align	2
.LC1:
	.ascii	"%s check failed in %s() with value 0x%x.\000"
	.align	2
.LC2:
	.ascii	"p_api\000"
	.section	.text.nrf_fstorage_init,"ax",%progbits
	.align	1
	.global	nrf_fstorage_init
	.syntax unified
	.thumb
	.thumb_func
	.fpu fpv4-sp-d16
	.type	nrf_fstorage_init, %function
nrf_fstorage_init:
.LVL11:
.LFB142:
	.loc 1 84 1 is_stmt 1 view -0
	@ args = 0, pretend = 0, frame = 0
	@ frame_needed = 0, uses_anonymous_args = 0
	.loc 1 84 1 is_stmt 0 view .LVU28
	push	{r4, lr}
.LCFI0:
	sub	sp, sp, #8
.LCFI1:
	.loc 1 85 5 is_stmt 1 view .LVU29
	.loc 1 85 10 view .LVU30
	.loc 1 85 13 is_stmt 0 view .LVU31
	cbz	r0, .L12
	mov	r3, r1
	mov	r1, r2
.LVL12:
	.loc 1 85 24 is_stmt 1 discriminator 14 view .LVU32
	.loc 1 85 595 discriminator 14 view .LVU33
	.loc 1 85 607 discriminator 14 view .LVU34
	.loc 1 85 611 discriminator 14 view .LVU35
	.loc 1 86 5 discriminator 14 view .LVU36
	.loc 1 86 10 discriminator 14 view .LVU37
	.loc 1 86 13 is_stmt 0 discriminator 14 view .LVU38
	cbz	r3, .L13
	.loc 1 86 25 is_stmt 1 discriminator 14 view .LVU39
	.loc 1 86 598 discriminator 14 view .LVU40
	.loc 1 86 610 discriminator 14 view .LVU41
	.loc 1 86 614 discriminator 14 view .LVU42
	.loc 1 88 5 discriminator 14 view .LVU43
	.loc 1 88 17 is_stmt 0 discriminator 14 view .LVU44
	str	r3, [r0]
	.loc 1 90 5 is_stmt 1 discriminator 14 view .LVU45
	.loc 1 90 25 is_stmt 0 discriminator 14 view .LVU46
	ldr	r3, [r3]
.LVL13:
	.loc 1 90 17 discriminator 14 view .LVU47
	blx	r3
.LVL14:
.L7:
	.loc 1 91 1 view .LVU48
	add	sp, sp, #8
.LCFI2:
	@ sp needed
	pop	{r4, pc}
.LVL15:
.L12:
.LCFI3:
	.loc 1 85 31 is_stmt 1 discriminator 7 view .LVU49
	.loc 1 85 43 discriminator 7 view .LVU50
	.loc 1 85 118 discriminator 7 view .LVU51
	.loc 1 85 174 discriminator 7 view .LVU52
	.loc 1 85 265 is_stmt 0 discriminator 7 view .LVU53
	ldr	r3, .L14
	ldrh	r0, [r3]
.LVL16:
	.loc 1 85 276 discriminator 7 view .LVU54
	lsls	r0, r0, #16
	.loc 1 85 174 discriminator 7 view .LVU55
	movs	r4, #14
	str	r4, [sp]
	ldr	r3, .L14+4
	ldr	r2, .L14+8
.LVL17:
	.loc 1 85 174 discriminator 7 view .LVU56
	ldr	r1, .L14+12
.LVL18:
	.loc 1 85 174 discriminator 7 view .LVU57
	orr	r0, r0, #1
	bl	nrf_log_frontend_std_3
.LVL19:
	.loc 1 85 400 is_stmt 1 discriminator 7 view .LVU58
	.loc 1 85 402 discriminator 7 view .LVU59
	.loc 1 85 409 is_stmt 0 discriminator 7 view .LVU60
	mov	r0, r4
	b	.L7
.LVL20:
.L13:
	.loc 1 86 32 is_stmt 1 discriminator 7 view .LVU61
	.loc 1 86 44 discriminator 7 view .LVU62
	.loc 1 86 119 discriminator 7 view .LVU63
	.loc 1 86 175 discriminator 7 view .LVU64
	.loc 1 86 266 is_stmt 0 discriminator 7 view .LVU65
	ldr	r3, .L14
.LVL21:
	.loc 1 86 266 discriminator 7 view .LVU66
	ldrh	r0, [r3]
.LVL22:
	.loc 1 86 277 discriminator 7 view .LVU67
	lsls	r0, r0, #16
	.loc 1 86 175 discriminator 7 view .LVU68
	movs	r4, #14
	str	r4, [sp]
	ldr	r3, .L14+4
	ldr	r2, .L14+16
	ldr	r1, .L14+12
.LVL23:
	.loc 1 86 175 discriminator 7 view .LVU69
	orr	r0, r0, #1
	bl	nrf_log_frontend_std_3
.LVL24:
	.loc 1 86 402 is_stmt 1 discriminator 7 view .LVU70
	.loc 1 86 404 discriminator 7 view .LVU71
	.loc 1 86 411 is_stmt 0 discriminator 7 view .LVU72
	mov	r0, r4
	b	.L7
.L15:
	.align	2
.L14:
	.word	.LANCHOR0
	.word	.LANCHOR1
	.word	.LC0
	.word	.LC1
	.word	.LC2
.LFE142:
	.size	nrf_fstorage_init, .-nrf_fstorage_init
	.section	.rodata.nrf_fstorage_uninit.str1.4,"aMS",%progbits,1
	.align	2
.LC3:
	.ascii	"p_fs->p_api\000"
	.section	.text.nrf_fstorage_uninit,"ax",%progbits
	.align	1
	.global	nrf_fstorage_uninit
	.syntax unified
	.thumb
	.thumb_func
	.fpu fpv4-sp-d16
	.type	nrf_fstorage_uninit, %function
nrf_fstorage_uninit:
.LVL25:
.LFB143:
	.loc 1 96 1 is_stmt 1 view -0
	@ args = 0, pretend = 0, frame = 0
	@ frame_needed = 0, uses_anonymous_args = 0
	.loc 1 96 1 is_stmt 0 view .LVU74
	push	{r4, lr}
.LCFI4:
	sub	sp, sp, #8
.LCFI5:
	.loc 1 97 5 is_stmt 1 view .LVU75
	.loc 1 99 5 view .LVU76
	.loc 1 99 10 view .LVU77
	.loc 1 99 13 is_stmt 0 view .LVU78
	cbz	r0, .L21
	mov	r4, r0
	.loc 1 99 24 is_stmt 1 discriminator 14 view .LVU79
	.loc 1 99 595 discriminator 14 view .LVU80
	.loc 1 99 607 discriminator 14 view .LVU81
	.loc 1 99 611 discriminator 14 view .LVU82
	.loc 1 100 5 discriminator 14 view .LVU83
	.loc 1 100 10 discriminator 14 view .LVU84
	.loc 1 100 19 is_stmt 0 discriminator 14 view .LVU85
	ldr	r3, [r0]
	.loc 1 100 13 discriminator 14 view .LVU86
	cbz	r3, .L22
	.loc 1 100 31 is_stmt 1 discriminator 14 view .LVU87
	.loc 1 100 615 discriminator 14 view .LVU88
	.loc 1 100 627 discriminator 14 view .LVU89
	.loc 1 100 631 discriminator 14 view .LVU90
	.loc 1 102 5 discriminator 14 view .LVU91
	.loc 1 102 23 is_stmt 0 discriminator 14 view .LVU92
	ldr	r3, [r3, #4]
	.loc 1 102 15 discriminator 14 view .LVU93
	blx	r3
.LVL26:
	.loc 1 105 5 is_stmt 1 discriminator 14 view .LVU94
	.loc 1 105 17 is_stmt 0 discriminator 14 view .LVU95
	movs	r3, #0
	str	r3, [r4]
	.loc 1 106 5 is_stmt 1 discriminator 14 view .LVU96
	.loc 1 106 24 is_stmt 0 discriminator 14 view .LVU97
	str	r3, [r4, #4]
	.loc 1 108 5 is_stmt 1 discriminator 14 view .LVU98
.LVL27:
.L16:
	.loc 1 109 1 is_stmt 0 view .LVU99
	add	sp, sp, #8
.LCFI6:
	@ sp needed
	pop	{r4, pc}
.LVL28:
.L21:
.LCFI7:
	.loc 1 99 31 is_stmt 1 discriminator 7 view .LVU100
	.loc 1 99 43 discriminator 7 view .LVU101
	.loc 1 99 118 discriminator 7 view .LVU102
	.loc 1 99 174 discriminator 7 view .LVU103
	.loc 1 99 265 is_stmt 0 discriminator 7 view .LVU104
	ldr	r3, .L23
	ldrh	r0, [r3]
.LVL29:
	.loc 1 99 276 discriminator 7 view .LVU105
	lsls	r0, r0, #16
	.loc 1 99 174 discriminator 7 view .LVU106
	movs	r4, #14
	str	r4, [sp]
	ldr	r3, .L23+4
	ldr	r2, .L23+8
	ldr	r1, .L23+12
.LVL30:
	.loc 1 99 174 discriminator 7 view .LVU107
	orr	r0, r0, #1
	bl	nrf_log_frontend_std_3
.LVL31:
	.loc 1 99 400 is_stmt 1 discriminator 7 view .LVU108
	.loc 1 99 402 discriminator 7 view .LVU109
	.loc 1 99 409 is_stmt 0 discriminator 7 view .LVU110
	mov	r0, r4
	b	.L16
.LVL32:
.L22:
	.loc 1 100 38 is_stmt 1 discriminator 7 view .LVU111
	.loc 1 100 50 discriminator 7 view .LVU112
	.loc 1 100 125 discriminator 7 view .LVU113
	.loc 1 100 181 discriminator 7 view .LVU114
	.loc 1 100 272 is_stmt 0 discriminator 7 view .LVU115
	ldr	r3, .L23
	ldrh	r0, [r3]
.LVL33:
	.loc 1 100 283 discriminator 7 view .LVU116
	lsls	r0, r0, #16
	.loc 1 100 181 discriminator 7 view .LVU117
	movs	r4, #8
.LVL34:
	.loc 1 100 181 discriminator 7 view .LVU118
	str	r4, [sp]
	ldr	r3, .L23+4
	ldr	r2, .L23+16
	ldr	r1, .L23+12
.LVL35:
	.loc 1 100 181 discriminator 7 view .LVU119
	orr	r0, r0, #1
	bl	nrf_log_frontend_std_3
.LVL36:
	.loc 1 100 413 is_stmt 1 discriminator 7 view .LVU120
	.loc 1 100 415 discriminator 7 view .LVU121
	.loc 1 100 422 is_stmt 0 discriminator 7 view .LVU122
	mov	r0, r4
	b	.L16
.L24:
	.align	2
.L23:
	.word	.LANCHOR0
	.word	.LANCHOR2
	.word	.LC0
	.word	.LC1
	.word	.LC3
.LFE143:
	.size	nrf_fstorage_uninit, .-nrf_fstorage_uninit
	.section	.rodata.nrf_fstorage_read.str1.4,"aMS",%progbits,1
	.align	2
.LC4:
	.ascii	"p_dest\000"
	.align	2
.LC5:
	.ascii	"len\000"
	.align	2
.LC6:
	.ascii	"addr_is_aligned32(src)\000"
	.align	2
.LC7:
	.ascii	"addr_is_within_bounds(p_fs, src, len)\000"
	.section	.text.nrf_fstorage_read,"ax",%progbits
	.align	1
	.global	nrf_fstorage_read
	.syntax unified
	.thumb
	.thumb_func
	.fpu fpv4-sp-d16
	.type	nrf_fstorage_read, %function
nrf_fstorage_read:
.LVL37:
.LFB144:
	.loc 1 116 1 is_stmt 1 view -0
	@ args = 0, pretend = 0, frame = 0
	@ frame_needed = 0, uses_anonymous_args = 0
	.loc 1 116 1 is_stmt 0 view .LVU124
	push	{r4, r5, r6, r7, r8, lr}
.LCFI8:
	sub	sp, sp, #8
.LCFI9:
	.loc 1 117 5 is_stmt 1 view .LVU125
	.loc 1 117 10 view .LVU126
	.loc 1 117 13 is_stmt 0 view .LVU127
	cbz	r0, .L34
	mov	r7, r1
	mov	r8, r2
	mov	r4, r3
	mov	r5, r0
	.loc 1 117 24 is_stmt 1 discriminator 14 view .LVU128
	.loc 1 117 596 discriminator 14 view .LVU129
	.loc 1 117 608 discriminator 14 view .LVU130
	.loc 1 117 612 discriminator 14 view .LVU131
	.loc 1 118 5 discriminator 14 view .LVU132
	.loc 1 118 10 discriminator 14 view .LVU133
	.loc 1 118 13 is_stmt 0 discriminator 14 view .LVU134
	cbz	r2, .L35
	.loc 1 118 26 is_stmt 1 discriminator 14 view .LVU135
	.loc 1 118 602 discriminator 14 view .LVU136
	.loc 1 118 614 discriminator 14 view .LVU137
	.loc 1 118 618 discriminator 14 view .LVU138
	.loc 1 119 5 discriminator 14 view .LVU139
	.loc 1 119 10 discriminator 14 view .LVU140
	.loc 1 119 19 is_stmt 0 discriminator 14 view .LVU141
	ldr	r6, [r0]
	.loc 1 119 13 discriminator 14 view .LVU142
	cmp	r6, #0
	beq	.L36
	.loc 1 119 31 is_stmt 1 discriminator 14 view .LVU143
	.loc 1 119 615 discriminator 14 view .LVU144
	.loc 1 119 627 discriminator 14 view .LVU145
	.loc 1 119 631 discriminator 14 view .LVU146
	.loc 1 120 5 discriminator 14 view .LVU147
	.loc 1 120 10 discriminator 14 view .LVU148
	.loc 1 120 13 is_stmt 0 discriminator 14 view .LVU149
	cmp	r3, #0
	beq	.L37
	.loc 1 120 23 is_stmt 1 discriminator 14 view .LVU150
	.loc 1 120 591 discriminator 14 view .LVU151
	.loc 1 120 603 discriminator 14 view .LVU152
	.loc 1 120 607 discriminator 14 view .LVU153
	.loc 1 123 5 discriminator 14 view .LVU154
	.loc 1 123 10 discriminator 14 view .LVU155
	.loc 1 123 15 is_stmt 0 discriminator 14 view .LVU156
	mov	r0, r1
.LVL38:
	.loc 1 123 15 discriminator 14 view .LVU157
	bl	addr_is_aligned32
.LVL39:
	.loc 1 123 13 discriminator 14 view .LVU158
	cmp	r0, #0
	beq	.L38
	.loc 1 123 42 is_stmt 1 discriminator 14 view .LVU159
	.loc 1 123 650 discriminator 14 view .LVU160
	.loc 1 123 662 discriminator 14 view .LVU161
	.loc 1 123 666 discriminator 14 view .LVU162
	.loc 1 124 5 discriminator 14 view .LVU163
	.loc 1 124 10 discriminator 14 view .LVU164
	.loc 1 124 15 is_stmt 0 discriminator 14 view .LVU165
	mov	r2, r4
	mov	r1, r7
	mov	r0, r5
	bl	addr_is_within_bounds
.LVL40:
	.loc 1 124 13 discriminator 14 view .LVU166
	cmp	r0, #0
	beq	.L39
	.loc 1 124 57 is_stmt 1 discriminator 14 view .LVU167
	.loc 1 124 695 discriminator 14 view .LVU168
	.loc 1 124 707 discriminator 14 view .LVU169
	.loc 1 124 711 discriminator 14 view .LVU170
	.loc 1 126 5 discriminator 14 view .LVU171
	.loc 1 126 25 is_stmt 0 discriminator 14 view .LVU172
	ldr	r6, [r6, #8]
	.loc 1 126 17 discriminator 14 view .LVU173
	mov	r3, r4
	mov	r2, r8
	mov	r1, r7
	mov	r0, r5
	blx	r6
.LVL41:
.L25:
	.loc 1 127 1 view .LVU174
	add	sp, sp, #8
.LCFI10:
	@ sp needed
	pop	{r4, r5, r6, r7, r8, pc}
.LVL42:
.L34:
.LCFI11:
	.loc 1 117 31 is_stmt 1 discriminator 7 view .LVU175
	.loc 1 117 43 discriminator 7 view .LVU176
	.loc 1 117 118 discriminator 7 view .LVU177
	.loc 1 117 174 discriminator 7 view .LVU178
	.loc 1 117 265 is_stmt 0 discriminator 7 view .LVU179
	ldr	r3, .L40
.LVL43:
	.loc 1 117 265 discriminator 7 view .LVU180
	ldrh	r0, [r3]
.LVL44:
	.loc 1 117 276 discriminator 7 view .LVU181
	lsls	r0, r0, #16
	.loc 1 117 174 discriminator 7 view .LVU182
	movs	r4, #14
	str	r4, [sp]
	ldr	r3, .L40+4
	ldr	r2, .L40+8
.LVL45:
	.loc 1 117 174 discriminator 7 view .LVU183
	ldr	r1, .L40+12
.LVL46:
	.loc 1 117 174 discriminator 7 view .LVU184
	orr	r0, r0, #1
	bl	nrf_log_frontend_std_3
.LVL47:
	.loc 1 117 400 is_stmt 1 discriminator 7 view .LVU185
	.loc 1 117 402 discriminator 7 view .LVU186
	.loc 1 117 409 is_stmt 0 discriminator 7 view .LVU187
	mov	r0, r4
	b	.L25
.LVL48:
.L35:
	.loc 1 118 33 is_stmt 1 discriminator 7 view .LVU188
	.loc 1 118 45 discriminator 7 view .LVU189
	.loc 1 118 120 discriminator 7 view .LVU190
	.loc 1 118 176 discriminator 7 view .LVU191
	.loc 1 118 267 is_stmt 0 discriminator 7 view .LVU192
	ldr	r3, .L40
.LVL49:
	.loc 1 118 267 discriminator 7 view .LVU193
	ldrh	r0, [r3]
.LVL50:
	.loc 1 118 278 discriminator 7 view .LVU194
	lsls	r0, r0, #16
	.loc 1 118 176 discriminator 7 view .LVU195
	movs	r4, #14
.LVL51:
	.loc 1 118 176 discriminator 7 view .LVU196
	str	r4, [sp]
	ldr	r3, .L40+4
	ldr	r2, .L40+16
.LVL52:
	.loc 1 118 176 discriminator 7 view .LVU197
	ldr	r1, .L40+12
.LVL53:
	.loc 1 118 176 discriminator 7 view .LVU198
	orr	r0, r0, #1
	bl	nrf_log_frontend_std_3
.LVL54:
	.loc 1 118 404 is_stmt 1 discriminator 7 view .LVU199
	.loc 1 118 406 discriminator 7 view .LVU200
	.loc 1 118 413 is_stmt 0 discriminator 7 view .LVU201
	mov	r0, r4
	b	.L25
.LVL55:
.L36:
	.loc 1 119 38 is_stmt 1 discriminator 7 view .LVU202
	.loc 1 119 50 discriminator 7 view .LVU203
	.loc 1 119 125 discriminator 7 view .LVU204
	.loc 1 119 181 discriminator 7 view .LVU205
	.loc 1 119 272 is_stmt 0 discriminator 7 view .LVU206
	ldr	r3, .L40
.LVL56:
	.loc 1 119 272 discriminator 7 view .LVU207
	ldrh	r0, [r3]
.LVL57:
	.loc 1 119 283 discriminator 7 view .LVU208
	lsls	r0, r0, #16
	.loc 1 119 181 discriminator 7 view .LVU209
	movs	r4, #8
.LVL58:
	.loc 1 119 181 discriminator 7 view .LVU210
	str	r4, [sp]
	ldr	r3, .L40+4
	ldr	r2, .L40+20
.LVL59:
	.loc 1 119 181 discriminator 7 view .LVU211
	ldr	r1, .L40+12
.LVL60:
	.loc 1 119 181 discriminator 7 view .LVU212
	orr	r0, r0, #1
	bl	nrf_log_frontend_std_3
.LVL61:
	.loc 1 119 413 is_stmt 1 discriminator 7 view .LVU213
	.loc 1 119 415 discriminator 7 view .LVU214
	.loc 1 119 422 is_stmt 0 discriminator 7 view .LVU215
	mov	r0, r4
	b	.L25
.LVL62:
.L37:
	.loc 1 120 30 is_stmt 1 discriminator 7 view .LVU216
	.loc 1 120 42 discriminator 7 view .LVU217
	.loc 1 120 117 discriminator 7 view .LVU218
	.loc 1 120 173 discriminator 7 view .LVU219
	.loc 1 120 264 is_stmt 0 discriminator 7 view .LVU220
	ldr	r3, .L40
.LVL63:
	.loc 1 120 264 discriminator 7 view .LVU221
	ldrh	r0, [r3]
.LVL64:
	.loc 1 120 275 discriminator 7 view .LVU222
	lsls	r0, r0, #16
	.loc 1 120 173 discriminator 7 view .LVU223
	movs	r4, #9
.LVL65:
	.loc 1 120 173 discriminator 7 view .LVU224
	str	r4, [sp]
	ldr	r3, .L40+4
	ldr	r2, .L40+24
.LVL66:
	.loc 1 120 173 discriminator 7 view .LVU225
	ldr	r1, .L40+12
.LVL67:
	.loc 1 120 173 discriminator 7 view .LVU226
	orr	r0, r0, #1
	bl	nrf_log_frontend_std_3
.LVL68:
	.loc 1 120 397 is_stmt 1 discriminator 7 view .LVU227
	.loc 1 120 399 discriminator 7 view .LVU228
	.loc 1 120 406 is_stmt 0 discriminator 7 view .LVU229
	mov	r0, r4
	b	.L25
.LVL69:
.L38:
	.loc 1 123 49 is_stmt 1 discriminator 7 view .LVU230
	.loc 1 123 61 discriminator 7 view .LVU231
	.loc 1 123 136 discriminator 7 view .LVU232
	.loc 1 123 192 discriminator 7 view .LVU233
	.loc 1 123 283 is_stmt 0 discriminator 7 view .LVU234
	ldr	r3, .L40
	ldrh	r0, [r3]
	.loc 1 123 294 discriminator 7 view .LVU235
	lsls	r0, r0, #16
	.loc 1 123 192 discriminator 7 view .LVU236
	movs	r4, #16
.LVL70:
	.loc 1 123 192 discriminator 7 view .LVU237
	str	r4, [sp]
	ldr	r3, .L40+4
	ldr	r2, .L40+28
	ldr	r1, .L40+12
	orr	r0, r0, #1
	bl	nrf_log_frontend_std_3
.LVL71:
	.loc 1 123 436 is_stmt 1 discriminator 7 view .LVU238
	.loc 1 123 438 discriminator 7 view .LVU239
	.loc 1 123 445 is_stmt 0 discriminator 7 view .LVU240
	mov	r0, r4
	b	.L25
.LVL72:
.L39:
	.loc 1 124 64 is_stmt 1 discriminator 7 view .LVU241
	.loc 1 124 76 discriminator 7 view .LVU242
	.loc 1 124 151 discriminator 7 view .LVU243
	.loc 1 124 207 discriminator 7 view .LVU244
	.loc 1 124 298 is_stmt 0 discriminator 7 view .LVU245
	ldr	r3, .L40
	ldrh	r0, [r3]
	.loc 1 124 309 discriminator 7 view .LVU246
	lsls	r0, r0, #16
	.loc 1 124 207 discriminator 7 view .LVU247
	movs	r4, #16
.LVL73:
	.loc 1 124 207 discriminator 7 view .LVU248
	str	r4, [sp]
	ldr	r3, .L40+4
	ldr	r2, .L40+32
	ldr	r1, .L40+12
	orr	r0, r0, #1
	bl	nrf_log_frontend_std_3
.LVL74:
	.loc 1 124 466 is_stmt 1 discriminator 7 view .LVU249
	.loc 1 124 468 discriminator 7 view .LVU250
	.loc 1 124 475 is_stmt 0 discriminator 7 view .LVU251
	mov	r0, r4
	b	.L25
.L41:
	.align	2
.L40:
	.word	.LANCHOR0
	.word	.LANCHOR3
	.word	.LC0
	.word	.LC1
	.word	.LC4
	.word	.LC3
	.word	.LC5
	.word	.LC6
	.word	.LC7
.LFE144:
	.size	nrf_fstorage_read, .-nrf_fstorage_read
	.section	.rodata.nrf_fstorage_write.str1.4,"aMS",%progbits,1
	.align	2
.LC8:
	.ascii	"p_src\000"
	.align	2
.LC9:
	.ascii	"!(len % p_fs->p_flash_info->program_unit)\000"
	.align	2
.LC10:
	.ascii	"addr_is_aligned32(dest)\000"
	.align	2
.LC11:
	.ascii	"addr_is_aligned32((uint32_t)p_src)\000"
	.align	2
.LC12:
	.ascii	"addr_is_within_bounds(p_fs, dest, len)\000"
	.section	.text.nrf_fstorage_write,"ax",%progbits
	.align	1
	.global	nrf_fstorage_write
	.syntax unified
	.thumb
	.thumb_func
	.fpu fpv4-sp-d16
	.type	nrf_fstorage_write, %function
nrf_fstorage_write:
.LVL75:
.LFB145:
	.loc 1 135 1 is_stmt 1 view -0
	@ args = 4, pretend = 0, frame = 0
	@ frame_needed = 0, uses_anonymous_args = 0
	.loc 1 135 1 is_stmt 0 view .LVU253
	push	{r4, r5, r6, r7, r8, lr}
.LCFI12:
	sub	sp, sp, #8
.LCFI13:
	.loc 1 136 5 is_stmt 1 view .LVU254
	.loc 1 136 10 view .LVU255
	.loc 1 136 13 is_stmt 0 view .LVU256
	cmp	r0, #0
	beq	.L53
	mov	r6, r1
	mov	r5, r2
	mov	r4, r3
	mov	r7, r0
	.loc 1 136 24 is_stmt 1 discriminator 14 view .LVU257
	.loc 1 136 596 discriminator 14 view .LVU258
	.loc 1 136 608 discriminator 14 view .LVU259
	.loc 1 136 612 discriminator 14 view .LVU260
	.loc 1 137 5 discriminator 14 view .LVU261
	.loc 1 137 10 discriminator 14 view .LVU262
	.loc 1 137 13 is_stmt 0 discriminator 14 view .LVU263
	cmp	r2, #0
	beq	.L54
	.loc 1 137 25 is_stmt 1 discriminator 14 view .LVU264
	.loc 1 137 599 discriminator 14 view .LVU265
	.loc 1 137 611 discriminator 14 view .LVU266
	.loc 1 137 615 discriminator 14 view .LVU267
	.loc 1 138 5 discriminator 14 view .LVU268
	.loc 1 138 10 discriminator 14 view .LVU269
	.loc 1 138 19 is_stmt 0 discriminator 14 view .LVU270
	ldr	r8, [r0]
	.loc 1 138 13 discriminator 14 view .LVU271
	cmp	r8, #0
	beq	.L55
	.loc 1 138 31 is_stmt 1 discriminator 14 view .LVU272
	.loc 1 138 615 discriminator 14 view .LVU273
	.loc 1 138 627 discriminator 14 view .LVU274
	.loc 1 138 631 discriminator 14 view .LVU275
	.loc 1 139 5 discriminator 14 view .LVU276
	.loc 1 139 10 discriminator 14 view .LVU277
	.loc 1 139 13 is_stmt 0 discriminator 14 view .LVU278
	cmp	r3, #0
	beq	.L56
	.loc 1 139 23 is_stmt 1 discriminator 14 view .LVU279
	.loc 1 139 591 discriminator 14 view .LVU280
	.loc 1 139 603 discriminator 14 view .LVU281
	.loc 1 139 607 discriminator 14 view .LVU282
	.loc 1 142 5 discriminator 14 view .LVU283
	.loc 1 142 10 discriminator 14 view .LVU284
	.loc 1 142 27 is_stmt 0 discriminator 14 view .LVU285
	ldr	r3, [r0, #4]
.LVL76:
	.loc 1 142 41 discriminator 14 view .LVU286
	ldr	r2, [r3, #4]
.LVL77:
	.loc 1 142 21 discriminator 14 view .LVU287
	udiv	r3, r4, r2
	mls	r3, r2, r3, r4
	.loc 1 142 13 discriminator 14 view .LVU288
	cmp	r3, #0
	bne	.L57
	.loc 1 142 61 is_stmt 1 discriminator 14 view .LVU289
	.loc 1 142 705 discriminator 14 view .LVU290
	.loc 1 142 717 discriminator 14 view .LVU291
	.loc 1 142 721 discriminator 14 view .LVU292
	.loc 1 145 5 discriminator 14 view .LVU293
	.loc 1 145 10 discriminator 14 view .LVU294
	.loc 1 145 15 is_stmt 0 discriminator 14 view .LVU295
	mov	r0, r1
.LVL78:
	.loc 1 145 15 discriminator 14 view .LVU296
	bl	addr_is_aligned32
.LVL79:
	.loc 1 145 13 discriminator 14 view .LVU297
	cmp	r0, #0
	beq	.L58
	.loc 1 145 43 is_stmt 1 discriminator 14 view .LVU298
	.loc 1 145 653 discriminator 14 view .LVU299
	.loc 1 145 665 discriminator 14 view .LVU300
	.loc 1 145 669 discriminator 14 view .LVU301
	.loc 1 146 5 discriminator 14 view .LVU302
	.loc 1 146 10 discriminator 14 view .LVU303
	.loc 1 146 15 is_stmt 0 discriminator 14 view .LVU304
	mov	r0, r5
	bl	addr_is_aligned32
.LVL80:
	.loc 1 146 13 discriminator 14 view .LVU305
	cmp	r0, #0
	beq	.L59
	.loc 1 146 54 is_stmt 1 discriminator 14 view .LVU306
	.loc 1 146 686 discriminator 14 view .LVU307
	.loc 1 146 698 discriminator 14 view .LVU308
	.loc 1 146 702 discriminator 14 view .LVU309
	.loc 1 147 5 discriminator 14 view .LVU310
	.loc 1 147 10 discriminator 14 view .LVU311
	.loc 1 147 15 is_stmt 0 discriminator 14 view .LVU312
	mov	r2, r4
	mov	r1, r6
	mov	r0, r7
	bl	addr_is_within_bounds
.LVL81:
	.loc 1 147 13 discriminator 14 view .LVU313
	cmp	r0, #0
	beq	.L60
	.loc 1 147 58 is_stmt 1 discriminator 14 view .LVU314
	.loc 1 147 698 discriminator 14 view .LVU315
	.loc 1 147 710 discriminator 14 view .LVU316
	.loc 1 147 714 discriminator 14 view .LVU317
	.loc 1 149 5 discriminator 14 view .LVU318
	.loc 1 149 25 is_stmt 0 discriminator 14 view .LVU319
	ldr	r8, [r8, #12]
	.loc 1 149 17 discriminator 14 view .LVU320
	ldr	r3, [sp, #32]
	str	r3, [sp]
	mov	r3, r4
	mov	r2, r5
	mov	r1, r6
	mov	r0, r7
	blx	r8
.LVL82:
.L42:
	.loc 1 150 1 view .LVU321
	add	sp, sp, #8
.LCFI14:
	@ sp needed
	pop	{r4, r5, r6, r7, r8, pc}
.LVL83:
.L53:
.LCFI15:
	.loc 1 136 31 is_stmt 1 discriminator 7 view .LVU322
	.loc 1 136 43 discriminator 7 view .LVU323
	.loc 1 136 118 discriminator 7 view .LVU324
	.loc 1 136 174 discriminator 7 view .LVU325
	.loc 1 136 265 is_stmt 0 discriminator 7 view .LVU326
	ldr	r3, .L61
.LVL84:
	.loc 1 136 265 discriminator 7 view .LVU327
	ldrh	r0, [r3]
.LVL85:
	.loc 1 136 276 discriminator 7 view .LVU328
	lsls	r0, r0, #16
	.loc 1 136 174 discriminator 7 view .LVU329
	movs	r4, #14
	str	r4, [sp]
	ldr	r3, .L61+4
	ldr	r2, .L61+8
.LVL86:
	.loc 1 136 174 discriminator 7 view .LVU330
	ldr	r1, .L61+12
.LVL87:
	.loc 1 136 174 discriminator 7 view .LVU331
	orr	r0, r0, #1
	bl	nrf_log_frontend_std_3
.LVL88:
	.loc 1 136 400 is_stmt 1 discriminator 7 view .LVU332
	.loc 1 136 402 discriminator 7 view .LVU333
	.loc 1 136 409 is_stmt 0 discriminator 7 view .LVU334
	mov	r0, r4
	b	.L42
.LVL89:
.L54:
	.loc 1 137 32 is_stmt 1 discriminator 7 view .LVU335
	.loc 1 137 44 discriminator 7 view .LVU336
	.loc 1 137 119 discriminator 7 view .LVU337
	.loc 1 137 175 discriminator 7 view .LVU338
	.loc 1 137 266 is_stmt 0 discriminator 7 view .LVU339
	ldr	r3, .L61
.LVL90:
	.loc 1 137 266 discriminator 7 view .LVU340
	ldrh	r0, [r3]
.LVL91:
	.loc 1 137 277 discriminator 7 view .LVU341
	lsls	r0, r0, #16
	.loc 1 137 175 discriminator 7 view .LVU342
	movs	r4, #14
.LVL92:
	.loc 1 137 175 discriminator 7 view .LVU343
	str	r4, [sp]
	ldr	r3, .L61+4
	ldr	r2, .L61+16
.LVL93:
	.loc 1 137 175 discriminator 7 view .LVU344
	ldr	r1, .L61+12
.LVL94:
	.loc 1 137 175 discriminator 7 view .LVU345
	orr	r0, r0, #1
	bl	nrf_log_frontend_std_3
.LVL95:
	.loc 1 137 402 is_stmt 1 discriminator 7 view .LVU346
	.loc 1 137 404 discriminator 7 view .LVU347
	.loc 1 137 411 is_stmt 0 discriminator 7 view .LVU348
	mov	r0, r4
	b	.L42
.LVL96:
.L55:
	.loc 1 138 38 is_stmt 1 discriminator 7 view .LVU349
	.loc 1 138 50 discriminator 7 view .LVU350
	.loc 1 138 125 discriminator 7 view .LVU351
	.loc 1 138 181 discriminator 7 view .LVU352
	.loc 1 138 272 is_stmt 0 discriminator 7 view .LVU353
	ldr	r3, .L61
.LVL97:
	.loc 1 138 272 discriminator 7 view .LVU354
	ldrh	r0, [r3]
.LVL98:
	.loc 1 138 283 discriminator 7 view .LVU355
	lsls	r0, r0, #16
	.loc 1 138 181 discriminator 7 view .LVU356
	movs	r4, #8
.LVL99:
	.loc 1 138 181 discriminator 7 view .LVU357
	str	r4, [sp]
	ldr	r3, .L61+4
	ldr	r2, .L61+20
.LVL100:
	.loc 1 138 181 discriminator 7 view .LVU358
	ldr	r1, .L61+12
.LVL101:
	.loc 1 138 181 discriminator 7 view .LVU359
	orr	r0, r0, #1
	bl	nrf_log_frontend_std_3
.LVL102:
	.loc 1 138 413 is_stmt 1 discriminator 7 view .LVU360
	.loc 1 138 415 discriminator 7 view .LVU361
	.loc 1 138 422 is_stmt 0 discriminator 7 view .LVU362
	mov	r0, r4
	b	.L42
.LVL103:
.L56:
	.loc 1 139 30 is_stmt 1 discriminator 7 view .LVU363
	.loc 1 139 42 discriminator 7 view .LVU364
	.loc 1 139 117 discriminator 7 view .LVU365
	.loc 1 139 173 discriminator 7 view .LVU366
	.loc 1 139 264 is_stmt 0 discriminator 7 view .LVU367
	ldr	r3, .L61
.LVL104:
	.loc 1 139 264 discriminator 7 view .LVU368
	ldrh	r0, [r3]
.LVL105:
	.loc 1 139 275 discriminator 7 view .LVU369
	lsls	r0, r0, #16
	.loc 1 139 173 discriminator 7 view .LVU370
	movs	r4, #9
.LVL106:
	.loc 1 139 173 discriminator 7 view .LVU371
	str	r4, [sp]
	ldr	r3, .L61+4
	ldr	r2, .L61+24
.LVL107:
	.loc 1 139 173 discriminator 7 view .LVU372
	ldr	r1, .L61+12
.LVL108:
	.loc 1 139 173 discriminator 7 view .LVU373
	orr	r0, r0, #1
	bl	nrf_log_frontend_std_3
.LVL109:
	.loc 1 139 397 is_stmt 1 discriminator 7 view .LVU374
	.loc 1 139 399 discriminator 7 view .LVU375
	.loc 1 139 406 is_stmt 0 discriminator 7 view .LVU376
	mov	r0, r4
	b	.L42
.LVL110:
.L57:
	.loc 1 142 68 is_stmt 1 discriminator 7 view .LVU377
	.loc 1 142 80 discriminator 7 view .LVU378
	.loc 1 142 155 discriminator 7 view .LVU379
	.loc 1 142 211 discriminator 7 view .LVU380
	.loc 1 142 302 is_stmt 0 discriminator 7 view .LVU381
	ldr	r3, .L61
	ldrh	r0, [r3]
.LVL111:
	.loc 1 142 313 discriminator 7 view .LVU382
	lsls	r0, r0, #16
	.loc 1 142 211 discriminator 7 view .LVU383
	movs	r4, #9
.LVL112:
	.loc 1 142 211 discriminator 7 view .LVU384
	str	r4, [sp]
	ldr	r3, .L61+4
	ldr	r2, .L61+28
	ldr	r1, .L61+12
.LVL113:
	.loc 1 142 211 discriminator 7 view .LVU385
	orr	r0, r0, #1
	bl	nrf_log_frontend_std_3
.LVL114:
	.loc 1 142 473 is_stmt 1 discriminator 7 view .LVU386
	.loc 1 142 475 discriminator 7 view .LVU387
	.loc 1 142 482 is_stmt 0 discriminator 7 view .LVU388
	mov	r0, r4
	b	.L42
.LVL115:
.L58:
	.loc 1 145 50 is_stmt 1 discriminator 7 view .LVU389
	.loc 1 145 62 discriminator 7 view .LVU390
	.loc 1 145 137 discriminator 7 view .LVU391
	.loc 1 145 193 discriminator 7 view .LVU392
	.loc 1 145 284 is_stmt 0 discriminator 7 view .LVU393
	ldr	r3, .L61
	ldrh	r0, [r3]
	.loc 1 145 295 discriminator 7 view .LVU394
	lsls	r0, r0, #16
	.loc 1 145 193 discriminator 7 view .LVU395
	movs	r4, #16
.LVL116:
	.loc 1 145 193 discriminator 7 view .LVU396
	str	r4, [sp]
	ldr	r3, .L61+4
	ldr	r2, .L61+32
	ldr	r1, .L61+12
	orr	r0, r0, #1
	bl	nrf_log_frontend_std_3
.LVL117:
	.loc 1 145 438 is_stmt 1 discriminator 7 view .LVU397
	.loc 1 145 440 discriminator 7 view .LVU398
	.loc 1 145 447 is_stmt 0 discriminator 7 view .LVU399
	mov	r0, r4
	b	.L42
.LVL118:
.L59:
	.loc 1 146 61 is_stmt 1 discriminator 7 view .LVU400
	.loc 1 146 73 discriminator 7 view .LVU401
	.loc 1 146 148 discriminator 7 view .LVU402
	.loc 1 146 204 discriminator 7 view .LVU403
	.loc 1 146 295 is_stmt 0 discriminator 7 view .LVU404
	ldr	r3, .L61
	ldrh	r0, [r3]
	.loc 1 146 306 discriminator 7 view .LVU405
	lsls	r0, r0, #16
	.loc 1 146 204 discriminator 7 view .LVU406
	movs	r4, #16
.LVL119:
	.loc 1 146 204 discriminator 7 view .LVU407
	str	r4, [sp]
	ldr	r3, .L61+4
	ldr	r2, .L61+36
	ldr	r1, .L61+12
	orr	r0, r0, #1
	bl	nrf_log_frontend_std_3
.LVL120:
	.loc 1 146 460 is_stmt 1 discriminator 7 view .LVU408
	.loc 1 146 462 discriminator 7 view .LVU409
	.loc 1 146 469 is_stmt 0 discriminator 7 view .LVU410
	mov	r0, r4
	b	.L42
.LVL121:
.L60:
	.loc 1 147 65 is_stmt 1 discriminator 7 view .LVU411
	.loc 1 147 77 discriminator 7 view .LVU412
	.loc 1 147 152 discriminator 7 view .LVU413
	.loc 1 147 208 discriminator 7 view .LVU414
	.loc 1 147 299 is_stmt 0 discriminator 7 view .LVU415
	ldr	r3, .L61
	ldrh	r0, [r3]
	.loc 1 147 310 discriminator 7 view .LVU416
	lsls	r0, r0, #16
	.loc 1 147 208 discriminator 7 view .LVU417
	movs	r4, #16
.LVL122:
	.loc 1 147 208 discriminator 7 view .LVU418
	str	r4, [sp]
	ldr	r3, .L61+4
	ldr	r2, .L61+40
	ldr	r1, .L61+12
	orr	r0, r0, #1
	bl	nrf_log_frontend_std_3
.LVL123:
	.loc 1 147 468 is_stmt 1 discriminator 7 view .LVU419
	.loc 1 147 470 discriminator 7 view .LVU420
	.loc 1 147 477 is_stmt 0 discriminator 7 view .LVU421
	mov	r0, r4
	b	.L42
.L62:
	.align	2
.L61:
	.word	.LANCHOR0
	.word	.LANCHOR4
	.word	.LC0
	.word	.LC1
	.word	.LC8
	.word	.LC3
	.word	.LC5
	.word	.LC9
	.word	.LC10
	.word	.LC11
	.word	.LC12
.LFE145:
	.size	nrf_fstorage_write, .-nrf_fstorage_write
	.section	.rodata.nrf_fstorage_erase.str1.4,"aMS",%progbits,1
	.align	2
.LC13:
	.ascii	"addr_is_page_aligned(p_fs, page_addr)\000"
	.align	2
.LC14:
	.ascii	"addr_is_within_bounds(p_fs, page_addr, (len * p_fs-"
	.ascii	">p_flash_info->erase_unit))\000"
	.section	.text.nrf_fstorage_erase,"ax",%progbits
	.align	1
	.global	nrf_fstorage_erase
	.syntax unified
	.thumb
	.thumb_func
	.fpu fpv4-sp-d16
	.type	nrf_fstorage_erase, %function
nrf_fstorage_erase:
.LVL124:
.LFB146:
	.loc 1 157 1 is_stmt 1 view -0
	@ args = 0, pretend = 0, frame = 0
	@ frame_needed = 0, uses_anonymous_args = 0
	.loc 1 157 1 is_stmt 0 view .LVU423
	push	{r4, r5, r6, r7, r8, lr}
.LCFI16:
	sub	sp, sp, #8
.LCFI17:
	.loc 1 158 5 is_stmt 1 view .LVU424
	.loc 1 158 10 view .LVU425
	.loc 1 158 13 is_stmt 0 view .LVU426
	cbz	r0, .L71
	mov	r8, r1
	mov	r4, r2
	mov	r7, r3
	mov	r5, r0
	.loc 1 158 24 is_stmt 1 discriminator 14 view .LVU427
	.loc 1 158 596 discriminator 14 view .LVU428
	.loc 1 158 608 discriminator 14 view .LVU429
	.loc 1 158 612 discriminator 14 view .LVU430
	.loc 1 159 5 discriminator 14 view .LVU431
	.loc 1 159 10 discriminator 14 view .LVU432
	.loc 1 159 19 is_stmt 0 discriminator 14 view .LVU433
	ldr	r6, [r0]
	.loc 1 159 13 discriminator 14 view .LVU434
	cbz	r6, .L72
	.loc 1 159 31 is_stmt 1 discriminator 14 view .LVU435
	.loc 1 159 615 discriminator 14 view .LVU436
	.loc 1 159 627 discriminator 14 view .LVU437
	.loc 1 159 631 discriminator 14 view .LVU438
	.loc 1 160 5 discriminator 14 view .LVU439
	.loc 1 160 10 discriminator 14 view .LVU440
	.loc 1 160 13 is_stmt 0 discriminator 14 view .LVU441
	cmp	r2, #0
	beq	.L73
	.loc 1 160 23 is_stmt 1 discriminator 14 view .LVU442
	.loc 1 160 591 discriminator 14 view .LVU443
	.loc 1 160 603 discriminator 14 view .LVU444
	.loc 1 160 607 discriminator 14 view .LVU445
	.loc 1 163 5 discriminator 14 view .LVU446
	.loc 1 163 10 discriminator 14 view .LVU447
	.loc 1 163 15 is_stmt 0 discriminator 14 view .LVU448
	bl	addr_is_page_aligned
.LVL125:
	.loc 1 163 13 discriminator 14 view .LVU449
	cmp	r0, #0
	beq	.L74
	.loc 1 163 57 is_stmt 1 discriminator 14 view .LVU450
	.loc 1 163 695 discriminator 14 view .LVU451
	.loc 1 163 707 discriminator 14 view .LVU452
	.loc 1 163 711 discriminator 14 view .LVU453
	.loc 1 165 5 discriminator 14 view .LVU454
	.loc 1 165 10 discriminator 14 view .LVU455
	.loc 1 165 65 is_stmt 0 discriminator 14 view .LVU456
	ldr	r3, [r5, #4]
	.loc 1 165 79 discriminator 14 view .LVU457
	ldr	r2, [r3]
	.loc 1 165 15 discriminator 14 view .LVU458
	mul	r2, r4, r2
	mov	r1, r8
	mov	r0, r5
	bl	addr_is_within_bounds
.LVL126:
	.loc 1 165 13 discriminator 14 view .LVU459
	cmp	r0, #0
	beq	.L75
	.loc 1 165 98 is_stmt 1 discriminator 14 view .LVU460
	.loc 1 165 818 discriminator 14 view .LVU461
	.loc 1 165 830 discriminator 14 view .LVU462
	.loc 1 168 6 discriminator 14 view .LVU463
	.loc 1 170 5 discriminator 14 view .LVU464
	.loc 1 170 25 is_stmt 0 discriminator 14 view .LVU465
	ldr	r6, [r6, #16]
	.loc 1 170 17 discriminator 14 view .LVU466
	mov	r3, r7
	mov	r2, r4
	mov	r1, r8
	mov	r0, r5
	blx	r6
.LVL127:
.L63:
	.loc 1 171 1 view .LVU467
	add	sp, sp, #8
.LCFI18:
	@ sp needed
	pop	{r4, r5, r6, r7, r8, pc}
.LVL128:
.L71:
.LCFI19:
	.loc 1 158 31 is_stmt 1 discriminator 7 view .LVU468
	.loc 1 158 43 discriminator 7 view .LVU469
	.loc 1 158 118 discriminator 7 view .LVU470
	.loc 1 158 174 discriminator 7 view .LVU471
	.loc 1 158 265 is_stmt 0 discriminator 7 view .LVU472
	ldr	r3, .L76
.LVL129:
	.loc 1 158 265 discriminator 7 view .LVU473
	ldrh	r0, [r3]
.LVL130:
	.loc 1 158 276 discriminator 7 view .LVU474
	lsls	r0, r0, #16
	.loc 1 158 174 discriminator 7 view .LVU475
	movs	r4, #14
	str	r4, [sp]
	ldr	r3, .L76+4
	ldr	r2, .L76+8
.LVL131:
	.loc 1 158 174 discriminator 7 view .LVU476
	ldr	r1, .L76+12
.LVL132:
	.loc 1 158 174 discriminator 7 view .LVU477
	orr	r0, r0, #1
	bl	nrf_log_frontend_std_3
.LVL133:
	.loc 1 158 400 is_stmt 1 discriminator 7 view .LVU478
	.loc 1 158 402 discriminator 7 view .LVU479
	.loc 1 158 409 is_stmt 0 discriminator 7 view .LVU480
	mov	r0, r4
	b	.L63
.LVL134:
.L72:
	.loc 1 159 38 is_stmt 1 discriminator 7 view .LVU481
	.loc 1 159 50 discriminator 7 view .LVU482
	.loc 1 159 125 discriminator 7 view .LVU483
	.loc 1 159 181 discriminator 7 view .LVU484
	.loc 1 159 272 is_stmt 0 discriminator 7 view .LVU485
	ldr	r3, .L76
.LVL135:
	.loc 1 159 272 discriminator 7 view .LVU486
	ldrh	r0, [r3]
.LVL136:
	.loc 1 159 283 discriminator 7 view .LVU487
	lsls	r0, r0, #16
	.loc 1 159 181 discriminator 7 view .LVU488
	movs	r4, #8
	str	r4, [sp]
	ldr	r3, .L76+4
	ldr	r2, .L76+16
.LVL137:
	.loc 1 159 181 discriminator 7 view .LVU489
	ldr	r1, .L76+12
.LVL138:
	.loc 1 159 181 discriminator 7 view .LVU490
	orr	r0, r0, #1
	bl	nrf_log_frontend_std_3
.LVL139:
	.loc 1 159 413 is_stmt 1 discriminator 7 view .LVU491
	.loc 1 159 415 discriminator 7 view .LVU492
	.loc 1 159 422 is_stmt 0 discriminator 7 view .LVU493
	mov	r0, r4
	b	.L63
.LVL140:
.L73:
	.loc 1 160 30 is_stmt 1 discriminator 7 view .LVU494
	.loc 1 160 42 discriminator 7 view .LVU495
	.loc 1 160 117 discriminator 7 view .LVU496
	.loc 1 160 173 discriminator 7 view .LVU497
	.loc 1 160 264 is_stmt 0 discriminator 7 view .LVU498
	ldr	r3, .L76
.LVL141:
	.loc 1 160 264 discriminator 7 view .LVU499
	ldrh	r0, [r3]
.LVL142:
	.loc 1 160 275 discriminator 7 view .LVU500
	lsls	r0, r0, #16
	.loc 1 160 173 discriminator 7 view .LVU501
	movs	r4, #9
	str	r4, [sp]
	ldr	r3, .L76+4
	ldr	r2, .L76+20
.LVL143:
	.loc 1 160 173 discriminator 7 view .LVU502
	ldr	r1, .L76+12
.LVL144:
	.loc 1 160 173 discriminator 7 view .LVU503
	orr	r0, r0, #1
	bl	nrf_log_frontend_std_3
.LVL145:
	.loc 1 160 397 is_stmt 1 discriminator 7 view .LVU504
	.loc 1 160 399 discriminator 7 view .LVU505
	.loc 1 160 406 is_stmt 0 discriminator 7 view .LVU506
	mov	r0, r4
	b	.L63
.LVL146:
.L74:
	.loc 1 163 64 is_stmt 1 discriminator 7 view .LVU507
	.loc 1 163 76 discriminator 7 view .LVU508
	.loc 1 163 151 discriminator 7 view .LVU509
	.loc 1 163 207 discriminator 7 view .LVU510
	.loc 1 163 298 is_stmt 0 discriminator 7 view .LVU511
	ldr	r3, .L76
	ldrh	r0, [r3]
	.loc 1 163 309 discriminator 7 view .LVU512
	lsls	r0, r0, #16
	.loc 1 163 207 discriminator 7 view .LVU513
	movs	r4, #16
.LVL147:
	.loc 1 163 207 discriminator 7 view .LVU514
	str	r4, [sp]
	ldr	r3, .L76+4
	ldr	r2, .L76+24
	ldr	r1, .L76+12
	orr	r0, r0, #1
	bl	nrf_log_frontend_std_3
.LVL148:
	.loc 1 163 466 is_stmt 1 discriminator 7 view .LVU515
	.loc 1 163 468 discriminator 7 view .LVU516
	.loc 1 163 475 is_stmt 0 discriminator 7 view .LVU517
	mov	r0, r4
	b	.L63
.LVL149:
.L75:
	.loc 1 165 105 is_stmt 1 discriminator 7 view .LVU518
	.loc 1 165 117 discriminator 7 view .LVU519
	.loc 1 165 192 discriminator 7 view .LVU520
	.loc 1 165 248 discriminator 7 view .LVU521
	.loc 1 165 339 is_stmt 0 discriminator 7 view .LVU522
	ldr	r3, .L76
	ldrh	r0, [r3]
	.loc 1 165 350 discriminator 7 view .LVU523
	lsls	r0, r0, #16
	.loc 1 165 248 discriminator 7 view .LVU524
	movs	r4, #16
.LVL150:
	.loc 1 165 248 discriminator 7 view .LVU525
	str	r4, [sp]
	ldr	r3, .L76+4
	ldr	r2, .L76+28
	ldr	r1, .L76+12
	orr	r0, r0, #1
	bl	nrf_log_frontend_std_3
.LVL151:
	.loc 1 165 548 is_stmt 1 discriminator 7 view .LVU526
	.loc 1 165 550 discriminator 7 view .LVU527
	.loc 1 165 557 is_stmt 0 discriminator 7 view .LVU528
	mov	r0, r4
	b	.L63
.L77:
	.align	2
.L76:
	.word	.LANCHOR0
	.word	.LANCHOR5
	.word	.LC0
	.word	.LC1
	.word	.LC3
	.word	.LC5
	.word	.LC13
	.word	.LC14
.LFE146:
	.size	nrf_fstorage_erase, .-nrf_fstorage_erase
	.section	.text.nrf_fstorage_rmap,"ax",%progbits
	.align	1
	.global	nrf_fstorage_rmap
	.syntax unified
	.thumb
	.thumb_func
	.fpu fpv4-sp-d16
	.type	nrf_fstorage_rmap, %function
nrf_fstorage_rmap:
.LVL152:
.LFB147:
	.loc 1 175 1 is_stmt 1 view -0
	@ args = 0, pretend = 0, frame = 0
	@ frame_needed = 0, uses_anonymous_args = 0
	.loc 1 175 1 is_stmt 0 view .LVU530
	push	{r3, lr}
.LCFI20:
	.loc 1 176 5 is_stmt 1 view .LVU531
	.loc 1 176 8 is_stmt 0 view .LVU532
	mov	r3, r0
	cbz	r0, .L78
	.loc 1 176 31 discriminator 1 view .LVU533
	ldr	r0, [r0]
.LVL153:
	.loc 1 176 23 discriminator 1 view .LVU534
	cbz	r0, .L78
	.loc 1 181 5 is_stmt 1 view .LVU535
	.loc 1 181 25 is_stmt 0 view .LVU536
	ldr	r2, [r0, #20]
	.loc 1 181 17 view .LVU537
	mov	r0, r3
	blx	r2
.LVL154:
.L78:
	.loc 1 182 1 view .LVU538
	pop	{r3, pc}
.LFE147:
	.size	nrf_fstorage_rmap, .-nrf_fstorage_rmap
	.section	.text.nrf_fstorage_wmap,"ax",%progbits
	.align	1
	.global	nrf_fstorage_wmap
	.syntax unified
	.thumb
	.thumb_func
	.fpu fpv4-sp-d16
	.type	nrf_fstorage_wmap, %function
nrf_fstorage_wmap:
.LVL155:
.LFB148:
	.loc 1 186 1 is_stmt 1 view -0
	@ args = 0, pretend = 0, frame = 0
	@ frame_needed = 0, uses_anonymous_args = 0
	.loc 1 186 1 is_stmt 0 view .LVU540
	push	{r3, lr}
.LCFI21:
	.loc 1 187 5 is_stmt 1 view .LVU541
	.loc 1 187 8 is_stmt 0 view .LVU542
	mov	r3, r0
	cbz	r0, .L82
	.loc 1 187 31 discriminator 1 view .LVU543
	ldr	r0, [r0]
.LVL156:
	.loc 1 187 23 discriminator 1 view .LVU544
	cbz	r0, .L82
	.loc 1 192 5 is_stmt 1 view .LVU545
	.loc 1 192 25 is_stmt 0 view .LVU546
	ldr	r2, [r0, #24]
	.loc 1 192 17 view .LVU547
	mov	r0, r3
	blx	r2
.LVL157:
.L82:
	.loc 1 193 1 view .LVU548
	pop	{r3, pc}
.LFE148:
	.size	nrf_fstorage_wmap, .-nrf_fstorage_wmap
	.section	.text.nrf_fstorage_is_busy,"ax",%progbits
	.align	1
	.global	nrf_fstorage_is_busy
	.syntax unified
	.thumb
	.thumb_func
	.fpu fpv4-sp-d16
	.type	nrf_fstorage_is_busy, %function
nrf_fstorage_is_busy:
.LVL158:
.LFB149:
	.loc 1 197 1 is_stmt 1 view -0
	@ args = 0, pretend = 0, frame = 0
	@ frame_needed = 0, uses_anonymous_args = 0
	.loc 1 197 1 is_stmt 0 view .LVU550
	push	{r4, lr}
.LCFI22:
	.loc 1 200 5 is_stmt 1 view .LVU551
	.loc 1 200 8 is_stmt 0 view .LVU552
	cbz	r0, .L93
	.loc 1 200 31 discriminator 1 view .LVU553
	ldr	r2, [r0]
	.loc 1 200 23 discriminator 1 view .LVU554
	cbz	r2, .L97
	.loc 1 218 5 is_stmt 1 view .LVU555
	.loc 1 218 23 is_stmt 0 view .LVU556
	ldr	r2, [r2, #28]
	.loc 1 218 12 view .LVU557
	blx	r2
.LVL159:
	.loc 1 218 12 view .LVU558
	mov	r3, r0
.LVL160:
.L90:
	.loc 1 219 1 view .LVU559
	mov	r0, r3
	pop	{r4, pc}
.LVL161:
.L89:
.LBB2:
	.loc 1 202 113 is_stmt 1 discriminator 2 view .LVU560
	.loc 1 202 114 is_stmt 0 discriminator 2 view .LVU561
	adds	r4, r4, #1
.LVL162:
.L91:
	.loc 1 202 30 is_stmt 1 discriminator 1 view .LVU562
	.loc 1 202 59 is_stmt 0 discriminator 1 view .LVU563
	ldr	r3, .L99
	ldr	r2, .L99+4
	.loc 1 202 87 discriminator 1 view .LVU564
	subs	r3, r3, r2
	ldr	r2, .L99+8
	umull	r2, r3, r2, r3
	.loc 1 202 9 discriminator 1 view .LVU565
	cmp	r4, r3, lsr #4
	bcs	.L98
	.loc 1 204 13 is_stmt 1 view .LVU566
	.loc 1 204 55 is_stmt 0 view .LVU567
	add	r3, r4, r4, lsl #2
	.loc 1 204 18 view .LVU568
	ldr	r2, .L99+4
	add	r0, r2, r3, lsl #2
.LVL163:
	.loc 1 205 13 is_stmt 1 view .LVU569
	.loc 1 205 21 is_stmt 0 view .LVU570
	ldr	r3, [r2, r3, lsl #2]
	.loc 1 205 16 view .LVU571
	cmp	r3, #0
	beq	.L89
	.loc 1 208 17 is_stmt 1 view .LVU572
	.loc 1 208 32 is_stmt 0 view .LVU573
	ldr	r3, [r3, #28]
	.loc 1 208 21 view .LVU574
	blx	r3
.LVL164:
	.loc 1 208 20 view .LVU575
	mov	r3, r0
	cmp	r0, #0
	beq	.L89
	b	.L90
.LVL165:
.L93:
	.loc 1 208 20 view .LVU576
.LBE2:
	movs	r4, #0
	b	.L91
.L97:
	movs	r4, #0
	b	.L91
.LVL166:
.L98:
	.loc 1 215 15 view .LVU577
	movs	r3, #0
	b	.L90
.L100:
	.align	2
.L99:
	.word	__stop_fs_data
	.word	__start_fs_data
	.word	-858993459
.LFE149:
	.size	nrf_fstorage_is_busy, .-nrf_fstorage_is_busy
	.global	m_nrf_log_nrf_fstorage_logs_data_dynamic
	.global	m_nrf_log_nrf_fstorage_logs_data_const
	.section	.rodata.str1.4,"aMS",%progbits,1
	.align	2
.LC15:
	.ascii	"nrf_fstorage\000"
	.section	.log_const_data_nrf_fstorage,"a"
	.align	2
	.type	m_nrf_log_nrf_fstorage_logs_data_const, %object
	.size	m_nrf_log_nrf_fstorage_logs_data_const, 8
m_nrf_log_nrf_fstorage_logs_data_const:
	.word	.LC15
	.byte	0
	.byte	0
	.byte	3
	.byte	3
	.section	.log_dynamic_data_nrf_fstorage,"aw"
	.align	2
	.set	.LANCHOR0,. + 0
	.type	m_nrf_log_nrf_fstorage_logs_data_dynamic, %object
	.size	m_nrf_log_nrf_fstorage_logs_data_dynamic, 4
m_nrf_log_nrf_fstorage_logs_data_dynamic:
	.space	4
	.section	.rodata.__func__.7716,"a"
	.align	2
	.set	.LANCHOR1,. + 0
	.type	__func__.7716, %object
	.size	__func__.7716, 18
__func__.7716:
	.ascii	"nrf_fstorage_init\000"
	.section	.rodata.__func__.7722,"a"
	.align	2
	.set	.LANCHOR2,. + 0
	.type	__func__.7722, %object
	.size	__func__.7722, 20
__func__.7722:
	.ascii	"nrf_fstorage_uninit\000"
	.section	.rodata.__func__.7729,"a"
	.align	2
	.set	.LANCHOR3,. + 0
	.type	__func__.7729, %object
	.size	__func__.7729, 18
__func__.7729:
	.ascii	"nrf_fstorage_read\000"
	.section	.rodata.__func__.7737,"a"
	.align	2
	.set	.LANCHOR4,. + 0
	.type	__func__.7737, %object
	.size	__func__.7737, 19
__func__.7737:
	.ascii	"nrf_fstorage_write\000"
	.section	.rodata.__func__.7744,"a"
	.align	2
	.set	.LANCHOR5,. + 0
	.type	__func__.7744, %object
	.size	__func__.7744, 19
__func__.7744:
	.ascii	"nrf_fstorage_erase\000"
	.section	.debug_frame,"",%progbits
.Lframe0:
	.4byte	.LECIE0-.LSCIE0
.LSCIE0:
	.4byte	0xffffffff
	.byte	0x3
	.ascii	"\000"
	.uleb128 0x1
	.sleb128 -4
	.uleb128 0xe
	.byte	0xc
	.uleb128 0xd
	.uleb128 0
	.align	2
.LECIE0:
.LSFDE0:
	.4byte	.LEFDE0-.LASFDE0
.LASFDE0:
	.4byte	.Lframe0
	.4byte	.LFB150
	.4byte	.LFE150-.LFB150
	.align	2
.LEFDE0:
.LSFDE2:
	.4byte	.LEFDE2-.LASFDE2
.LASFDE2:
	.4byte	.Lframe0
	.4byte	.LFB151
	.4byte	.LFE151-.LFB151
	.align	2
.LEFDE2:
.LSFDE4:
	.4byte	.LEFDE4-.LASFDE4
.LASFDE4:
	.4byte	.Lframe0
	.4byte	.LFB152
	.4byte	.LFE152-.LFB152
	.align	2
.LEFDE4:
.LSFDE6:
	.4byte	.LEFDE6-.LASFDE6
.LASFDE6:
	.4byte	.Lframe0
	.4byte	.LFB142
	.4byte	.LFE142-.LFB142
	.byte	0x4
	.4byte	.LCFI0-.LFB142
	.byte	0xe
	.uleb128 0x8
	.byte	0x84
	.uleb128 0x2
	.byte	0x8e
	.uleb128 0x1
	.byte	0x4
	.4byte	.LCFI1-.LCFI0
	.byte	0xe
	.uleb128 0x10
	.byte	0x4
	.4byte	.LCFI2-.LCFI1
	.byte	0xa
	.byte	0xe
	.uleb128 0x8
	.byte	0x4
	.4byte	.LCFI3-.LCFI2
	.byte	0xb
	.align	2
.LEFDE6:
.LSFDE8:
	.4byte	.LEFDE8-.LASFDE8
.LASFDE8:
	.4byte	.Lframe0
	.4byte	.LFB143
	.4byte	.LFE143-.LFB143
	.byte	0x4
	.4byte	.LCFI4-.LFB143
	.byte	0xe
	.uleb128 0x8
	.byte	0x84
	.uleb128 0x2
	.byte	0x8e
	.uleb128 0x1
	.byte	0x4
	.4byte	.LCFI5-.LCFI4
	.byte	0xe
	.uleb128 0x10
	.byte	0x4
	.4byte	.LCFI6-.LCFI5
	.byte	0xa
	.byte	0xe
	.uleb128 0x8
	.byte	0x4
	.4byte	.LCFI7-.LCFI6
	.byte	0xb
	.align	2
.LEFDE8:
.LSFDE10:
	.4byte	.LEFDE10-.LASFDE10
.LASFDE10:
	.4byte	.Lframe0
	.4byte	.LFB144
	.4byte	.LFE144-.LFB144
	.byte	0x4
	.4byte	.LCFI8-.LFB144
	.byte	0xe
	.uleb128 0x18
	.byte	0x84
	.uleb128 0x6
	.byte	0x85
	.uleb128 0x5
	.byte	0x86
	.uleb128 0x4
	.byte	0x87
	.uleb128 0x3
	.byte	0x88
	.uleb128 0x2
	.byte	0x8e
	.uleb128 0x1
	.byte	0x4
	.4byte	.LCFI9-.LCFI8
	.byte	0xe
	.uleb128 0x20
	.byte	0x4
	.4byte	.LCFI10-.LCFI9
	.byte	0xa
	.byte	0xe
	.uleb128 0x18
	.byte	0x4
	.4byte	.LCFI11-.LCFI10
	.byte	0xb
	.align	2
.LEFDE10:
.LSFDE12:
	.4byte	.LEFDE12-.LASFDE12
.LASFDE12:
	.4byte	.Lframe0
	.4byte	.LFB145
	.4byte	.LFE145-.LFB145
	.byte	0x4
	.4byte	.LCFI12-.LFB145
	.byte	0xe
	.uleb128 0x18
	.byte	0x84
	.uleb128 0x6
	.byte	0x85
	.uleb128 0x5
	.byte	0x86
	.uleb128 0x4
	.byte	0x87
	.uleb128 0x3
	.byte	0x88
	.uleb128 0x2
	.byte	0x8e
	.uleb128 0x1
	.byte	0x4
	.4byte	.LCFI13-.LCFI12
	.byte	0xe
	.uleb128 0x20
	.byte	0x4
	.4byte	.LCFI14-.LCFI13
	.byte	0xa
	.byte	0xe
	.uleb128 0x18
	.byte	0x4
	.4byte	.LCFI15-.LCFI14
	.byte	0xb
	.align	2
.LEFDE12:
.LSFDE14:
	.4byte	.LEFDE14-.LASFDE14
.LASFDE14:
	.4byte	.Lframe0
	.4byte	.LFB146
	.4byte	.LFE146-.LFB146
	.byte	0x4
	.4byte	.LCFI16-.LFB146
	.byte	0xe
	.uleb128 0x18
	.byte	0x84
	.uleb128 0x6
	.byte	0x85
	.uleb128 0x5
	.byte	0x86
	.uleb128 0x4
	.byte	0x87
	.uleb128 0x3
	.byte	0x88
	.uleb128 0x2
	.byte	0x8e
	.uleb128 0x1
	.byte	0x4
	.4byte	.LCFI17-.LCFI16
	.byte	0xe
	.uleb128 0x20
	.byte	0x4
	.4byte	.LCFI18-.LCFI17
	.byte	0xa
	.byte	0xe
	.uleb128 0x18
	.byte	0x4
	.4byte	.LCFI19-.LCFI18
	.byte	0xb
	.align	2
.LEFDE14:
.LSFDE16:
	.4byte	.LEFDE16-.LASFDE16
.LASFDE16:
	.4byte	.Lframe0
	.4byte	.LFB147
	.4byte	.LFE147-.LFB147
	.byte	0x4
	.4byte	.LCFI20-.LFB147
	.byte	0xe
	.uleb128 0x8
	.byte	0x83
	.uleb128 0x2
	.byte	0x8e
	.uleb128 0x1
	.align	2
.LEFDE16:
.LSFDE18:
	.4byte	.LEFDE18-.LASFDE18
.LASFDE18:
	.4byte	.Lframe0
	.4byte	.LFB148
	.4byte	.LFE148-.LFB148
	.byte	0x4
	.4byte	.LCFI21-.LFB148
	.byte	0xe
	.uleb128 0x8
	.byte	0x83
	.uleb128 0x2
	.byte	0x8e
	.uleb128 0x1
	.align	2
.LEFDE18:
.LSFDE20:
	.4byte	.LEFDE20-.LASFDE20
.LASFDE20:
	.4byte	.Lframe0
	.4byte	.LFB149
	.4byte	.LFE149-.LFB149
	.byte	0x4
	.4byte	.LCFI22-.LFB149
	.byte	0xe
	.uleb128 0x8
	.byte	0x84
	.uleb128 0x2
	.byte	0x8e
	.uleb128 0x1
	.align	2
.LEFDE20:
	.text
.Letext0:
	.file 2 "../../../../../../components/libraries/experimental_log/nrf_log_types.h"
	.file 3 "C:/Program Files (x86)/SEGGER/SEGGER Embedded Studio for ARM 4.50/include/stdint.h"