	.cpu cortex-m4
	.eabi_attribute 27, 1
	.eabi_attribute 28, 1
	.eabi_attribute 20, 1
	.eabi_attribute 21, 1
	.eabi_attribute 23, 3
	.eabi_attribute 24, 1
	.eabi_attribute 25, 1
	.eabi_attribute 26, 1
	.eabi_attribute 30, 1
	.eabi_attribute 34, 1
	.eabi_attribute 18, 4
	.file	"peer_database.c"
	.text
.Ltext0:
	.section	.text.write_buffer_record_invalidate,"ax",%progbits
	.align	1
	.syntax unified
	.thumb
	.thumb_func
	.fpu fpv4-sp-d16
	.type	write_buffer_record_invalidate, %function
write_buffer_record_invalidate:
.LVL0:
.LFB279:
	.file 1 "C:\\nRF5_SDK_15.0.0_a53641a\\components\\ble\\peer_manager\\peer_database.c"
	.loc 1 119 1 view -0
	@ args = 0, pretend = 0, frame = 0
	@ frame_needed = 0, uses_anonymous_args = 0
	@ link register save eliminated.
	.loc 1 120 5 view .LVU1
	.loc 1 120 23 is_stmt 0 view .LVU2
	movw	r3, #65535
	strh	r3, [r0]	@ movhi
	.loc 1 121 5 is_stmt 1 view .LVU3
	.loc 1 121 23 is_stmt 0 view .LVU4
	strb	r3, [r0, #2]
	.loc 1 122 5 is_stmt 1 view .LVU5
	.loc 1 122 31 is_stmt 0 view .LVU6
	movs	r3, #255
	strb	r3, [r0, #13]
	.loc 1 123 5 is_stmt 1 view .LVU7
	.loc 1 123 26 is_stmt 0 view .LVU8
	ldrb	r3, [r0, #14]	@ zero_extendqisi2
	.loc 1 124 5 is_stmt 1 view .LVU9
	.loc 1 124 32 is_stmt 0 view .LVU10
	and	r3, r3, #253
	bfc	r3, #0, #1
	strb	r3, [r0, #14]
	.loc 1 125 5 is_stmt 1 view .LVU11
	.loc 1 125 22 is_stmt 0 view .LVU12
	movs	r3, #0
	strb	r3, [r0, #12]
	.loc 1 126 5 is_stmt 1 view .LVU13
	.loc 1 126 29 is_stmt 0 view .LVU14
	str	r3, [r0, #4]
	.loc 1 127 5 is_stmt 1 view .LVU15
	.loc 1 127 27 is_stmt 0 view .LVU16
	str	r3, [r0, #8]
	.loc 1 128 1 view .LVU17
	bx	lr
.LFE279:
	.size	write_buffer_record_invalidate, .-write_buffer_record_invalidate
	.section	.text.write_buffer_record_find_next,"ax",%progbits
	.align	1
	.syntax unified
	.thumb
	.thumb_func
	.fpu fpv4-sp-d16
	.type	write_buffer_record_find_next, %function
write_buffer_record_find_next:
.LVL1:
.LFB280:
	.loc 1 139 1 is_stmt 1 view -0
	@ args = 0, pretend = 0, frame = 0
	@ frame_needed = 0, uses_anonymous_args = 0
	@ link register save eliminated.
	.loc 1 140 5 view .LVU19
.LBB2:
	.loc 1 140 10 view .LVU20
	.loc 1 140 19 is_stmt 0 view .LVU21
	ldr	r3, [r1]
.LVL2:
	.loc 1 140 33 is_stmt 1 view .LVU22
	.loc 1 140 5 is_stmt 0 view .LVU23
	cmp	r3, #1
	bhi	.L12
.LBE2:
	.loc 1 139 1 view .LVU24
	push	{r4}
.LCFI0:
.L6:
.LBB3:
	.loc 1 142 9 is_stmt 1 view .LVU25
	.loc 1 142 39 is_stmt 0 view .LVU26
	lsls	r2, r3, #4
	ldr	r4, .L14
	ldrh	r2, [r4, r2]
	.loc 1 142 12 view .LVU27
	cmp	r2, r0
	beq	.L13
	.loc 1 140 40 is_stmt 1 discriminator 2 view .LVU28
	.loc 1 140 41 is_stmt 0 discriminator 2 view .LVU29
	adds	r3, r3, #1
.LVL3:
	.loc 1 140 33 is_stmt 1 discriminator 2 view .LVU30
	.loc 1 140 5 is_stmt 0 discriminator 2 view .LVU31
	cmp	r3, #1
	bls	.L6
.LBE3:
	.loc 1 148 11 view .LVU32
	movs	r0, #0
.LVL4:
	.loc 1 148 11 view .LVU33
	b	.L2
.LVL5:
.L13:
.LBB4:
	.loc 1 144 13 is_stmt 1 view .LVU34
	.loc 1 144 22 is_stmt 0 view .LVU35
	str	r3, [r1]
	.loc 1 145 13 is_stmt 1 view .LVU36
	.loc 1 145 20 is_stmt 0 view .LVU37
	add	r0, r4, r3, lsl #4
.LVL6:
.L2:
	.loc 1 145 20 view .LVU38
.LBE4:
	.loc 1 149 1 view .LVU39
	ldr	r4, [sp], #4
.LCFI1:
	bx	lr
.LVL7:
.L12:
	.loc 1 148 11 view .LVU40
	movs	r0, #0
.LVL8:
	.loc 1 149 1 view .LVU41
	bx	lr
.L15:
	.align	2
.L14:
	.word	.LANCHOR0
.LFE280:
	.size	write_buffer_record_find_next, .-write_buffer_record_find_next
	.section	.text.write_buffer_record_find,"ax",%progbits
	.align	1
	.syntax unified
	.thumb
	.thumb_func
	.fpu fpv4-sp-d16
	.type	write_buffer_record_find, %function
write_buffer_record_find:
.LVL9:
.LFB281:
	.loc 1 161 1 is_stmt 1 view -0
	@ args = 0, pretend = 0, frame = 8
	@ frame_needed = 0, uses_anonymous_args = 0
	.loc 1 161 1 is_stmt 0 view .LVU43
	push	{r4, r5, lr}
.LCFI2:
	sub	sp, sp, #12
.LCFI3:
	mov	r5, r0
	mov	r4, r1
	.loc 1 162 5 is_stmt 1 view .LVU44
	.loc 1 162 14 is_stmt 0 view .LVU45
	movs	r3, #0
	str	r3, [sp, #4]
	.loc 1 163 5 is_stmt 1 view .LVU46
	.loc 1 163 38 is_stmt 0 view .LVU47
	add	r1, sp, #4
.LVL10:
	.loc 1 163 38 view .LVU48
	bl	write_buffer_record_find_next
.LVL11:
	.loc 1 165 5 is_stmt 1 view .LVU49
	.loc 1 165 11 is_stmt 0 view .LVU50
	b	.L17
.L19:
	.loc 1 170 9 is_stmt 1 view .LVU51
	.loc 1 170 14 is_stmt 0 view .LVU52
	ldr	r3, [sp, #4]
	adds	r3, r3, #1
	str	r3, [sp, #4]
	.loc 1 171 9 is_stmt 1 view .LVU53
	.loc 1 171 20 is_stmt 0 view .LVU54
	add	r1, sp, #4
	mov	r0, r5
.LVL12:
	.loc 1 171 20 view .LVU55
	bl	write_buffer_record_find_next
.LVL13:
.L17:
	.loc 1 165 11 is_stmt 1 view .LVU56
	cbz	r0, .L16
	.loc 1 165 44 is_stmt 0 discriminator 1 view .LVU57
	ldrb	r3, [r0, #2]	@ zero_extendqisi2
	.loc 1 165 30 discriminator 1 view .LVU58
	cmp	r3, r4
	bne	.L19
	.loc 1 167 33 view .LVU59
	ldrb	r3, [r0, #14]	@ zero_extendqisi2
	tst	r3, #3
	bne	.L19
	.loc 1 168 45 view .LVU60
	ldr	r3, [r0, #8]
	.loc 1 168 33 view .LVU61
	cmp	r3, #0
	bne	.L19
.L16:
	.loc 1 175 1 view .LVU62
	add	sp, sp, #12
.LCFI4:
	@ sp needed
	pop	{r4, r5, pc}
.LFE281:
	.size	write_buffer_record_find, .-write_buffer_record_find
	.section	.text.write_buffer_record_find_stored,"ax",%progbits
	.align	1
	.syntax unified
	.thumb
	.thumb_func
	.fpu fpv4-sp-d16
	.type	write_buffer_record_find_stored, %function
write_buffer_record_find_stored:
.LVL14:
.LFB282:
	.loc 1 185 1 is_stmt 1 view -0
	@ args = 0, pretend = 0, frame = 0
	@ frame_needed = 0, uses_anonymous_args = 0
	@ link register save eliminated.
	.loc 1 186 5 view .LVU64
.LBB5:
	.loc 1 186 10 view .LVU65
	.loc 1 186 14 is_stmt 0 view .LVU66
	movs	r3, #0
.LVL15:
.L22:
	.loc 1 186 21 is_stmt 1 discriminator 1 view .LVU67
	.loc 1 186 5 is_stmt 0 discriminator 1 view .LVU68
	cmp	r3, #1
	bgt	.L26
	.loc 1 188 9 is_stmt 1 view .LVU69
	.loc 1 188 38 is_stmt 0 view .LVU70
	ldr	r2, .L28
	add	r2, r2, r3, lsl #4
	ldr	r2, [r2, #8]
	.loc 1 188 12 view .LVU71
	cmp	r2, r0
	beq	.L27
	.loc 1 186 28 is_stmt 1 discriminator 2 view .LVU72
	.loc 1 186 29 is_stmt 0 discriminator 2 view .LVU73
	adds	r3, r3, #1
.LVL16:
	.loc 1 186 29 discriminator 2 view .LVU74
	b	.L22
.L27:
	.loc 1 190 13 is_stmt 1 view .LVU75
	.loc 1 190 20 is_stmt 0 view .LVU76
	ldr	r0, .L28
.LVL17:
	.loc 1 190 20 view .LVU77
	add	r0, r0, r3, lsl #4
	bx	lr
.LVL18:
.L26:
	.loc 1 190 20 view .LVU78
.LBE5:
	.loc 1 193 11 view .LVU79
	movs	r0, #0
.LVL19:
	.loc 1 194 1 view .LVU80
	bx	lr
.L29:
	.align	2
.L28:
	.word	.LANCHOR0
.LFE282:
	.size	write_buffer_record_find_stored, .-write_buffer_record_find_stored
	.section	.text.write_buffer_record_find_unused,"ax",%progbits
	.align	1
	.syntax unified
	.thumb
	.thumb_func
	.fpu fpv4-sp-d16
	.type	write_buffer_record_find_unused, %function
write_buffer_record_find_unused:
.LFB283:
	.loc 1 202 1 is_stmt 1 view -0
	@ args = 0, pretend = 0, frame = 0
	@ frame_needed = 0, uses_anonymous_args = 0
	push	{r3, lr}
.LCFI5:
	.loc 1 203 5 view .LVU82
	.loc 1 203 12 is_stmt 0 view .LVU83
	movs	r1, #255
	movw	r0, #65535
	bl	write_buffer_record_find
.LVL20:
	.loc 1 204 1 view .LVU84
	pop	{r3, pc}
.LFE283:
	.size	write_buffer_record_find_unused, .-write_buffer_record_find_unused
	.section	.text.write_buffer_record_acquire,"ax",%progbits
	.align	1
	.syntax unified
	.thumb
	.thumb_func
	.fpu fpv4-sp-d16
	.type	write_buffer_record_acquire, %function
write_buffer_record_acquire:
.LVL21:
.LFB285:
	.loc 1 235 1 is_stmt 1 view -0
	@ args = 0, pretend = 0, frame = 0
	@ frame_needed = 0, uses_anonymous_args = 0
	.loc 1 236 5 view .LVU86
	.loc 1 236 8 is_stmt 0 view .LVU87
	cbz	r0, .L35
	.loc 1 235 1 view .LVU88
	push	{r4, r5, r6, lr}
.LCFI6:
	mov	r5, r1
	mov	r4, r2
	mov	r6, r0
	.loc 1 240 5 is_stmt 1 view .LVU89
	.loc 1 240 31 is_stmt 0 view .LVU90
	bl	write_buffer_record_find_unused
.LVL22:
	.loc 1 240 29 view .LVU91
	str	r0, [r6]
	.loc 1 241 5 is_stmt 1 view .LVU92
	.loc 1 241 8 is_stmt 0 view .LVU93
	cbz	r0, .L32
	.loc 1 246 5 is_stmt 1 view .LVU94
	.loc 1 246 40 is_stmt 0 view .LVU95
	strh	r5, [r0]	@ movhi
	.loc 1 247 5 is_stmt 1 view .LVU96
	.loc 1 247 6 is_stmt 0 view .LVU97
	ldr	r3, [r6]
	.loc 1 247 40 view .LVU98
	strb	r4, [r3, #2]
.L32:
	.loc 1 248 1 view .LVU99
	pop	{r4, r5, r6, pc}
.LVL23:
.L35:
.LCFI7:
	.loc 1 248 1 view .LVU100
	bx	lr
.LFE285:
	.size	write_buffer_record_acquire, .-write_buffer_record_acquire
	.section	.text.pdb_evt_send,"ax",%progbits
	.align	1
	.syntax unified
	.thumb
	.thumb_func
	.fpu fpv4-sp-d16
	.type	pdb_evt_send, %function
pdb_evt_send:
.LVL24:
.LFB286:
	.loc 1 256 1 is_stmt 1 view -0
	@ args = 0, pretend = 0, frame = 0
	@ frame_needed = 0, uses_anonymous_args = 0
	.loc 1 256 1 is_stmt 0 view .LVU102
	push	{r3, r4, r5, lr}
.LCFI8:
	mov	r5, r0
	.loc 1 257 5 is_stmt 1 view .LVU103
.LBB6:
	.loc 1 257 10 view .LVU104
.LVL25:
	.loc 1 257 19 is_stmt 0 view .LVU105
	movs	r4, #0
	.loc 1 257 5 view .LVU106
	b	.L39
.LVL26:
.L40:
	.loc 1 259 9 is_stmt 1 discriminator 3 view .LVU107
	.loc 1 259 23 is_stmt 0 discriminator 3 view .LVU108
	ldr	r3, .L42
	ldr	r3, [r3, r4, lsl #2]
	.loc 1 259 9 discriminator 3 view .LVU109
	mov	r0, r5
	blx	r3
.LVL27:
	.loc 1 257 84 is_stmt 1 discriminator 3 view .LVU110
	.loc 1 257 85 is_stmt 0 discriminator 3 view .LVU111
	adds	r4, r4, #1
.LVL28:
.L39:
	.loc 1 257 26 is_stmt 1 discriminator 1 view .LVU112
	.loc 1 257 5 is_stmt 0 discriminator 1 view .LVU113
	cmp	r4, #3
	bls	.L40
.LBE6:
	.loc 1 261 1 view .LVU114
	pop	{r3, r4, r5, pc}
.LVL29:
.L43:
	.loc 1 261 1 view .LVU115
	.align	2
.L42:
	.word	.LANCHOR1
.LFE286:
	.size	pdb_evt_send, .-pdb_evt_send
	.section	.text.internal_state_reset,"ax",%progbits
	.align	1
	.syntax unified
	.thumb
	.thumb_func
	.fpu fpv4-sp-d16
	.type	internal_state_reset, %function
internal_state_reset:
.LFB287:
	.loc 1 269 1 is_stmt 1 view -0
	@ args = 0, pretend = 0, frame = 0
	@ frame_needed = 0, uses_anonymous_args = 0
	push	{r4, lr}
.LCFI9:
	.loc 1 270 5 view .LVU117
.LBB7:
	.loc 1 270 10 view .LVU118
.LVL30:
	.loc 1 270 19 is_stmt 0 view .LVU119
	movs	r4, #0
	.loc 1 270 5 view .LVU120
	b	.L45
.LVL31:
.L46:
	.loc 1 272 9 is_stmt 1 discriminator 3 view .LVU121
	ldr	r0, .L48
	add	r0, r0, r4, lsl #4
	bl	write_buffer_record_invalidate
.LVL32:
	.loc 1 270 33 discriminator 3 view .LVU122
	.loc 1 270 34 is_stmt 0 discriminator 3 view .LVU123
	adds	r4, r4, #1
.LVL33:
.L45:
	.loc 1 270 26 is_stmt 1 discriminator 1 view .LVU124
	.loc 1 270 5 is_stmt 0 discriminator 1 view .LVU125
	cmp	r4, #1
	bls	.L46
.LBE7:
	.loc 1 274 1 view .LVU126
	pop	{r4, pc}
.LVL34:
.L49:
	.loc 1 274 1 view .LVU127
	.align	2
.L48:
	.word	.LANCHOR0
.LFE287:
	.size	internal_state_reset, .-internal_state_reset
	.section	.text.peer_data_point_to_buffer,"ax",%progbits
	.align	1
	.syntax unified
	.thumb
	.thumb_func
	.fpu fpv4-sp-d16
	.type	peer_data_point_to_buffer, %function
peer_data_point_to_buffer:
.LVL35:
.LFB288:
	.loc 1 278 1 is_stmt 1 view -0
	@ args = 0, pretend = 0, frame = 0
	@ frame_needed = 0, uses_anonymous_args = 0
	@ link register save eliminated.
	.loc 1 279 5 view .LVU129
	.loc 1 279 14 is_stmt 0 view .LVU130
	add	r3, r3, r3, lsl #2
.LVL36:
	.loc 1 279 14 view .LVU131
	lsls	r3, r3, #4
	uxth	r3, r3
.LVL37:
	.loc 1 280 5 is_stmt 1 view .LVU132
	.loc 1 280 26 is_stmt 0 view .LVU133
	strb	r1, [r0, #2]
	.loc 1 282 5 is_stmt 1 view .LVU134
	.loc 1 282 29 is_stmt 0 view .LVU135
	str	r2, [r0, #4]
	.loc 1 283 5 is_stmt 1 view .LVU136
	.loc 1 283 50 is_stmt 0 view .LVU137
	lsrs	r3, r3, #2
.LVL38:
	.loc 1 283 31 view .LVU138
	strh	r3, [r0]	@ movhi
	.loc 1 284 1 view .LVU139
	bx	lr
.LFE288:
	.size	peer_data_point_to_buffer, .-peer_data_point_to_buffer
	.section	.text.peer_data_const_point_to_buffer,"ax",%progbits
	.align	1
	.syntax unified
	.thumb
	.thumb_func
	.fpu fpv4-sp-d16
	.type	peer_data_const_point_to_buffer, %function
peer_data_const_point_to_buffer:
.LVL39:
.LFB289:
	.loc 1 288 1 is_stmt 1 view -0
	@ args = 0, pretend = 0, frame = 0
	@ frame_needed = 0, uses_anonymous_args = 0
	.loc 1 288 1 is_stmt 0 view .LVU141
	push	{r3, lr}
.LCFI10:
	.loc 1 289 5 is_stmt 1 view .LVU142
	uxth	r3, r3
.LVL40:
	.loc 1 289 5 is_stmt 0 view .LVU143
	bl	peer_data_point_to_buffer
.LVL41:
	.loc 1 290 1 view .LVU144
	pop	{r3, pc}
.LFE289:
	.size	peer_data_const_point_to_buffer, .-peer_data_const_point_to_buffer
	.section	.text.write_buf_length_words_set,"ax",%progbits
	.align	1
	.syntax unified
	.thumb
	.thumb_func
	.fpu fpv4-sp-d16
	.type	write_buf_length_words_set, %function
write_buf_length_words_set:
.LVL42:
.LFB290:
	.loc 1 294 1 is_stmt 1 view -0
	@ args = 0, pretend = 0, frame = 0
	@ frame_needed = 0, uses_anonymous_args = 0
	@ link register save eliminated.
	.loc 1 295 5 view .LVU146
	.loc 1 295 24 is_stmt 0 view .LVU147
	ldrb	r3, [r0, #2]	@ zero_extendqisi2
	subs	r3, r3, #1
	cmp	r3, #7
	bhi	.L53
	tbb	[pc, r3]
.L56:
	.byte	(.L59-.L56)/2
	.byte	(.L53-.L56)/2
	.byte	(.L53-.L56)/2
	.byte	(.L53-.L56)/2
	.byte	(.L53-.L56)/2
	.byte	(.L58-.L56)/2
	.byte	(.L57-.L56)/2
	.byte	(.L55-.L56)/2
	.p2align 1
.L57:
	.loc 1 298 13 is_stmt 1 view .LVU148
	.loc 1 298 39 is_stmt 0 view .LVU149
	movs	r3, #20
	strh	r3, [r0]	@ movhi
	.loc 1 299 13 is_stmt 1 view .LVU150
	bx	lr
.L59:
	.loc 1 301 13 view .LVU151
	.loc 1 301 39 is_stmt 0 view .LVU152
	movs	r3, #1
	strh	r3, [r0]	@ movhi
	.loc 1 302 13 is_stmt 1 view .LVU153
	bx	lr
.L58:
	.loc 1 304 13 view .LVU154
	.loc 1 304 39 is_stmt 0 view .LVU155
	movs	r3, #1
	strh	r3, [r0]	@ movhi
	.loc 1 305 13 is_stmt 1 view .LVU156
	bx	lr
.L55:
	.loc 1 307 13 view .LVU157
	.loc 1 307 56 is_stmt 0 view .LVU158
	ldr	r3, [r0, #4]
	.loc 1 307 73 view .LVU159
	ldrh	r3, [r3, #4]
	.loc 1 307 139 view .LVU160
	adds	r3, r3, #9
	.loc 1 307 144 view .LVU161
	lsrs	r3, r3, #2
	.loc 1 307 39 view .LVU162
	strh	r3, [r0]	@ movhi
	.loc 1 308 13 is_stmt 1 view .LVU163
.L53:
	.loc 1 313 1 is_stmt 0 view .LVU164
	bx	lr
.LFE290:
	.size	write_buf_length_words_set, .-write_buf_length_words_set
	.section	.text.write_buffer_record_release,"ax",%progbits
	.align	1
	.syntax unified
	.thumb
	.thumb_func
	.fpu fpv4-sp-d16
	.type	write_buffer_record_release, %function
write_buffer_record_release:
.LVL43:
.LFB284:
	.loc 1 216 1 is_stmt 1 view -0
	@ args = 0, pretend = 0, frame = 0
	@ frame_needed = 0, uses_anonymous_args = 0
	.loc 1 216 1 is_stmt 0 view .LVU166
	push	{r3, r4, r5, lr}
.LCFI11:
	mov	r5, r0
	.loc 1 217 5 is_stmt 1 view .LVU167
.LBB8:
	.loc 1 217 10 view .LVU168
.LVL44:
	.loc 1 217 19 is_stmt 0 view .LVU169
	movs	r4, #0
.LVL45:
.L61:
	.loc 1 217 26 is_stmt 1 discriminator 1 view .LVU170
	.loc 1 217 51 is_stmt 0 discriminator 1 view .LVU171
	ldrb	r3, [r5, #12]	@ zero_extendqisi2
	.loc 1 217 5 discriminator 1 view .LVU172
	cmp	r3, r4
	bls	.L64
	.loc 1 219 9 is_stmt 1 discriminator 3 view .LVU173
	.loc 1 219 65 is_stmt 0 discriminator 3 view .LVU174
	ldrb	r1, [r5, #13]	@ zero_extendqisi2
	.loc 1 219 9 discriminator 3 view .LVU175
	add	r1, r1, r4
	uxtb	r1, r1
	ldr	r0, .L65
	bl	pm_buffer_release
.LVL46:
	.loc 1 217 61 is_stmt 1 discriminator 3 view .LVU176
	.loc 1 217 62 is_stmt 0 discriminator 3 view .LVU177
	adds	r4, r4, #1
.LVL47:
	.loc 1 217 62 discriminator 3 view .LVU178
	b	.L61
.L64:
	.loc 1 217 62 discriminator 3 view .LVU179
.LBE8:
	.loc 1 222 5 is_stmt 1 view .LVU180
	mov	r0, r5
	bl	write_buffer_record_invalidate
.LVL48:
	.loc 1 223 1 is_stmt 0 view .LVU181
	pop	{r3, r4, r5, pc}
.LVL49:
.L66:
	.loc 1 223 1 view .LVU182
	.align	2
.L65:
	.word	.LANCHOR2
.LFE284:
	.size	write_buffer_record_release, .-write_buffer_record_release
	.section	.text.write_buf_store,"ax",%progbits
	.align	1
	.global	write_buf_store
	.syntax unified
	.thumb
	.thumb_func
	.fpu fpv4-sp-d16
	.type	write_buf_store, %function
write_buf_store:
.LVL50:
.LFB291:
	.loc 1 332 1 is_stmt 1 view -0
	@ args = 0, pretend = 0, frame = 8
	@ frame_needed = 0, uses_anonymous_args = 0
	.loc 1 332 1 is_stmt 0 view .LVU184
	push	{r4, lr}
.LCFI12:
	sub	sp, sp, #8
.LCFI13:
	mov	r4, r0
	.loc 1 333 5 is_stmt 1 view .LVU185
.LVL51:
	.loc 1 334 5 view .LVU186
	.loc 1 334 26 is_stmt 0 view .LVU187
	movs	r3, #0
	str	r3, [sp]
	str	r3, [sp, #4]
	.loc 1 334 71 view .LVU188
	ldrb	r3, [r0, #2]	@ zero_extendqisi2
	.loc 1 334 26 view .LVU189
	strb	r3, [sp, #2]
	.loc 1 335 5 is_stmt 1 view .LVU190
	.loc 1 337 5 view .LVU191
	.loc 1 337 23 is_stmt 0 view .LVU192
	ldrb	r1, [r0, #13]	@ zero_extendqisi2
	ldr	r0, .L78
.LVL52:
	.loc 1 337 23 view .LVU193
	bl	pm_buffer_ptr_get
.LVL53:
	.loc 1 338 5 is_stmt 1 view .LVU194
	.loc 1 338 8 is_stmt 0 view .LVU195
	cmp	r0, #0
	beq	.L73
	mov	r2, r0
	.loc 1 343 5 is_stmt 1 view .LVU196
	ldrb	r3, [r4, #12]	@ zero_extendqisi2
	ldrb	r1, [r4, #2]	@ zero_extendqisi2
	mov	r0, sp
.LVL54:
	.loc 1 343 5 is_stmt 0 view .LVU197
	bl	peer_data_const_point_to_buffer
.LVL55:
	.loc 1 347 5 is_stmt 1 view .LVU198
	mov	r0, sp
	bl	write_buf_length_words_set
.LVL56:
	.loc 1 349 5 view .LVU199
	.loc 1 349 16 is_stmt 0 view .LVU200
	add	r3, r4, #8
	ldr	r2, [r4, #4]
	mov	r1, sp
	ldrh	r0, [r4]
	bl	pds_peer_data_store
.LVL57:
	.loc 1 355 5 is_stmt 1 view .LVU201
	cmp	r0, #17
	beq	.L69
	bhi	.L70
	cbz	r0, .L71
	cmp	r0, #7
	bne	.L76
.LVL58:
.L67:
	.loc 1 386 1 is_stmt 0 view .LVU202
	add	sp, sp, #8
.LCFI14:
	@ sp needed
	pop	{r4, pc}
.LVL59:
.L70:
.LCFI15:
	.loc 1 355 5 view .LVU203
	cmp	r0, #134
	bne	.L77
	.loc 1 371 13 is_stmt 1 view .LVU204
	.loc 1 371 47 is_stmt 0 view .LVU205
	ldrb	r3, [r4, #14]	@ zero_extendqisi2
	.loc 1 372 13 is_stmt 1 view .LVU206
	.loc 1 372 53 is_stmt 0 view .LVU207
	and	r3, r3, #253
	orr	r3, r3, #1
	strb	r3, [r4, #14]
	.loc 1 373 13 is_stmt 1 view .LVU208
	.loc 1 373 29 is_stmt 0 view .LVU209
	ldr	r3, .L78+4
	movs	r2, #1
	strb	r2, [r3]
	.loc 1 374 13 is_stmt 1 view .LVU210
	b	.L67
.L77:
	.loc 1 381 22 is_stmt 0 view .LVU211
	movs	r0, #3
.LVL60:
	.loc 1 381 22 view .LVU212
	b	.L67
.LVL61:
.L71:
	.loc 1 358 13 is_stmt 1 view .LVU213
	.loc 1 358 47 is_stmt 0 view .LVU214
	ldrb	r3, [r4, #14]	@ zero_extendqisi2
	.loc 1 359 13 is_stmt 1 view .LVU215
	.loc 1 359 53 is_stmt 0 view .LVU216
	and	r3, r3, #253
	bfc	r3, #0, #1
	strb	r3, [r4, #14]
	.loc 1 360 13 is_stmt 1 view .LVU217
	b	.L67
.L69:
	.loc 1 363 13 view .LVU218
	.loc 1 363 47 is_stmt 0 view .LVU219
	ldrb	r3, [r4, #14]	@ zero_extendqisi2
	.loc 1 364 13 is_stmt 1 view .LVU220
	.loc 1 364 53 is_stmt 0 view .LVU221
	orr	r3, r3, #2
	bfc	r3, #0, #1
	strb	r3, [r4, #14]
	.loc 1 365 13 is_stmt 1 view .LVU222
	.loc 1 365 29 is_stmt 0 view .LVU223
	ldr	r3, .L78+4
	movs	r2, #1
	strb	r2, [r3]
	.loc 1 367 13 is_stmt 1 view .LVU224
.LVL62:
	.loc 1 368 13 view .LVU225
	.loc 1 367 22 is_stmt 0 view .LVU226
	movs	r0, #0
	.loc 1 368 13 view .LVU227
	b	.L67
.LVL63:
.L73:
	.loc 1 340 16 view .LVU228
	movs	r0, #3
.LVL64:
	.loc 1 340 16 view .LVU229
	b	.L67
.LVL65:
.L76:
	.loc 1 381 22 view .LVU230
	movs	r0, #3
.LVL66:
	.loc 1 381 22 view .LVU231
	b	.L67
.L79:
	.align	2
.L78:
	.word	.LANCHOR2
	.word	.LANCHOR3
.LFE291:
	.size	write_buf_store, .-write_buf_store
	.section	.text.write_buf_store_in_event,"ax",%progbits
	.align	1
	.syntax unified
	.thumb
	.thumb_func
	.fpu fpv4-sp-d16
	.type	write_buf_store_in_event, %function
write_buf_store_in_event:
.LVL67:
.LFB292:
	.loc 1 396 1 is_stmt 1 view -0
	@ args = 0, pretend = 0, frame = 24
	@ frame_needed = 0, uses_anonymous_args = 0
	.loc 1 396 1 is_stmt 0 view .LVU233
	push	{r4, lr}
.LCFI16:
	sub	sp, sp, #24
.LCFI17:
	mov	r4, r0
	.loc 1 397 5 is_stmt 1 view .LVU234
	.loc 1 398 5 view .LVU235
	.loc 1 400 5 view .LVU236
	.loc 1 400 16 is_stmt 0 view .LVU237
	bl	write_buf_store
.LVL68:
	.loc 1 401 5 is_stmt 1 view .LVU238
	.loc 1 401 8 is_stmt 0 view .LVU239
	cbnz	r0, .L86
	.loc 1 421 11 view .LVU240
	movs	r0, #1
.LVL69:
.L81:
	.loc 1 422 1 view .LVU241
	add	sp, sp, #24
.LCFI18:
	@ sp needed
	pop	{r4, pc}
.LVL70:
.L86:
.LCFI19:
	.loc 1 403 9 is_stmt 1 view .LVU242
	.loc 1 403 27 is_stmt 0 view .LVU243
	movw	r2, #65535
	strh	r2, [sp, #6]	@ movhi
	.loc 1 404 9 is_stmt 1 view .LVU244
	.loc 1 404 46 is_stmt 0 view .LVU245
	ldrh	r2, [r4]
	.loc 1 404 23 view .LVU246
	strh	r2, [sp, #8]	@ movhi
	.loc 1 406 9 is_stmt 1 view .LVU247
	.loc 1 406 12 is_stmt 0 view .LVU248
	cmp	r0, #134
	beq	.L87
	.loc 1 412 13 is_stmt 1 view .LVU249
	.loc 1 412 26 is_stmt 0 view .LVU250
	movs	r2, #7
	strb	r2, [sp, #4]
	.loc 1 413 13 is_stmt 1 view .LVU251
	.loc 1 413 49 is_stmt 0 view .LVU252
	str	r0, [sp, #12]
.L83:
	.loc 1 416 9 is_stmt 1 view .LVU253
	add	r0, sp, #4
.LVL71:
	.loc 1 416 9 is_stmt 0 view .LVU254
	bl	pdb_evt_send
.LVL72:
	.loc 1 418 9 is_stmt 1 view .LVU255
	.loc 1 418 15 is_stmt 0 view .LVU256
	movs	r0, #0
	b	.L81
.LVL73:
.L87:
	.loc 1 408 13 is_stmt 1 view .LVU257
	.loc 1 408 26 is_stmt 0 view .LVU258
	movs	r3, #6
	strb	r3, [sp, #4]
	b	.L83
.LFE292:
	.size	write_buf_store_in_event, .-write_buf_store_in_event
	.section	.text.reattempt_previous_operations,"ax",%progbits
	.align	1
	.syntax unified
	.thumb
	.thumb_func
	.fpu fpv4-sp-d16
	.type	reattempt_previous_operations, %function
reattempt_previous_operations:
.LVL74:
.LFB293:
	.loc 1 432 1 is_stmt 1 view -0
	@ args = 0, pretend = 0, frame = 0
	@ frame_needed = 0, uses_anonymous_args = 0
	.loc 1 432 1 is_stmt 0 view .LVU260
	push	{r3, r4, r5, lr}
.LCFI20:
	.loc 1 433 4 is_stmt 1 view .LVU261
.LVL75:
	.loc 1 435 5 view .LVU262
	.loc 1 435 9 is_stmt 0 view .LVU263
	ldr	r3, .L97
	ldrb	r3, [r3]	@ zero_extendqisi2
	.loc 1 435 8 view .LVU264
	cbz	r3, .L88
	mov	r5, r0
.LBB9:
	.loc 1 440 19 view .LVU265
	movs	r4, #0
.LBE9:
	.loc 1 433 9 view .LVU266
	mov	r2, r4
	b	.L89
.LVL76:
.L91:
.LBB11:
.LBB10:
	.loc 1 445 13 is_stmt 1 view .LVU267
	.loc 1 447 12 view .LVU268
	.loc 1 447 27 is_stmt 0 view .LVU269
	ldr	r0, .L97+4
	add	r0, r0, r4, lsl #4
	bl	write_buf_store_in_event
.LVL77:
	.loc 1 449 13 is_stmt 1 view .LVU270
	.loc 1 449 16 is_stmt 0 view .LVU271
	mov	r2, r0
	cbz	r0, .L88
.LVL78:
.L92:
	.loc 1 449 16 view .LVU272
.LBE10:
	.loc 1 440 33 is_stmt 1 discriminator 2 view .LVU273
	.loc 1 440 34 is_stmt 0 discriminator 2 view .LVU274
	adds	r4, r4, #1
.LVL79:
.L89:
	.loc 1 440 26 is_stmt 1 discriminator 1 view .LVU275
	.loc 1 440 5 is_stmt 0 discriminator 1 view .LVU276
	cmp	r4, #1
	bhi	.L96
	.loc 1 442 9 is_stmt 1 view .LVU277
	.loc 1 442 39 is_stmt 0 view .LVU278
	ldr	r3, .L97+4
	add	r3, r3, r4, lsl #4
	ldrb	r3, [r3, #14]	@ zero_extendqisi2
	.loc 1 442 12 view .LVU279
	tst	r3, #2
	bne	.L91
	.loc 1 443 40 view .LVU280
	ldr	r3, .L97+4
	add	r3, r3, r4, lsl #4
	ldrb	r3, [r3, #14]	@ zero_extendqisi2
	.loc 1 443 11 view .LVU281
	tst	r3, #1
	beq	.L92
	.loc 1 443 58 discriminator 1 view .LVU282
	cmp	r5, #0
	beq	.L92
	b	.L91
.L96:
.LBE11:
	.loc 1 456 5 is_stmt 1 view .LVU283
	.loc 1 456 8 is_stmt 0 view .LVU284
	cbnz	r2, .L88
	.loc 1 460 9 is_stmt 1 view .LVU285
	.loc 1 460 25 is_stmt 0 view .LVU286
	ldr	r3, .L97
	strb	r2, [r3]
.LVL80:
.L88:
	.loc 1 462 1 view .LVU287
	pop	{r3, r4, r5, pc}
.L98:
	.align	2
.L97:
	.word	.LANCHOR3
	.word	.LANCHOR0
.LFE293:
	.size	reattempt_previous_operations, .-reattempt_previous_operations
	.section	.text.pdb_pds_evt_handler,"ax",%progbits
	.align	1
	.global	pdb_pds_evt_handler
	.syntax unified
	.thumb
	.thumb_func
	.fpu fpv4-sp-d16
	.type	pdb_pds_evt_handler, %function
pdb_pds_evt_handler:
.LVL81:
.LFB294:
	.loc 1 471 1 is_stmt 1 view -0
	@ args = 0, pretend = 0, frame = 0
	@ frame_needed = 0, uses_anonymous_args = 0
	.loc 1 471 1 is_stmt 0 view .LVU289
	push	{r3, r4, r5, lr}
.LCFI21:
	mov	r4, r0
	.loc 1 472 5 is_stmt 1 view .LVU290
	.loc 1 473 4 view .LVU291
.LVL82:
	.loc 1 474 4 view .LVU292
	.loc 1 476 5 view .LVU293
	.loc 1 476 29 is_stmt 0 view .LVU294
	ldr	r0, [r0, #12]
.LVL83:
	.loc 1 476 29 view .LVU295
	bl	write_buffer_record_find_stored
.LVL84:
	.loc 1 478 5 is_stmt 1 view .LVU296
	.loc 1 478 20 is_stmt 0 view .LVU297
	ldrb	r3, [r4]	@ zero_extendqisi2
	.loc 1 478 5 view .LVU298
	cmp	r3, #9
	beq	.L100
	cmp	r3, #19
	beq	.L103
	cmp	r3, #8
	beq	.L110
	.loc 1 474 26 view .LVU299
	movs	r5, #0
.LVL85:
.L101:
	.loc 1 512 9 is_stmt 1 view .LVU300
	mov	r0, r4
	bl	pdb_evt_send
.LVL86:
.L102:
	.loc 1 515 5 view .LVU301
	mov	r0, r5
	bl	reattempt_previous_operations
.LVL87:
	.loc 1 516 1 is_stmt 0 view .LVU302
	pop	{r3, r4, r5, pc}
.LVL88:
.L110:
	.loc 1 481 13 is_stmt 1 view .LVU303
	.loc 1 481 61 is_stmt 0 view .LVU304
	ldrb	r3, [r4, #9]	@ zero_extendqisi2
	.loc 1 481 16 view .LVU305
	cbnz	r3, .L105
	.loc 1 482 17 view .LVU306
	cbz	r0, .L106
	.loc 1 485 17 is_stmt 1 view .LVU307
	bl	write_buffer_record_release
.LVL89:
	.loc 1 509 5 view .LVU308
	.loc 1 474 26 is_stmt 0 view .LVU309
	movs	r5, #0
	b	.L101
.LVL90:
.L100:
	.loc 1 490 13 is_stmt 1 view .LVU310
	.loc 1 490 61 is_stmt 0 view .LVU311
	ldrb	r3, [r4, #9]	@ zero_extendqisi2
	.loc 1 490 16 view .LVU312
	cbnz	r3, .L107
	.loc 1 491 17 view .LVU313
	cbz	r0, .L108
	.loc 1 494 17 is_stmt 1 view .LVU314
	.loc 1 494 52 is_stmt 0 view .LVU315
	movs	r5, #0
	str	r5, [r0, #8]
	.loc 1 495 17 is_stmt 1 view .LVU316
	.loc 1 495 51 is_stmt 0 view .LVU317
	ldrb	r3, [r0, #14]	@ zero_extendqisi2
	orr	r3, r3, #2
	strb	r3, [r0, #14]
	.loc 1 496 17 is_stmt 1 view .LVU318
	.loc 1 496 33 is_stmt 0 view .LVU319
	ldr	r3, .L111
	movs	r2, #1
	strb	r2, [r3]
	.loc 1 497 17 is_stmt 1 view .LVU320
.LVL91:
	.loc 1 509 5 view .LVU321
	b	.L102
.LVL92:
.L103:
	.loc 1 478 5 is_stmt 0 view .LVU322
	movs	r5, #1
	b	.L101
.L105:
	.loc 1 474 26 view .LVU323
	movs	r5, #0
	b	.L101
.L106:
	movs	r5, #0
	b	.L101
.L107:
	.loc 1 474 26 view .LVU324
	movs	r5, #0
	b	.L101
.L108:
	movs	r5, #0
	b	.L101
.L112:
	.align	2
.L111:
	.word	.LANCHOR3
.LFE294:
	.size	pdb_pds_evt_handler, .-pdb_pds_evt_handler
	.section	.text.pdb_init,"ax",%progbits
	.align	1
	.global	pdb_init
	.syntax unified
	.thumb
	.thumb_func
	.fpu fpv4-sp-d16
	.type	pdb_init, %function
pdb_init:
.LFB295:
	.loc 1 520 1 is_stmt 1 view -0
	@ args = 0, pretend = 0, frame = 0
	@ frame_needed = 0, uses_anonymous_args = 0
	push	{lr}
.LCFI22:
	sub	sp, sp, #20
.LCFI23:
	.loc 1 521 5 view .LVU326
	.loc 1 523 5 view .LVU327
	.loc 1 525 5 view .LVU328
	bl	internal_state_reset
.LVL93:
	.loc 1 527 5 view .LVU329
.LBB12:
	.loc 1 527 10 view .LVU330
	.loc 1 527 110 view .LVU331
	.loc 1 527 157 view .LVU332
	.loc 1 527 163 is_stmt 0 view .LVU333
	movs	r3, #80
	str	r3, [sp, #8]
	movs	r3, #2
	str	r3, [sp, #4]
	movs	r3, #1
	str	r3, [sp]
	ldr	r3, .L117
	movs	r2, #160
	ldr	r1, .L117+4
	ldr	r0, .L117+8
	bl	pm_buffer_init
.LVL94:
	.loc 1 527 163 view .LVU334
.LBE12:
	.loc 1 527 336 is_stmt 1 view .LVU335
	.loc 1 529 5 view .LVU336
	.loc 1 529 8 is_stmt 0 view .LVU337
	cbnz	r0, .L116
.L113:
	.loc 1 537 1 view .LVU338
	add	sp, sp, #20
.LCFI24:
	@ sp needed
	ldr	pc, [sp], #4
.L116:
.LCFI25:
	.loc 1 531 16 view .LVU339
	movs	r0, #3
	b	.L113
.L118:
	.align	2
.L117:
	.word	.LANCHOR4
	.word	.LANCHOR5
	.word	.LANCHOR2
.LFE295:
	.size	pdb_init, .-pdb_init
	.section	.text.pdb_peer_allocate,"ax",%progbits
	.align	1
	.global	pdb_peer_allocate
	.syntax unified
	.thumb
	.thumb_func
	.fpu fpv4-sp-d16
	.type	pdb_peer_allocate, %function
pdb_peer_allocate:
.LFB296:
	.loc 1 541 1 is_stmt 1 view -0
	@ args = 0, pretend = 0, frame = 0
	@ frame_needed = 0, uses_anonymous_args = 0
	push	{r3, lr}
.LCFI26:
	.loc 1 542 5 view .LVU341
	.loc 1 543 5 view .LVU342
	.loc 1 543 12 is_stmt 0 view .LVU343
	bl	pds_peer_id_allocate
.LVL95:
	.loc 1 544 1 view .LVU344
	pop	{r3, pc}
.LFE296:
	.size	pdb_peer_allocate, .-pdb_peer_allocate
	.section	.text.pdb_peer_data_ptr_get,"ax",%progbits
	.align	1
	.global	pdb_peer_data_ptr_get
	.syntax unified
	.thumb
	.thumb_func
	.fpu fpv4-sp-d16
	.type	pdb_peer_data_ptr_get, %function
pdb_peer_data_ptr_get:
.LVL96:
.LFB298:
	.loc 1 596 1 is_stmt 1 view -0
	@ args = 0, pretend = 0, frame = 0
	@ frame_needed = 0, uses_anonymous_args = 0
	.loc 1 596 1 is_stmt 0 view .LVU346
	push	{r3, lr}
.LCFI27:
	.loc 1 597 5 is_stmt 1 view .LVU347
	.loc 1 598 5 view .LVU348
	.loc 1 601 5 view .LVU349
	.loc 1 601 12 is_stmt 0 view .LVU350
	movs	r3, #0
	bl	pds_peer_data_read
.LVL97:
	.loc 1 602 1 view .LVU351
	pop	{r3, pc}
.LFE298:
	.size	pdb_peer_data_ptr_get, .-pdb_peer_data_ptr_get
	.section	.text.pdb_write_buf_get,"ax",%progbits
	.align	1
	.global	pdb_write_buf_get
	.syntax unified
	.thumb
	.thumb_func
	.fpu fpv4-sp-d16
	.type	pdb_write_buf_get, %function
pdb_write_buf_get:
.LVL98:
.LFB299:
	.loc 1 610 1 is_stmt 1 view -0
	@ args = 0, pretend = 0, frame = 8
	@ frame_needed = 0, uses_anonymous_args = 0
	.loc 1 611 5 view .LVU353
	.loc 1 613 5 view .LVU354
	.loc 1 613 10 view .LVU355
	.loc 1 613 13 is_stmt 0 view .LVU356
	cmp	r3, #0
	beq	.L130
	.loc 1 610 1 discriminator 2 view .LVU357
	push	{r4, r5, r6, r7, r8, lr}
.LCFI28:
	sub	sp, sp, #8
.LCFI29:
	mov	r6, r0
	mov	r4, r1
	mov	r5, r2
	mov	r7, r3
	.loc 1 613 41 is_stmt 1 discriminator 2 view .LVU358
	.loc 1 614 5 discriminator 2 view .LVU359
	.loc 1 614 10 discriminator 2 view .LVU360
	.loc 1 614 53 is_stmt 0 discriminator 2 view .LVU361
	subs	r3, r1, #7
.LVL99:
	.loc 1 614 53 discriminator 2 view .LVU362
	uxtb	r3, r3
	.loc 1 614 13 discriminator 2 view .LVU363
	cmp	r3, #1
	bhi	.L131
	.loc 1 614 131 is_stmt 1 discriminator 2 view .LVU364
	.loc 1 616 5 discriminator 2 view .LVU365
	.loc 1 617 9 is_stmt 0 discriminator 2 view .LVU366
	subs	r3, r2, #1
	.loc 1 616 8 discriminator 2 view .LVU367
	cmp	r3, #1
	bhi	.L125
	.loc 1 618 13 view .LVU368
	bl	pds_peer_id_is_allocated
.LVL100:
	.loc 1 618 9 view .LVU369
	mov	r8, r0
	cbz	r0, .L125
	.loc 1 623 5 is_stmt 1 view .LVU370
	.loc 1 624 5 view .LVU371
	.loc 1 625 4 view .LVU372
.LVL101:
	.loc 1 627 5 view .LVU373
	.loc 1 627 29 is_stmt 0 view .LVU374
	mov	r1, r4
	mov	r0, r6
	bl	write_buffer_record_find
.LVL102:
	.loc 1 627 27 view .LVU375
	str	r0, [sp, #4]
	.loc 1 629 5 is_stmt 1 view .LVU376
	.loc 1 629 8 is_stmt 0 view .LVU377
	cbz	r0, .L142
	.loc 1 638 10 is_stmt 1 view .LVU378
	.loc 1 638 35 is_stmt 0 view .LVU379
	ldrb	r3, [r0, #12]	@ zero_extendqisi2
	.loc 1 638 13 view .LVU380
	cmp	r3, r5
	bne	.L133
.L128:
	.loc 1 644 5 is_stmt 1 view .LVU381
	.loc 1 644 30 is_stmt 0 view .LVU382
	ldr	r6, [sp, #4]
	ldrb	r3, [r6, #13]	@ zero_extendqisi2
	.loc 1 644 8 view .LVU383
	cmp	r3, #255
	beq	.L143
	.loc 1 625 26 view .LVU384
	mov	r8, #0
.L129:
.LVL103:
	.loc 1 657 5 is_stmt 1 view .LVU385
	.loc 1 657 26 is_stmt 0 view .LVU386
	ldr	r3, [sp, #4]
	.loc 1 657 35 view .LVU387
	strb	r5, [r3, #12]
	.loc 1 659 5 is_stmt 1 view .LVU388
	.loc 1 659 23 is_stmt 0 view .LVU389
	ldrb	r1, [r3, #13]	@ zero_extendqisi2
	ldr	r0, .L145
	bl	pm_buffer_ptr_get
.LVL104:
	.loc 1 661 5 is_stmt 1 view .LVU390
	.loc 1 661 8 is_stmt 0 view .LVU391
	mov	r2, r0
	cmp	r0, #0
	beq	.L135
	.loc 1 666 5 is_stmt 1 view .LVU392
	uxth	r3, r5
	mov	r1, r4
	mov	r0, r7
.LVL105:
	.loc 1 666 5 is_stmt 0 view .LVU393
	bl	peer_data_point_to_buffer
.LVL106:
	.loc 1 667 5 is_stmt 1 view .LVU394
	.loc 1 667 8 is_stmt 0 view .LVU395
	cmp	r8, #0
	beq	.L136
	.loc 1 667 20 discriminator 1 view .LVU396
	cmp	r4, #8
	beq	.L144
	.loc 1 672 12 view .LVU397
	movs	r0, #0
	b	.L123
.LVL107:
.L125:
	.loc 1 620 9 is_stmt 1 view .LVU398
	.loc 1 620 16 is_stmt 0 view .LVU399
	movs	r0, #7
.L123:
	.loc 1 673 1 view .LVU400
	add	sp, sp, #8
.LCFI30:
	@ sp needed
	pop	{r4, r5, r6, r7, r8, pc}
.LVL108:
.L142:
.LCFI31:
	.loc 1 632 9 is_stmt 1 view .LVU401
	mov	r2, r4
	mov	r1, r6
	add	r0, sp, #4
	bl	write_buffer_record_acquire
.LVL109:
	.loc 1 633 9 view .LVU402
	.loc 1 633 35 is_stmt 0 view .LVU403
	ldr	r3, [sp, #4]
	.loc 1 633 12 view .LVU404
	cmp	r3, #0
	bne	.L128
	.loc 1 635 20 view .LVU405
	movs	r0, #17
	b	.L123
.L143:
	.loc 1 646 9 is_stmt 1 view .LVU406
	.loc 1 646 50 is_stmt 0 view .LVU407
	mov	r1, r5
	ldr	r0, .L145
	bl	pm_buffer_block_acquire
.LVL110:
	.loc 1 646 48 view .LVU408
	strb	r0, [r6, #13]
	.loc 1 648 9 is_stmt 1 view .LVU409
	.loc 1 648 34 is_stmt 0 view .LVU410
	ldr	r0, [sp, #4]
	ldrb	r3, [r0, #13]	@ zero_extendqisi2
	.loc 1 648 12 view .LVU411
	cmp	r3, #255
	bne	.L129
	.loc 1 650 13 is_stmt 1 view .LVU412
	bl	write_buffer_record_invalidate
.LVL111:
	.loc 1 651 13 view .LVU413
	.loc 1 651 20 is_stmt 0 view .LVU414
	movs	r0, #17
	b	.L123
.LVL112:
.L144:
	.loc 1 669 9 is_stmt 1 view .LVU415
	.loc 1 669 59 is_stmt 0 view .LVU416
	ldrh	r3, [r7]
	.loc 1 669 20 view .LVU417
	ldr	r2, [r7, #4]
	.loc 1 669 82 view .LVU418
	lsls	r3, r3, #2
	subs	r3, r3, #6
	.loc 1 669 43 view .LVU419
	strh	r3, [r2, #4]	@ movhi
	.loc 1 672 12 view .LVU420
	movs	r0, #0
	b	.L123
.LVL113:
.L130:
.LCFI32:
	.loc 1 613 17 view .LVU421
	movs	r0, #14
.LVL114:
	.loc 1 673 1 view .LVU422
	bx	lr
.LVL115:
.L131:
.LCFI33:
	.loc 1 614 108 view .LVU423
	movs	r0, #7
.LVL116:
	.loc 1 614 108 view .LVU424
	b	.L123
.LVL117:
.L133:
	.loc 1 641 16 view .LVU425
	movs	r0, #15
	b	.L123
.LVL118:
.L135:
	.loc 1 663 16 view .LVU426
	movs	r0, #3
.LVL119:
	.loc 1 663 16 view .LVU427
	b	.L123
.LVL120:
.L136:
	.loc 1 672 12 view .LVU428
	movs	r0, #0
	b	.L123
.L146:
	.align	2
.L145:
	.word	.LANCHOR2
.LFE299:
	.size	pdb_write_buf_get, .-pdb_write_buf_get
	.section	.text.pdb_write_buf_release,"ax",%progbits
	.align	1
	.global	pdb_write_buf_release
	.syntax unified
	.thumb
	.thumb_func
	.fpu fpv4-sp-d16
	.type	pdb_write_buf_release, %function
pdb_write_buf_release:
.LVL121:
.LFB300:
	.loc 1 677 1 is_stmt 1 view -0
	@ args = 0, pretend = 0, frame = 0
	@ frame_needed = 0, uses_anonymous_args = 0
	.loc 1 677 1 is_stmt 0 view .LVU430
	push	{r3, r4, r5, lr}
.LCFI34:
	.loc 1 678 5 is_stmt 1 view .LVU431
	.loc 1 680 5 view .LVU432
.LVL122:
	.loc 1 681 5 view .LVU433
	.loc 1 682 5 view .LVU434
	.loc 1 682 29 is_stmt 0 view .LVU435
	bl	write_buffer_record_find
.LVL123:
	.loc 1 684 5 is_stmt 1 view .LVU436
	.loc 1 684 8 is_stmt 0 view .LVU437
	cbz	r0, .L150
	mov	r5, r0
	.loc 1 689 5 is_stmt 1 view .LVU438
	.loc 1 689 30 is_stmt 0 view .LVU439
	ldr	r4, [r0, #4]
	.loc 1 689 8 view .LVU440
	cbnz	r4, .L153
.LVL124:
.L149:
	.loc 1 698 5 is_stmt 1 view .LVU441
	mov	r0, r5
	bl	write_buffer_record_release
.LVL125:
	.loc 1 700 5 view .LVU442
.L147:
	.loc 1 701 1 is_stmt 0 view .LVU443
	mov	r0, r4
	pop	{r3, r4, r5, pc}
.LVL126:
.L153:
	.loc 1 691 9 is_stmt 1 view .LVU444
	.loc 1 691 20 is_stmt 0 view .LVU445
	mov	r0, r4
.LVL127:
	.loc 1 691 20 view .LVU446
	bl	pds_space_reserve_cancel
.LVL128:
	.loc 1 692 9 is_stmt 1 view .LVU447
	.loc 1 692 12 is_stmt 0 view .LVU448
	mov	r4, r0
	cmp	r0, #0
	beq	.L149
	.loc 1 694 22 view .LVU449
	movs	r4, #3
	b	.L149
.LVL129:
.L150:
	.loc 1 686 16 view .LVU450
	movs	r4, #5
	b	.L147
.LFE300:
	.size	pdb_write_buf_release, .-pdb_write_buf_release
	.section	.text.pdb_peer_free,"ax",%progbits
	.align	1
	.global	pdb_peer_free
	.syntax unified
	.thumb
	.thumb_func
	.fpu fpv4-sp-d16
	.type	pdb_peer_free, %function
pdb_peer_free:
.LVL130:
.LFB297:
	.loc 1 548 1 is_stmt 1 view -0
	@ args = 0, pretend = 0, frame = 8
	@ frame_needed = 0, uses_anonymous_args = 0
	.loc 1 548 1 is_stmt 0 view .LVU452
	push	{r4, r5, lr}
.LCFI35:
	sub	sp, sp, #12
.LCFI36:
	mov	r4, r0
	.loc 1 549 5 is_stmt 1 view .LVU453
.LVL131:
	.loc 1 550 5 view .LVU454
	.loc 1 552 5 view .LVU455
	.loc 1 554 5 view .LVU456
	.loc 1 554 14 is_stmt 0 view .LVU457
	movs	r5, #0
	str	r5, [sp, #4]
	.loc 1 555 5 is_stmt 1 view .LVU458
	.loc 1 555 38 is_stmt 0 view .LVU459
	add	r1, sp, #4
	bl	write_buffer_record_find_next
.LVL132:
	.loc 1 557 5 is_stmt 1 view .LVU460
	.loc 1 557 11 is_stmt 0 view .LVU461
	b	.L155
.LVL133:
.L156:
	.loc 1 567 9 is_stmt 1 view .LVU462
	.loc 1 567 14 is_stmt 0 view .LVU463
	ldr	r3, [sp, #4]
	adds	r3, r3, #1
	str	r3, [sp, #4]
	.loc 1 568 9 is_stmt 1 view .LVU464
	.loc 1 568 20 is_stmt 0 view .LVU465
	add	r1, sp, #4
	mov	r0, r4
.LVL134:
	.loc 1 568 20 view .LVU466
	bl	write_buffer_record_find_next
.LVL135:
.L155:
	.loc 1 557 11 is_stmt 1 view .LVU467
	cbz	r0, .L162
	.loc 1 559 9 view .LVU468
	.loc 1 559 23 is_stmt 0 view .LVU469
	ldrb	r1, [r0, #2]	@ zero_extendqisi2
	mov	r0, r4
.LVL136:
	.loc 1 559 23 view .LVU470
	bl	pdb_write_buf_release
.LVL137:
	.loc 1 561 9 is_stmt 1 view .LVU471
	.loc 1 561 12 is_stmt 0 view .LVU472
	cmp	r0, #0
	beq	.L156
	.loc 1 562 13 view .LVU473
	cmp	r0, #5
	beq	.L156
	.loc 1 564 26 view .LVU474
	movs	r5, #3
.LVL138:
	.loc 1 564 26 view .LVU475
	b	.L156
.LVL139:
.L162:
	.loc 1 571 5 is_stmt 1 view .LVU476
	.loc 1 571 8 is_stmt 0 view .LVU477
	cbz	r5, .L163
.LVL140:
.L154:
	.loc 1 590 1 view .LVU478
	mov	r0, r5
	add	sp, sp, #12
.LCFI37:
	@ sp needed
	pop	{r4, r5, pc}
.LVL141:
.L163:
.LCFI38:
	.loc 1 573 9 is_stmt 1 view .LVU479
	.loc 1 573 23 is_stmt 0 view .LVU480
	mov	r0, r4
.LVL142:
	.loc 1 573 23 view .LVU481
	bl	pds_peer_id_free
.LVL143:
	.loc 1 575 9 is_stmt 1 view .LVU482
	.loc 1 575 12 is_stmt 0 view .LVU483
	cmp	r0, #0
	beq	.L154
	.loc 1 579 14 is_stmt 1 view .LVU484
	.loc 1 579 17 is_stmt 0 view .LVU485
	cmp	r0, #7
	beq	.L164
	.loc 1 585 26 view .LVU486
	movs	r5, #3
.LVL144:
	.loc 1 589 5 is_stmt 1 view .LVU487
	.loc 1 589 12 is_stmt 0 view .LVU488
	b	.L154
.LVL145:
.L164:
	.loc 1 581 26 view .LVU489
	mov	r5, r0
.LVL146:
	.loc 1 581 26 view .LVU490
	b	.L154
.LFE297:
	.size	pdb_peer_free, .-pdb_peer_free
	.section	.text.pdb_write_buf_store_prepare,"ax",%progbits
	.align	1
	.global	pdb_write_buf_store_prepare
	.syntax unified
	.thumb
	.thumb_func
	.fpu fpv4-sp-d16
	.type	pdb_write_buf_store_prepare, %function
pdb_write_buf_store_prepare:
.LVL147:
.LFB301:
	.loc 1 705 1 is_stmt 1 view -0
	@ args = 0, pretend = 0, frame = 8
	@ frame_needed = 0, uses_anonymous_args = 0
	.loc 1 706 5 view .LVU492
	.loc 1 708 5 view .LVU493
	.loc 1 708 10 view .LVU494
	.loc 1 708 53 is_stmt 0 view .LVU495
	subs	r3, r1, #7
	uxtb	r3, r3
	.loc 1 708 13 view .LVU496
	cmp	r3, #1
	bhi	.L168
	.loc 1 705 1 discriminator 2 view .LVU497
	push	{r4, r5, lr}
.LCFI39:
	sub	sp, sp, #12
.LCFI40:
	mov	r4, r1
	.loc 1 708 131 is_stmt 1 discriminator 2 view .LVU498
	.loc 1 710 5 discriminator 2 view .LVU499
.LVL148:
	.loc 1 711 5 discriminator 2 view .LVU500
	.loc 1 712 5 discriminator 2 view .LVU501
	.loc 1 712 29 is_stmt 0 discriminator 2 view .LVU502
	bl	write_buffer_record_find
.LVL149:
	.loc 1 714 5 is_stmt 1 discriminator 2 view .LVU503
	.loc 1 714 8 is_stmt 0 discriminator 2 view .LVU504
	mov	r5, r0
	cbz	r0, .L169
	.loc 1 719 5 is_stmt 1 view .LVU505
	.loc 1 719 30 is_stmt 0 view .LVU506
	ldr	r3, [r0, #4]
	.loc 1 719 8 view .LVU507
	cbz	r3, .L175
	.loc 1 710 16 view .LVU508
	movs	r0, #0
.LVL150:
.L165:
	.loc 1 742 1 view .LVU509
	add	sp, sp, #12
.LCFI41:
	@ sp needed
	pop	{r4, r5, pc}
.LVL151:
.L175:
.LCFI42:
.LBB13:
	.loc 1 721 9 is_stmt 1 view .LVU510
	.loc 1 721 37 is_stmt 0 view .LVU511
	ldrb	r1, [r0, #13]	@ zero_extendqisi2
	ldr	r0, .L176
.LVL152:
	.loc 1 721 37 view .LVU512
	bl	pm_buffer_ptr_get
.LVL153:
	.loc 1 723 9 is_stmt 1 view .LVU513
	.loc 1 723 30 is_stmt 0 view .LVU514
	movs	r3, #0
	str	r3, [sp]
	str	r3, [sp, #4]
	strb	r4, [sp, #2]
	.loc 1 725 9 is_stmt 1 view .LVU515
	.loc 1 725 12 is_stmt 0 view .LVU516
	mov	r2, r0
	cbz	r0, .L167
	.loc 1 730 9 is_stmt 1 view .LVU517
	ldrb	r3, [r5, #12]	@ zero_extendqisi2
	mov	r1, r4
	mov	r0, sp
.LVL154:
	.loc 1 730 9 is_stmt 0 view .LVU518
	bl	peer_data_const_point_to_buffer
.LVL155:
	.loc 1 732 9 is_stmt 1 view .LVU519
	mov	r0, sp
	bl	write_buf_length_words_set
.LVL156:
	.loc 1 734 9 view .LVU520
	.loc 1 734 20 is_stmt 0 view .LVU521
	adds	r1, r5, #4
	mov	r0, sp
	bl	pds_space_reserve
.LVL157:
	.loc 1 735 9 is_stmt 1 view .LVU522
	.loc 1 735 12 is_stmt 0 view .LVU523
	cmp	r0, #9
	bne	.L165
.LVL158:
.L167:
	.loc 1 727 20 discriminator 1 view .LVU524
	movs	r0, #3
	b	.L165
.LVL159:
.L168:
.LCFI43:
	.loc 1 727 20 discriminator 1 view .LVU525
.LBE13:
	.loc 1 708 108 view .LVU526
	movs	r0, #7
.LVL160:
	.loc 1 742 1 view .LVU527
	bx	lr
.LVL161:
.L169:
.LCFI44:
	.loc 1 716 16 view .LVU528
	movs	r0, #5
.LVL162:
	.loc 1 716 16 view .LVU529
	b	.L165
.L177:
	.align	2
.L176:
	.word	.LANCHOR2
.LFE301:
	.size	pdb_write_buf_store_prepare, .-pdb_write_buf_store_prepare
	.section	.text.pdb_write_buf_store,"ax",%progbits
	.align	1
	.global	pdb_write_buf_store
	.syntax unified
	.thumb
	.thumb_func
	.fpu fpv4-sp-d16
	.type	pdb_write_buf_store, %function
pdb_write_buf_store:
.LVL163:
.LFB302:
	.loc 1 748 1 is_stmt 1 view -0
	@ args = 0, pretend = 0, frame = 0
	@ frame_needed = 0, uses_anonymous_args = 0
	.loc 1 748 1 is_stmt 0 view .LVU531
	push	{r3, r4, r5, lr}
.LCFI45:
	.loc 1 749 5 is_stmt 1 view .LVU532
	.loc 1 751 5 view .LVU533
	.loc 1 751 10 view .LVU534
	.loc 1 751 53 is_stmt 0 view .LVU535
	subs	r3, r1, #7
	uxtb	r3, r3
	.loc 1 751 13 view .LVU536
	cmp	r3, #1
	bhi	.L180
	mov	r4, r1
	mov	r5, r2
	.loc 1 751 131 is_stmt 1 discriminator 2 view .LVU537
	.loc 1 753 5 discriminator 2 view .LVU538
	.loc 1 753 51 is_stmt 0 discriminator 2 view .LVU539
	bl	write_buffer_record_find
.LVL164:
	.loc 1 755 5 is_stmt 1 discriminator 2 view .LVU540
	.loc 1 755 8 is_stmt 0 discriminator 2 view .LVU541
	cbz	r0, .L181
	.loc 1 760 5 is_stmt 1 view .LVU542
	.loc 1 760 36 is_stmt 0 view .LVU543
	strh	r5, [r0]	@ movhi
	.loc 1 761 5 is_stmt 1 view .LVU544
	.loc 1 761 36 is_stmt 0 view .LVU545
	strb	r4, [r0, #2]
	.loc 1 762 5 is_stmt 1 view .LVU546
	.loc 1 762 12 is_stmt 0 view .LVU547
	bl	write_buf_store
.LVL165:
	.loc 1 762 12 view .LVU548
	b	.L178
.LVL166:
.L180:
	.loc 1 751 108 view .LVU549
	movs	r0, #7
.LVL167:
.L178:
	.loc 1 763 1 view .LVU550
	pop	{r3, r4, r5, pc}
.LVL168:
.L181:
	.loc 1 757 16 view .LVU551
	movs	r0, #5
.LVL169:
	.loc 1 757 16 view .LVU552
	b	.L178
.LFE302:
	.size	pdb_write_buf_store, .-pdb_write_buf_store
	.section	.text.pdb_clear,"ax",%progbits
	.align	1
	.global	pdb_clear
	.syntax unified
	.thumb
	.thumb_func
	.fpu fpv4-sp-d16
	.type	pdb_clear, %function
pdb_clear:
.LVL170:
.LFB303:
	.loc 1 767 1 is_stmt 1 view -0
	@ args = 0, pretend = 0, frame = 0
	@ frame_needed = 0, uses_anonymous_args = 0
	.loc 1 767 1 is_stmt 0 view .LVU554
	push	{r3, lr}
.LCFI46:
	.loc 1 768 5 is_stmt 1 view .LVU555
	.loc 1 769 5 view .LVU556
	.loc 1 769 12 is_stmt 0 view .LVU557
	bl	pds_peer_data_delete
.LVL171:
	.loc 1 770 1 view .LVU558
	pop	{r3, pc}
.LFE303:
	.size	pdb_clear, .-pdb_clear
	.section	.text.pdb_n_peers,"ax",%progbits
	.align	1
	.global	pdb_n_peers
	.syntax unified
	.thumb
	.thumb_func
	.fpu fpv4-sp-d16
	.type	pdb_n_peers, %function
pdb_n_peers:
.LFB304:
	.loc 1 774 1 is_stmt 1 view -0
	@ args = 0, pretend = 0, frame = 0
	@ frame_needed = 0, uses_anonymous_args = 0
	push	{r3, lr}
.LCFI47:
	.loc 1 775 5 view .LVU560
	.loc 1 776 5 view .LVU561
	.loc 1 776 12 is_stmt 0 view .LVU562
	bl	pds_peer_count_get
.LVL172:
	.loc 1 777 1 view .LVU563
	pop	{r3, pc}
.LFE304:
	.size	pdb_n_peers, .-pdb_n_peers
	.section	.text.pdb_next_peer_id_get,"ax",%progbits
	.align	1
	.global	pdb_next_peer_id_get
	.syntax unified
	.thumb
	.thumb_func
	.fpu fpv4-sp-d16
	.type	pdb_next_peer_id_get, %function
pdb_next_peer_id_get:
.LVL173:
.LFB305:
	.loc 1 781 1 is_stmt 1 view -0
	@ args = 0, pretend = 0, frame = 0
	@ frame_needed = 0, uses_anonymous_args = 0
	.loc 1 781 1 is_stmt 0 view .LVU565
	push	{r3, lr}
.LCFI48:
	.loc 1 782 5 is_stmt 1 view .LVU566
	.loc 1 783 5 view .LVU567
	.loc 1 783 12 is_stmt 0 view .LVU568
	bl	pds_next_peer_id_get
.LVL174:
	.loc 1 784 1 view .LVU569
	pop	{r3, pc}
.LFE305:
	.size	pdb_next_peer_id_get, .-pdb_next_peer_id_get
	.section	.text.pdb_next_deleted_peer_id_get,"ax",%progbits
	.align	1
	.global	pdb_next_deleted_peer_id_get
	.syntax unified
	.thumb
	.thumb_func
	.fpu fpv4-sp-d16
	.type	pdb_next_deleted_peer_id_get, %function
pdb_next_deleted_peer_id_get:
.LVL175:
.LFB306:
	.loc 1 788 1 is_stmt 1 view -0
	@ args = 0, pretend = 0, frame = 0
	@ frame_needed = 0, uses_anonymous_args = 0
	.loc 1 788 1 is_stmt 0 view .LVU571
	push	{r3, lr}
.LCFI49:
	.loc 1 789 5 is_stmt 1 view .LVU572
	.loc 1 790 5 view .LVU573
	.loc 1 790 12 is_stmt 0 view .LVU574
	bl	pds_next_deleted_peer_id_get
.LVL176:
	.loc 1 791 1 view .LVU575
	pop	{r3, pc}
.LFE306:
	.size	pdb_next_deleted_peer_id_get, .-pdb_next_deleted_peer_id_get
	.section	.text.pdb_peer_data_load,"ax",%progbits
	.align	1
	.global	pdb_peer_data_load
	.syntax unified
	.thumb
	.thumb_func
	.fpu fpv4-sp-d16
	.type	pdb_peer_data_load, %function
pdb_peer_data_load:
.LVL177:
.LFB307:
	.loc 1 797 1 is_stmt 1 view -0
	@ args = 0, pretend = 0, frame = 8
	@ frame_needed = 0, uses_anonymous_args = 0
	.loc 1 797 1 is_stmt 0 view .LVU577
	push	{lr}
.LCFI50:
	sub	sp, sp, #12
.LCFI51:
	.loc 1 798 5 is_stmt 1 view .LVU578
	.loc 1 799 5 view .LVU579
	.loc 1 802 5 view .LVU580
	.loc 1 802 49 is_stmt 0 view .LVU581
	ldrh	r3, [r2]
	.loc 1 802 64 view .LVU582
	lsls	r3, r3, #2
	.loc 1 802 20 view .LVU583
	str	r3, [sp, #4]
	.loc 1 803 5 is_stmt 1 view .LVU584
	.loc 1 803 12 is_stmt 0 view .LVU585
	add	r3, sp, #4
	bl	pds_peer_data_read
.LVL178:
	.loc 1 804 1 view .LVU586
	add	sp, sp, #12
.LCFI52:
	@ sp needed
	ldr	pc, [sp], #4
.LFE307:
	.size	pdb_peer_data_load, .-pdb_peer_data_load
	.section	.text.pdb_raw_store,"ax",%progbits
	.align	1
	.global	pdb_raw_store
	.syntax unified
	.thumb
	.thumb_func
	.fpu fpv4-sp-d16
	.type	pdb_raw_store, %function
pdb_raw_store:
.LVL179:
.LFB308:
	.loc 1 810 1 is_stmt 1 view -0
	@ args = 0, pretend = 0, frame = 0
	@ frame_needed = 0, uses_anonymous_args = 0
	.loc 1 810 1 is_stmt 0 view .LVU588
	push	{r3, lr}
.LCFI53:
	mov	r3, r2
	.loc 1 811 5 is_stmt 1 view .LVU589
	.loc 1 812 5 view .LVU590
	.loc 1 812 12 is_stmt 0 view .LVU591
	movs	r2, #0
.LVL180:
	.loc 1 812 12 view .LVU592
	bl	pds_peer_data_store
.LVL181:
	.loc 1 813 1 view .LVU593
	pop	{r3, pc}
.LFE308:
	.size	pdb_raw_store, .-pdb_raw_store
	.section	.bss.buffer_memory.9806,"aw",%nobits
	.align	2
	.set	.LANCHOR5,. + 0
	.type	buffer_memory.9806, %object
	.size	buffer_memory.9806, 160
buffer_memory.9806:
	.space	160
	.section	.bss.m_pending_store,"aw",%nobits
	.set	.LANCHOR3,. + 0
	.type	m_pending_store, %object
	.size	m_pending_store, 1
m_pending_store:
	.space	1
	.section	.bss.m_write_buffer,"aw",%nobits
	.align	2
	.set	.LANCHOR2,. + 0
	.type	m_write_buffer, %object
	.size	m_write_buffer, 16
m_write_buffer:
	.space	16
	.section	.bss.m_write_buffer_records,"aw",%nobits
	.align	2
	.set	.LANCHOR0,. + 0
	.type	m_write_buffer_records, %object
	.size	m_write_buffer_records, 32
m_write_buffer_records:
	.space	32
	.section	.bss.mutex_memory.9807,"aw",%nobits
	.align	2
	.set	.LANCHOR4,. + 0
	.type	mutex_memory.9807, %object
	.size	mutex_memory.9807, 1
mutex_memory.9807:
	.space	1
	.section	.rodata.m_evt_handlers,"a"
	.align	2
	.set	.LANCHOR1,. + 0
	.type	m_evt_handlers, %object
	.size	m_evt_handlers, 16
m_evt_handlers:
	.word	pm_pdb_evt_handler
	.word	sm_pdb_evt_handler
	.word	gscm_pdb_evt_handler
	.word	gcm_pdb_evt_handler
	.section	.debug_frame,"",%progbits
.Lframe0:
	.4byte	.LECIE0-.LSCIE0
.LSCIE0:
	.4byte	0xffffffff
	.byte	0x3
	.ascii	"\000"
	.uleb128 0x1
	.sleb128 -4
	.uleb128 0xe
	.byte	0xc
	.uleb128 0xd
	.uleb128 0
	.align	2
.LECIE0:
.LSFDE0:
	.4byte	.LEFDE0-.LASFDE0
.LASFDE0:
	.4byte	.Lframe0
	.4byte	.LFB279
	.4byte	.LFE279-.LFB279
	.align	2
.LEFDE0:
.LSFDE2:
	.4byte	.LEFDE2-.LASFDE2
.LASFDE2:
	.4byte	.Lframe0
	.4byte	.LFB280
	.4byte	.LFE280-.LFB280
	.byte	0x4
	.4byte	.LCFI0-.LFB280
	.byte	0xe
	.uleb128 0x4
	.byte	0x84
	.uleb128 0x1
	.byte	0x4
	.4byte	.LCFI1-.LCFI0
	.byte	0xc4
	.byte	0xe
	.uleb128 0
	.align	2
.LEFDE2:
.LSFDE4:
	.4byte	.LEFDE4-.LASFDE4
.LASFDE4:
	.4byte	.Lframe0
	.4byte	.LFB281
	.4byte	.LFE281-.LFB281
	.byte	0x4
	.4byte	.LCFI2-.LFB281
	.byte	0xe
	.uleb128 0xc
	.byte	0x84
	.uleb128 0x3
	.byte	0x85
	.uleb128 0x2
	.byte	0x8e
	.uleb128 0x1
	.byte	0x4
	.4byte	.LCFI3-.LCFI2
	.byte	0xe
	.uleb128 0x18
	.byte	0x4
	.4byte	.LCFI4-.LCFI3
	.byte	0xe
	.uleb128 0xc
	.align	2
.LEFDE4:
.LSFDE6:
	.4byte	.LEFDE6-.LASFDE6
.LASFDE6:
	.4byte	.Lframe0
	.4byte	.LFB282
	.4byte	.LFE282-.LFB282
	.align	2
.LEFDE6:
.LSFDE8:
	.4byte	.LEFDE8-.LASFDE8
.LASFDE8:
	.4byte	.Lframe0
	.4byte	.LFB283
	.4byte	.LFE283-.LFB283
	.byte	0x4
	.4byte	.LCFI5-.LFB283
	.byte	0xe
	.uleb128 0x8
	.byte	0x83
	.uleb128 0x2
	.byte	0x8e
	.uleb128 0x1
	.align	2
.LEFDE8:
.LSFDE10:
	.4byte	.LEFDE10-.LASFDE10
.LASFDE10:
	.4byte	.Lframe0
	.4byte	.LFB285
	.4byte	.LFE285-.LFB285
	.byte	0x4
	.4byte	.LCFI6-.LFB285
	.byte	0xe
	.uleb128 0x10
	.byte	0x84
	.uleb128 0x4
	.byte	0x85
	.uleb128 0x3
	.byte	0x86
	.uleb128 0x2
	.byte	0x8e
	.uleb128 0x1
	.byte	0x4
	.4byte	.LCFI7-.LCFI6
	.byte	0xe
	.uleb128 0
	.byte	0xc4
	.byte	0xc5
	.byte	0xc6
	.byte	0xce
	.align	2
.LEFDE10:
.LSFDE12:
	.4byte	.LEFDE12-.LASFDE12
.LASFDE12:
	.4byte	.Lframe0
	.4byte	.LFB286
	.4byte	.LFE286-.LFB286
	.byte	0x4
	.4byte	.LCFI8-.LFB286
	.byte	0xe
	.uleb128 0x10
	.byte	0x83
	.uleb128 0x4
	.byte	0x84
	.uleb128 0x3
	.byte	0x85
	.uleb128 0x2
	.byte	0x8e
	.uleb128 0x1
	.align	2
.LEFDE12:
.LSFDE14:
	.4byte	.LEFDE14-.LASFDE14
.LASFDE14:
	.4byte	.Lframe0
	.4byte	.LFB287
	.4byte	.LFE287-.LFB287
	.byte	0x4
	.4byte	.LCFI9-.LFB287
	.byte	0xe
	.uleb128 0x8
	.byte	0x84
	.uleb128 0x2
	.byte	0x8e
	.uleb128 0x1
	.align	2
.LEFDE14:
.LSFDE16:
	.4byte	.LEFDE16-.LASFDE16
.LASFDE16:
	.4byte	.Lframe0
	.4byte	.LFB288
	.4byte	.LFE288-.LFB288
	.align	2
.LEFDE16:
.LSFDE18:
	.4byte	.LEFDE18-.LASFDE18
.LASFDE18:
	.4byte	.Lframe0
	.4byte	.LFB289
	.4byte	.LFE289-.LFB289
	.byte	0x4
	.4byte	.LCFI10-.LFB289
	.byte	0xe
	.uleb128 0x8
	.byte	0x83
	.uleb128 0x2
	.byte	0x8e
	.uleb128 0x1
	.align	2
.LEFDE18:
.LSFDE20:
	.4byte	.LEFDE20-.LASFDE20
.LASFDE20:
	.4byte	.Lframe0
	.4byte	.LFB290
	.4byte	.LFE290-.LFB290
	.align	2
.LEFDE20:
.LSFDE22:
	.4byte	.LEFDE22-.LASFDE22
.LASFDE22:
	.4byte	.Lframe0
	.4byte	.LFB284
	.4byte	.LFE284-.LFB284
	.byte	0x4
	.4byte	.LCFI11-.LFB284
	.byte	0xe
	.uleb128 0x10
	.byte	0x83
	.uleb128 0x4
	.byte	0x84
	.uleb128 0x3
	.byte	0x85
	.uleb128 0x2
	.byte	0x8e
	.uleb128 0x1
	.align	2
.LEFDE22:
.LSFDE24:
	.4byte	.LEFDE24-.LASFDE24
.LASFDE24:
	.4byte	.Lframe0
	.4byte	.LFB291
	.4byte	.LFE291-.LFB291
	.byte	0x4
	.4byte	.LCFI12-.LFB291
	.byte	0xe
	.uleb128 0x8
	.byte	0x84
	.uleb128 0x2
	.byte	0x8e
	.uleb128 0x1
	.byte	0x4
	.4byte	.LCFI13-.LCFI12
	.byte	0xe
	.uleb128 0x10
	.byte	0x4
	.4byte	.LCFI14-.LCFI13
	.byte	0xa
	.byte	0xe
	.uleb128 0x8
	.byte	0x4
	.4byte	.LCFI15-.LCFI14
	.byte	0xb
	.align	2
.LEFDE24:
.LSFDE26:
	.4byte	.LEFDE26-.LASFDE26
.LASFDE26:
	.4byte	.Lframe0
	.4byte	.LFB292
	.4byte	.LFE292-.LFB292
	.byte	0x4
	.4byte	.LCFI16-.LFB292
	.byte	0xe
	.uleb128 0x8
	.byte	0x84
	.uleb128 0x2
	.byte	0x8e
	.uleb128 0x1
	.byte	0x4
	.4byte	.LCFI17-.LCFI16
	.byte	0xe
	.uleb128 0x20
	.byte	0x4
	.4byte	.LCFI18-.LCFI17
	.byte	0xa
	.byte	0xe
	.uleb128 0x8
	.byte	0x4
	.4byte	.LCFI19-.LCFI18
	.byte	0xb
	.align	2
.LEFDE26:
.LSFDE28:
	.4byte	.LEFDE28-.LASFDE28
.LASFDE28:
	.4byte	.Lframe0
	.4byte	.LFB293
	.4byte	.LFE293-.LFB293
	.byte	0x4
	.4byte	.LCFI20-.LFB293
	.byte	0xe
	.uleb128 0x10
	.byte	0x83
	.uleb128 0x4
	.byte	0x84
	.uleb128 0x3
	.byte	0x85
	.uleb128 0x2
	.byte	0x8e
	.uleb128 0x1
	.align	2
.LEFDE28:
.LSFDE30:
	.4byte	.LEFDE30-.LASFDE30
.LASFDE30:
	.4byte	.Lframe0
	.4byte	.LFB294
	.4byte	.LFE294-.LFB294
	.byte	0x4
	.4byte	.LCFI21-.LFB294
	.byte	0xe
	.uleb128 0x10
	.byte	0x83
	.uleb128 0x4
	.byte	0x84
	.uleb128 0x3
	.byte	0x85
	.uleb128 0x2
	.byte	0x8e
	.uleb128 0x1
	.align	2
.LEFDE30:
.LSFDE32:
	.4byte	.LEFDE32-.LASFDE32
.LASFDE32:
	.4byte	.Lframe0
	.4byte	.LFB295
	.4byte	.LFE295-.LFB295
	.byte	0x4
	.4byte	.LCFI22-.LFB295
	.byte	0xe
	.uleb128 0x4
	.byte	0x8e
	.uleb128 0x1
	.byte	0x4
	.4byte	.LCFI23-.LCFI22
	.byte	0xe
	.uleb128 0x18
	.byte	0x4
	.4byte	.LCFI24-.LCFI23
	.byte	0xa
	.byte	0xe
	.uleb128 0x4
	.byte	0x4
	.4byte	.LCFI25-.LCFI24
	.byte	0xb
	.align	2
.LEFDE32:
.LSFDE34:
	.4byte	.LEFDE34-.LASFDE34
.LASFDE34:
	.4byte	.Lframe0
	.4byte	.LFB296
	.4byte	.LFE296-.LFB296
	.byte	0x4
	.4byte	.LCFI26-.LFB296
	.byte	0xe
	.uleb128 0x8
	.byte	0x83
	.uleb128 0x2
	.byte	0x8e
	.uleb128 0x1
	.align	2
.LEFDE34:
.LSFDE36:
	.4byte	.LEFDE36-.LASFDE36
.LASFDE36:
	.4byte	.Lframe0
	.4byte	.LFB298
	.4byte	.LFE298-.LFB298
	.byte	0x4
	.4byte	.LCFI27-.LFB298
	.byte	0xe
	.uleb128 0x8
	.byte	0x83
	.uleb128 0x2
	.byte	0x8e
	.uleb128 0x1
	.align	2
.LEFDE36:
.LSFDE38:
	.4byte	.LEFDE38-.LASFDE38
.LASFDE38:
	.4byte	.Lframe0
	.4byte	.LFB299
	.4byte	.LFE299-.LFB299
	.byte	0x4
	.4byte	.LCFI28-.LFB299
	.byte	0xe
	.uleb128 0x18
	.byte	0x84
	.uleb128 0x6
	.byte	0x85
	.uleb128 0x5
	.byte	0x86
	.uleb128 0x4
	.byte	0x87
	.uleb128 0x3
	.byte	0x88
	.uleb128 0x2
	.byte	0x8e
	.uleb128 0x1
	.byte	0x4
	.4byte	.LCFI29-.LCFI28
	.byte	0xe
	.uleb128 0x20
	.byte	0x4
	.4byte	.LCFI30-.LCFI29
	.byte	0xa
	.byte	0xe
	.uleb128 0x18
	.byte	0x4
	.4byte	.LCFI31-.LCFI30
	.byte	0xb
	.byte	0x4
	.4byte	.LCFI32-.LCFI31
	.byte	0xe
	.uleb128 0
	.byte	0xc4
	.byte	0xc5
	.byte	0xc6
	.byte	0xc7
	.byte	0xc8
	.byte	0xce
	.byte	0x4
	.4byte	.LCFI33-.LCFI32
	.byte	0xe
	.uleb128 0x20
	.byte	0x84
	.uleb128 0x6
	.byte	0x85
	.uleb128 0x5
	.byte	0x86
	.uleb128 0x4
	.byte	0x87
	.uleb128 0x3
	.byte	0x88
	.uleb128 0x2
	.byte	0x8e
	.uleb128 0x1
	.align	2
.LEFDE38:
.LSFDE40:
	.4byte	.LEFDE40-.LASFDE40
.LASFDE40:
	.4byte	.Lframe0
	.4byte	.LFB300
	.4byte	.LFE300-.LFB300
	.byte	0x4
	.4byte	.LCFI34-.LFB300
	.byte	0xe
	.uleb128 0x10
	.byte	0x83
	.uleb128 0x4
	.byte	0x84
	.uleb128 0x3
	.byte	0x85
	.uleb128 0x2
	.byte	0x8e
	.uleb128 0x1
	.align	2
.LEFDE40:
.LSFDE42:
	.4byte	.LEFDE42-.LASFDE42
.LASFDE42:
	.4byte	.Lframe0
	.4byte	.LFB297
	.4byte	.LFE297-.LFB297
	.byte	0x4
	.4byte	.LCFI35-.LFB297
	.byte	0xe
	.uleb128 0xc
	.byte	0x84
	.uleb128 0x3
	.byte	0x85
	.uleb128 0x2
	.byte	0x8e
	.uleb128 0x1
	.byte	0x4
	.4byte	.LCFI36-.LCFI35
	.byte	0xe
	.uleb128 0x18
	.byte	0x4
	.4byte	.LCFI37-.LCFI36
	.byte	0xa
	.byte	0xe
	.uleb128 0xc
	.byte	0x4
	.4byte	.LCFI38-.LCFI37
	.byte	0xb
	.align	2
.LEFDE42:
.LSFDE44:
	.4byte	.LEFDE44-.LASFDE44
.LASFDE44:
	.4byte	.Lframe0
	.4byte	.LFB301
	.4byte	.LFE301-.LFB301
	.byte	0x4
	.4byte	.LCFI39-.LFB301
	.byte	0xe
	.uleb128 0xc
	.byte	0x84
	.uleb128 0x3
	.byte	0x85
	.uleb128 0x2
	.byte	0x8e
	.uleb128 0x1
	.byte	0x4
	.4byte	.LCFI40-.LCFI39
	.byte	0xe
	.uleb128 0x18
	.byte	0x4
	.4byte	.LCFI41-.LCFI40
	.byte	0xa
	.byte	0xe
	.uleb128 0xc
	.byte	0x4
	.4byte	.LCFI42-.LCFI41
	.byte	0xb
	.byte	0x4
	.4byte	.LCFI43-.LCFI42
	.byte	0xe
	.uleb128 0
	.byte	0xc4
	.byte	0xc5
	.byte	0xce
	.byte	0x4
	.4byte	.LCFI44-.LCFI43
	.byte	0xe
	.uleb128 0x18
	.byte	0x84
	.uleb128 0x3
	.byte	0x85
	.uleb128 0x2
	.byte	0x8e
	.uleb128 0x1
	.align	2
.LEFDE44:
.LSFDE46:
	.4byte	.LEFDE46-.LASFDE46
.LASFDE46:
	.4byte	.Lframe0
	.4byte	.LFB302
	.4byte	.LFE302-.LFB302
	.byte	0x4
	.4byte	.LCFI45-.LFB302
	.byte	0xe
	.uleb128 0x10
	.byte	0x83
	.uleb128 0x4
	.byte	0x84
	.uleb128 0x3
	.byte	0x85
	.uleb128 0x2
	.byte	0x8e
	.uleb128 0x1
	.align	2
.LEFDE46:
.LSFDE48:
	.4byte	.LEFDE48-.LASFDE48
.LASFDE48:
	.4byte	.Lframe0
	.4byte	.LFB303
	.4byte	.LFE303-.LFB303
	.byte	0x4
	.4byte	.LCFI46-.LFB303
	.byte	0xe
	.uleb128 0x8
	.byte	0x83
	.uleb128 0x2
	.byte	0x8e
	.uleb128 0x1
	.align	2
.LEFDE48:
.LSFDE50:
	.4byte	.LEFDE50-.LASFDE50
.LASFDE50:
	.4byte	.Lframe0
	.4byte	.LFB304
	.4byte	.LFE304-.LFB304
	.byte	0x4
	.4byte	.LCFI47-.LFB304
	.byte	0xe
	.uleb128 0x8
	.byte	0x83
	.uleb128 0x2
	.byte	0x8e
	.uleb128 0x1
	.align	2
.LEFDE50:
.LSFDE52:
	.4byte	.LEFDE52-.LASFDE52
.LASFDE52:
	.4byte	.Lframe0
	.4byte	.LFB305
	.4byte	.LFE305-.LFB305
	.byte	0x4
	.4byte	.LCFI48-.LFB305
	.byte	0xe
	.uleb128 0x8
	.byte	0x83
	.uleb128 0x2
	.byte	0x8e
	.uleb128 0x1
	.align	2
.LEFDE52:
.LSFDE54:
	.4byte	.LEFDE54-.LASFDE54
.LASFDE54:
	.4byte	.Lframe0
	.4byte	.LFB306
	.4byte	.LFE306-.LFB306
	.byte	0x4
	.4byte	.LCFI49-.LFB306
	.byte	0xe
	.uleb128 0x8
	.byte	0x83
	.uleb128 0x2
	.byte	0x8e
	.uleb128 0x1
	.align	2
.LEFDE54:
.LSFDE56:
	.4byte	.LEFDE56-.LASFDE56
.LASFDE56:
	.4byte	.Lframe0
	.4byte	.LFB307
	.4byte	.LFE307-.LFB307
	.byte	0x4
	.4byte	.LCFI50-.LFB307
	.byte	0xe
	.uleb128 0x4
	.byte	0x8e
	.uleb128 0x1
	.byte	0x4
	.4byte	.LCFI51-.LCFI50
	.byte	0xe
	.uleb128 0x10
	.byte	0x4
	.4byte	.LCFI52-.LCFI51
	.byte	0xe
	.uleb128 0x4
	.align	2
.LEFDE56:
.LSFDE58:
	.4byte	.LEFDE58-.LASFDE58
.LASFDE58:
	.4byte	.Lframe0
	.4byte	.LFB308
	.4byte	.LFE308-.LFB308
	.byte	0x4
	.4byte	.LCFI53-.LFB308
	.byte	0xe
	.uleb128 0x8
	.byte	0x83
	.uleb128 0x2
	.byte	0x8e
	.uleb128 0x1
	.align	2
.LEFDE58:
	.text
.Letext0:
	.file 2 "C:\\nRF5_SDK_15.0.0_a53641a\\components\\ble\\peer_manager\\peer_manager_types.h"
	.file 3 "C:/Program Files (x86)/SEGGER/SEGGER Embedded Studio for ARM 4.50/include/stdint.h"