	.cpu cortex-m4
	.eabi_attribute 27, 1
	.eabi_attribute 28, 1
	.eabi_attribute 20, 1
	.eabi_attribute 21, 1
	.eabi_attribute 23, 3
	.eabi_attribute 24, 1
	.eabi_attribute 25, 1
	.eabi_attribute 26, 1
	.eabi_attribute 30, 1
	.eabi_attribute 34, 1
	.eabi_attribute 18, 4
	.file	"pm_buffer.c"
	.text
.Ltext0:
	.section	.text.pm_buffer_init,"ax",%progbits
	.align	1
	.global	pm_buffer_init
	.syntax unified
	.thumb
	.thumb_func
	.fpu fpv4-sp-d16
	.type	pm_buffer_init, %function
pm_buffer_init:
.LVL0:
.LFB142:
	.file 1 "C:\\nRF5_SDK_15.0.0_a53641a\\components\\ble\\peer_manager\\pm_buffer.c"
	.loc 1 63 1 view -0
	@ args = 12, pretend = 0, frame = 0
	@ frame_needed = 0, uses_anonymous_args = 0
	.loc 1 63 1 is_stmt 0 view .LVU1
	push	{r4, r5, r6, lr}
.LCFI0:
	ldr	r4, [sp, #20]
	ldr	r5, [sp, #24]
	.loc 1 64 5 is_stmt 1 view .LVU2
	.loc 1 64 8 is_stmt 0 view .LVU3
	cbz	r0, .L3
	mov	r6, r0
	.loc 1 65 9 view .LVU4
	cbz	r1, .L4
	.loc 1 66 9 view .LVU5
	cbz	r3, .L5
	.loc 1 67 45 view .LVU6
	mul	r0, r5, r4
.LVL1:
	.loc 1 67 9 view .LVU7
	cmp	r0, r2
	bhi	.L6
	.loc 1 68 38 view .LVU8
	adds	r0, r4, #7
	.loc 1 68 9 view .LVU9
	ldr	r2, [sp, #16]
.LVL2:
	.loc 1 68 9 view .LVU10
	cmp	r2, r0, lsr #3
	bcc	.L7
	.loc 1 69 9 view .LVU11
	cbz	r4, .L8
	.loc 1 70 9 view .LVU12
	cbnz	r5, .L11
	.loc 1 82 16 view .LVU13
	movs	r0, #7
.LVL3:
.L1:
	.loc 1 84 1 view .LVU14
	pop	{r4, r5, r6, pc}
.LVL4:
.L11:
	.loc 1 72 9 is_stmt 1 view .LVU15
	.loc 1 72 28 is_stmt 0 view .LVU16
	str	r1, [r6]
	.loc 1 73 9 is_stmt 1 view .LVU17
	.loc 1 73 27 is_stmt 0 view .LVU18
	str	r3, [r6, #4]
	.loc 1 74 9 is_stmt 1 view .LVU19
	.loc 1 74 28 is_stmt 0 view .LVU20
	str	r4, [r6, #8]
	.loc 1 75 9 is_stmt 1 view .LVU21
	.loc 1 75 30 is_stmt 0 view .LVU22
	str	r5, [r6, #12]
	.loc 1 76 9 is_stmt 1 view .LVU23
	uxth	r1, r4
.LVL5:
	.loc 1 76 9 is_stmt 0 view .LVU24
	mov	r0, r3
	bl	pm_mutex_init
.LVL6:
	.loc 1 78 9 is_stmt 1 view .LVU25
	.loc 1 78 16 is_stmt 0 view .LVU26
	movs	r0, #0
	b	.L1
.LVL7:
.L3:
	.loc 1 82 16 view .LVU27
	movs	r0, #7
.LVL8:
	.loc 1 82 16 view .LVU28
	b	.L1
.LVL9:
.L4:
	.loc 1 82 16 view .LVU29
	movs	r0, #7
.LVL10:
	.loc 1 82 16 view .LVU30
	b	.L1
.LVL11:
.L5:
	.loc 1 82 16 view .LVU31
	movs	r0, #7
.LVL12:
	.loc 1 82 16 view .LVU32
	b	.L1
.L6:
	movs	r0, #7
	b	.L1
.LVL13:
.L7:
	.loc 1 82 16 view .LVU33
	movs	r0, #7
	b	.L1
.L8:
	movs	r0, #7
	b	.L1
.LFE142:
	.size	pm_buffer_init, .-pm_buffer_init
	.section	.text.pm_buffer_ptr_get,"ax",%progbits
	.align	1
	.global	pm_buffer_ptr_get
	.syntax unified
	.thumb
	.thumb_func
	.fpu fpv4-sp-d16
	.type	pm_buffer_ptr_get, %function
pm_buffer_ptr_get:
.LVL14:
.LFB144:
	.loc 1 124 1 is_stmt 1 view -0
	@ args = 0, pretend = 0, frame = 0
	@ frame_needed = 0, uses_anonymous_args = 0
	.loc 1 124 1 is_stmt 0 view .LVU35
	push	{r3, r4, r5, lr}
.LCFI1:
	.loc 1 125 5 is_stmt 1 view .LVU36
	.loc 1 125 8 is_stmt 0 view .LVU37
	mov	r5, r0
	cbz	r0, .L12
	mov	r4, r1
	.loc 1 125 23 discriminator 1 view .LVU38
	ldr	r0, [r0]
.LVL15:
	.loc 1 125 11 discriminator 1 view .LVU39
	cbz	r0, .L12
	.loc 1 125 23 discriminator 2 view .LVU40
	ldr	r0, [r5, #4]
	.loc 1 125 9 discriminator 2 view .LVU41
	cbz	r0, .L12
	.loc 1 130 5 is_stmt 1 view .LVU42
	.loc 1 130 8 is_stmt 0 view .LVU43
	cmp	r1, #255
	beq	.L14
	.loc 1 131 8 view .LVU44
	bl	pm_mutex_lock_status_get
.LVL16:
	.loc 1 131 5 view .LVU45
	cbz	r0, .L14
	.loc 1 133 9 is_stmt 1 view .LVU46
	.loc 1 133 27 is_stmt 0 view .LVU47
	ldr	r3, [r5]
	.loc 1 133 51 view .LVU48
	ldr	r0, [r5, #12]
	.loc 1 133 18 view .LVU49
	mla	r0, r0, r4, r3
.L12:
	.loc 1 139 1 view .LVU50
	pop	{r3, r4, r5, pc}
.LVL17:
.L14:
	.loc 1 137 9 is_stmt 1 view .LVU51
	.loc 1 137 16 is_stmt 0 view .LVU52
	movs	r0, #0
	b	.L12
.LFE144:
	.size	pm_buffer_ptr_get, .-pm_buffer_ptr_get
	.section	.text.pm_buffer_release,"ax",%progbits
	.align	1
	.global	pm_buffer_release
	.syntax unified
	.thumb
	.thumb_func
	.fpu fpv4-sp-d16
	.type	pm_buffer_release, %function
pm_buffer_release:
.LVL18:
.LFB145:
	.loc 1 143 1 is_stmt 1 view -0
	@ args = 0, pretend = 0, frame = 0
	@ frame_needed = 0, uses_anonymous_args = 0
	.loc 1 144 5 view .LVU54
	.loc 1 144 8 is_stmt 0 view .LVU55
	cbz	r0, .L20
	.loc 1 143 1 discriminator 1 view .LVU56
	push	{r3, r4, r5, lr}
.LCFI2:
	mov	r5, r0
	.loc 1 144 26 discriminator 1 view .LVU57
	ldr	r3, [r0]
	.loc 1 144 14 discriminator 1 view .LVU58
	cbz	r3, .L17
	.loc 1 144 26 discriminator 2 view .LVU59
	ldr	r0, [r0, #4]
.LVL19:
	.loc 1 144 14 discriminator 2 view .LVU60
	cbz	r0, .L17
	.loc 1 145 8 view .LVU61
	cmp	r1, #255
	bne	.L23
.LVL20:
.L17:
	.loc 1 150 1 view .LVU62
	pop	{r3, r4, r5, pc}
.LVL21:
.L23:
	.loc 1 146 11 view .LVU63
	uxth	r4, r1
	mov	r1, r4
.LVL22:
	.loc 1 146 11 view .LVU64
	bl	pm_mutex_lock_status_get
.LVL23:
	.loc 1 146 8 view .LVU65
	cmp	r0, #0
	beq	.L17
	.loc 1 148 9 is_stmt 1 view .LVU66
	mov	r1, r4
	ldr	r0, [r5, #4]
	bl	pm_mutex_unlock
.LVL24:
	.loc 1 150 1 is_stmt 0 view .LVU67
	b	.L17
.LVL25:
.L20:
.LCFI3:
	.loc 1 150 1 view .LVU68
	bx	lr
.LFE145:
	.size	pm_buffer_release, .-pm_buffer_release
	.section	.text.pm_buffer_block_acquire,"ax",%progbits
	.align	1
	.global	pm_buffer_block_acquire
	.syntax unified
	.thumb
	.thumb_func
	.fpu fpv4-sp-d16
	.type	pm_buffer_block_acquire, %function
pm_buffer_block_acquire:
.LVL26:
.LFB143:
	.loc 1 88 1 is_stmt 1 view -0
	@ args = 0, pretend = 0, frame = 0
	@ frame_needed = 0, uses_anonymous_args = 0
	.loc 1 88 1 is_stmt 0 view .LVU70
	push	{r3, r4, r5, r6, r7, lr}
.LCFI4:
	.loc 1 89 5 is_stmt 1 view .LVU71
	.loc 1 89 8 is_stmt 0 view .LVU72
	cbz	r0, .L33
	mov	r7, r1
	mov	r6, r0
	.loc 1 89 23 discriminator 1 view .LVU73
	ldr	r3, [r0]
	.loc 1 89 11 discriminator 1 view .LVU74
	cbz	r3, .L34
	.loc 1 89 23 discriminator 2 view .LVU75
	ldr	r3, [r0, #4]
	.loc 1 89 9 discriminator 2 view .LVU76
	cbz	r3, .L35
.LBB2:
	.loc 1 96 18 view .LVU77
	movs	r5, #0
.LBE2:
	.loc 1 94 13 view .LVU78
	movs	r4, #255
	b	.L26
.LVL27:
.L28:
.LBB4:
	.loc 1 104 13 is_stmt 1 view .LVU79
	.loc 1 104 20 is_stmt 0 view .LVU80
	subs	r3, r5, r4
	.loc 1 104 41 view .LVU81
	adds	r3, r3, #1
	.loc 1 104 16 view .LVU82
	cmp	r3, r7
	beq	.L25
.LVL28:
.L29:
	.loc 1 96 49 is_stmt 1 discriminator 2 view .LVU83
	.loc 1 96 50 is_stmt 0 discriminator 2 view .LVU84
	adds	r5, r5, #1
.LVL29:
	.loc 1 96 50 discriminator 2 view .LVU85
	uxtb	r5, r5
.LVL30:
.L26:
	.loc 1 96 25 is_stmt 1 discriminator 1 view .LVU86
	.loc 1 96 37 is_stmt 0 discriminator 1 view .LVU87
	ldr	r3, [r6, #8]
	.loc 1 96 5 discriminator 1 view .LVU88
	cmp	r5, r3
	bcs	.L38
	.loc 1 98 9 is_stmt 1 view .LVU89
	.loc 1 98 13 is_stmt 0 view .LVU90
	mov	r1, r5
	ldr	r0, [r6, #4]
	bl	pm_mutex_lock
.LVL31:
	.loc 1 98 12 view .LVU91
	cbz	r0, .L27
	.loc 1 100 13 is_stmt 1 view .LVU92
	.loc 1 100 16 is_stmt 0 view .LVU93
	cmp	r4, #255
	bne	.L28
	.loc 1 102 36 view .LVU94
	mov	r4, r5
.LVL32:
	.loc 1 102 36 view .LVU95
	b	.L28
.LVL33:
.L27:
	.loc 1 109 14 is_stmt 1 view .LVU96
	.loc 1 109 17 is_stmt 0 view .LVU97
	cmp	r4, #255
	beq	.L29
	b	.L30
.LVL34:
.L31:
.LBB3:
	.loc 1 113 17 is_stmt 1 discriminator 3 view .LVU98
	mov	r1, r4
	mov	r0, r6
	bl	pm_buffer_release
.LVL35:
	.loc 1 111 57 discriminator 3 view .LVU99
	.loc 1 111 58 is_stmt 0 discriminator 3 view .LVU100
	adds	r4, r4, #1
.LVL36:
	.loc 1 111 58 discriminator 3 view .LVU101
	uxtb	r4, r4
.LVL37:
.L30:
	.loc 1 111 50 is_stmt 1 discriminator 1 view .LVU102
	.loc 1 111 13 is_stmt 0 discriminator 1 view .LVU103
	cmp	r5, r4
	bhi	.L31
.LBE3:
	.loc 1 115 32 view .LVU104
	movs	r4, #255
.LVL38:
	.loc 1 115 32 view .LVU105
	b	.L29
.LVL39:
.L38:
	.loc 1 115 32 view .LVU106
.LBE4:
	.loc 1 119 12 view .LVU107
	movs	r4, #255
.LVL40:
.L25:
	.loc 1 120 1 view .LVU108
	mov	r0, r4
	pop	{r3, r4, r5, r6, r7, pc}
.LVL41:
.L33:
	.loc 1 91 16 view .LVU109
	movs	r4, #255
	b	.L25
.L34:
	.loc 1 91 16 view .LVU110
	movs	r4, #255
	b	.L25
.L35:
	movs	r4, #255
	b	.L25
.LFE143:
	.size	pm_buffer_block_acquire, .-pm_buffer_block_acquire
	.section	.debug_frame,"",%progbits
.Lframe0:
	.4byte	.LECIE0-.LSCIE0
.LSCIE0:
	.4byte	0xffffffff
	.byte	0x3
	.ascii	"\000"
	.uleb128 0x1
	.sleb128 -4
	.uleb128 0xe
	.byte	0xc
	.uleb128 0xd
	.uleb128 0
	.align	2
.LECIE0:
.LSFDE0:
	.4byte	.LEFDE0-.LASFDE0
.LASFDE0:
	.4byte	.Lframe0
	.4byte	.LFB142
	.4byte	.LFE142-.LFB142
	.byte	0x4
	.4byte	.LCFI0-.LFB142
	.byte	0xe
	.uleb128 0x10
	.byte	0x84
	.uleb128 0x4
	.byte	0x85
	.uleb128 0x3
	.byte	0x86
	.uleb128 0x2
	.byte	0x8e
	.uleb128 0x1
	.align	2
.LEFDE0:
.LSFDE2:
	.4byte	.LEFDE2-.LASFDE2
.LASFDE2:
	.4byte	.Lframe0
	.4byte	.LFB144
	.4byte	.LFE144-.LFB144
	.byte	0x4
	.4byte	.LCFI1-.LFB144
	.byte	0xe
	.uleb128 0x10
	.byte	0x83
	.uleb128 0x4
	.byte	0x84
	.uleb128 0x3
	.byte	0x85
	.uleb128 0x2
	.byte	0x8e
	.uleb128 0x1
	.align	2
.LEFDE2:
.LSFDE4:
	.4byte	.LEFDE4-.LASFDE4
.LASFDE4:
	.4byte	.Lframe0
	.4byte	.LFB145
	.4byte	.LFE145-.LFB145
	.byte	0x4
	.4byte	.LCFI2-.LFB145
	.byte	0xe
	.uleb128 0x10
	.byte	0x83
	.uleb128 0x4
	.byte	0x84
	.uleb128 0x3
	.byte	0x85
	.uleb128 0x2
	.byte	0x8e
	.uleb128 0x1
	.byte	0x4
	.4byte	.LCFI3-.LCFI2
	.byte	0xe
	.uleb128 0
	.byte	0xc3
	.byte	0xc4
	.byte	0xc5
	.byte	0xce
	.align	2
.LEFDE4:
.LSFDE6:
	.4byte	.LEFDE6-.LASFDE6
.LASFDE6:
	.4byte	.Lframe0
	.4byte	.LFB143
	.4byte	.LFE143-.LFB143
	.byte	0x4
	.4byte	.LCFI4-.LFB143
	.byte	0xe
	.uleb128 0x18
	.byte	0x83
	.uleb128 0x6
	.byte	0x84
	.uleb128 0x5
	.byte	0x85
	.uleb128 0x4
	.byte	0x86
	.uleb128 0x3
	.byte	0x87
	.uleb128 0x2
	.byte	0x8e
	.uleb128 0x1
	.align	2
.LEFDE6:
	.text
.Letext0:
	.file 2 "C:\\nRF5_SDK_15.0.0_a53641a\\components\\ble\\peer_manager\\pm_buffer.h"
	.file 3 "C:/Program Files (x86)/SEGGER/SEGGER Embedded Studio for ARM 4.50/include/stdint.h"