	.cpu cortex-m4
	.eabi_attribute 27, 1
	.eabi_attribute 28, 1
	.eabi_attribute 20, 1
	.eabi_attribute 21, 1
	.eabi_attribute 23, 3
	.eabi_attribute 24, 1
	.eabi_attribute 25, 1
	.eabi_attribute 26, 1
	.eabi_attribute 30, 1
	.eabi_attribute 34, 1
	.eabi_attribute 18, 4
	.file	"port_cmsis.c"
	.text
.Ltext0:
	.section	.text.vPortEnableVFP,"ax",%progbits
	.align	1
	.syntax unified
	.thumb
	.thumb_func
	.fpu fpv4-sp-d16
	.type	vPortEnableVFP, %function
vPortEnableVFP:
.LFB206:
	.file 1 "C:\\nRF5_SDK_15.0.0_a53641a\\external\\freertos\\portable\\CMSIS\\nrf52\\port_cmsis.c"
	.loc 1 292 1 view -0
	@ args = 0, pretend = 0, frame = 0
	@ frame_needed = 0, uses_anonymous_args = 0
	@ link register save eliminated.
	.loc 1 293 5 view .LVU1
	.loc 1 293 56 is_stmt 0 view .LVU2
	ldr	r2, .L2
	ldr	r3, [r2, #136]
	orr	r3, r3, #15728640
	str	r3, [r2, #136]
	.loc 1 294 1 view .LVU3
	bx	lr
.L3:
	.align	2
.L2:
	.word	-536810240
.LFE206:
	.size	vPortEnableVFP, .-vPortEnableVFP
	.section	.rodata.prvTaskExitError.str1.4,"aMS",%progbits,1
	.align	2
.LC0:
	.ascii	"C:\\nRF5_SDK_15.0.0_a53641a\\external\\freertos\\po"
	.ascii	"rtable\\CMSIS\\nrf52\\port_cmsis.c\000"
	.section	.text.prvTaskExitError,"ax",%progbits
	.align	1
	.syntax unified
	.thumb
	.thumb_func
	.fpu fpv4-sp-d16
	.type	prvTaskExitError, %function
prvTaskExitError:
.LFB201:
	.loc 1 151 1 is_stmt 1 view -0
	@ Volatile: function does not return.
	@ args = 0, pretend = 0, frame = 0
	@ frame_needed = 0, uses_anonymous_args = 0
	push	{r3, lr}
.LCFI0:
	.loc 1 158 5 view .LVU5
	.loc 1 158 14 view .LVU6
	.loc 1 158 36 is_stmt 0 view .LVU7
	ldr	r3, .L9
	ldr	r3, [r3]
	.loc 1 158 17 view .LVU8
	cmp	r3, #-1
	bne	.L8
.L5:
	.loc 1 158 195 is_stmt 1 discriminator 5 view .LVU9
	.loc 1 159 5 discriminator 5 view .LVU10
.LVL0:
.LBB17:
.LBI17:
	.file 2 "../../../../../../components/toolchain/cmsis/include/cmsis_gcc.h"
	.loc 2 262 55 discriminator 5 view .LVU11
.LBB18:
	.loc 2 264 3 discriminator 5 view .LVU12
	movs	r3, #64
	.syntax unified
@ 264 "../../../../../../components/toolchain/cmsis/include/cmsis_gcc.h" 1
	MSR basepri, r3
@ 0 "" 2
.LVL1:
	.thumb
	.syntax unified
.L6:
	.loc 2 264 3 is_stmt 0 discriminator 5 view .LVU13
.LBE18:
.LBE17:
	.loc 1 160 5 is_stmt 1 discriminator 1 view .LVU14
	.loc 1 160 15 discriminator 1 view .LVU15
	.loc 1 160 12 discriminator 1 view .LVU16
	b	.L6
.L8:
	.loc 1 158 56 discriminator 4 view .LVU17
	ldr	r1, .L9+4
	movs	r0, #158
	bl	assert_nrf_callback
.LVL2:
	b	.L5
.L10:
	.align	2
.L9:
	.word	.LANCHOR0
	.word	.LC0
.LFE201:
	.size	prvTaskExitError, .-prvTaskExitError
	.section	.text.pxPortInitialiseStack,"ax",%progbits
	.align	1
	.global	pxPortInitialiseStack
	.syntax unified
	.thumb
	.thumb_func
	.fpu fpv4-sp-d16
	.type	pxPortInitialiseStack, %function
pxPortInitialiseStack:
.LVL3:
.LFB200:
	.loc 1 121 1 view -0
	@ args = 0, pretend = 0, frame = 0
	@ frame_needed = 0, uses_anonymous_args = 0
	@ link register save eliminated.
	.loc 1 127 5 view .LVU19
	.loc 1 129 5 view .LVU20
	.loc 1 129 34 is_stmt 0 view .LVU21
	mov	r3, #16777216
	.loc 1 129 19 view .LVU22
	str	r3, [r0, #-4]
	.loc 1 130 5 is_stmt 1 view .LVU23
.LVL4:
	.loc 1 131 5 view .LVU24
	.loc 1 131 19 is_stmt 0 view .LVU25
	str	r1, [r0, #-8]
	.loc 1 132 5 is_stmt 1 view .LVU26
.LVL5:
	.loc 1 133 5 view .LVU27
	.loc 1 133 21 is_stmt 0 view .LVU28
	ldr	r3, .L12
	.loc 1 133 19 view .LVU29
	str	r3, [r0, #-12]
	.loc 1 136 5 is_stmt 1 view .LVU30
.LVL6:
	.loc 1 137 5 view .LVU31
	.loc 1 137 19 is_stmt 0 view .LVU32
	str	r2, [r0, #-32]
	.loc 1 141 5 is_stmt 1 view .LVU33
.LVL7:
	.loc 1 142 5 view .LVU34
	.loc 1 142 19 is_stmt 0 view .LVU35
	mvn	r3, #2
	str	r3, [r0, #-36]
	.loc 1 144 5 is_stmt 1 view .LVU36
.LVL8:
	.loc 1 146 5 view .LVU37
	.loc 1 147 1 is_stmt 0 view .LVU38
	subs	r0, r0, #68
.LVL9:
	.loc 1 147 1 view .LVU39
	bx	lr
.L13:
	.align	2
.L12:
	.word	prvTaskExitError
.LFE200:
	.size	pxPortInitialiseStack, .-pxPortInitialiseStack
	.section	.text.xPortStartScheduler,"ax",%progbits
	.align	1
	.global	xPortStartScheduler
	.syntax unified
	.thumb
	.thumb_func
	.fpu fpv4-sp-d16
	.type	xPortStartScheduler, %function
xPortStartScheduler:
.LFB202:
	.loc 1 170 1 is_stmt 1 view -0
	@ args = 0, pretend = 0, frame = 8
	@ frame_needed = 0, uses_anonymous_args = 0
	push	{r4, lr}
.LCFI1:
	sub	sp, sp, #8
.LCFI2:
	.loc 1 173 5 view .LVU41
	.loc 1 173 14 view .LVU42
	.loc 1 173 23 view .LVU43
	.loc 1 173 171 view .LVU44
	.loc 1 176 5 view .LVU45
	.loc 1 176 14 view .LVU46
	.loc 1 176 61 is_stmt 0 view .LVU47
	ldr	r3, .L21
	ldr	r2, [r3]
	.loc 1 176 17 view .LVU48
	ldr	r3, .L21+4
	cmp	r2, r3
	bne	.L19
.L15:
	.loc 1 176 240 is_stmt 1 discriminator 5 view .LVU49
.LBB19:
	.loc 1 180 9 discriminator 5 view .LVU50
	.loc 1 181 9 discriminator 5 view .LVU51
.LVL10:
	.loc 1 182 9 discriminator 5 view .LVU52
	.loc 1 190 9 discriminator 5 view .LVU53
	.loc 1 190 30 is_stmt 0 discriminator 5 view .LVU54
	ldr	r3, .L21+8
	ldrb	r2, [r3]	@ zero_extendqisi2
	uxtb	r2, r2
	.loc 1 190 28 discriminator 5 view .LVU55
	str	r2, [sp, #4]
	.loc 1 194 9 is_stmt 1 discriminator 5 view .LVU56
	.loc 1 194 39 is_stmt 0 discriminator 5 view .LVU57
	movs	r2, #255
	strb	r2, [r3]
	.loc 1 197 9 is_stmt 1 discriminator 5 view .LVU58
	.loc 1 197 30 is_stmt 0 discriminator 5 view .LVU59
	ldrb	r3, [r3]	@ zero_extendqisi2
	uxtb	r3, r3
	.loc 1 197 28 discriminator 5 view .LVU60
	strb	r3, [sp, #3]
	.loc 1 200 9 is_stmt 1 discriminator 5 view .LVU61
	.loc 1 200 34 is_stmt 0 discriminator 5 view .LVU62
	ldrb	r3, [sp, #3]	@ zero_extendqisi2
	and	r3, r3, #2
	.loc 1 200 30 discriminator 5 view .LVU63
	ldr	r2, .L21+12
	strb	r3, [r2]
	.loc 1 204 9 is_stmt 1 discriminator 5 view .LVU64
	.loc 1 204 28 is_stmt 0 discriminator 5 view .LVU65
	ldr	r3, .L21+16
	movs	r2, #7
	str	r2, [r3]
	.loc 1 205 9 is_stmt 1 discriminator 5 view .LVU66
.L16:
	.loc 1 205 15 view .LVU67
	.loc 1 205 38 is_stmt 0 view .LVU68
	ldrb	r3, [sp, #3]	@ zero_extendqisi2
	.loc 1 205 15 view .LVU69
	tst	r3, #128
	beq	.L20
	.loc 1 207 13 is_stmt 1 view .LVU70
	.loc 1 207 31 is_stmt 0 view .LVU71
	ldr	r2, .L21+16
	ldr	r3, [r2]
	subs	r3, r3, #1
	str	r3, [r2]
	.loc 1 208 13 is_stmt 1 view .LVU72
	.loc 1 208 32 is_stmt 0 view .LVU73
	ldrb	r3, [sp, #3]	@ zero_extendqisi2
	lsls	r3, r3, #1
	uxtb	r3, r3
	strb	r3, [sp, #3]
	b	.L16
.LVL11:
.L19:
	.loc 1 208 32 view .LVU74
.LBE19:
	.loc 1 176 101 is_stmt 1 discriminator 4 view .LVU75
	ldr	r1, .L21+20
	movs	r0, #176
	bl	assert_nrf_callback
.LVL12:
	b	.L15
.LVL13:
.L20:
.LBB20:
	.loc 1 212 9 view .LVU76
	.loc 1 212 28 is_stmt 0 view .LVU77
	ldr	r2, .L21+16
	ldr	r3, [r2]
	and	r3, r3, #7
	str	r3, [r2]
	.loc 1 216 9 is_stmt 1 view .LVU78
	.loc 1 216 39 is_stmt 0 view .LVU79
	ldr	r3, [sp, #4]
	uxtb	r3, r3
	ldr	r2, .L21+8
	strb	r3, [r2]
.LBE20:
	.loc 1 221 5 is_stmt 1 view .LVU80
.LVL14:
.LBB21:
.LBI21:
	.file 3 "../../../../../../components/toolchain/cmsis/include/core_cm4.h"
	.loc 3 1698 20 view .LVU81
.LBB22:
	.loc 3 1700 3 view .LVU82
	.loc 3 1702 5 view .LVU83
	.loc 3 1702 95 is_stmt 0 view .LVU84
	ldr	r4, .L21
	movs	r3, #224
	strb	r3, [r4, #34]
.LVL15:
	.loc 3 1702 95 view .LVU85
.LBE22:
.LBE21:
	.loc 1 225 5 is_stmt 1 view .LVU86
	bl	vPortSetupTimerInterrupt
.LVL16:
	.loc 1 228 5 view .LVU87
	.loc 1 228 23 is_stmt 0 view .LVU88
	ldr	r3, .L21+24
	movs	r2, #0
	str	r2, [r3]
	.loc 1 231 5 is_stmt 1 view .LVU89
	bl	vPortEnableVFP
.LVL17:
	.loc 1 234 5 view .LVU90
	.loc 1 234 56 is_stmt 0 view .LVU91
	ldr	r2, .L21+28
	ldr	r3, [r2, #4]
	orr	r3, r3, #-1073741824
	str	r3, [r2, #4]
	.loc 1 237 5 is_stmt 1 view .LVU92
	.loc 1 237 54 is_stmt 0 view .LVU93
	ldr	r3, [r4, #16]
	orr	r3, r3, #16
	str	r3, [r4, #16]
	.loc 1 240 5 is_stmt 1 view .LVU94
	bl	vPortStartFirstTask
.LVL18:
	.loc 1 246 5 view .LVU95
	bl	prvTaskExitError
.LVL19:
.L22:
	.align	2
.L21:
	.word	-536810240
	.word	1091551809
	.word	-536812544
	.word	.LANCHOR1
	.word	.LANCHOR2
	.word	.LC0
	.word	.LANCHOR0
	.word	-536809680
.LFE202:
	.size	xPortStartScheduler, .-xPortStartScheduler
	.section	.text.vPortEndScheduler,"ax",%progbits
	.align	1
	.global	vPortEndScheduler
	.syntax unified
	.thumb
	.thumb_func
	.fpu fpv4-sp-d16
	.type	vPortEndScheduler, %function
vPortEndScheduler:
.LFB203:
	.loc 1 254 1 view -0
	@ args = 0, pretend = 0, frame = 0
	@ frame_needed = 0, uses_anonymous_args = 0
	push	{r3, lr}
.LCFI3:
	.loc 1 257 5 view .LVU97
	.loc 1 257 14 view .LVU98
	.loc 1 257 36 is_stmt 0 view .LVU99
	ldr	r3, .L27
	ldr	r3, [r3]
	.loc 1 257 17 view .LVU100
	cmp	r3, #1000
	bne	.L26
.L23:
	.loc 1 258 1 view .LVU101
	pop	{r3, pc}
.L26:
	.loc 1 257 58 is_stmt 1 discriminator 4 view .LVU102
	ldr	r1, .L27+4
	movw	r0, #257
	bl	assert_nrf_callback
.LVL20:
	.loc 1 257 197 discriminator 4 view .LVU103
	.loc 1 258 1 is_stmt 0 discriminator 4 view .LVU104
	b	.L23
.L28:
	.align	2
.L27:
	.word	.LANCHOR0
	.word	.LC0
.LFE203:
	.size	vPortEndScheduler, .-vPortEndScheduler
	.section	.text.vPortEnterCritical,"ax",%progbits
	.align	1
	.global	vPortEnterCritical
	.syntax unified
	.thumb
	.thumb_func
	.fpu fpv4-sp-d16
	.type	vPortEnterCritical, %function
vPortEnterCritical:
.LFB204:
	.loc 1 262 1 is_stmt 1 view -0
	@ args = 0, pretend = 0, frame = 0
	@ frame_needed = 0, uses_anonymous_args = 0
	push	{r3, lr}
.LCFI4:
	.loc 1 263 5 view .LVU106
.LVL21:
.LBB23:
.LBI23:
	.loc 2 262 55 view .LVU107
.LBB24:
	.loc 2 264 3 view .LVU108
	movs	r3, #64
	.syntax unified
@ 264 "../../../../../../components/toolchain/cmsis/include/cmsis_gcc.h" 1
	MSR basepri, r3
@ 0 "" 2
.LVL22:
	.loc 2 264 3 is_stmt 0 view .LVU109
	.thumb
	.syntax unified
.LBE24:
.LBE23:
	.loc 1 264 5 is_stmt 1 view .LVU110
	.loc 1 264 22 is_stmt 0 view .LVU111
	ldr	r2, .L33
	ldr	r3, [r2]
	adds	r3, r3, #1
	str	r3, [r2]
	.loc 1 271 5 is_stmt 1 view .LVU112
	.loc 1 271 8 is_stmt 0 view .LVU113
	cmp	r3, #1
	beq	.L32
.L29:
	.loc 1 275 1 view .LVU114
	pop	{r3, pc}
.L32:
	.loc 1 273 9 is_stmt 1 discriminator 1 view .LVU115
	.loc 1 273 18 discriminator 1 view .LVU116
	.loc 1 273 67 is_stmt 0 discriminator 1 view .LVU117
	ldr	r3, .L33+4
	ldr	r3, [r3, #4]
	.loc 1 273 74 discriminator 1 view .LVU118
	ubfx	r3, r3, #0, #9
	.loc 1 273 21 discriminator 1 view .LVU119
	cmp	r3, #0
	beq	.L29
	.loc 1 273 106 is_stmt 1 discriminator 4 view .LVU120
	ldr	r1, .L33+8
	movw	r0, #273
	bl	assert_nrf_callback
.LVL23:
	.loc 1 273 245 discriminator 4 view .LVU121
	.loc 1 275 1 is_stmt 0 discriminator 4 view .LVU122
	b	.L29
.L34:
	.align	2
.L33:
	.word	.LANCHOR0
	.word	-536810240
	.word	.LC0
.LFE204:
	.size	vPortEnterCritical, .-vPortEnterCritical
	.section	.text.vPortExitCritical,"ax",%progbits
	.align	1
	.global	vPortExitCritical
	.syntax unified
	.thumb
	.thumb_func
	.fpu fpv4-sp-d16
	.type	vPortExitCritical, %function
vPortExitCritical:
.LFB205:
	.loc 1 279 1 is_stmt 1 view -0
	@ args = 0, pretend = 0, frame = 0
	@ frame_needed = 0, uses_anonymous_args = 0
	push	{r3, lr}
.LCFI5:
	.loc 1 280 5 view .LVU124
	.loc 1 280 14 view .LVU125
	.loc 1 280 18 is_stmt 0 view .LVU126
	ldr	r3, .L40
	ldr	r3, [r3]
	.loc 1 280 17 view .LVU127
	cbz	r3, .L39
.L36:
	.loc 1 280 187 is_stmt 1 discriminator 5 view .LVU128
	.loc 1 281 5 discriminator 5 view .LVU129
	.loc 1 281 22 is_stmt 0 discriminator 5 view .LVU130
	ldr	r2, .L40
	ldr	r3, [r2]
	subs	r3, r3, #1
	str	r3, [r2]
	.loc 1 282 5 is_stmt 1 discriminator 5 view .LVU131
	.loc 1 282 8 is_stmt 0 discriminator 5 view .LVU132
	cbnz	r3, .L35
	.loc 1 284 9 is_stmt 1 view .LVU133
.LVL24:
.LBB25:
.LBI25:
	.loc 2 262 55 view .LVU134
.LBB26:
	.loc 2 264 3 view .LVU135
	.syntax unified
@ 264 "../../../../../../components/toolchain/cmsis/include/cmsis_gcc.h" 1
	MSR basepri, r3
@ 0 "" 2
.LVL25:
	.thumb
	.syntax unified
.L35:
	.loc 2 264 3 is_stmt 0 view .LVU136
.LBE26:
.LBE25:
	.loc 1 286 1 view .LVU137
	pop	{r3, pc}
.L39:
	.loc 1 280 48 is_stmt 1 discriminator 4 view .LVU138
	ldr	r1, .L40+4
	mov	r0, #280
	bl	assert_nrf_callback
.LVL26:
	b	.L36
.L41:
	.align	2
.L40:
	.word	.LANCHOR0
	.word	.LC0
.LFE205:
	.size	vPortExitCritical, .-vPortExitCritical
	.section	.text.vPortValidateInterruptPriority,"ax",%progbits
	.align	1
	.global	vPortValidateInterruptPriority
	.syntax unified
	.thumb
	.thumb_func
	.fpu fpv4-sp-d16
	.type	vPortValidateInterruptPriority, %function
vPortValidateInterruptPriority:
.LFB207:
	.loc 1 300 5 view -0
	@ args = 0, pretend = 0, frame = 0
	@ frame_needed = 0, uses_anonymous_args = 0
	push	{r3, lr}
.LCFI6:
	.loc 1 301 5 view .LVU140
	.loc 1 302 5 view .LVU141
	.loc 1 303 5 view .LVU142
	.loc 1 306 9 view .LVU143
.LBB27:
.LBI27:
	.loc 2 105 59 view .LVU144
.LBB28:
	.loc 2 107 3 view .LVU145
	.loc 2 109 3 view .LVU146
	.syntax unified
@ 109 "../../../../../../components/toolchain/cmsis/include/cmsis_gcc.h" 1
	MRS r3, ipsr
@ 0 "" 2
.LVL27:
	.loc 2 110 3 view .LVU147
	.loc 2 110 3 is_stmt 0 view .LVU148
	.thumb
	.syntax unified
.LBE28:
.LBE27:
	.loc 1 307 9 is_stmt 1 view .LVU149
	.loc 1 307 36 is_stmt 0 view .LVU150
	ubfx	r3, r3, #0, #9
.LVL28:
	.loc 1 310 9 is_stmt 1 view .LVU151
	.loc 1 310 12 is_stmt 0 view .LVU152
	cmp	r3, #15
	bls	.L43
	.loc 1 313 13 is_stmt 1 view .LVU153
	.loc 1 313 31 is_stmt 0 view .LVU154
	add	r3, r3, #-536813568
.LVL29:
	.loc 1 313 31 view .LVU155
	adds	r3, r3, #240
.LVL30:
	.loc 1 313 31 view .LVU156
	ldrb	r3, [r3, #768]	@ zero_extendqisi2
.LVL31:
	.loc 1 313 31 view .LVU157
	uxtb	r3, r3
.LVL32:
	.loc 1 338 13 is_stmt 1 view .LVU158
	.loc 1 338 22 view .LVU159
	.loc 1 338 44 is_stmt 0 view .LVU160
	ldr	r2, .L48
	ldrb	r2, [r2]	@ zero_extendqisi2
	.loc 1 338 25 view .LVU161
	cmp	r2, r3
	bhi	.L46
.LVL33:
.L43:
	.loc 1 338 219 is_stmt 1 discriminator 1 view .LVU162
	.loc 1 354 9 discriminator 1 view .LVU163
	.loc 1 354 18 discriminator 1 view .LVU164
.LBB29:
.LBI29:
	.loc 3 1615 24 discriminator 1 view .LVU165
.LBB30:
	.loc 3 1617 3 discriminator 1 view .LVU166
	.loc 3 1617 66 is_stmt 0 discriminator 1 view .LVU167
	ldr	r3, .L48+4
	ldr	r3, [r3, #12]
	.loc 3 1617 11 discriminator 1 view .LVU168
	ubfx	r3, r3, #8, #3
.LBE30:
.LBE29:
	.loc 1 354 49 discriminator 1 view .LVU169
	ldr	r2, .L48+8
	ldr	r2, [r2]
	.loc 1 354 21 discriminator 1 view .LVU170
	cmp	r2, r3
	bcc	.L47
.L42:
	.loc 1 355 5 view .LVU171
	pop	{r3, pc}
.LVL34:
.L46:
	.loc 1 338 80 is_stmt 1 discriminator 4 view .LVU172
	ldr	r1, .L48+12
	mov	r0, #338
	bl	assert_nrf_callback
.LVL35:
	.loc 1 338 80 is_stmt 0 discriminator 4 view .LVU173
	b	.L43
.L47:
	.loc 1 354 83 is_stmt 1 discriminator 4 view .LVU174
	ldr	r1, .L48+12
	mov	r0, #354
	bl	assert_nrf_callback
.LVL36:
	.loc 1 354 222 discriminator 4 view .LVU175
	.loc 1 355 5 is_stmt 0 discriminator 4 view .LVU176
	b	.L42
.L49:
	.align	2
.L48:
	.word	.LANCHOR1
	.word	-536810240
	.word	.LANCHOR2
	.word	.LC0
.LFE207:
	.size	vPortValidateInterruptPriority, .-vPortValidateInterruptPriority
	.section	.bss.ucMaxSysCallPriority,"aw",%nobits
	.set	.LANCHOR1,. + 0
	.type	ucMaxSysCallPriority, %object
	.size	ucMaxSysCallPriority, 1
ucMaxSysCallPriority:
	.space	1
	.section	.bss.ulMaxPRIGROUPValue,"aw",%nobits
	.align	2
	.set	.LANCHOR2,. + 0
	.type	ulMaxPRIGROUPValue, %object
	.size	ulMaxPRIGROUPValue, 4
ulMaxPRIGROUPValue:
	.space	4
	.section	.bss.uxCriticalNesting,"aw",%nobits
	.align	2
	.set	.LANCHOR0,. + 0
	.type	uxCriticalNesting, %object
	.size	uxCriticalNesting, 4
uxCriticalNesting:
	.space	4
	.section	.debug_frame,"",%progbits
.Lframe0:
	.4byte	.LECIE0-.LSCIE0
.LSCIE0:
	.4byte	0xffffffff
	.byte	0x3
	.ascii	"\000"
	.uleb128 0x1
	.sleb128 -4
	.uleb128 0xe
	.byte	0xc
	.uleb128 0xd
	.uleb128 0
	.align	2
.LECIE0:
.LSFDE0:
	.4byte	.LEFDE0-.LASFDE0
.LASFDE0:
	.4byte	.Lframe0
	.4byte	.LFB206
	.4byte	.LFE206-.LFB206
	.align	2
.LEFDE0:
.LSFDE2:
	.4byte	.LEFDE2-.LASFDE2
.LASFDE2:
	.4byte	.Lframe0
	.4byte	.LFB201
	.4byte	.LFE201-.LFB201
	.byte	0x4
	.4byte	.LCFI0-.LFB201
	.byte	0xe
	.uleb128 0x8
	.byte	0x83
	.uleb128 0x2
	.byte	0x8e
	.uleb128 0x1
	.align	2
.LEFDE2:
.LSFDE4:
	.4byte	.LEFDE4-.LASFDE4
.LASFDE4:
	.4byte	.Lframe0
	.4byte	.LFB200
	.4byte	.LFE200-.LFB200
	.align	2
.LEFDE4:
.LSFDE6:
	.4byte	.LEFDE6-.LASFDE6
.LASFDE6:
	.4byte	.Lframe0
	.4byte	.LFB202
	.4byte	.LFE202-.LFB202
	.byte	0x4
	.4byte	.LCFI1-.LFB202
	.byte	0xe
	.uleb128 0x8
	.byte	0x84
	.uleb128 0x2
	.byte	0x8e
	.uleb128 0x1
	.byte	0x4
	.4byte	.LCFI2-.LCFI1
	.byte	0xe
	.uleb128 0x10
	.align	2
.LEFDE6:
.LSFDE8:
	.4byte	.LEFDE8-.LASFDE8
.LASFDE8:
	.4byte	.Lframe0
	.4byte	.LFB203
	.4byte	.LFE203-.LFB203
	.byte	0x4
	.4byte	.LCFI3-.LFB203
	.byte	0xe
	.uleb128 0x8
	.byte	0x83
	.uleb128 0x2
	.byte	0x8e
	.uleb128 0x1
	.align	2
.LEFDE8:
.LSFDE10:
	.4byte	.LEFDE10-.LASFDE10
.LASFDE10:
	.4byte	.Lframe0
	.4byte	.LFB204
	.4byte	.LFE204-.LFB204
	.byte	0x4
	.4byte	.LCFI4-.LFB204
	.byte	0xe
	.uleb128 0x8
	.byte	0x83
	.uleb128 0x2
	.byte	0x8e
	.uleb128 0x1
	.align	2
.LEFDE10:
.LSFDE12:
	.4byte	.LEFDE12-.LASFDE12
.LASFDE12:
	.4byte	.Lframe0
	.4byte	.LFB205
	.4byte	.LFE205-.LFB205
	.byte	0x4
	.4byte	.LCFI5-.LFB205
	.byte	0xe
	.uleb128 0x8
	.byte	0x83
	.uleb128 0x2
	.byte	0x8e
	.uleb128 0x1
	.align	2
.LEFDE12:
.LSFDE14:
	.4byte	.LEFDE14-.LASFDE14
.LASFDE14:
	.4byte	.Lframe0
	.4byte	.LFB207
	.4byte	.LFE207-.LFB207
	.byte	0x4
	.4byte	.LCFI6-.LFB207
	.byte	0xe
	.uleb128 0x8
	.byte	0x83
	.uleb128 0x2
	.byte	0x8e
	.uleb128 0x1
	.align	2
.LEFDE14:
	.text
.Letext0:
	.file 4 "../../../../../../components/softdevice/s132/headers/nrf_nvic.h"
	.file 5 "C:/Program Files (x86)/SEGGER/SEGGER Embedded Studio for ARM 4.50/include/stdint.h"