	.cpu cortex-m4
	.eabi_attribute 27, 1
	.eabi_attribute 28, 1
	.eabi_attribute 20, 1
	.eabi_attribute 21, 1
	.eabi_attribute 23, 3
	.eabi_attribute 24, 1
	.eabi_attribute 25, 1
	.eabi_attribute 26, 1
	.eabi_attribute 30, 1
	.eabi_attribute 34, 1
	.eabi_attribute 18, 4
	.file	"queue.c"
	.text
.Ltext0:
	.section	.text.prvGetDisinheritPriorityAfterTimeout,"ax",%progbits
	.align	1
	.syntax unified
	.thumb
	.thumb_func
	.fpu fpv4-sp-d16
	.type	prvGetDisinheritPriorityAfterTimeout, %function
prvGetDisinheritPriorityAfterTimeout:
.LVL0:
.LFB223:
	.file 1 "C:\\nRF5_SDK_15.0.0_a53641a\\external\\freertos\\source\\queue.c"
	.loc 1 2017 2 view -0
	@ args = 0, pretend = 0, frame = 0
	@ frame_needed = 0, uses_anonymous_args = 0
	@ link register save eliminated.
	.loc 1 2017 2 is_stmt 0 view .LVU1
	mov	r3, r0
	.loc 1 2018 2 is_stmt 1 view .LVU2
	.loc 1 2026 3 view .LVU3
	.loc 1 2026 49 is_stmt 0 view .LVU4
	ldr	r0, [r0, #36]
.LVL1:
	.loc 1 2026 5 view .LVU5
	cbz	r0, .L1
	.loc 1 2028 4 is_stmt 1 view .LVU6
	.loc 1 2028 102 is_stmt 0 view .LVU7
	ldr	r3, [r3, #48]
.LVL2:
	.loc 1 2028 109 view .LVU8
	ldr	r0, [r3]
	.loc 1 2028 36 view .LVU9
	rsb	r0, r0, #7
.LVL3:
	.loc 1 2035 3 is_stmt 1 view .LVU10
.L1:
	.loc 1 2036 2 is_stmt 0 view .LVU11
	bx	lr
.LFE223:
	.size	prvGetDisinheritPriorityAfterTimeout, .-prvGetDisinheritPriorityAfterTimeout
	.section	.text.prvIsQueueFull,"ax",%progbits
	.align	1
	.syntax unified
	.thumb
	.thumb_func
	.fpu fpv4-sp-d16
	.type	prvIsQueueFull, %function
prvIsQueueFull:
.LVL4:
.LFB229:
	.loc 1 2298 1 is_stmt 1 view -0
	@ args = 0, pretend = 0, frame = 0
	@ frame_needed = 0, uses_anonymous_args = 0
	.loc 1 2298 1 is_stmt 0 view .LVU13
	push	{r4, lr}
.LCFI0:
	mov	r4, r0
	.loc 1 2299 1 is_stmt 1 view .LVU14
	.loc 1 2301 2 view .LVU15
	bl	vPortEnterCritical
.LVL5:
	.loc 1 2303 3 view .LVU16
	.loc 1 2303 14 is_stmt 0 view .LVU17
	ldr	r2, [r4, #56]
	.loc 1 2303 44 view .LVU18
	ldr	r3, [r4, #60]
	.loc 1 2303 5 view .LVU19
	cmp	r2, r3
	beq	.L7
	.loc 1 2309 12 view .LVU20
	movs	r4, #0
.LVL6:
.L4:
	.loc 1 2312 2 is_stmt 1 view .LVU21
	bl	vPortExitCritical
.LVL7:
	.loc 1 2314 2 view .LVU22
	.loc 1 2315 1 is_stmt 0 view .LVU23
	mov	r0, r4
	pop	{r4, pc}
.LVL8:
.L7:
	.loc 1 2305 12 view .LVU24
	movs	r4, #1
.LVL9:
	.loc 1 2305 12 view .LVU25
	b	.L4
.LFE229:
	.size	prvIsQueueFull, .-prvIsQueueFull
	.section	.text.prvIsQueueEmpty,"ax",%progbits
	.align	1
	.syntax unified
	.thumb
	.thumb_func
	.fpu fpv4-sp-d16
	.type	prvIsQueueEmpty, %function
prvIsQueueEmpty:
.LVL10:
.LFB227:
	.loc 1 2259 1 is_stmt 1 view -0
	@ args = 0, pretend = 0, frame = 0
	@ frame_needed = 0, uses_anonymous_args = 0
	.loc 1 2259 1 is_stmt 0 view .LVU27
	push	{r4, lr}
.LCFI1:
	mov	r4, r0
	.loc 1 2260 1 is_stmt 1 view .LVU28
	.loc 1 2262 2 view .LVU29
	bl	vPortEnterCritical
.LVL11:
	.loc 1 2264 3 view .LVU30
	.loc 1 2264 14 is_stmt 0 view .LVU31
	ldr	r3, [r4, #56]
	.loc 1 2264 5 view .LVU32
	cbnz	r3, .L10
	.loc 1 2266 12 view .LVU33
	movs	r4, #1
.LVL12:
.L9:
	.loc 1 2273 2 is_stmt 1 view .LVU34
	bl	vPortExitCritical
.LVL13:
	.loc 1 2275 2 view .LVU35
	.loc 1 2276 1 is_stmt 0 view .LVU36
	mov	r0, r4
	pop	{r4, pc}
.LVL14:
.L10:
	.loc 1 2270 12 view .LVU37
	movs	r4, #0
.LVL15:
	.loc 1 2270 12 view .LVU38
	b	.L9
.LFE227:
	.size	prvIsQueueEmpty, .-prvIsQueueEmpty
	.section	.text.prvCopyDataToQueue,"ax",%progbits
	.align	1
	.syntax unified
	.thumb
	.thumb_func
	.fpu fpv4-sp-d16
	.type	prvCopyDataToQueue, %function
prvCopyDataToQueue:
.LVL16:
.LFB224:
	.loc 1 2042 1 is_stmt 1 view -0
	@ args = 0, pretend = 0, frame = 0
	@ frame_needed = 0, uses_anonymous_args = 0
	.loc 1 2042 1 is_stmt 0 view .LVU40
	push	{r4, r5, r6, lr}
.LCFI2:
	mov	r4, r0
	mov	r5, r2
	.loc 1 2043 1 is_stmt 1 view .LVU41
.LVL17:
	.loc 1 2044 1 view .LVU42
	.loc 1 2048 2 view .LVU43
	.loc 1 2048 20 is_stmt 0 view .LVU44
	ldr	r6, [r0, #56]
.LVL18:
	.loc 1 2050 2 is_stmt 1 view .LVU45
	.loc 1 2050 13 is_stmt 0 view .LVU46
	ldr	r2, [r0, #64]
.LVL19:
	.loc 1 2050 4 view .LVU47
	cbnz	r2, .L13
	.loc 1 2054 4 is_stmt 1 view .LVU48
	.loc 1 2054 15 is_stmt 0 view .LVU49
	ldr	r3, [r0]
	.loc 1 2054 6 view .LVU50
	cbz	r3, .L22
	.loc 1 2043 12 view .LVU51
	movs	r0, #0
.LVL20:
.L14:
	.loc 1 2110 4 is_stmt 1 view .LVU52
	.loc 1 2114 2 view .LVU53
	.loc 1 2114 49 is_stmt 0 view .LVU54
	adds	r6, r6, #1
.LVL21:
	.loc 1 2114 29 view .LVU55
	str	r6, [r4, #56]
	.loc 1 2116 2 is_stmt 1 view .LVU56
	.loc 1 2117 1 is_stmt 0 view .LVU57
	pop	{r4, r5, r6, pc}
.LVL22:
.L22:
	.loc 1 2057 5 is_stmt 1 view .LVU58
	.loc 1 2057 15 is_stmt 0 view .LVU59
	ldr	r0, [r0, #4]
.LVL23:
	.loc 1 2057 15 view .LVU60
	bl	xTaskPriorityDisinherit
.LVL24:
	.loc 1 2058 5 is_stmt 1 view .LVU61
	.loc 1 2058 21 is_stmt 0 view .LVU62
	movs	r3, #0
	str	r3, [r4, #4]
	b	.L14
.LVL25:
.L13:
	.loc 1 2067 7 is_stmt 1 view .LVU63
	.loc 1 2067 9 is_stmt 0 view .LVU64
	cbnz	r5, .L15
	.loc 1 2069 3 is_stmt 1 view .LVU65
	.loc 1 2069 12 is_stmt 0 view .LVU66
	ldr	r0, [r0, #8]
.LVL26:
	.loc 1 2069 12 view .LVU67
	bl	memcpy
.LVL27:
	.loc 1 2070 3 is_stmt 1 view .LVU68
	.loc 1 2070 32 is_stmt 0 view .LVU69
	ldr	r2, [r4, #64]
	.loc 1 2070 22 view .LVU70
	ldr	r3, [r4, #8]
	add	r3, r3, r2
	str	r3, [r4, #8]
	.loc 1 2071 3 is_stmt 1 view .LVU71
	.loc 1 2071 36 is_stmt 0 view .LVU72
	ldr	r2, [r4, #4]
	.loc 1 2071 5 view .LVU73
	cmp	r3, r2
	bcc	.L18
	.loc 1 2073 4 is_stmt 1 view .LVU74
	.loc 1 2073 32 is_stmt 0 view .LVU75
	ldr	r3, [r4]
	.loc 1 2073 23 view .LVU76
	str	r3, [r4, #8]
	.loc 1 2043 12 view .LVU77
	mov	r0, r5
	b	.L14
.LVL28:
.L15:
	.loc 1 2082 3 is_stmt 1 view .LVU78
	.loc 1 2082 12 is_stmt 0 view .LVU79
	ldr	r0, [r0, #12]
.LVL29:
	.loc 1 2082 12 view .LVU80
	bl	memcpy
.LVL30:
	.loc 1 2083 3 is_stmt 1 view .LVU81
	.loc 1 2083 35 is_stmt 0 view .LVU82
	ldr	r2, [r4, #64]
	.loc 1 2083 25 view .LVU83
	rsbs	r1, r2, #0
	ldr	r3, [r4, #12]
	subs	r3, r3, r2
	str	r3, [r4, #12]
	.loc 1 2084 3 is_stmt 1 view .LVU84
	.loc 1 2084 38 is_stmt 0 view .LVU85
	ldr	r2, [r4]
	.loc 1 2084 5 view .LVU86
	cmp	r3, r2
	bcs	.L16
	.loc 1 2086 4 is_stmt 1 view .LVU87
	.loc 1 2086 37 is_stmt 0 view .LVU88
	ldr	r3, [r4, #4]
	.loc 1 2086 46 view .LVU89
	add	r3, r3, r1
	.loc 1 2086 26 view .LVU90
	str	r3, [r4, #12]
.L16:
	.loc 1 2090 4 is_stmt 1 view .LVU91
	.loc 1 2093 3 view .LVU92
	.loc 1 2093 5 is_stmt 0 view .LVU93
	cmp	r5, #2
	beq	.L23
	.loc 1 2043 12 view .LVU94
	movs	r0, #0
	b	.L14
.L23:
	.loc 1 2095 4 is_stmt 1 view .LVU95
	.loc 1 2095 6 is_stmt 0 view .LVU96
	cbz	r6, .L20
	.loc 1 2101 5 is_stmt 1 view .LVU97
	subs	r6, r6, #1
.LVL31:
	.loc 1 2043 12 is_stmt 0 view .LVU98
	movs	r0, #0
	b	.L14
.L18:
	.loc 1 2043 12 view .LVU99
	mov	r0, r5
	b	.L14
.L20:
	.loc 1 2043 12 view .LVU100
	movs	r0, #0
	b	.L14
.LFE224:
	.size	prvCopyDataToQueue, .-prvCopyDataToQueue
	.section	.text.prvCopyDataFromQueue,"ax",%progbits
	.align	1
	.syntax unified
	.thumb
	.thumb_func
	.fpu fpv4-sp-d16
	.type	prvCopyDataFromQueue, %function
prvCopyDataFromQueue:
.LVL32:
.LFB225:
	.loc 1 2121 1 is_stmt 1 view -0
	@ args = 0, pretend = 0, frame = 0
	@ frame_needed = 0, uses_anonymous_args = 0
	.loc 1 2121 1 is_stmt 0 view .LVU102
	mov	r3, r0
	.loc 1 2122 2 is_stmt 1 view .LVU103
	.loc 1 2122 13 is_stmt 0 view .LVU104
	ldr	r2, [r0, #64]
	.loc 1 2122 4 view .LVU105
	cbz	r2, .L28
	.loc 1 2121 1 view .LVU106
	push	{r4, lr}
.LCFI3:
	mov	r0, r1
.LVL33:
	.loc 1 2124 3 is_stmt 1 view .LVU107
	.loc 1 2124 25 is_stmt 0 view .LVU108
	ldr	r1, [r3, #12]
.LVL34:
	.loc 1 2124 25 view .LVU109
	add	r1, r1, r2
	str	r1, [r3, #12]
	.loc 1 2125 3 is_stmt 1 view .LVU110
	.loc 1 2125 39 is_stmt 0 view .LVU111
	ldr	r4, [r3, #4]
	.loc 1 2125 5 view .LVU112
	cmp	r1, r4
	bcc	.L26
	.loc 1 2127 4 is_stmt 1 view .LVU113
	.loc 1 2127 35 is_stmt 0 view .LVU114
	ldr	r1, [r3]
	.loc 1 2127 26 view .LVU115
	str	r1, [r3, #12]
.L26:
	.loc 1 2131 4 is_stmt 1 view .LVU116
	.loc 1 2133 3 view .LVU117
	.loc 1 2133 12 is_stmt 0 view .LVU118
	ldr	r1, [r3, #12]
	bl	memcpy
.LVL35:
	.loc 1 2135 1 view .LVU119
	pop	{r4, pc}
.LVL36:
.L28:
.LCFI4:
	.loc 1 2135 1 view .LVU120
	bx	lr
.LFE225:
	.size	prvCopyDataFromQueue, .-prvCopyDataFromQueue
	.section	.text.prvUnlockQueue,"ax",%progbits
	.align	1
	.syntax unified
	.thumb
	.thumb_func
	.fpu fpv4-sp-d16
	.type	prvUnlockQueue, %function
prvUnlockQueue:
.LVL37:
.LFB226:
	.loc 1 2139 1 is_stmt 1 view -0
	@ args = 0, pretend = 0, frame = 0
	@ frame_needed = 0, uses_anonymous_args = 0
	.loc 1 2139 1 is_stmt 0 view .LVU122
	push	{r3, r4, r5, lr}
.LCFI5:
	mov	r5, r0
	.loc 1 2146 2 is_stmt 1 view .LVU123
	bl	vPortEnterCritical
.LVL38:
.LBB120:
	.loc 1 2148 3 view .LVU124
	.loc 1 2148 10 is_stmt 0 view .LVU125
	ldrb	r4, [r5, #69]	@ zero_extendqisi2
	sxtb	r4, r4
.LVL39:
	.loc 1 2151 3 is_stmt 1 view .LVU126
	.loc 1 2151 8 is_stmt 0 view .LVU127
	b	.L32
.L41:
	.loc 1 2205 7 is_stmt 1 view .LVU128
	bl	vTaskMissedYield
.LVL40:
.L34:
	.loc 1 2209 7 view .LVU129
	.loc 1 2219 4 view .LVU130
	subs	r4, r4, #1
.LVL41:
	.loc 1 2219 4 is_stmt 0 view .LVU131
	sxtb	r4, r4
.LVL42:
.L32:
	.loc 1 2151 8 is_stmt 1 view .LVU132
	cmp	r4, #0
	ble	.L33
	.loc 1 2199 5 view .LVU133
	.loc 1 2199 68 is_stmt 0 view .LVU134
	ldr	r3, [r5, #36]
	.loc 1 2199 7 view .LVU135
	cbz	r3, .L33
	.loc 1 2201 6 is_stmt 1 view .LVU136
	.loc 1 2201 10 is_stmt 0 view .LVU137
	add	r0, r5, #36
	bl	xTaskRemoveFromEventList
.LVL43:
	.loc 1 2201 8 view .LVU138
	cmp	r0, #0
	beq	.L34
	b	.L41
.L33:
	.loc 1 2222 3 is_stmt 1 view .LVU139
	.loc 1 2222 20 is_stmt 0 view .LVU140
	movs	r3, #255
	strb	r3, [r5, #69]
.LBE120:
	.loc 1 2224 2 is_stmt 1 view .LVU141
	bl	vPortExitCritical
.LVL44:
	.loc 1 2227 2 view .LVU142
	bl	vPortEnterCritical
.LVL45:
.LBB121:
	.loc 1 2229 3 view .LVU143
	.loc 1 2229 10 is_stmt 0 view .LVU144
	ldrb	r4, [r5, #68]	@ zero_extendqisi2
.LVL46:
	.loc 1 2229 10 view .LVU145
	sxtb	r4, r4
.LVL47:
	.loc 1 2231 3 is_stmt 1 view .LVU146
	.loc 1 2231 8 is_stmt 0 view .LVU147
	b	.L36
.L42:
	.loc 1 2237 6 is_stmt 1 view .LVU148
	bl	vTaskMissedYield
.LVL48:
.L38:
	.loc 1 2241 6 view .LVU149
	.loc 1 2244 5 view .LVU150
	subs	r4, r4, #1
.LVL49:
	.loc 1 2244 5 is_stmt 0 view .LVU151
	sxtb	r4, r4
.LVL50:
.L36:
	.loc 1 2231 8 is_stmt 1 view .LVU152
	cmp	r4, #0
	ble	.L37
	.loc 1 2233 4 view .LVU153
	.loc 1 2233 64 is_stmt 0 view .LVU154
	ldr	r3, [r5, #16]
	.loc 1 2233 6 view .LVU155
	cbz	r3, .L37
	.loc 1 2235 5 is_stmt 1 view .LVU156
	.loc 1 2235 9 is_stmt 0 view .LVU157
	add	r0, r5, #16
	bl	xTaskRemoveFromEventList
.LVL51:
	.loc 1 2235 7 view .LVU158
	cmp	r0, #0
	beq	.L38
	b	.L42
.L37:
	.loc 1 2252 3 is_stmt 1 view .LVU159
	.loc 1 2252 20 is_stmt 0 view .LVU160
	movs	r3, #255
	strb	r3, [r5, #68]
.LBE121:
	.loc 1 2254 2 is_stmt 1 view .LVU161
	bl	vPortExitCritical
.LVL52:
	.loc 1 2255 1 is_stmt 0 view .LVU162
	pop	{r3, r4, r5, pc}
	.loc 1 2255 1 view .LVU163
.LFE226:
	.size	prvUnlockQueue, .-prvUnlockQueue
	.section	.rodata.xQueueGenericReset.str1.4,"aMS",%progbits,1
	.align	2
.LC0:
	.ascii	"C:\\nRF5_SDK_15.0.0_a53641a\\external\\freertos\\so"
	.ascii	"urce\\queue.c\000"
	.section	.text.xQueueGenericReset,"ax",%progbits
	.align	1
	.global	xQueueGenericReset
	.syntax unified
	.thumb
	.thumb_func
	.fpu fpv4-sp-d16
	.type	xQueueGenericReset, %function
xQueueGenericReset:
.LVL53:
.LFB200:
	.loc 1 249 1 is_stmt 1 view -0
	@ args = 0, pretend = 0, frame = 0
	@ frame_needed = 0, uses_anonymous_args = 0
	.loc 1 249 1 is_stmt 0 view .LVU165
	push	{r3, r4, r5, lr}
.LCFI6:
	mov	r5, r1
	.loc 1 250 1 is_stmt 1 view .LVU166
.LVL54:
	.loc 1 252 2 view .LVU167
	.loc 1 252 11 view .LVU168
	.loc 1 252 14 is_stmt 0 view .LVU169
	mov	r4, r0
	cbz	r0, .L48
.LVL55:
.L44:
	.loc 1 252 153 is_stmt 1 discriminator 5 view .LVU170
	.loc 1 254 2 discriminator 5 view .LVU171
	bl	vPortEnterCritical
.LVL56:
	.loc 1 256 3 discriminator 5 view .LVU172
	.loc 1 256 28 is_stmt 0 discriminator 5 view .LVU173
	ldr	r1, [r4]
	.loc 1 256 48 discriminator 5 view .LVU174
	ldr	r2, [r4, #60]
	.loc 1 256 68 discriminator 5 view .LVU175
	ldr	r3, [r4, #64]
	.loc 1 256 37 discriminator 5 view .LVU176
	mla	r0, r3, r2, r1
	.loc 1 256 19 discriminator 5 view .LVU177
	str	r0, [r4, #4]
	.loc 1 257 3 is_stmt 1 discriminator 5 view .LVU178
	.loc 1 257 30 is_stmt 0 discriminator 5 view .LVU179
	movs	r0, #0
	str	r0, [r4, #56]
	.loc 1 258 3 is_stmt 1 discriminator 5 view .LVU180
	.loc 1 258 22 is_stmt 0 discriminator 5 view .LVU181
	str	r1, [r4, #8]
	.loc 1 259 3 is_stmt 1 discriminator 5 view .LVU182
	.loc 1 259 67 is_stmt 0 discriminator 5 view .LVU183
	subs	r2, r2, #1
	.loc 1 259 43 discriminator 5 view .LVU184
	mla	r3, r2, r3, r1
	.loc 1 259 25 discriminator 5 view .LVU185
	str	r3, [r4, #12]
	.loc 1 260 3 is_stmt 1 discriminator 5 view .LVU186
	.loc 1 260 20 is_stmt 0 discriminator 5 view .LVU187
	movs	r3, #255
	strb	r3, [r4, #68]
	.loc 1 261 3 is_stmt 1 discriminator 5 view .LVU188
	.loc 1 261 20 is_stmt 0 discriminator 5 view .LVU189
	strb	r3, [r4, #69]
	.loc 1 263 3 is_stmt 1 discriminator 5 view .LVU190
	.loc 1 263 5 is_stmt 0 discriminator 5 view .LVU191
	cbnz	r5, .L45
	.loc 1 270 4 is_stmt 1 view .LVU192
	.loc 1 270 64 is_stmt 0 view .LVU193
	ldr	r3, [r4, #16]
	.loc 1 270 6 view .LVU194
	cbnz	r3, .L49
.L46:
	.loc 1 293 2 is_stmt 1 view .LVU195
	bl	vPortExitCritical
.LVL57:
	.loc 1 297 2 view .LVU196
	.loc 1 298 1 is_stmt 0 view .LVU197
	movs	r0, #1
	pop	{r3, r4, r5, pc}
.LVL58:
.L48:
	.loc 1 252 35 is_stmt 1 discriminator 4 view .LVU198
	ldr	r1, .L50
.LVL59:
	.loc 1 252 35 is_stmt 0 discriminator 4 view .LVU199
	movs	r0, #252
.LVL60:
	.loc 1 252 35 discriminator 4 view .LVU200
	bl	assert_nrf_callback
.LVL61:
	b	.L44
.L49:
	.loc 1 272 5 is_stmt 1 view .LVU201
	.loc 1 272 9 is_stmt 0 view .LVU202
	add	r0, r4, #16
	bl	xTaskRemoveFromEventList
.LVL62:
	.loc 1 272 7 view .LVU203
	cmp	r0, #0
	beq	.L46
	.loc 1 274 6 is_stmt 1 view .LVU204
	.loc 1 274 11 view .LVU205
	.loc 1 274 61 is_stmt 0 view .LVU206
	ldr	r3, .L50+4
	mov	r2, #268435456
	str	r2, [r3, #4]
	.loc 1 274 77 is_stmt 1 view .LVU207
.LBB122:
.LBI122:
	.file 2 "../../../../../../components/toolchain/cmsis/include/cmsis_gcc.h"
	.loc 2 404 51 view .LVU208
.LBB123:
	.loc 2 406 3 view .LVU209
	.syntax unified
@ 406 "../../../../../../components/toolchain/cmsis/include/cmsis_gcc.h" 1
	sev
@ 0 "" 2
	.thumb
	.syntax unified
.LBE123:
.LBE122:
	.loc 1 274 86 view .LVU210
.LBB124:
.LBI124:
	.loc 2 427 51 view .LVU211
.LBB125:
	.loc 2 429 3 view .LVU212
	.syntax unified
@ 429 "../../../../../../components/toolchain/cmsis/include/cmsis_gcc.h" 1
	dsb 0xF
@ 0 "" 2
	.thumb
	.syntax unified
.LBE125:
.LBE124:
	.loc 1 274 95 view .LVU213
.LBB126:
.LBI126:
	.loc 2 416 51 view .LVU214
.LBB127:
	.loc 2 418 3 view .LVU215
	.syntax unified
@ 418 "../../../../../../components/toolchain/cmsis/include/cmsis_gcc.h" 1
	isb 0xF
@ 0 "" 2
	.loc 2 419 1 is_stmt 0 view .LVU216
	.thumb
	.syntax unified
	b	.L46
.L45:
	.loc 2 419 1 view .LVU217
.LBE127:
.LBE126:
	.loc 1 289 4 is_stmt 1 view .LVU218
	add	r0, r4, #16
	bl	vListInitialise
.LVL63:
	.loc 1 290 4 view .LVU219
	add	r0, r4, #36
	bl	vListInitialise
.LVL64:
	b	.L46
.L51:
	.align	2
.L50:
	.word	.LC0
	.word	-536810240
.LFE200:
	.size	xQueueGenericReset, .-xQueueGenericReset
	.section	.text.prvInitialiseNewQueue,"ax",%progbits
	.align	1
	.syntax unified
	.thumb
	.thumb_func
	.fpu fpv4-sp-d16
	.type	prvInitialiseNewQueue, %function
prvInitialiseNewQueue:
.LVL65:
.LFB202:
	.loc 1 410 1 view -0
	@ args = 4, pretend = 0, frame = 0
	@ frame_needed = 0, uses_anonymous_args = 0
	.loc 1 410 1 is_stmt 0 view .LVU221
	push	{r3, r4, r5, r6, r7, lr}
.LCFI7:
	mov	r5, r0
	mov	r6, r3
	ldr	r4, [sp, #24]
	.loc 1 413 2 is_stmt 1 view .LVU222
	.loc 1 415 2 view .LVU223
	.loc 1 415 4 is_stmt 0 view .LVU224
	mov	r7, r1
	cbnz	r1, .L53
	.loc 1 421 3 is_stmt 1 view .LVU225
	.loc 1 421 22 is_stmt 0 view .LVU226
	str	r4, [r4]
.L54:
	.loc 1 431 2 is_stmt 1 view .LVU227
	.loc 1 431 23 is_stmt 0 view .LVU228
	str	r5, [r4, #60]
	.loc 1 432 2 is_stmt 1 view .LVU229
	.loc 1 432 25 is_stmt 0 view .LVU230
	str	r7, [r4, #64]
	.loc 1 433 2 is_stmt 1 view .LVU231
	.loc 1 433 11 is_stmt 0 view .LVU232
	movs	r1, #1
.LVL66:
	.loc 1 433 11 view .LVU233
	mov	r0, r4
.LVL67:
	.loc 1 433 11 view .LVU234
	bl	xQueueGenericReset
.LVL68:
	.loc 1 437 3 is_stmt 1 view .LVU235
	.loc 1 437 27 is_stmt 0 view .LVU236
	strb	r6, [r4, #76]
	.loc 1 447 2 is_stmt 1 view .LVU237
	mov	r3, r6
	mov	r2, r7
	mov	r1, r5
	movs	r0, #115
	bl	SEGGER_SYSVIEW_RecordU32x3
.LVL69:
	.loc 1 448 1 is_stmt 0 view .LVU238
	pop	{r3, r4, r5, r6, r7, pc}
.LVL70:
.L53:
	.loc 1 426 3 is_stmt 1 view .LVU239
	.loc 1 426 22 is_stmt 0 view .LVU240
	str	r2, [r4]
	b	.L54
.LFE202:
	.size	prvInitialiseNewQueue, .-prvInitialiseNewQueue
	.section	.text.xQueueGenericCreate,"ax",%progbits
	.align	1
	.global	xQueueGenericCreate
	.syntax unified
	.thumb
	.thumb_func
	.fpu fpv4-sp-d16
	.type	xQueueGenericCreate, %function
xQueueGenericCreate:
.LVL71:
.LFB201:
	.loc 1 360 2 is_stmt 1 view -0
	@ args = 0, pretend = 0, frame = 0
	@ frame_needed = 0, uses_anonymous_args = 0
	.loc 1 360 2 is_stmt 0 view .LVU242
	push	{r4, r5, r6, r7, lr}
.LCFI8:
	sub	sp, sp, #12
.LCFI9:
	mov	r4, r1
	mov	r5, r2
	.loc 1 361 2 is_stmt 1 view .LVU243
	.loc 1 362 2 view .LVU244
	.loc 1 363 2 view .LVU245
	.loc 1 365 3 view .LVU246
	.loc 1 365 12 view .LVU247
	.loc 1 365 15 is_stmt 0 view .LVU248
	mov	r7, r0
	cbz	r0, .L62
.LVL72:
.L57:
	.loc 1 365 180 is_stmt 1 discriminator 5 view .LVU249
	.loc 1 367 3 discriminator 5 view .LVU250
	.loc 1 367 5 is_stmt 0 discriminator 5 view .LVU251
	cbz	r4, .L60
	.loc 1 376 4 is_stmt 1 view .LVU252
	.loc 1 376 22 is_stmt 0 view .LVU253
	mul	r0, r4, r7
.LVL73:
.L58:
	.loc 1 379 3 is_stmt 1 view .LVU254
	.loc 1 379 30 is_stmt 0 view .LVU255
	adds	r0, r0, #80
.LVL74:
	.loc 1 379 30 view .LVU256
	bl	pvPortMalloc
.LVL75:
	.loc 1 381 3 is_stmt 1 view .LVU257
	.loc 1 381 5 is_stmt 0 view .LVU258
	mov	r6, r0
	cbz	r0, .L56
	.loc 1 385 4 is_stmt 1 view .LVU259
.LVL76:
	.loc 1 396 4 view .LVU260
	str	r0, [sp]
	mov	r3, r5
	add	r2, r0, #80
.LVL77:
	.loc 1 396 4 is_stmt 0 view .LVU261
	mov	r1, r4
	mov	r0, r7
.LVL78:
	.loc 1 396 4 view .LVU262
	bl	prvInitialiseNewQueue
.LVL79:
	.loc 1 400 4 is_stmt 1 view .LVU263
	.loc 1 403 3 view .LVU264
.L56:
	.loc 1 404 2 is_stmt 0 view .LVU265
	mov	r0, r6
	add	sp, sp, #12
.LCFI10:
	@ sp needed
	pop	{r4, r5, r6, r7, pc}
.LVL80:
.L62:
.LCFI11:
	.loc 1 365 62 is_stmt 1 discriminator 4 view .LVU266
	ldr	r1, .L63
.LVL81:
	.loc 1 365 62 is_stmt 0 discriminator 4 view .LVU267
	movw	r0, #365
.LVL82:
	.loc 1 365 62 discriminator 4 view .LVU268
	bl	assert_nrf_callback
.LVL83:
	.loc 1 365 62 discriminator 4 view .LVU269
	b	.L57
.L60:
	.loc 1 370 22 view .LVU270
	mov	r0, r4
	b	.L58
.L64:
	.align	2
.L63:
	.word	.LC0
.LFE201:
	.size	xQueueGenericCreate, .-xQueueGenericCreate
	.section	.text.xQueueCreateCountingSemaphore,"ax",%progbits
	.align	1
	.global	xQueueCreateCountingSemaphore
	.syntax unified
	.thumb
	.thumb_func
	.fpu fpv4-sp-d16
	.type	xQueueCreateCountingSemaphore, %function
xQueueCreateCountingSemaphore:
.LVL84:
.LFB207:
	.loc 1 701 2 is_stmt 1 view -0
	@ args = 0, pretend = 0, frame = 0
	@ frame_needed = 0, uses_anonymous_args = 0
	.loc 1 701 2 is_stmt 0 view .LVU272
	push	{r3, r4, r5, lr}
.LCFI12:
	mov	r4, r1
	.loc 1 702 2 is_stmt 1 view .LVU273
	.loc 1 704 3 view .LVU274
	.loc 1 704 12 view .LVU275
	.loc 1 704 15 is_stmt 0 view .LVU276
	mov	r5, r0
	cbz	r0, .L70
.LVL85:
.L66:
	.loc 1 704 162 is_stmt 1 discriminator 1 view .LVU277
	.loc 1 705 3 discriminator 1 view .LVU278
	.loc 1 705 12 discriminator 1 view .LVU279
	.loc 1 705 15 is_stmt 0 discriminator 1 view .LVU280
	cmp	r5, r4
	bcc	.L71
.L67:
	.loc 1 705 175 is_stmt 1 discriminator 5 view .LVU281
	.loc 1 707 3 discriminator 5 view .LVU282
	.loc 1 707 13 is_stmt 0 discriminator 5 view .LVU283
	movs	r2, #2
	movs	r1, #0
	mov	r0, r5
	bl	xQueueGenericCreate
.LVL86:
	.loc 1 709 3 is_stmt 1 discriminator 5 view .LVU284
	.loc 1 709 5 is_stmt 0 discriminator 5 view .LVU285
	cbz	r0, .L65
	.loc 1 711 4 is_stmt 1 view .LVU286
	.loc 1 711 49 is_stmt 0 view .LVU287
	str	r4, [r0, #56]
	.loc 1 713 4 is_stmt 1 view .LVU288
	.loc 1 717 4 view .LVU289
	.loc 1 720 3 view .LVU290
.L65:
	.loc 1 721 2 is_stmt 0 view .LVU291
	pop	{r3, r4, r5, pc}
.LVL87:
.L70:
	.loc 1 704 44 is_stmt 1 discriminator 4 view .LVU292
	ldr	r1, .L72
.LVL88:
	.loc 1 704 44 is_stmt 0 discriminator 4 view .LVU293
	mov	r0, #704
.LVL89:
	.loc 1 704 44 discriminator 4 view .LVU294
	bl	assert_nrf_callback
.LVL90:
	b	.L66
.L71:
	.loc 1 705 57 is_stmt 1 discriminator 4 view .LVU295
	ldr	r1, .L72
	movw	r0, #705
	bl	assert_nrf_callback
.LVL91:
	b	.L67
.L73:
	.align	2
.L72:
	.word	.LC0
.LFE207:
	.size	xQueueCreateCountingSemaphore, .-xQueueCreateCountingSemaphore
	.section	.text.xQueueGenericSend,"ax",%progbits
	.align	1
	.global	xQueueGenericSend
	.syntax unified
	.thumb
	.thumb_func
	.fpu fpv4-sp-d16
	.type	xQueueGenericSend, %function
xQueueGenericSend:
.LVL92:
.LFB208:
	.loc 1 727 1 view -0
	@ args = 0, pretend = 0, frame = 16
	@ frame_needed = 0, uses_anonymous_args = 0
	.loc 1 727 1 is_stmt 0 view .LVU297
	push	{r4, r5, r6, r7, lr}
.LCFI13:
	sub	sp, sp, #28
.LCFI14:
	mov	r7, r1
	str	r2, [sp, #12]
	mov	r5, r3
	.loc 1 728 1 is_stmt 1 view .LVU298
.LVL93:
	.loc 1 729 1 view .LVU299
	.loc 1 730 1 view .LVU300
	.loc 1 732 2 view .LVU301
	.loc 1 732 11 view .LVU302
	.loc 1 732 14 is_stmt 0 view .LVU303
	mov	r4, r0
	cbz	r0, .L93
.LVL94:
.L75:
	.loc 1 732 153 is_stmt 1 discriminator 1 view .LVU304
	.loc 1 733 2 discriminator 1 view .LVU305
	.loc 1 733 11 discriminator 1 view .LVU306
	.loc 1 733 14 is_stmt 0 discriminator 1 view .LVU307
	cbz	r7, .L94
.L76:
	.loc 1 733 184 is_stmt 1 discriminator 1 view .LVU308
	.loc 1 734 2 discriminator 1 view .LVU309
	.loc 1 734 11 discriminator 1 view .LVU310
	.loc 1 734 14 is_stmt 0 discriminator 1 view .LVU311
	cmp	r5, #2
	beq	.L95
.L77:
	.loc 1 734 222 is_stmt 1 discriminator 1 view .LVU312
	.loc 1 737 3 discriminator 1 view .LVU313
	.loc 1 737 12 discriminator 1 view .LVU314
	.loc 1 737 21 is_stmt 0 discriminator 1 view .LVU315
	bl	xTaskGetSchedulerState
.LVL95:
	.loc 1 737 15 discriminator 1 view .LVU316
	cbnz	r0, .L78
	.loc 1 737 90 discriminator 4 view .LVU317
	ldr	r3, [sp, #12]
	.loc 1 737 16 discriminator 4 view .LVU318
	cbnz	r3, .L96
.L78:
	.loc 1 727 1 discriminator 7 view .LVU319
	movs	r6, #0
	b	.L79
.LVL96:
.L93:
	.loc 1 732 35 is_stmt 1 discriminator 4 view .LVU320
	ldr	r1, .L102
.LVL97:
	.loc 1 732 35 is_stmt 0 discriminator 4 view .LVU321
	mov	r0, #732
.LVL98:
	.loc 1 732 35 discriminator 4 view .LVU322
	bl	assert_nrf_callback
.LVL99:
	.loc 1 732 35 discriminator 4 view .LVU323
	b	.L75
.L94:
	.loc 1 733 15 discriminator 4 view .LVU324
	ldr	r3, [r4, #64]
	.loc 1 733 15 discriminator 4 view .LVU325
	cmp	r3, #0
	beq	.L76
	.loc 1 733 66 is_stmt 1 discriminator 6 view .LVU326
	ldr	r1, .L102
	movw	r0, #733
	bl	assert_nrf_callback
.LVL100:
	b	.L76
.L95:
	.loc 1 734 72 is_stmt 0 discriminator 4 view .LVU327
	ldr	r3, [r4, #60]
	.loc 1 734 15 discriminator 4 view .LVU328
	cmp	r3, #1
	beq	.L77
	.loc 1 734 104 is_stmt 1 discriminator 6 view .LVU329
	ldr	r1, .L102
	movw	r0, #734
	bl	assert_nrf_callback
.LVL101:
	b	.L77
.L96:
	.loc 1 737 111 discriminator 6 view .LVU330
	ldr	r1, .L102
	movw	r0, #737
	bl	assert_nrf_callback
.LVL102:
	b	.L78
.LVL103:
.L80:
	.loc 1 755 5 view .LVU331
	mov	r0, r4
	bl	SEGGER_SYSVIEW_ShrinkId
.LVL104:
	mov	r1, r0
	str	r5, [sp]
	ldr	r3, [sp, #12]
	mov	r2, r7
	movs	r0, #90
	bl	SEGGER_SYSVIEW_RecordU32x4
.LVL105:
	.loc 1 756 5 view .LVU332
	.loc 1 756 22 is_stmt 0 view .LVU333
	mov	r2, r5
	mov	r1, r7
	mov	r0, r4
	bl	prvCopyDataToQueue
.LVL106:
	.loc 1 811 6 is_stmt 1 view .LVU334
	.loc 1 811 69 is_stmt 0 view .LVU335
	ldr	r3, [r4, #36]
	.loc 1 811 8 view .LVU336
	cbnz	r3, .L97
	.loc 1 826 11 is_stmt 1 view .LVU337
	.loc 1 826 13 is_stmt 0 view .LVU338
	cbz	r0, .L83
	.loc 1 832 7 is_stmt 1 view .LVU339
	.loc 1 832 12 view .LVU340
	.loc 1 832 62 is_stmt 0 view .LVU341
	ldr	r3, .L102+4
	mov	r2, #268435456
	str	r2, [r3, #4]
	.loc 1 832 78 is_stmt 1 view .LVU342
.LBB128:
.LBI128:
	.loc 2 404 51 view .LVU343
.LBB129:
	.loc 2 406 3 view .LVU344
	.syntax unified
@ 406 "../../../../../../components/toolchain/cmsis/include/cmsis_gcc.h" 1
	sev
@ 0 "" 2
	.thumb
	.syntax unified
.LBE129:
.LBE128:
	.loc 1 832 87 view .LVU345
.LBB130:
.LBI130:
	.loc 2 427 51 view .LVU346
.LBB131:
	.loc 2 429 3 view .LVU347
	.syntax unified
@ 429 "../../../../../../components/toolchain/cmsis/include/cmsis_gcc.h" 1
	dsb 0xF
@ 0 "" 2
	.thumb
	.syntax unified
.LBE131:
.LBE130:
	.loc 1 832 96 view .LVU348
.LBB132:
.LBI132:
	.loc 2 416 51 view .LVU349
.LBB133:
	.loc 2 418 3 view .LVU350
	.syntax unified
@ 418 "../../../../../../components/toolchain/cmsis/include/cmsis_gcc.h" 1
	isb 0xF
@ 0 "" 2
.LVL107:
	.thumb
	.syntax unified
.L83:
	.loc 2 418 3 is_stmt 0 view .LVU351
.LBE133:
.LBE132:
	.loc 1 836 7 is_stmt 1 view .LVU352
	.loc 1 841 5 view .LVU353
	bl	vPortExitCritical
.LVL108:
	.loc 1 842 5 view .LVU354
	.loc 1 842 12 is_stmt 0 view .LVU355
	movs	r0, #1
.L74:
	.loc 1 921 1 view .LVU356
	add	sp, sp, #28
.LCFI15:
	@ sp needed
	pop	{r4, r5, r6, r7, pc}
.LVL109:
.L97:
.LCFI16:
	.loc 1 813 7 is_stmt 1 view .LVU357
	.loc 1 813 11 is_stmt 0 view .LVU358
	add	r0, r4, #36
.LVL110:
	.loc 1 813 11 view .LVU359
	bl	xTaskRemoveFromEventList
.LVL111:
	.loc 1 813 9 view .LVU360
	cmp	r0, #0
	beq	.L83
	.loc 1 819 8 is_stmt 1 view .LVU361
	.loc 1 819 13 view .LVU362
	.loc 1 819 63 is_stmt 0 view .LVU363
	ldr	r3, .L102+4
	mov	r2, #268435456
	str	r2, [r3, #4]
	.loc 1 819 79 is_stmt 1 view .LVU364
.LBB134:
.LBI134:
	.loc 2 404 51 view .LVU365
.LBB135:
	.loc 2 406 3 view .LVU366
	.syntax unified
@ 406 "../../../../../../components/toolchain/cmsis/include/cmsis_gcc.h" 1
	sev
@ 0 "" 2
	.thumb
	.syntax unified
.LBE135:
.LBE134:
	.loc 1 819 88 view .LVU367
.LBB136:
.LBI136:
	.loc 2 427 51 view .LVU368
.LBB137:
	.loc 2 429 3 view .LVU369
	.syntax unified
@ 429 "../../../../../../components/toolchain/cmsis/include/cmsis_gcc.h" 1
	dsb 0xF
@ 0 "" 2
	.thumb
	.syntax unified
.LBE137:
.LBE136:
	.loc 1 819 97 view .LVU370
.LBB138:
.LBI138:
	.loc 2 416 51 view .LVU371
.LBB139:
	.loc 2 418 3 view .LVU372
	.syntax unified
@ 418 "../../../../../../components/toolchain/cmsis/include/cmsis_gcc.h" 1
	isb 0xF
@ 0 "" 2
	.loc 2 419 1 is_stmt 0 view .LVU373
	.thumb
	.syntax unified
	b	.L83
.L98:
	.loc 2 419 1 view .LVU374
.LBE139:
.LBE138:
	.loc 1 850 6 is_stmt 1 view .LVU375
	bl	vPortExitCritical
.LVL112:
	.loc 1 854 6 view .LVU376
	mov	r0, r4
	bl	SEGGER_SYSVIEW_ShrinkId
.LVL113:
	mov	r1, r0
	str	r5, [sp]
	ldr	r3, [sp, #12]
	mov	r2, r7
	movs	r0, #90
	bl	SEGGER_SYSVIEW_RecordU32x4
.LVL114:
	.loc 1 855 6 view .LVU377
	.loc 1 855 13 is_stmt 0 view .LVU378
	movs	r0, #0
	b	.L74
.L99:
	.loc 1 861 6 is_stmt 1 view .LVU379
	add	r0, sp, #16
	bl	vTaskInternalSetTimeOutState
.LVL115:
	.loc 1 862 6 view .LVU380
	.loc 1 862 20 is_stmt 0 view .LVU381
	movs	r6, #1
	b	.L86
.LVL116:
.L100:
	.loc 1 877 77 is_stmt 1 discriminator 1 view .LVU382
	.loc 1 877 98 is_stmt 0 discriminator 1 view .LVU383
	movs	r3, #0
	strb	r3, [r4, #68]
	b	.L87
.L101:
	.loc 1 877 170 is_stmt 1 discriminator 4 view .LVU384
	.loc 1 877 191 is_stmt 0 discriminator 4 view .LVU385
	movs	r3, #0
	strb	r3, [r4, #69]
	b	.L88
.L90:
	.loc 1 907 5 is_stmt 1 view .LVU386
	mov	r0, r4
	bl	prvUnlockQueue
.LVL117:
	.loc 1 908 5 view .LVU387
	.loc 1 908 14 is_stmt 0 view .LVU388
	bl	xTaskResumeAll
.LVL118:
.L79:
	.loc 1 737 229 is_stmt 1 discriminator 7 view .LVU389
	.loc 1 745 2 discriminator 7 view .LVU390
	.loc 1 747 3 discriminator 7 view .LVU391
	bl	vPortEnterCritical
.LVL119:
	.loc 1 753 4 discriminator 7 view .LVU392
	.loc 1 753 17 is_stmt 0 discriminator 7 view .LVU393
	ldr	r2, [r4, #56]
	.loc 1 753 46 discriminator 7 view .LVU394
	ldr	r3, [r4, #60]
	.loc 1 753 6 discriminator 7 view .LVU395
	cmp	r2, r3
	bcc	.L80
	.loc 1 753 59 discriminator 1 view .LVU396
	cmp	r5, #2
	beq	.L80
	.loc 1 846 5 is_stmt 1 view .LVU397
	.loc 1 846 22 is_stmt 0 view .LVU398
	ldr	r3, [sp, #12]
	.loc 1 846 7 view .LVU399
	cmp	r3, #0
	beq	.L98
	.loc 1 857 10 is_stmt 1 view .LVU400
	.loc 1 857 12 is_stmt 0 view .LVU401
	cmp	r6, #0
	beq	.L99
.LVL120:
.L86:
	.loc 1 867 6 is_stmt 1 view .LVU402
	.loc 1 871 3 view .LVU403
	bl	vPortExitCritical
.LVL121:
	.loc 1 876 3 view .LVU404
	bl	vTaskSuspendAll
.LVL122:
	.loc 1 877 3 view .LVU405
	bl	vPortEnterCritical
.LVL123:
	.loc 1 877 27 view .LVU406
	.loc 1 877 42 is_stmt 0 view .LVU407
	ldrb	r2, [r4, #68]	@ zero_extendqisi2
	sxtb	r2, r2
	.loc 1 877 29 view .LVU408
	cmp	r2, #-1
	beq	.L100
.L87:
	.loc 1 877 120 is_stmt 1 discriminator 3 view .LVU409
	.loc 1 877 135 is_stmt 0 discriminator 3 view .LVU410
	ldrb	r2, [r4, #69]	@ zero_extendqisi2
	sxtb	r2, r2
	.loc 1 877 122 discriminator 3 view .LVU411
	cmp	r2, #-1
	beq	.L101
.L88:
	.loc 1 877 215 is_stmt 1 discriminator 6 view .LVU412
	bl	vPortExitCritical
.LVL124:
	.loc 1 880 3 discriminator 6 view .LVU413
	.loc 1 880 7 is_stmt 0 discriminator 6 view .LVU414
	add	r1, sp, #12
	add	r0, sp, #16
	bl	xTaskCheckForTimeOut
.LVL125:
	.loc 1 880 5 discriminator 6 view .LVU415
	cbnz	r0, .L89
	.loc 1 882 4 is_stmt 1 view .LVU416
	.loc 1 882 8 is_stmt 0 view .LVU417
	mov	r0, r4
	bl	prvIsQueueFull
.LVL126:
	.loc 1 882 6 view .LVU418
	cmp	r0, #0
	beq	.L90
	.loc 1 884 5 is_stmt 1 view .LVU419
	.loc 1 885 5 view .LVU420
	ldr	r1, [sp, #12]
	add	r0, r4, #16
	bl	vTaskPlaceOnEventList
.LVL127:
	.loc 1 892 5 view .LVU421
	mov	r0, r4
	bl	prvUnlockQueue
.LVL128:
	.loc 1 899 5 view .LVU422
	.loc 1 899 9 is_stmt 0 view .LVU423
	bl	xTaskResumeAll
.LVL129:
	.loc 1 899 7 view .LVU424
	cmp	r0, #0
	bne	.L79
	.loc 1 901 6 is_stmt 1 view .LVU425
	.loc 1 901 11 view .LVU426
	.loc 1 901 61 is_stmt 0 view .LVU427
	ldr	r3, .L102+4
	mov	r2, #268435456
	str	r2, [r3, #4]
	.loc 1 901 77 is_stmt 1 view .LVU428
.LBB140:
.LBI140:
	.loc 2 404 51 view .LVU429
.LBB141:
	.loc 2 406 3 view .LVU430
	.syntax unified
@ 406 "../../../../../../components/toolchain/cmsis/include/cmsis_gcc.h" 1
	sev
@ 0 "" 2
	.thumb
	.syntax unified
.LBE141:
.LBE140:
	.loc 1 901 86 view .LVU431
.LBB142:
.LBI142:
	.loc 2 427 51 view .LVU432
.LBB143:
	.loc 2 429 3 view .LVU433
	.syntax unified
@ 429 "../../../../../../components/toolchain/cmsis/include/cmsis_gcc.h" 1
	dsb 0xF
@ 0 "" 2
	.thumb
	.syntax unified
.LBE143:
.LBE142:
	.loc 1 901 95 view .LVU434
.LBB144:
.LBI144:
	.loc 2 416 51 view .LVU435
.LBB145:
	.loc 2 418 3 view .LVU436
	.syntax unified
@ 418 "../../../../../../components/toolchain/cmsis/include/cmsis_gcc.h" 1
	isb 0xF
@ 0 "" 2
	.loc 2 419 1 is_stmt 0 view .LVU437
	.thumb
	.syntax unified
	b	.L79
.L89:
	.loc 2 419 1 view .LVU438
.LBE145:
.LBE144:
	.loc 1 914 4 is_stmt 1 view .LVU439
	mov	r0, r4
	bl	prvUnlockQueue
.LVL130:
	.loc 1 915 4 view .LVU440
	.loc 1 915 13 is_stmt 0 view .LVU441
	bl	xTaskResumeAll
.LVL131:
	.loc 1 917 4 is_stmt 1 view .LVU442
	mov	r0, r4
	bl	SEGGER_SYSVIEW_ShrinkId
.LVL132:
	mov	r1, r0
	str	r5, [sp]
	ldr	r3, [sp, #12]
	mov	r2, r7
	movs	r0, #90
	bl	SEGGER_SYSVIEW_RecordU32x4
.LVL133:
	.loc 1 918 4 view .LVU443
	.loc 1 918 11 is_stmt 0 view .LVU444
	movs	r0, #0
	b	.L74
.L103:
	.align	2
.L102:
	.word	.LC0
	.word	-536810240
.LFE208:
	.size	xQueueGenericSend, .-xQueueGenericSend
	.section	.text.prvInitialiseMutex,"ax",%progbits
	.align	1
	.syntax unified
	.thumb
	.thumb_func
	.fpu fpv4-sp-d16
	.type	prvInitialiseMutex, %function
prvInitialiseMutex:
.LVL134:
.LFB203:
	.loc 1 454 2 is_stmt 1 view -0
	@ args = 0, pretend = 0, frame = 0
	@ frame_needed = 0, uses_anonymous_args = 0
	.loc 1 455 3 view .LVU446
	.loc 1 455 5 is_stmt 0 view .LVU447
	cbz	r0, .L107
	.loc 1 454 2 view .LVU448
	push	{r4, lr}
.LCFI17:
	.loc 1 461 4 is_stmt 1 view .LVU449
	.loc 1 461 23 is_stmt 0 view .LVU450
	movs	r1, #0
	str	r1, [r0, #4]
	.loc 1 462 4 is_stmt 1 view .LVU451
	.loc 1 462 23 is_stmt 0 view .LVU452
	str	r1, [r0]
	.loc 1 465 4 is_stmt 1 view .LVU453
	.loc 1 465 39 is_stmt 0 view .LVU454
	str	r1, [r0, #12]
	.loc 1 467 4 is_stmt 1 view .LVU455
	.loc 1 470 4 view .LVU456
	.loc 1 470 13 is_stmt 0 view .LVU457
	mov	r3, r1
	mov	r2, r1
	bl	xQueueGenericSend
.LVL135:
	.loc 1 474 4 is_stmt 1 view .LVU458
	.loc 1 476 2 is_stmt 0 view .LVU459
	pop	{r4, pc}
.LVL136:
.L107:
.LCFI18:
	.loc 1 476 2 view .LVU460
	bx	lr
.LFE203:
	.size	prvInitialiseMutex, .-prvInitialiseMutex
	.section	.text.xQueueCreateMutex,"ax",%progbits
	.align	1
	.global	xQueueCreateMutex
	.syntax unified
	.thumb
	.thumb_func
	.fpu fpv4-sp-d16
	.type	xQueueCreateMutex, %function
xQueueCreateMutex:
.LVL137:
.LFB204:
	.loc 1 484 2 is_stmt 1 view -0
	@ args = 0, pretend = 0, frame = 0
	@ frame_needed = 0, uses_anonymous_args = 0
	.loc 1 484 2 is_stmt 0 view .LVU462
	push	{r4, lr}
.LCFI19:
	mov	r2, r0
	.loc 1 485 2 is_stmt 1 view .LVU463
	.loc 1 486 2 view .LVU464
.LVL138:
	.loc 1 488 3 view .LVU465
	.loc 1 488 30 is_stmt 0 view .LVU466
	movs	r1, #0
	movs	r0, #1
.LVL139:
	.loc 1 488 30 view .LVU467
	bl	xQueueGenericCreate
.LVL140:
	mov	r4, r0
.LVL141:
	.loc 1 489 3 is_stmt 1 view .LVU468
	bl	prvInitialiseMutex
.LVL142:
	.loc 1 491 3 view .LVU469
	.loc 1 492 2 is_stmt 0 view .LVU470
	mov	r0, r4
	pop	{r4, pc}
	.loc 1 492 2 view .LVU471
.LFE204:
	.size	xQueueCreateMutex, .-xQueueCreateMutex
	.section	.text.xQueueGiveMutexRecursive,"ax",%progbits
	.align	1
	.global	xQueueGiveMutexRecursive
	.syntax unified
	.thumb
	.thumb_func
	.fpu fpv4-sp-d16
	.type	xQueueGiveMutexRecursive, %function
xQueueGiveMutexRecursive:
.LVL143:
.LFB205:
	.loc 1 576 2 is_stmt 1 view -0
	@ args = 0, pretend = 0, frame = 0
	@ frame_needed = 0, uses_anonymous_args = 0
	.loc 1 576 2 is_stmt 0 view .LVU473
	push	{r3, r4, r5, lr}
.LCFI20:
	.loc 1 577 2 is_stmt 1 view .LVU474
	.loc 1 578 2 view .LVU475
.LVL144:
	.loc 1 580 3 view .LVU476
	.loc 1 580 12 view .LVU477
	.loc 1 580 15 is_stmt 0 view .LVU478
	mov	r4, r0
	cbz	r0, .L118
.LVL145:
.L113:
	.loc 1 580 154 is_stmt 1 discriminator 5 view .LVU479
	.loc 1 588 3 discriminator 5 view .LVU480
	.loc 1 588 14 is_stmt 0 discriminator 5 view .LVU481
	ldr	r5, [r4, #4]
	.loc 1 588 37 discriminator 5 view .LVU482
	bl	xTaskGetCurrentTaskHandle
.LVL146:
	.loc 1 588 5 discriminator 5 view .LVU483
	cmp	r5, r0
	beq	.L119
	.loc 1 617 12 view .LVU484
	movs	r0, #0
.L112:
	.loc 1 623 2 view .LVU485
	pop	{r3, r4, r5, pc}
.LVL147:
.L118:
	.loc 1 580 36 is_stmt 1 discriminator 4 view .LVU486
	ldr	r1, .L121
	mov	r0, #580
.LVL148:
	.loc 1 580 36 is_stmt 0 discriminator 4 view .LVU487
	bl	assert_nrf_callback
.LVL149:
	b	.L113
.L119:
	.loc 1 590 4 is_stmt 1 view .LVU488
	.loc 1 597 4 view .LVU489
	.loc 1 597 16 is_stmt 0 view .LVU490
	ldr	r3, [r4, #12]
	.loc 1 597 39 view .LVU491
	subs	r3, r3, #1
	str	r3, [r4, #12]
	.loc 1 600 4 is_stmt 1 view .LVU492
	.loc 1 600 6 is_stmt 0 view .LVU493
	cbz	r3, .L120
	.loc 1 611 12 view .LVU494
	movs	r0, #1
.LVL150:
	.loc 1 619 4 is_stmt 1 view .LVU495
	.loc 1 622 3 view .LVU496
	.loc 1 622 10 is_stmt 0 view .LVU497
	b	.L112
.LVL151:
.L120:
	.loc 1 604 5 is_stmt 1 view .LVU498
	.loc 1 604 14 is_stmt 0 view .LVU499
	mov	r2, r3
	mov	r1, r3
	mov	r0, r4
	bl	xQueueGenericSend
.LVL152:
	.loc 1 611 12 view .LVU500
	movs	r0, #1
	b	.L112
.L122:
	.align	2
.L121:
	.word	.LC0
.LFE205:
	.size	xQueueGiveMutexRecursive, .-xQueueGiveMutexRecursive
	.section	.text.xQueueGenericSendFromISR,"ax",%progbits
	.align	1
	.global	xQueueGenericSendFromISR
	.syntax unified
	.thumb
	.thumb_func
	.fpu fpv4-sp-d16
	.type	xQueueGenericSendFromISR, %function
xQueueGenericSendFromISR:
.LVL153:
.LFB209:
	.loc 1 925 1 is_stmt 1 view -0
	@ args = 0, pretend = 0, frame = 0
	@ frame_needed = 0, uses_anonymous_args = 0
	.loc 1 925 1 is_stmt 0 view .LVU502
	push	{r3, r4, r5, r6, r7, r8, r9, lr}
.LCFI21:
	mov	r7, r1
	mov	r9, r2
	mov	r5, r3
	.loc 1 926 1 is_stmt 1 view .LVU503
	.loc 1 927 1 view .LVU504
	.loc 1 928 1 view .LVU505
.LVL154:
	.loc 1 930 2 view .LVU506
	.loc 1 930 11 view .LVU507
	.loc 1 930 14 is_stmt 0 view .LVU508
	mov	r4, r0
	cbz	r0, .L135
.LVL155:
.L124:
	.loc 1 930 153 is_stmt 1 discriminator 1 view .LVU509
	.loc 1 931 2 discriminator 1 view .LVU510
	.loc 1 931 11 discriminator 1 view .LVU511
	.loc 1 931 14 is_stmt 0 discriminator 1 view .LVU512
	cbz	r7, .L136
.L125:
	.loc 1 931 184 is_stmt 1 discriminator 1 view .LVU513
	.loc 1 932 2 discriminator 1 view .LVU514
	.loc 1 932 11 discriminator 1 view .LVU515
	.loc 1 932 14 is_stmt 0 discriminator 1 view .LVU516
	cmp	r5, #2
	beq	.L137
.L126:
	.loc 1 932 222 is_stmt 1 discriminator 7 view .LVU517
	.loc 1 948 2 discriminator 7 view .LVU518
	bl	vPortValidateInterruptPriority
.LVL156:
	.loc 1 955 2 discriminator 7 view .LVU519
.LBB146:
.LBI146:
	.file 3 "../../../../../../external/freertos/portable/CMSIS/nrf52/portmacro_cmsis.h"
	.loc 3 172 24 discriminator 7 view .LVU520
.LBB147:
	.loc 3 174 5 discriminator 7 view .LVU521
.LBB148:
.LBI148:
	.loc 2 248 59 discriminator 7 view .LVU522
.LBB149:
	.loc 2 250 3 discriminator 7 view .LVU523
	.loc 2 252 3 discriminator 7 view .LVU524
	.syntax unified
@ 252 "../../../../../../components/toolchain/cmsis/include/cmsis_gcc.h" 1
	MRS r8, basepri
@ 0 "" 2
.LVL157:
	.loc 2 253 3 discriminator 7 view .LVU525
	.loc 2 253 3 is_stmt 0 discriminator 7 view .LVU526
	.thumb
	.syntax unified
.LBE149:
.LBE148:
	.loc 3 175 5 is_stmt 1 discriminator 7 view .LVU527
.LBB150:
.LBI150:
	.loc 2 262 55 discriminator 7 view .LVU528
.LBB151:
	.loc 2 264 3 discriminator 7 view .LVU529
	movs	r3, #64
	.syntax unified
@ 264 "../../../../../../components/toolchain/cmsis/include/cmsis_gcc.h" 1
	MSR basepri, r3
@ 0 "" 2
.LVL158:
	.loc 2 264 3 is_stmt 0 discriminator 7 view .LVU530
	.thumb
	.syntax unified
.LBE151:
.LBE150:
	.loc 3 176 5 is_stmt 1 discriminator 7 view .LVU531
	.loc 3 176 5 is_stmt 0 discriminator 7 view .LVU532
.LBE147:
.LBE146:
	.loc 1 957 3 is_stmt 1 discriminator 7 view .LVU533
	.loc 1 957 16 is_stmt 0 discriminator 7 view .LVU534
	ldr	r2, [r4, #56]
	.loc 1 957 45 discriminator 7 view .LVU535
	ldr	r3, [r4, #60]
	.loc 1 957 5 discriminator 7 view .LVU536
	cmp	r2, r3
	bcc	.L127
	.loc 1 957 58 discriminator 1 view .LVU537
	cmp	r5, #2
	bne	.L128
.L127:
.LBB152:
	.loc 1 959 4 is_stmt 1 view .LVU538
	.loc 1 959 17 is_stmt 0 view .LVU539
	ldrb	r6, [r4, #69]	@ zero_extendqisi2
	sxtb	r6, r6
.LVL159:
	.loc 1 961 4 is_stmt 1 view .LVU540
	mov	r0, r4
	bl	SEGGER_SYSVIEW_ShrinkId
.LVL160:
	mov	r1, r0
	mov	r2, r9
	movs	r0, #96
	bl	SEGGER_SYSVIEW_RecordU32x2
.LVL161:
	.loc 1 968 4 view .LVU541
	.loc 1 968 13 is_stmt 0 view .LVU542
	mov	r2, r5
	mov	r1, r7
	mov	r0, r4
	bl	prvCopyDataToQueue
.LVL162:
	.loc 1 972 4 is_stmt 1 view .LVU543
	.loc 1 972 6 is_stmt 0 view .LVU544
	cmp	r6, #-1
	beq	.L138
	.loc 1 1058 5 is_stmt 1 view .LVU545
	.loc 1 1058 45 is_stmt 0 view .LVU546
	adds	r6, r6, #1
.LVL163:
	.loc 1 1058 24 view .LVU547
	sxtb	r6, r6
.LVL164:
	.loc 1 1058 22 view .LVU548
	strb	r6, [r4, #69]
	.loc 1 1061 12 view .LVU549
	movs	r0, #1
.L130:
.LVL165:
	.loc 1 1061 12 view .LVU550
.LBE152:
	.loc 1 1069 2 is_stmt 1 view .LVU551
.LBB153:
.LBI153:
	.loc 2 262 55 view .LVU552
.LBB154:
	.loc 2 264 3 view .LVU553
	.syntax unified
@ 264 "../../../../../../components/toolchain/cmsis/include/cmsis_gcc.h" 1
	MSR basepri, r8
@ 0 "" 2
.LVL166:
	.loc 2 264 3 is_stmt 0 view .LVU554
	.thumb
	.syntax unified
.LBE154:
.LBE153:
	.loc 1 1071 2 is_stmt 1 view .LVU555
	.loc 1 1072 1 is_stmt 0 view .LVU556
	pop	{r3, r4, r5, r6, r7, r8, r9, pc}
.LVL167:
.L135:
	.loc 1 930 35 is_stmt 1 discriminator 4 view .LVU557
	ldr	r1, .L140
.LVL168:
	.loc 1 930 35 is_stmt 0 discriminator 4 view .LVU558
	movw	r0, #930
.LVL169:
	.loc 1 930 35 discriminator 4 view .LVU559
	bl	assert_nrf_callback
.LVL170:
	.loc 1 930 35 discriminator 4 view .LVU560
	b	.L124
.L136:
	.loc 1 931 15 discriminator 4 view .LVU561
	ldr	r3, [r4, #64]
	.loc 1 931 15 discriminator 4 view .LVU562
	cmp	r3, #0
	beq	.L125
	.loc 1 931 66 is_stmt 1 discriminator 6 view .LVU563
	ldr	r1, .L140
	movw	r0, #931
	bl	assert_nrf_callback
.LVL171:
	b	.L125
.L137:
	.loc 1 932 72 is_stmt 0 discriminator 4 view .LVU564
	ldr	r3, [r4, #60]
	.loc 1 932 15 discriminator 4 view .LVU565
	cmp	r3, #1
	beq	.L126
	.loc 1 932 104 is_stmt 1 discriminator 6 view .LVU566
	ldr	r1, .L140
	mov	r0, #932
	bl	assert_nrf_callback
.LVL172:
	b	.L126
.LVL173:
.L138:
.LBB155:
	.loc 1 1027 6 view .LVU567
	.loc 1 1027 69 is_stmt 0 view .LVU568
	ldr	r3, [r4, #36]
	.loc 1 1027 8 view .LVU569
	cbnz	r3, .L139
	.loc 1 1061 12 view .LVU570
	movs	r0, #1
	b	.L130
.L139:
	.loc 1 1029 7 is_stmt 1 view .LVU571
	.loc 1 1029 11 is_stmt 0 view .LVU572
	add	r0, r4, #36
	bl	xTaskRemoveFromEventList
.LVL174:
	.loc 1 1029 9 view .LVU573
	cbz	r0, .L132
	.loc 1 1033 8 is_stmt 1 view .LVU574
	.loc 1 1033 10 is_stmt 0 view .LVU575
	cmp	r9, #0
	beq	.L133
	.loc 1 1035 9 is_stmt 1 view .LVU576
	.loc 1 1035 36 is_stmt 0 view .LVU577
	movs	r0, #1
	str	r0, [r9]
	b	.L130
.LVL175:
.L128:
	.loc 1 1035 36 view .LVU578
.LBE155:
	.loc 1 1065 4 is_stmt 1 view .LVU579
	mov	r0, r4
	bl	SEGGER_SYSVIEW_ShrinkId
.LVL176:
	mov	r1, r0
	mov	r2, r9
	movs	r0, #96
	bl	SEGGER_SYSVIEW_RecordU32x2
.LVL177:
	.loc 1 1066 4 view .LVU580
	.loc 1 1066 12 is_stmt 0 view .LVU581
	movs	r0, #0
	b	.L130
.LVL178:
.L132:
.LBB156:
	.loc 1 1061 12 view .LVU582
	movs	r0, #1
	b	.L130
.L133:
	movs	r0, #1
	b	.L130
.L141:
	.align	2
.L140:
	.word	.LC0
.LBE156:
.LFE209:
	.size	xQueueGenericSendFromISR, .-xQueueGenericSendFromISR
	.section	.text.xQueueGiveFromISR,"ax",%progbits
	.align	1
	.global	xQueueGiveFromISR
	.syntax unified
	.thumb
	.thumb_func
	.fpu fpv4-sp-d16
	.type	xQueueGiveFromISR, %function
xQueueGiveFromISR:
.LVL179:
.LFB210:
	.loc 1 1076 1 is_stmt 1 view -0
	@ args = 0, pretend = 0, frame = 0
	@ frame_needed = 0, uses_anonymous_args = 0
	.loc 1 1076 1 is_stmt 0 view .LVU584
	push	{r4, r5, r6, r7, r8, lr}
.LCFI22:
	mov	r5, r1
	.loc 1 1077 1 is_stmt 1 view .LVU585
	.loc 1 1078 1 view .LVU586
	.loc 1 1079 1 view .LVU587
.LVL180:
	.loc 1 1087 2 view .LVU588
	.loc 1 1087 11 view .LVU589
	.loc 1 1087 14 is_stmt 0 view .LVU590
	mov	r4, r0
	cbz	r0, .L153
.LVL181:
.L143:
	.loc 1 1087 154 is_stmt 1 discriminator 1 view .LVU591
	.loc 1 1091 2 discriminator 1 view .LVU592
	.loc 1 1091 11 discriminator 1 view .LVU593
	.loc 1 1091 22 is_stmt 0 discriminator 1 view .LVU594
	ldr	r3, [r4, #64]
	.loc 1 1091 14 discriminator 1 view .LVU595
	cbnz	r3, .L154
.L144:
	.loc 1 1091 171 is_stmt 1 discriminator 1 view .LVU596
	.loc 1 1096 2 discriminator 1 view .LVU597
	.loc 1 1096 11 discriminator 1 view .LVU598
	.loc 1 1096 27 is_stmt 0 discriminator 1 view .LVU599
	ldr	r3, [r4]
	.loc 1 1096 14 discriminator 1 view .LVU600
	cbz	r3, .L155
.L145:
	.loc 1 1096 136 is_stmt 1 discriminator 7 view .LVU601
	.loc 1 1112 2 discriminator 7 view .LVU602
	bl	vPortValidateInterruptPriority
.LVL182:
	.loc 1 1114 2 discriminator 7 view .LVU603
.LBB157:
.LBI157:
	.loc 3 172 24 discriminator 7 view .LVU604
.LBB158:
	.loc 3 174 5 discriminator 7 view .LVU605
.LBB159:
.LBI159:
	.loc 2 248 59 discriminator 7 view .LVU606
.LBB160:
	.loc 2 250 3 discriminator 7 view .LVU607
	.loc 2 252 3 discriminator 7 view .LVU608
	.syntax unified
@ 252 "../../../../../../components/toolchain/cmsis/include/cmsis_gcc.h" 1
	MRS r8, basepri
@ 0 "" 2
.LVL183:
	.loc 2 253 3 discriminator 7 view .LVU609
	.loc 2 253 3 is_stmt 0 discriminator 7 view .LVU610
	.thumb
	.syntax unified
.LBE160:
.LBE159:
	.loc 3 175 5 is_stmt 1 discriminator 7 view .LVU611
.LBB161:
.LBI161:
	.loc 2 262 55 discriminator 7 view .LVU612
.LBB162:
	.loc 2 264 3 discriminator 7 view .LVU613
	movs	r3, #64
	.syntax unified
@ 264 "../../../../../../components/toolchain/cmsis/include/cmsis_gcc.h" 1
	MSR basepri, r3
@ 0 "" 2
.LVL184:
	.loc 2 264 3 is_stmt 0 discriminator 7 view .LVU614
	.thumb
	.syntax unified
.LBE162:
.LBE161:
	.loc 3 176 5 is_stmt 1 discriminator 7 view .LVU615
	.loc 3 176 5 is_stmt 0 discriminator 7 view .LVU616
.LBE158:
.LBE157:
.LBB163:
	.loc 1 1116 3 is_stmt 1 discriminator 7 view .LVU617
	.loc 1 1116 21 is_stmt 0 discriminator 7 view .LVU618
	ldr	r7, [r4, #56]
.LVL185:
	.loc 1 1121 3 is_stmt 1 discriminator 7 view .LVU619
	.loc 1 1121 34 is_stmt 0 discriminator 7 view .LVU620
	ldr	r3, [r4, #60]
	.loc 1 1121 5 discriminator 7 view .LVU621
	cmp	r3, r7
	bls	.L146
.LBB164:
	.loc 1 1123 4 is_stmt 1 view .LVU622
	.loc 1 1123 17 is_stmt 0 view .LVU623
	ldrb	r6, [r4, #69]	@ zero_extendqisi2
	sxtb	r6, r6
.LVL186:
	.loc 1 1125 4 is_stmt 1 view .LVU624
	mov	r0, r4
	bl	SEGGER_SYSVIEW_ShrinkId
.LVL187:
	mov	r1, r0
	mov	r2, r5
	movs	r0, #96
	bl	SEGGER_SYSVIEW_RecordU32x2
.LVL188:
	.loc 1 1133 4 view .LVU625
	.loc 1 1133 51 is_stmt 0 view .LVU626
	adds	r7, r7, #1
.LVL189:
	.loc 1 1133 31 view .LVU627
	str	r7, [r4, #56]
	.loc 1 1137 4 is_stmt 1 view .LVU628
	.loc 1 1137 6 is_stmt 0 view .LVU629
	cmp	r6, #-1
	beq	.L156
	.loc 1 1223 5 is_stmt 1 view .LVU630
	.loc 1 1223 45 is_stmt 0 view .LVU631
	adds	r6, r6, #1
.LVL190:
	.loc 1 1223 24 view .LVU632
	sxtb	r6, r6
.LVL191:
	.loc 1 1223 22 view .LVU633
	strb	r6, [r4, #69]
	.loc 1 1226 12 view .LVU634
	movs	r0, #1
	b	.L148
.LVL192:
.L153:
	.loc 1 1226 12 view .LVU635
.LBE164:
.LBE163:
	.loc 1 1087 35 is_stmt 1 discriminator 4 view .LVU636
	ldr	r1, .L158
.LVL193:
	.loc 1 1087 35 is_stmt 0 discriminator 4 view .LVU637
	movw	r0, #1087
.LVL194:
	.loc 1 1087 35 discriminator 4 view .LVU638
	bl	assert_nrf_callback
.LVL195:
	b	.L143
.L154:
	.loc 1 1091 52 is_stmt 1 discriminator 4 view .LVU639
	ldr	r1, .L158
	movw	r0, #1091
	bl	assert_nrf_callback
.LVL196:
	b	.L144
.L155:
	.loc 1 1096 15 is_stmt 0 discriminator 4 view .LVU640
	ldr	r3, [r4, #4]
	.loc 1 1096 15 discriminator 4 view .LVU641
	cmp	r3, #0
	beq	.L145
	.loc 1 1096 17 is_stmt 1 discriminator 6 view .LVU642
	ldr	r1, .L158
	mov	r0, #1096
	bl	assert_nrf_callback
.LVL197:
	b	.L145
.LVL198:
.L156:
.LBB167:
.LBB165:
	.loc 1 1192 6 view .LVU643
	.loc 1 1192 69 is_stmt 0 view .LVU644
	ldr	r3, [r4, #36]
	.loc 1 1192 8 view .LVU645
	cbnz	r3, .L157
	.loc 1 1226 12 view .LVU646
	movs	r0, #1
	b	.L148
.L157:
	.loc 1 1194 7 is_stmt 1 view .LVU647
	.loc 1 1194 11 is_stmt 0 view .LVU648
	add	r0, r4, #36
	bl	xTaskRemoveFromEventList
.LVL199:
	.loc 1 1194 9 view .LVU649
	cbz	r0, .L150
	.loc 1 1198 8 is_stmt 1 view .LVU650
	.loc 1 1198 10 is_stmt 0 view .LVU651
	cbz	r5, .L151
	.loc 1 1200 9 is_stmt 1 view .LVU652
	.loc 1 1200 36 is_stmt 0 view .LVU653
	movs	r0, #1
	str	r0, [r5]
	b	.L148
.LVL200:
.L146:
	.loc 1 1200 36 view .LVU654
.LBE165:
	.loc 1 1230 4 is_stmt 1 view .LVU655
	mov	r0, r4
	bl	SEGGER_SYSVIEW_ShrinkId
.LVL201:
	mov	r1, r0
	mov	r2, r5
	movs	r0, #96
	bl	SEGGER_SYSVIEW_RecordU32x2
.LVL202:
	.loc 1 1231 4 view .LVU656
	.loc 1 1231 12 is_stmt 0 view .LVU657
	movs	r0, #0
.LVL203:
.L148:
	.loc 1 1231 12 view .LVU658
.LBE167:
	.loc 1 1234 2 is_stmt 1 view .LVU659
.LBB168:
.LBI168:
	.loc 2 262 55 view .LVU660
.LBB169:
	.loc 2 264 3 view .LVU661
	.syntax unified
@ 264 "../../../../../../components/toolchain/cmsis/include/cmsis_gcc.h" 1
	MSR basepri, r8
@ 0 "" 2
.LVL204:
	.loc 2 264 3 is_stmt 0 view .LVU662
	.thumb
	.syntax unified
.LBE169:
.LBE168:
	.loc 1 1236 2 is_stmt 1 view .LVU663
	.loc 1 1237 1 is_stmt 0 view .LVU664
	pop	{r4, r5, r6, r7, r8, pc}
.LVL205:
.L150:
.LBB170:
.LBB166:
	.loc 1 1226 12 view .LVU665
	movs	r0, #1
	b	.L148
.L151:
	movs	r0, #1
	b	.L148
.L159:
	.align	2
.L158:
	.word	.LC0
.LBE166:
.LBE170:
.LFE210:
	.size	xQueueGiveFromISR, .-xQueueGiveFromISR
	.section	.text.xQueueReceive,"ax",%progbits
	.align	1
	.global	xQueueReceive
	.syntax unified
	.thumb
	.thumb_func
	.fpu fpv4-sp-d16
	.type	xQueueReceive, %function
xQueueReceive:
.LVL206:
.LFB211:
	.loc 1 1241 1 is_stmt 1 view -0
	@ args = 0, pretend = 0, frame = 16
	@ frame_needed = 0, uses_anonymous_args = 0
	.loc 1 1241 1 is_stmt 0 view .LVU667
	push	{r4, r5, r6, r7, lr}
.LCFI23:
	sub	sp, sp, #28
.LCFI24:
	mov	r7, r1
	str	r2, [sp, #12]
	.loc 1 1242 1 is_stmt 1 view .LVU668
.LVL207:
	.loc 1 1243 1 view .LVU669
	.loc 1 1244 1 view .LVU670
	.loc 1 1247 2 view .LVU671
	.loc 1 1247 11 view .LVU672
	.loc 1 1247 14 is_stmt 0 view .LVU673
	mov	r4, r0
	cbz	r0, .L176
.LVL208:
.L161:
	.loc 1 1247 158 is_stmt 1 discriminator 1 view .LVU674
	.loc 1 1251 2 discriminator 1 view .LVU675
	.loc 1 1251 11 discriminator 1 view .LVU676
	.loc 1 1251 14 is_stmt 0 discriminator 1 view .LVU677
	cbz	r7, .L177
.L162:
	.loc 1 1251 189 is_stmt 1 discriminator 1 view .LVU678
	.loc 1 1256 3 discriminator 1 view .LVU679
	.loc 1 1256 12 discriminator 1 view .LVU680
	.loc 1 1256 21 is_stmt 0 discriminator 1 view .LVU681
	bl	xTaskGetSchedulerState
.LVL209:
	.loc 1 1256 15 discriminator 1 view .LVU682
	cbnz	r0, .L163
	.loc 1 1256 90 discriminator 4 view .LVU683
	ldr	r3, [sp, #12]
	.loc 1 1256 16 discriminator 4 view .LVU684
	cbnz	r3, .L178
.L163:
	.loc 1 1241 1 discriminator 7 view .LVU685
	movs	r6, #0
	b	.L164
.LVL210:
.L176:
	.loc 1 1247 39 is_stmt 1 discriminator 4 view .LVU686
	ldr	r1, .L186
.LVL211:
	.loc 1 1247 39 is_stmt 0 discriminator 4 view .LVU687
	movw	r0, #1247
.LVL212:
	.loc 1 1247 39 discriminator 4 view .LVU688
	bl	assert_nrf_callback
.LVL213:
	.loc 1 1247 39 discriminator 4 view .LVU689
	b	.L161
.L177:
	.loc 1 1251 19 discriminator 4 view .LVU690
	ldr	r3, [r4, #64]
	.loc 1 1251 15 discriminator 4 view .LVU691
	cmp	r3, #0
	beq	.L162
	.loc 1 1251 70 is_stmt 1 discriminator 6 view .LVU692
	ldr	r1, .L186
	movw	r0, #1251
	bl	assert_nrf_callback
.LVL214:
	b	.L162
.L178:
	.loc 1 1256 111 discriminator 6 view .LVU693
	ldr	r1, .L186
	mov	r0, #1256
	bl	assert_nrf_callback
.LVL215:
	b	.L163
.LVL216:
.L181:
.LBB171:
	.loc 1 1276 5 view .LVU694
	mov	r1, r7
	mov	r0, r4
	bl	prvCopyDataFromQueue
.LVL217:
	.loc 1 1277 5 view .LVU695
	mov	r0, r4
	bl	SEGGER_SYSVIEW_ShrinkId
.LVL218:
	mov	r6, r0
.LVL219:
	.loc 1 1277 5 is_stmt 0 view .LVU696
	movs	r0, #0
	bl	SEGGER_SYSVIEW_ShrinkId
.LVL220:
	mov	r2, r0
	movs	r3, #1
	str	r3, [sp]
	ldr	r3, [sp, #12]
	mov	r1, r6
	movs	r0, #92
	bl	SEGGER_SYSVIEW_RecordU32x4
.LVL221:
	.loc 1 1278 5 is_stmt 1 view .LVU697
	.loc 1 1278 52 is_stmt 0 view .LVU698
	subs	r5, r5, #1
.LVL222:
	.loc 1 1278 32 view .LVU699
	str	r5, [r4, #56]
	.loc 1 1283 5 is_stmt 1 view .LVU700
	.loc 1 1283 65 is_stmt 0 view .LVU701
	ldr	r3, [r4, #16]
	.loc 1 1283 7 view .LVU702
	cbnz	r3, .L179
.L166:
	.loc 1 1296 6 is_stmt 1 view .LVU703
	.loc 1 1299 5 view .LVU704
	bl	vPortExitCritical
.LVL223:
	.loc 1 1300 5 view .LVU705
	.loc 1 1300 12 is_stmt 0 view .LVU706
	movs	r0, #1
.LVL224:
.L160:
	.loc 1 1300 12 view .LVU707
.LBE171:
	.loc 1 1379 1 view .LVU708
	add	sp, sp, #28
.LCFI25:
	@ sp needed
	pop	{r4, r5, r6, r7, pc}
.LVL225:
.L179:
.LCFI26:
.LBB178:
	.loc 1 1285 6 is_stmt 1 view .LVU709
	.loc 1 1285 10 is_stmt 0 view .LVU710
	add	r0, r4, #16
	bl	xTaskRemoveFromEventList
.LVL226:
	.loc 1 1285 8 view .LVU711
	cmp	r0, #0
	beq	.L166
	.loc 1 1287 7 is_stmt 1 view .LVU712
	.loc 1 1287 12 view .LVU713
	.loc 1 1287 62 is_stmt 0 view .LVU714
	ldr	r3, .L186+4
	mov	r2, #268435456
	str	r2, [r3, #4]
	.loc 1 1287 78 is_stmt 1 view .LVU715
.LBB172:
.LBI172:
	.loc 2 404 51 view .LVU716
.LBB173:
	.loc 2 406 3 view .LVU717
	.syntax unified
@ 406 "../../../../../../components/toolchain/cmsis/include/cmsis_gcc.h" 1
	sev
@ 0 "" 2
	.thumb
	.syntax unified
.LBE173:
.LBE172:
	.loc 1 1287 87 view .LVU718
.LBB174:
.LBI174:
	.loc 2 427 51 view .LVU719
.LBB175:
	.loc 2 429 3 view .LVU720
	.syntax unified
@ 429 "../../../../../../components/toolchain/cmsis/include/cmsis_gcc.h" 1
	dsb 0xF
@ 0 "" 2
	.thumb
	.syntax unified
.LBE175:
.LBE174:
	.loc 1 1287 96 view .LVU721
.LBB176:
.LBI176:
	.loc 2 416 51 view .LVU722
.LBB177:
	.loc 2 418 3 view .LVU723
	.syntax unified
@ 418 "../../../../../../components/toolchain/cmsis/include/cmsis_gcc.h" 1
	isb 0xF
@ 0 "" 2
	.loc 2 419 1 is_stmt 0 view .LVU724
	.thumb
	.syntax unified
	b	.L166
.LVL227:
.L182:
	.loc 2 419 1 view .LVU725
.LBE177:
.LBE176:
	.loc 1 1308 6 is_stmt 1 view .LVU726
	bl	vPortExitCritical
.LVL228:
	.loc 1 1309 6 view .LVU727
	mov	r0, r4
	bl	SEGGER_SYSVIEW_ShrinkId
.LVL229:
	mov	r4, r0
.LVL230:
	.loc 1 1309 6 is_stmt 0 view .LVU728
	movs	r0, #0
	bl	SEGGER_SYSVIEW_ShrinkId
.LVL231:
	mov	r2, r0
	movs	r3, #1
	str	r3, [sp]
	ldr	r3, [sp, #12]
	mov	r1, r4
	movs	r0, #92
	bl	SEGGER_SYSVIEW_RecordU32x4
.LVL232:
	.loc 1 1310 6 is_stmt 1 view .LVU729
	.loc 1 1310 13 is_stmt 0 view .LVU730
	movs	r0, #0
	b	.L160
.LVL233:
.L183:
	.loc 1 1316 6 is_stmt 1 view .LVU731
	add	r0, sp, #16
	bl	vTaskInternalSetTimeOutState
.LVL234:
	.loc 1 1317 6 view .LVU732
	.loc 1 1317 20 is_stmt 0 view .LVU733
	movs	r6, #1
	b	.L169
.LVL235:
.L184:
	.loc 1 1317 20 view .LVU734
.LBE178:
	.loc 1 1332 77 is_stmt 1 discriminator 1 view .LVU735
	.loc 1 1332 98 is_stmt 0 discriminator 1 view .LVU736
	movs	r3, #0
	strb	r3, [r4, #68]
	b	.L170
.L185:
	.loc 1 1332 170 is_stmt 1 discriminator 4 view .LVU737
	.loc 1 1332 191 is_stmt 0 discriminator 4 view .LVU738
	movs	r3, #0
	strb	r3, [r4, #69]
	b	.L171
.L173:
	.loc 1 1357 5 is_stmt 1 view .LVU739
	mov	r0, r4
	bl	prvUnlockQueue
.LVL236:
	.loc 1 1358 5 view .LVU740
	.loc 1 1358 14 is_stmt 0 view .LVU741
	bl	xTaskResumeAll
.LVL237:
	b	.L164
.L172:
	.loc 1 1365 4 is_stmt 1 view .LVU742
	mov	r0, r4
	bl	prvUnlockQueue
.LVL238:
	.loc 1 1366 4 view .LVU743
	.loc 1 1366 13 is_stmt 0 view .LVU744
	bl	xTaskResumeAll
.LVL239:
	.loc 1 1368 4 is_stmt 1 view .LVU745
	.loc 1 1368 8 is_stmt 0 view .LVU746
	mov	r0, r4
	bl	prvIsQueueEmpty
.LVL240:
	.loc 1 1368 6 view .LVU747
	cmp	r0, #0
	bne	.L180
.LVL241:
.L164:
	.loc 1 1256 230 is_stmt 1 discriminator 7 view .LVU748
	.loc 1 1265 2 discriminator 7 view .LVU749
	.loc 1 1267 3 discriminator 7 view .LVU750
	bl	vPortEnterCritical
.LVL242:
.LBB179:
	.loc 1 1269 4 discriminator 7 view .LVU751
	.loc 1 1269 22 is_stmt 0 discriminator 7 view .LVU752
	ldr	r5, [r4, #56]
.LVL243:
	.loc 1 1273 4 is_stmt 1 discriminator 7 view .LVU753
	.loc 1 1273 6 is_stmt 0 discriminator 7 view .LVU754
	cmp	r5, #0
	bne	.L181
	.loc 1 1304 5 is_stmt 1 view .LVU755
	.loc 1 1304 22 is_stmt 0 view .LVU756
	ldr	r3, [sp, #12]
	.loc 1 1304 7 view .LVU757
	cmp	r3, #0
	beq	.L182
	.loc 1 1312 10 is_stmt 1 view .LVU758
	.loc 1 1312 12 is_stmt 0 view .LVU759
	cmp	r6, #0
	beq	.L183
.LVL244:
.L169:
	.loc 1 1322 6 is_stmt 1 view .LVU760
.LBE179:
	.loc 1 1326 3 view .LVU761
	bl	vPortExitCritical
.LVL245:
	.loc 1 1331 3 view .LVU762
	bl	vTaskSuspendAll
.LVL246:
	.loc 1 1332 3 view .LVU763
	bl	vPortEnterCritical
.LVL247:
	.loc 1 1332 27 view .LVU764
	.loc 1 1332 42 is_stmt 0 view .LVU765
	ldrb	r3, [r4, #68]	@ zero_extendqisi2
	sxtb	r3, r3
	.loc 1 1332 29 view .LVU766
	cmp	r3, #-1
	beq	.L184
.L170:
	.loc 1 1332 120 is_stmt 1 discriminator 3 view .LVU767
	.loc 1 1332 135 is_stmt 0 discriminator 3 view .LVU768
	ldrb	r3, [r4, #69]	@ zero_extendqisi2
	sxtb	r3, r3
	.loc 1 1332 122 discriminator 3 view .LVU769
	cmp	r3, #-1
	beq	.L185
.L171:
	.loc 1 1332 215 is_stmt 1 discriminator 6 view .LVU770
	bl	vPortExitCritical
.LVL248:
	.loc 1 1335 3 discriminator 6 view .LVU771
	.loc 1 1335 7 is_stmt 0 discriminator 6 view .LVU772
	add	r1, sp, #12
	add	r0, sp, #16
	bl	xTaskCheckForTimeOut
.LVL249:
	.loc 1 1335 5 discriminator 6 view .LVU773
	cmp	r0, #0
	bne	.L172
	.loc 1 1339 4 is_stmt 1 view .LVU774
	.loc 1 1339 8 is_stmt 0 view .LVU775
	mov	r0, r4
	bl	prvIsQueueEmpty
.LVL250:
	.loc 1 1339 6 view .LVU776
	cmp	r0, #0
	beq	.L173
	.loc 1 1341 5 is_stmt 1 view .LVU777
	.loc 1 1342 5 view .LVU778
	ldr	r1, [sp, #12]
	add	r0, r4, #36
	bl	vTaskPlaceOnEventList
.LVL251:
	.loc 1 1343 5 view .LVU779
	mov	r0, r4
	bl	prvUnlockQueue
.LVL252:
	.loc 1 1344 5 view .LVU780
	.loc 1 1344 9 is_stmt 0 view .LVU781
	bl	xTaskResumeAll
.LVL253:
	.loc 1 1344 7 view .LVU782
	cmp	r0, #0
	bne	.L164
	.loc 1 1346 6 is_stmt 1 view .LVU783
	.loc 1 1346 11 view .LVU784
	.loc 1 1346 61 is_stmt 0 view .LVU785
	ldr	r3, .L186+4
	mov	r2, #268435456
	str	r2, [r3, #4]
	.loc 1 1346 77 is_stmt 1 view .LVU786
.LBB180:
.LBI180:
	.loc 2 404 51 view .LVU787
.LBB181:
	.loc 2 406 3 view .LVU788
	.syntax unified
@ 406 "../../../../../../components/toolchain/cmsis/include/cmsis_gcc.h" 1
	sev
@ 0 "" 2
	.thumb
	.syntax unified
.LBE181:
.LBE180:
	.loc 1 1346 86 view .LVU789
.LBB182:
.LBI182:
	.loc 2 427 51 view .LVU790
.LBB183:
	.loc 2 429 3 view .LVU791
	.syntax unified
@ 429 "../../../../../../components/toolchain/cmsis/include/cmsis_gcc.h" 1
	dsb 0xF
@ 0 "" 2
	.thumb
	.syntax unified
.LBE183:
.LBE182:
	.loc 1 1346 95 view .LVU792
.LBB184:
.LBI184:
	.loc 2 416 51 view .LVU793
.LBB185:
	.loc 2 418 3 view .LVU794
	.syntax unified
@ 418 "../../../../../../components/toolchain/cmsis/include/cmsis_gcc.h" 1
	isb 0xF
@ 0 "" 2
	.loc 2 419 1 is_stmt 0 view .LVU795
	.thumb
	.syntax unified
	b	.L164
.L180:
	.loc 2 419 1 view .LVU796
.LBE185:
.LBE184:
	.loc 1 1370 5 is_stmt 1 view .LVU797
	mov	r0, r4
	bl	SEGGER_SYSVIEW_ShrinkId
.LVL254:
	mov	r4, r0
.LVL255:
	.loc 1 1370 5 is_stmt 0 view .LVU798
	movs	r0, #0
	bl	SEGGER_SYSVIEW_ShrinkId
.LVL256:
	mov	r2, r0
	movs	r3, #1
	str	r3, [sp]
	ldr	r3, [sp, #12]
	mov	r1, r4
	movs	r0, #92
	bl	SEGGER_SYSVIEW_RecordU32x4
.LVL257:
	.loc 1 1371 5 is_stmt 1 view .LVU799
	.loc 1 1371 12 is_stmt 0 view .LVU800
	movs	r0, #0
	b	.L160
.L187:
	.align	2
.L186:
	.word	.LC0
	.word	-536810240
.LFE211:
	.size	xQueueReceive, .-xQueueReceive
	.section	.text.xQueueSemaphoreTake,"ax",%progbits
	.align	1
	.global	xQueueSemaphoreTake
	.syntax unified
	.thumb
	.thumb_func
	.fpu fpv4-sp-d16
	.type	xQueueSemaphoreTake, %function
xQueueSemaphoreTake:
.LVL258:
.LFB212:
	.loc 1 1383 1 is_stmt 1 view -0
	@ args = 0, pretend = 0, frame = 16
	@ frame_needed = 0, uses_anonymous_args = 0
	.loc 1 1383 1 is_stmt 0 view .LVU802
	push	{r4, r5, r6, r7, lr}
.LCFI27:
	sub	sp, sp, #28
.LCFI28:
	str	r1, [sp, #12]
	.loc 1 1384 1 is_stmt 1 view .LVU803
.LVL259:
	.loc 1 1385 1 view .LVU804
	.loc 1 1386 1 view .LVU805
	.loc 1 1389 2 view .LVU806
	.loc 1 1393 2 view .LVU807
	.loc 1 1393 11 view .LVU808
	.loc 1 1393 14 is_stmt 0 view .LVU809
	mov	r4, r0
	cbz	r0, .L208
.LVL260:
.L189:
	.loc 1 1393 158 is_stmt 1 discriminator 1 view .LVU810
	.loc 1 1397 2 discriminator 1 view .LVU811
	.loc 1 1397 11 discriminator 1 view .LVU812
	.loc 1 1397 22 is_stmt 0 discriminator 1 view .LVU813
	ldr	r3, [r4, #64]
	.loc 1 1397 14 discriminator 1 view .LVU814
	cbnz	r3, .L209
.L190:
	.loc 1 1397 171 is_stmt 1 discriminator 1 view .LVU815
	.loc 1 1402 3 discriminator 1 view .LVU816
	.loc 1 1402 12 discriminator 1 view .LVU817
	.loc 1 1402 21 is_stmt 0 discriminator 1 view .LVU818
	bl	xTaskGetSchedulerState
.LVL261:
	.loc 1 1402 15 discriminator 1 view .LVU819
	cbnz	r0, .L191
	.loc 1 1402 90 discriminator 4 view .LVU820
	ldr	r3, [sp, #12]
	.loc 1 1402 16 discriminator 4 view .LVU821
	cbnz	r3, .L210
.L191:
	.loc 1 1383 1 discriminator 7 view .LVU822
	movs	r7, #0
	mov	r6, r7
	b	.L192
.LVL262:
.L208:
	.loc 1 1393 39 is_stmt 1 discriminator 4 view .LVU823
	ldr	r1, .L222
.LVL263:
	.loc 1 1393 39 is_stmt 0 discriminator 4 view .LVU824
	movw	r0, #1393
.LVL264:
	.loc 1 1393 39 discriminator 4 view .LVU825
	bl	assert_nrf_callback
.LVL265:
	.loc 1 1393 39 discriminator 4 view .LVU826
	b	.L189
.L209:
	.loc 1 1397 52 is_stmt 1 discriminator 4 view .LVU827
	ldr	r1, .L222
	movw	r0, #1397
	bl	assert_nrf_callback
.LVL266:
	b	.L190
.L210:
	.loc 1 1402 111 discriminator 6 view .LVU828
	ldr	r1, .L222
	movw	r0, #1402
	bl	assert_nrf_callback
.LVL267:
	b	.L191
.LVL268:
.L215:
.LBB186:
	.loc 1 1423 5 view .LVU829
	mov	r0, r4
	bl	SEGGER_SYSVIEW_ShrinkId
.LVL269:
	mov	r6, r0
.LVL270:
	.loc 1 1423 5 is_stmt 0 view .LVU830
	movs	r0, #0
	bl	SEGGER_SYSVIEW_ShrinkId
.LVL271:
	mov	r2, r0
	movs	r3, #1
	str	r3, [sp]
	ldr	r3, [sp, #12]
	mov	r1, r6
	movs	r0, #92
	bl	SEGGER_SYSVIEW_RecordU32x4
.LVL272:
	.loc 1 1427 5 is_stmt 1 view .LVU831
	.loc 1 1427 51 is_stmt 0 view .LVU832
	subs	r5, r5, #1
.LVL273:
	.loc 1 1427 32 view .LVU833
	str	r5, [r4, #56]
	.loc 1 1431 6 is_stmt 1 view .LVU834
	.loc 1 1431 17 is_stmt 0 view .LVU835
	ldr	r3, [r4]
	.loc 1 1431 8 view .LVU836
	cbz	r3, .L211
.L194:
	.loc 1 1439 7 is_stmt 1 view .LVU837
	.loc 1 1446 5 view .LVU838
	.loc 1 1446 65 is_stmt 0 view .LVU839
	ldr	r3, [r4, #16]
	.loc 1 1446 7 view .LVU840
	cbnz	r3, .L212
.L195:
	.loc 1 1459 6 is_stmt 1 view .LVU841
	.loc 1 1462 5 view .LVU842
	bl	vPortExitCritical
.LVL274:
	.loc 1 1463 5 view .LVU843
	.loc 1 1463 12 is_stmt 0 view .LVU844
	movs	r0, #1
.LVL275:
.L188:
	.loc 1 1463 12 view .LVU845
.LBE186:
	.loc 1 1598 1 view .LVU846
	add	sp, sp, #28
.LCFI29:
	@ sp needed
	pop	{r4, r5, r6, r7, pc}
.LVL276:
.L211:
.LCFI30:
.LBB193:
	.loc 1 1435 7 is_stmt 1 view .LVU847
	.loc 1 1435 38 is_stmt 0 view .LVU848
	bl	pvTaskIncrementMutexHeldCount
.LVL277:
	.loc 1 1435 23 view .LVU849
	str	r0, [r4, #4]
	b	.L194
.L212:
	.loc 1 1448 6 is_stmt 1 view .LVU850
	.loc 1 1448 10 is_stmt 0 view .LVU851
	add	r0, r4, #16
	bl	xTaskRemoveFromEventList
.LVL278:
	.loc 1 1448 8 view .LVU852
	cmp	r0, #0
	beq	.L195
	.loc 1 1450 7 is_stmt 1 view .LVU853
	.loc 1 1450 12 view .LVU854
	.loc 1 1450 62 is_stmt 0 view .LVU855
	ldr	r3, .L222+4
	mov	r2, #268435456
	str	r2, [r3, #4]
	.loc 1 1450 78 is_stmt 1 view .LVU856
.LBB187:
.LBI187:
	.loc 2 404 51 view .LVU857
.LBB188:
	.loc 2 406 3 view .LVU858
	.syntax unified
@ 406 "../../../../../../components/toolchain/cmsis/include/cmsis_gcc.h" 1
	sev
@ 0 "" 2
	.thumb
	.syntax unified
.LBE188:
.LBE187:
	.loc 1 1450 87 view .LVU859
.LBB189:
.LBI189:
	.loc 2 427 51 view .LVU860
.LBB190:
	.loc 2 429 3 view .LVU861
	.syntax unified
@ 429 "../../../../../../components/toolchain/cmsis/include/cmsis_gcc.h" 1
	dsb 0xF
@ 0 "" 2
	.thumb
	.syntax unified
.LBE190:
.LBE189:
	.loc 1 1450 96 view .LVU862
.LBB191:
.LBI191:
	.loc 2 416 51 view .LVU863
.LBB192:
	.loc 2 418 3 view .LVU864
	.syntax unified
@ 418 "../../../../../../components/toolchain/cmsis/include/cmsis_gcc.h" 1
	isb 0xF
@ 0 "" 2
	.loc 2 419 1 is_stmt 0 view .LVU865
	.thumb
	.syntax unified
	b	.L195
.LVL279:
.L216:
	.loc 2 419 1 view .LVU866
.LBE192:
.LBE191:
	.loc 1 1474 7 is_stmt 1 discriminator 1 view .LVU867
	.loc 1 1474 16 discriminator 1 view .LVU868
	.loc 1 1474 19 is_stmt 0 discriminator 1 view .LVU869
	cbnz	r7, .L213
.L198:
	.loc 1 1474 196 is_stmt 1 discriminator 5 view .LVU870
	.loc 1 1480 6 discriminator 5 view .LVU871
	bl	vPortExitCritical
.LVL280:
	.loc 1 1481 6 discriminator 5 view .LVU872
	mov	r0, r4
	bl	SEGGER_SYSVIEW_ShrinkId
.LVL281:
	mov	r4, r0
.LVL282:
	.loc 1 1481 6 is_stmt 0 discriminator 5 view .LVU873
	movs	r0, #0
	bl	SEGGER_SYSVIEW_ShrinkId
.LVL283:
	mov	r2, r0
	movs	r3, #1
	str	r3, [sp]
	ldr	r3, [sp, #12]
	mov	r1, r4
	movs	r0, #92
	bl	SEGGER_SYSVIEW_RecordU32x4
.LVL284:
	.loc 1 1482 6 is_stmt 1 discriminator 5 view .LVU874
	.loc 1 1482 13 is_stmt 0 discriminator 5 view .LVU875
	movs	r0, #0
	b	.L188
.LVL285:
.L213:
	.loc 1 1474 77 is_stmt 1 discriminator 4 view .LVU876
	ldr	r1, .L222
	movw	r0, #1474
	bl	assert_nrf_callback
.LVL286:
	b	.L198
.L217:
	.loc 1 1488 6 view .LVU877
	add	r0, sp, #16
	bl	vTaskInternalSetTimeOutState
.LVL287:
	.loc 1 1489 6 view .LVU878
	.loc 1 1489 20 is_stmt 0 view .LVU879
	movs	r6, #1
	b	.L199
.LVL288:
.L218:
	.loc 1 1489 20 view .LVU880
.LBE193:
	.loc 1 1504 77 is_stmt 1 discriminator 1 view .LVU881
	.loc 1 1504 98 is_stmt 0 discriminator 1 view .LVU882
	movs	r3, #0
	strb	r3, [r4, #68]
	b	.L200
.L219:
	.loc 1 1504 170 is_stmt 1 discriminator 4 view .LVU883
	.loc 1 1504 191 is_stmt 0 discriminator 4 view .LVU884
	movs	r3, #0
	strb	r3, [r4, #69]
	b	.L201
.L220:
	.loc 1 1521 7 is_stmt 1 view .LVU885
	bl	vPortEnterCritical
.LVL289:
	.loc 1 1523 8 view .LVU886
	.loc 1 1523 31 is_stmt 0 view .LVU887
	ldr	r0, [r4, #4]
	bl	xTaskPriorityInherit
.LVL290:
	mov	r7, r0
.LVL291:
	.loc 1 1525 7 is_stmt 1 view .LVU888
	bl	vPortExitCritical
.LVL292:
	.loc 1 1525 7 is_stmt 0 view .LVU889
	b	.L204
.L203:
	.loc 1 1549 5 is_stmt 1 view .LVU890
	mov	r0, r4
	bl	prvUnlockQueue
.LVL293:
	.loc 1 1550 5 view .LVU891
	.loc 1 1550 14 is_stmt 0 view .LVU892
	bl	xTaskResumeAll
.LVL294:
	b	.L192
.L202:
	.loc 1 1556 4 is_stmt 1 view .LVU893
	mov	r0, r4
	bl	prvUnlockQueue
.LVL295:
	.loc 1 1557 4 view .LVU894
	.loc 1 1557 13 is_stmt 0 view .LVU895
	bl	xTaskResumeAll
.LVL296:
	.loc 1 1563 4 is_stmt 1 view .LVU896
	.loc 1 1563 8 is_stmt 0 view .LVU897
	mov	r0, r4
	bl	prvIsQueueEmpty
.LVL297:
	.loc 1 1563 6 view .LVU898
	cmp	r0, #0
	bne	.L214
.LVL298:
.L192:
	.loc 1 1402 230 is_stmt 1 discriminator 7 view .LVU899
	.loc 1 1411 2 discriminator 7 view .LVU900
	.loc 1 1413 3 discriminator 7 view .LVU901
	bl	vPortEnterCritical
.LVL299:
.LBB194:
	.loc 1 1417 4 discriminator 7 view .LVU902
	.loc 1 1417 22 is_stmt 0 discriminator 7 view .LVU903
	ldr	r5, [r4, #56]
.LVL300:
	.loc 1 1421 4 is_stmt 1 discriminator 7 view .LVU904
	.loc 1 1421 6 is_stmt 0 discriminator 7 view .LVU905
	cmp	r5, #0
	bne	.L215
	.loc 1 1467 5 is_stmt 1 view .LVU906
	.loc 1 1467 22 is_stmt 0 view .LVU907
	ldr	r3, [sp, #12]
	.loc 1 1467 7 view .LVU908
	cmp	r3, #0
	beq	.L216
	.loc 1 1484 10 is_stmt 1 view .LVU909
	.loc 1 1484 12 is_stmt 0 view .LVU910
	cmp	r6, #0
	beq	.L217
.LVL301:
.L199:
	.loc 1 1494 6 is_stmt 1 view .LVU911
.LBE194:
	.loc 1 1498 3 view .LVU912
	bl	vPortExitCritical
.LVL302:
	.loc 1 1503 3 view .LVU913
	bl	vTaskSuspendAll
.LVL303:
	.loc 1 1504 3 view .LVU914
	bl	vPortEnterCritical
.LVL304:
	.loc 1 1504 27 view .LVU915
	.loc 1 1504 42 is_stmt 0 view .LVU916
	ldrb	r3, [r4, #68]	@ zero_extendqisi2
	sxtb	r3, r3
	.loc 1 1504 29 view .LVU917
	cmp	r3, #-1
	beq	.L218
.L200:
	.loc 1 1504 120 is_stmt 1 discriminator 3 view .LVU918
	.loc 1 1504 135 is_stmt 0 discriminator 3 view .LVU919
	ldrb	r3, [r4, #69]	@ zero_extendqisi2
	sxtb	r3, r3
	.loc 1 1504 122 discriminator 3 view .LVU920
	cmp	r3, #-1
	beq	.L219
.L201:
	.loc 1 1504 215 is_stmt 1 discriminator 6 view .LVU921
	bl	vPortExitCritical
.LVL305:
	.loc 1 1507 3 discriminator 6 view .LVU922
	.loc 1 1507 7 is_stmt 0 discriminator 6 view .LVU923
	add	r1, sp, #12
	add	r0, sp, #16
	bl	xTaskCheckForTimeOut
.LVL306:
	.loc 1 1507 5 discriminator 6 view .LVU924
	cmp	r0, #0
	bne	.L202
	.loc 1 1513 4 is_stmt 1 view .LVU925
	.loc 1 1513 8 is_stmt 0 view .LVU926
	mov	r0, r4
	bl	prvIsQueueEmpty
.LVL307:
	.loc 1 1513 6 view .LVU927
	cmp	r0, #0
	beq	.L203
	.loc 1 1515 5 is_stmt 1 view .LVU928
	.loc 1 1519 6 view .LVU929
	.loc 1 1519 17 is_stmt 0 view .LVU930
	ldr	r3, [r4]
	.loc 1 1519 8 view .LVU931
	cmp	r3, #0
	beq	.L220
.L204:
	.loc 1 1529 7 is_stmt 1 view .LVU932
	.loc 1 1534 5 view .LVU933
	ldr	r1, [sp, #12]
	add	r0, r4, #36
	bl	vTaskPlaceOnEventList
.LVL308:
	.loc 1 1535 5 view .LVU934
	mov	r0, r4
	bl	prvUnlockQueue
.LVL309:
	.loc 1 1536 5 view .LVU935
	.loc 1 1536 9 is_stmt 0 view .LVU936
	bl	xTaskResumeAll
.LVL310:
	.loc 1 1536 7 view .LVU937
	cmp	r0, #0
	bne	.L192
	.loc 1 1538 6 is_stmt 1 view .LVU938
	.loc 1 1538 11 view .LVU939
	.loc 1 1538 61 is_stmt 0 view .LVU940
	ldr	r3, .L222+4
	mov	r2, #268435456
	str	r2, [r3, #4]
	.loc 1 1538 77 is_stmt 1 view .LVU941
.LBB195:
.LBI195:
	.loc 2 404 51 view .LVU942
.LBB196:
	.loc 2 406 3 view .LVU943
	.syntax unified
@ 406 "../../../../../../components/toolchain/cmsis/include/cmsis_gcc.h" 1
	sev
@ 0 "" 2
	.thumb
	.syntax unified
.LBE196:
.LBE195:
	.loc 1 1538 86 view .LVU944
.LBB197:
.LBI197:
	.loc 2 427 51 view .LVU945
.LBB198:
	.loc 2 429 3 view .LVU946
	.syntax unified
@ 429 "../../../../../../components/toolchain/cmsis/include/cmsis_gcc.h" 1
	dsb 0xF
@ 0 "" 2
	.thumb
	.syntax unified
.LBE198:
.LBE197:
	.loc 1 1538 95 view .LVU947
.LBB199:
.LBI199:
	.loc 2 416 51 view .LVU948
.LBB200:
	.loc 2 418 3 view .LVU949
	.syntax unified
@ 418 "../../../../../../components/toolchain/cmsis/include/cmsis_gcc.h" 1
	isb 0xF
@ 0 "" 2
	.loc 2 419 1 is_stmt 0 view .LVU950
	.thumb
	.syntax unified
	b	.L192
.L214:
	.loc 2 419 1 view .LVU951
.LBE200:
.LBE199:
	.loc 1 1570 6 is_stmt 1 view .LVU952
	.loc 1 1570 8 is_stmt 0 view .LVU953
	cbnz	r7, .L221
.L206:
	.loc 1 1589 5 is_stmt 1 view .LVU954
	mov	r0, r4
	bl	SEGGER_SYSVIEW_ShrinkId
.LVL311:
	mov	r4, r0
.LVL312:
	.loc 1 1589 5 is_stmt 0 view .LVU955
	movs	r0, #0
	bl	SEGGER_SYSVIEW_ShrinkId
.LVL313:
	mov	r2, r0
	movs	r3, #1
	str	r3, [sp]
	ldr	r3, [sp, #12]
	mov	r1, r4
	movs	r0, #92
	bl	SEGGER_SYSVIEW_RecordU32x4
.LVL314:
	.loc 1 1590 5 is_stmt 1 view .LVU956
	.loc 1 1590 12 is_stmt 0 view .LVU957
	movs	r0, #0
	b	.L188
.LVL315:
.L221:
	.loc 1 1572 7 is_stmt 1 view .LVU958
	bl	vPortEnterCritical
.LVL316:
.LBB201:
	.loc 1 1574 8 view .LVU959
	.loc 1 1581 8 view .LVU960
	.loc 1 1581 35 is_stmt 0 view .LVU961
	mov	r0, r4
	bl	prvGetDisinheritPriorityAfterTimeout
.LVL317:
	mov	r1, r0
.LVL318:
	.loc 1 1582 8 is_stmt 1 view .LVU962
	ldr	r0, [r4, #4]
.LVL319:
	.loc 1 1582 8 is_stmt 0 view .LVU963
	bl	vTaskPriorityDisinheritAfterTimeout
.LVL320:
	.loc 1 1582 8 view .LVU964
.LBE201:
	.loc 1 1584 7 is_stmt 1 view .LVU965
	bl	vPortExitCritical
.LVL321:
	b	.L206
.L223:
	.align	2
.L222:
	.word	.LC0
	.word	-536810240
.LFE212:
	.size	xQueueSemaphoreTake, .-xQueueSemaphoreTake
	.section	.text.xQueueTakeMutexRecursive,"ax",%progbits
	.align	1
	.global	xQueueTakeMutexRecursive
	.syntax unified
	.thumb
	.thumb_func
	.fpu fpv4-sp-d16
	.type	xQueueTakeMutexRecursive, %function
xQueueTakeMutexRecursive:
.LVL322:
.LFB206:
	.loc 1 631 2 view -0
	@ args = 0, pretend = 0, frame = 0
	@ frame_needed = 0, uses_anonymous_args = 0
	.loc 1 631 2 is_stmt 0 view .LVU967
	push	{r4, r5, r6, lr}
.LCFI31:
	mov	r5, r1
	.loc 1 632 2 is_stmt 1 view .LVU968
	.loc 1 633 2 view .LVU969
.LVL323:
	.loc 1 635 3 view .LVU970
	.loc 1 635 12 view .LVU971
	.loc 1 635 15 is_stmt 0 view .LVU972
	mov	r4, r0
	cbz	r0, .L229
.LVL324:
.L225:
	.loc 1 635 154 is_stmt 1 discriminator 5 view .LVU973
	.loc 1 640 3 discriminator 5 view .LVU974
	.loc 1 642 3 discriminator 5 view .LVU975
	.loc 1 642 14 is_stmt 0 discriminator 5 view .LVU976
	ldr	r6, [r4, #4]
	.loc 1 642 37 discriminator 5 view .LVU977
	bl	xTaskGetCurrentTaskHandle
.LVL325:
	.loc 1 642 5 discriminator 5 view .LVU978
	cmp	r6, r0
	beq	.L230
	.loc 1 649 4 is_stmt 1 view .LVU979
	.loc 1 649 14 is_stmt 0 view .LVU980
	mov	r1, r5
	mov	r0, r4
	bl	xQueueSemaphoreTake
.LVL326:
	.loc 1 654 4 is_stmt 1 view .LVU981
	.loc 1 654 6 is_stmt 0 view .LVU982
	cbz	r0, .L224
	.loc 1 656 5 is_stmt 1 view .LVU983
	.loc 1 656 17 is_stmt 0 view .LVU984
	ldr	r3, [r4, #12]
	.loc 1 656 40 view .LVU985
	adds	r3, r3, #1
	str	r3, [r4, #12]
	.loc 1 660 5 is_stmt 1 view .LVU986
	.loc 1 664 3 view .LVU987
	.loc 1 664 10 is_stmt 0 view .LVU988
	b	.L224
.LVL327:
.L229:
	.loc 1 635 36 is_stmt 1 discriminator 4 view .LVU989
	ldr	r1, .L231
.LVL328:
	.loc 1 635 36 is_stmt 0 discriminator 4 view .LVU990
	movw	r0, #635
.LVL329:
	.loc 1 635 36 discriminator 4 view .LVU991
	bl	assert_nrf_callback
.LVL330:
	b	.L225
.L230:
	.loc 1 644 4 is_stmt 1 view .LVU992
	.loc 1 644 16 is_stmt 0 view .LVU993
	ldr	r3, [r4, #12]
	.loc 1 644 39 view .LVU994
	adds	r3, r3, #1
	str	r3, [r4, #12]
	.loc 1 645 4 is_stmt 1 view .LVU995
.LVL331:
	.loc 1 645 12 is_stmt 0 view .LVU996
	movs	r0, #1
.LVL332:
.L224:
	.loc 1 665 2 view .LVU997
	pop	{r4, r5, r6, pc}
.LVL333:
.L232:
	.loc 1 665 2 view .LVU998
	.align	2
.L231:
	.word	.LC0
.LFE206:
	.size	xQueueTakeMutexRecursive, .-xQueueTakeMutexRecursive
	.section	.text.xQueuePeek,"ax",%progbits
	.align	1
	.global	xQueuePeek
	.syntax unified
	.thumb
	.thumb_func
	.fpu fpv4-sp-d16
	.type	xQueuePeek, %function
xQueuePeek:
.LVL334:
.LFB213:
	.loc 1 1602 1 is_stmt 1 view -0
	@ args = 0, pretend = 0, frame = 16
	@ frame_needed = 0, uses_anonymous_args = 0
	.loc 1 1602 1 is_stmt 0 view .LVU1000
	push	{r4, r5, r6, r7, lr}
.LCFI32:
	sub	sp, sp, #28
.LCFI33:
	mov	r6, r1
	str	r2, [sp, #12]
	.loc 1 1603 1 is_stmt 1 view .LVU1001
.LVL335:
	.loc 1 1604 1 view .LVU1002
	.loc 1 1605 1 view .LVU1003
	.loc 1 1606 1 view .LVU1004
	.loc 1 1609 2 view .LVU1005
	.loc 1 1609 11 view .LVU1006
	.loc 1 1609 14 is_stmt 0 view .LVU1007
	mov	r4, r0
	cbz	r0, .L249
.LVL336:
.L234:
	.loc 1 1609 158 is_stmt 1 discriminator 1 view .LVU1008
	.loc 1 1613 2 discriminator 1 view .LVU1009
	.loc 1 1613 11 discriminator 1 view .LVU1010
	.loc 1 1613 14 is_stmt 0 discriminator 1 view .LVU1011
	cbz	r6, .L250
.L235:
	.loc 1 1613 189 is_stmt 1 discriminator 1 view .LVU1012
	.loc 1 1618 3 discriminator 1 view .LVU1013
	.loc 1 1618 12 discriminator 1 view .LVU1014
	.loc 1 1618 21 is_stmt 0 discriminator 1 view .LVU1015
	bl	xTaskGetSchedulerState
.LVL337:
	.loc 1 1618 15 discriminator 1 view .LVU1016
	cbnz	r0, .L236
	.loc 1 1618 90 discriminator 4 view .LVU1017
	ldr	r3, [sp, #12]
	.loc 1 1618 16 discriminator 4 view .LVU1018
	cbnz	r3, .L251
.L236:
	.loc 1 1602 1 discriminator 7 view .LVU1019
	movs	r5, #0
	b	.L237
.LVL338:
.L249:
	.loc 1 1609 39 is_stmt 1 discriminator 4 view .LVU1020
	ldr	r1, .L259
.LVL339:
	.loc 1 1609 39 is_stmt 0 discriminator 4 view .LVU1021
	movw	r0, #1609
.LVL340:
	.loc 1 1609 39 discriminator 4 view .LVU1022
	bl	assert_nrf_callback
.LVL341:
	.loc 1 1609 39 discriminator 4 view .LVU1023
	b	.L234
.L250:
	.loc 1 1613 19 discriminator 4 view .LVU1024
	ldr	r3, [r4, #64]
	.loc 1 1613 15 discriminator 4 view .LVU1025
	cmp	r3, #0
	beq	.L235
	.loc 1 1613 70 is_stmt 1 discriminator 6 view .LVU1026
	ldr	r1, .L259
	movw	r0, #1613
	bl	assert_nrf_callback
.LVL342:
	b	.L235
.L251:
	.loc 1 1618 111 discriminator 6 view .LVU1027
	ldr	r1, .L259
	movw	r0, #1618
	bl	assert_nrf_callback
.LVL343:
	b	.L236
.LVL344:
.L254:
.LBB202:
	.loc 1 1640 5 view .LVU1028
	.loc 1 1640 28 is_stmt 0 view .LVU1029
	ldr	r7, [r4, #12]
.LVL345:
	.loc 1 1642 5 is_stmt 1 view .LVU1030
	mov	r1, r6
	mov	r0, r4
	bl	prvCopyDataFromQueue
.LVL346:
	.loc 1 1643 5 view .LVU1031
	mov	r0, r4
	bl	SEGGER_SYSVIEW_ShrinkId
.LVL347:
	mov	r5, r0
.LVL348:
	.loc 1 1643 5 is_stmt 0 view .LVU1032
	mov	r0, r6
	bl	SEGGER_SYSVIEW_ShrinkId
.LVL349:
	mov	r2, r0
	movs	r3, #1
	str	r3, [sp]
	ldr	r3, [sp, #12]
	mov	r1, r5
	movs	r0, #92
	bl	SEGGER_SYSVIEW_RecordU32x4
.LVL350:
	.loc 1 1646 5 is_stmt 1 view .LVU1033
	.loc 1 1646 27 is_stmt 0 view .LVU1034
	str	r7, [r4, #12]
	.loc 1 1650 5 is_stmt 1 view .LVU1035
	.loc 1 1650 68 is_stmt 0 view .LVU1036
	ldr	r3, [r4, #36]
	.loc 1 1650 7 view .LVU1037
	cbnz	r3, .L252
.L239:
	.loc 1 1664 6 is_stmt 1 view .LVU1038
	.loc 1 1667 5 view .LVU1039
	bl	vPortExitCritical
.LVL351:
	.loc 1 1668 5 view .LVU1040
	.loc 1 1668 12 is_stmt 0 view .LVU1041
	movs	r0, #1
.LVL352:
.L233:
	.loc 1 1668 12 view .LVU1042
.LBE202:
	.loc 1 1748 1 view .LVU1043
	add	sp, sp, #28
.LCFI34:
	@ sp needed
	pop	{r4, r5, r6, r7, pc}
.LVL353:
.L252:
.LCFI35:
.LBB209:
	.loc 1 1652 6 is_stmt 1 view .LVU1044
	.loc 1 1652 10 is_stmt 0 view .LVU1045
	add	r0, r4, #36
	bl	xTaskRemoveFromEventList
.LVL354:
	.loc 1 1652 8 view .LVU1046
	cmp	r0, #0
	beq	.L239
	.loc 1 1655 7 is_stmt 1 view .LVU1047
	.loc 1 1655 12 view .LVU1048
	.loc 1 1655 62 is_stmt 0 view .LVU1049
	ldr	r3, .L259+4
	mov	r2, #268435456
	str	r2, [r3, #4]
	.loc 1 1655 78 is_stmt 1 view .LVU1050
.LBB203:
.LBI203:
	.loc 2 404 51 view .LVU1051
.LBB204:
	.loc 2 406 3 view .LVU1052
	.syntax unified
@ 406 "../../../../../../components/toolchain/cmsis/include/cmsis_gcc.h" 1
	sev
@ 0 "" 2
	.thumb
	.syntax unified
.LBE204:
.LBE203:
	.loc 1 1655 87 view .LVU1053
.LBB205:
.LBI205:
	.loc 2 427 51 view .LVU1054
.LBB206:
	.loc 2 429 3 view .LVU1055
	.syntax unified
@ 429 "../../../../../../components/toolchain/cmsis/include/cmsis_gcc.h" 1
	dsb 0xF
@ 0 "" 2
	.thumb
	.syntax unified
.LBE206:
.LBE205:
	.loc 1 1655 96 view .LVU1056
.LBB207:
.LBI207:
	.loc 2 416 51 view .LVU1057
.LBB208:
	.loc 2 418 3 view .LVU1058
	.syntax unified
@ 418 "../../../../../../components/toolchain/cmsis/include/cmsis_gcc.h" 1
	isb 0xF
@ 0 "" 2
	.loc 2 419 1 is_stmt 0 view .LVU1059
	.thumb
	.syntax unified
	b	.L239
.LVL355:
.L255:
	.loc 2 419 1 view .LVU1060
.LBE208:
.LBE207:
	.loc 1 1676 6 is_stmt 1 view .LVU1061
	bl	vPortExitCritical
.LVL356:
	.loc 1 1677 6 view .LVU1062
	.loc 1 1678 6 view .LVU1063
	.loc 1 1678 13 is_stmt 0 view .LVU1064
	movs	r0, #0
	b	.L233
.L256:
	.loc 1 1685 6 is_stmt 1 view .LVU1065
	add	r0, sp, #16
	bl	vTaskInternalSetTimeOutState
.LVL357:
	.loc 1 1686 6 view .LVU1066
	.loc 1 1686 20 is_stmt 0 view .LVU1067
	movs	r5, #1
	b	.L242
.LVL358:
.L257:
	.loc 1 1686 20 view .LVU1068
.LBE209:
	.loc 1 1701 77 is_stmt 1 discriminator 1 view .LVU1069
	.loc 1 1701 98 is_stmt 0 discriminator 1 view .LVU1070
	movs	r3, #0
	strb	r3, [r4, #68]
	b	.L243
.L258:
	.loc 1 1701 170 is_stmt 1 discriminator 4 view .LVU1071
	.loc 1 1701 191 is_stmt 0 discriminator 4 view .LVU1072
	movs	r3, #0
	strb	r3, [r4, #69]
	b	.L244
.L246:
	.loc 1 1726 5 is_stmt 1 view .LVU1073
	mov	r0, r4
	bl	prvUnlockQueue
.LVL359:
	.loc 1 1727 5 view .LVU1074
	.loc 1 1727 14 is_stmt 0 view .LVU1075
	bl	xTaskResumeAll
.LVL360:
	b	.L237
.L245:
	.loc 1 1734 4 is_stmt 1 view .LVU1076
	mov	r0, r4
	bl	prvUnlockQueue
.LVL361:
	.loc 1 1735 4 view .LVU1077
	.loc 1 1735 13 is_stmt 0 view .LVU1078
	bl	xTaskResumeAll
.LVL362:
	.loc 1 1737 4 is_stmt 1 view .LVU1079
	.loc 1 1737 8 is_stmt 0 view .LVU1080
	mov	r0, r4
	bl	prvIsQueueEmpty
.LVL363:
	.loc 1 1737 6 view .LVU1081
	cmp	r0, #0
	bne	.L253
.LVL364:
.L237:
	.loc 1 1618 230 is_stmt 1 discriminator 7 view .LVU1082
	.loc 1 1627 2 discriminator 7 view .LVU1083
	.loc 1 1629 3 discriminator 7 view .LVU1084
	bl	vPortEnterCritical
.LVL365:
.LBB210:
	.loc 1 1631 4 discriminator 7 view .LVU1085
	.loc 1 1631 22 is_stmt 0 discriminator 7 view .LVU1086
	ldr	r3, [r4, #56]
.LVL366:
	.loc 1 1635 4 is_stmt 1 discriminator 7 view .LVU1087
	.loc 1 1635 6 is_stmt 0 discriminator 7 view .LVU1088
	cmp	r3, #0
	bne	.L254
	.loc 1 1672 5 is_stmt 1 view .LVU1089
	.loc 1 1672 22 is_stmt 0 view .LVU1090
	ldr	r3, [sp, #12]
.LVL367:
	.loc 1 1672 7 view .LVU1091
	cmp	r3, #0
	beq	.L255
	.loc 1 1680 10 is_stmt 1 view .LVU1092
	.loc 1 1680 12 is_stmt 0 view .LVU1093
	cmp	r5, #0
	beq	.L256
.LVL368:
.L242:
	.loc 1 1691 6 is_stmt 1 view .LVU1094
.LBE210:
	.loc 1 1695 3 view .LVU1095
	bl	vPortExitCritical
.LVL369:
	.loc 1 1700 3 view .LVU1096
	bl	vTaskSuspendAll
.LVL370:
	.loc 1 1701 3 view .LVU1097
	bl	vPortEnterCritical
.LVL371:
	.loc 1 1701 27 view .LVU1098
	.loc 1 1701 42 is_stmt 0 view .LVU1099
	ldrb	r3, [r4, #68]	@ zero_extendqisi2
	sxtb	r3, r3
	.loc 1 1701 29 view .LVU1100
	cmp	r3, #-1
	beq	.L257
.L243:
	.loc 1 1701 120 is_stmt 1 discriminator 3 view .LVU1101
	.loc 1 1701 135 is_stmt 0 discriminator 3 view .LVU1102
	ldrb	r3, [r4, #69]	@ zero_extendqisi2
	sxtb	r3, r3
	.loc 1 1701 122 discriminator 3 view .LVU1103
	cmp	r3, #-1
	beq	.L258
.L244:
	.loc 1 1701 215 is_stmt 1 discriminator 6 view .LVU1104
	bl	vPortExitCritical
.LVL372:
	.loc 1 1704 3 discriminator 6 view .LVU1105
	.loc 1 1704 7 is_stmt 0 discriminator 6 view .LVU1106
	add	r1, sp, #12
	add	r0, sp, #16
	bl	xTaskCheckForTimeOut
.LVL373:
	.loc 1 1704 5 discriminator 6 view .LVU1107
	cmp	r0, #0
	bne	.L245
	.loc 1 1708 4 is_stmt 1 view .LVU1108
	.loc 1 1708 8 is_stmt 0 view .LVU1109
	mov	r0, r4
	bl	prvIsQueueEmpty
.LVL374:
	.loc 1 1708 6 view .LVU1110
	cmp	r0, #0
	beq	.L246
	.loc 1 1710 5 is_stmt 1 view .LVU1111
	.loc 1 1711 5 view .LVU1112
	ldr	r1, [sp, #12]
	add	r0, r4, #36
	bl	vTaskPlaceOnEventList
.LVL375:
	.loc 1 1712 5 view .LVU1113
	mov	r0, r4
	bl	prvUnlockQueue
.LVL376:
	.loc 1 1713 5 view .LVU1114
	.loc 1 1713 9 is_stmt 0 view .LVU1115
	bl	xTaskResumeAll
.LVL377:
	.loc 1 1713 7 view .LVU1116
	cmp	r0, #0
	bne	.L237
	.loc 1 1715 6 is_stmt 1 view .LVU1117
	.loc 1 1715 11 view .LVU1118
	.loc 1 1715 61 is_stmt 0 view .LVU1119
	ldr	r3, .L259+4
	mov	r2, #268435456
	str	r2, [r3, #4]
	.loc 1 1715 77 is_stmt 1 view .LVU1120
.LBB211:
.LBI211:
	.loc 2 404 51 view .LVU1121
.LBB212:
	.loc 2 406 3 view .LVU1122
	.syntax unified
@ 406 "../../../../../../components/toolchain/cmsis/include/cmsis_gcc.h" 1
	sev
@ 0 "" 2
	.thumb
	.syntax unified
.LBE212:
.LBE211:
	.loc 1 1715 86 view .LVU1123
.LBB213:
.LBI213:
	.loc 2 427 51 view .LVU1124
.LBB214:
	.loc 2 429 3 view .LVU1125
	.syntax unified
@ 429 "../../../../../../components/toolchain/cmsis/include/cmsis_gcc.h" 1
	dsb 0xF
@ 0 "" 2
	.thumb
	.syntax unified
.LBE214:
.LBE213:
	.loc 1 1715 95 view .LVU1126
.LBB215:
.LBI215:
	.loc 2 416 51 view .LVU1127
.LBB216:
	.loc 2 418 3 view .LVU1128
	.syntax unified
@ 418 "../../../../../../components/toolchain/cmsis/include/cmsis_gcc.h" 1
	isb 0xF
@ 0 "" 2
	.loc 2 419 1 is_stmt 0 view .LVU1129
	.thumb
	.syntax unified
	b	.L237
.L253:
	.loc 2 419 1 view .LVU1130
.LBE216:
.LBE215:
	.loc 1 1740 12 view .LVU1131
	movs	r0, #0
	b	.L233
.L260:
	.align	2
.L259:
	.word	.LC0
	.word	-536810240
.LFE213:
	.size	xQueuePeek, .-xQueuePeek
	.section	.text.xQueueReceiveFromISR,"ax",%progbits
	.align	1
	.global	xQueueReceiveFromISR
	.syntax unified
	.thumb
	.thumb_func
	.fpu fpv4-sp-d16
	.type	xQueueReceiveFromISR, %function
xQueueReceiveFromISR:
.LVL378:
.LFB214:
	.loc 1 1752 1 is_stmt 1 view -0
	@ args = 0, pretend = 0, frame = 0
	@ frame_needed = 0, uses_anonymous_args = 0
	.loc 1 1752 1 is_stmt 0 view .LVU1133
	push	{r4, r5, r6, r7, r8, r9, r10, lr}
.LCFI36:
	mov	r4, r1
	mov	r6, r2
	.loc 1 1753 1 is_stmt 1 view .LVU1134
	.loc 1 1754 1 view .LVU1135
	.loc 1 1755 1 view .LVU1136
.LVL379:
	.loc 1 1757 2 view .LVU1137
	.loc 1 1757 11 view .LVU1138
	.loc 1 1757 14 is_stmt 0 view .LVU1139
	mov	r5, r0
	cbz	r0, .L271
.LVL380:
.L262:
	.loc 1 1757 154 is_stmt 1 discriminator 1 view .LVU1140
	.loc 1 1758 2 discriminator 1 view .LVU1141
	.loc 1 1758 11 discriminator 1 view .LVU1142
	.loc 1 1758 14 is_stmt 0 discriminator 1 view .LVU1143
	cbz	r4, .L272
.L263:
	.loc 1 1758 185 is_stmt 1 discriminator 7 view .LVU1144
	.loc 1 1774 2 discriminator 7 view .LVU1145
	bl	vPortValidateInterruptPriority
.LVL381:
	.loc 1 1776 2 discriminator 7 view .LVU1146
.LBB217:
.LBI217:
	.loc 3 172 24 discriminator 7 view .LVU1147
.LBB218:
	.loc 3 174 5 discriminator 7 view .LVU1148
.LBB219:
.LBI219:
	.loc 2 248 59 discriminator 7 view .LVU1149
.LBB220:
	.loc 2 250 3 discriminator 7 view .LVU1150
	.loc 2 252 3 discriminator 7 view .LVU1151
	.syntax unified
@ 252 "../../../../../../components/toolchain/cmsis/include/cmsis_gcc.h" 1
	MRS r9, basepri
@ 0 "" 2
.LVL382:
	.loc 2 253 3 discriminator 7 view .LVU1152
	.loc 2 253 3 is_stmt 0 discriminator 7 view .LVU1153
	.thumb
	.syntax unified
.LBE220:
.LBE219:
	.loc 3 175 5 is_stmt 1 discriminator 7 view .LVU1154
.LBB221:
.LBI221:
	.loc 2 262 55 discriminator 7 view .LVU1155
.LBB222:
	.loc 2 264 3 discriminator 7 view .LVU1156
	movs	r3, #64
	.syntax unified
@ 264 "../../../../../../components/toolchain/cmsis/include/cmsis_gcc.h" 1
	MSR basepri, r3
@ 0 "" 2
.LVL383:
	.loc 2 264 3 is_stmt 0 discriminator 7 view .LVU1157
	.thumb
	.syntax unified
.LBE222:
.LBE221:
	.loc 3 176 5 is_stmt 1 discriminator 7 view .LVU1158
	.loc 3 176 5 is_stmt 0 discriminator 7 view .LVU1159
.LBE218:
.LBE217:
.LBB223:
	.loc 1 1778 3 is_stmt 1 discriminator 7 view .LVU1160
	.loc 1 1778 21 is_stmt 0 discriminator 7 view .LVU1161
	ldr	r8, [r5, #56]
.LVL384:
	.loc 1 1781 3 is_stmt 1 discriminator 7 view .LVU1162
	.loc 1 1781 5 is_stmt 0 discriminator 7 view .LVU1163
	cmp	r8, #0
	beq	.L264
.LBB224:
	.loc 1 1783 4 is_stmt 1 view .LVU1164
	.loc 1 1783 17 is_stmt 0 view .LVU1165
	ldrb	r7, [r5, #68]	@ zero_extendqisi2
	sxtb	r7, r7
.LVL385:
	.loc 1 1785 4 is_stmt 1 view .LVU1166
	mov	r0, r5
	bl	SEGGER_SYSVIEW_ShrinkId
.LVL386:
	mov	r10, r0
	mov	r0, r4
	bl	SEGGER_SYSVIEW_ShrinkId
.LVL387:
	mov	r2, r0
	mov	r3, r6
	mov	r1, r10
	movs	r0, #98
	bl	SEGGER_SYSVIEW_RecordU32x3
.LVL388:
	.loc 1 1787 4 view .LVU1167
	mov	r1, r4
	mov	r0, r5
	bl	prvCopyDataFromQueue
.LVL389:
	.loc 1 1788 4 view .LVU1168
	.loc 1 1788 51 is_stmt 0 view .LVU1169
	add	r3, r8, #-1
	.loc 1 1788 31 view .LVU1170
	str	r3, [r5, #56]
	.loc 1 1794 4 is_stmt 1 view .LVU1171
	.loc 1 1794 6 is_stmt 0 view .LVU1172
	cmp	r7, #-1
	beq	.L273
	.loc 1 1825 5 is_stmt 1 view .LVU1173
	.loc 1 1825 45 is_stmt 0 view .LVU1174
	adds	r7, r7, #1
.LVL390:
	.loc 1 1825 24 view .LVU1175
	sxtb	r7, r7
.LVL391:
	.loc 1 1825 22 view .LVU1176
	strb	r7, [r5, #68]
	.loc 1 1828 12 view .LVU1177
	movs	r0, #1
	b	.L266
.LVL392:
.L271:
	.loc 1 1828 12 view .LVU1178
.LBE224:
.LBE223:
	.loc 1 1757 35 is_stmt 1 discriminator 4 view .LVU1179
	ldr	r1, .L275
.LVL393:
	.loc 1 1757 35 is_stmt 0 discriminator 4 view .LVU1180
	movw	r0, #1757
.LVL394:
	.loc 1 1757 35 discriminator 4 view .LVU1181
	bl	assert_nrf_callback
.LVL395:
	.loc 1 1757 35 discriminator 4 view .LVU1182
	b	.L262
.L272:
	.loc 1 1758 15 discriminator 4 view .LVU1183
	ldr	r3, [r5, #64]
	.loc 1 1758 15 discriminator 4 view .LVU1184
	cmp	r3, #0
	beq	.L263
	.loc 1 1758 66 is_stmt 1 discriminator 6 view .LVU1185
	ldr	r1, .L275
	movw	r0, #1758
	bl	assert_nrf_callback
.LVL396:
	b	.L263
.LVL397:
.L273:
.LBB227:
.LBB225:
	.loc 1 1796 5 view .LVU1186
	.loc 1 1796 65 is_stmt 0 view .LVU1187
	ldr	r3, [r5, #16]
	.loc 1 1796 7 view .LVU1188
	cbnz	r3, .L274
	.loc 1 1828 12 view .LVU1189
	movs	r0, #1
	b	.L266
.L274:
	.loc 1 1798 6 is_stmt 1 view .LVU1190
	.loc 1 1798 10 is_stmt 0 view .LVU1191
	add	r0, r5, #16
	bl	xTaskRemoveFromEventList
.LVL398:
	.loc 1 1798 8 view .LVU1192
	cbz	r0, .L268
	.loc 1 1802 7 is_stmt 1 view .LVU1193
	.loc 1 1802 9 is_stmt 0 view .LVU1194
	cbz	r6, .L269
	.loc 1 1804 8 is_stmt 1 view .LVU1195
	.loc 1 1804 35 is_stmt 0 view .LVU1196
	movs	r0, #1
	str	r0, [r6]
	b	.L266
.LVL399:
.L264:
	.loc 1 1804 35 view .LVU1197
.LBE225:
	.loc 1 1832 4 is_stmt 1 view .LVU1198
	.loc 1 1833 4 view .LVU1199
	mov	r0, r5
	bl	SEGGER_SYSVIEW_ShrinkId
.LVL400:
	mov	r5, r0
.LVL401:
	.loc 1 1833 4 is_stmt 0 view .LVU1200
	mov	r0, r4
	bl	SEGGER_SYSVIEW_ShrinkId
.LVL402:
	mov	r2, r0
	mov	r3, r6
	mov	r1, r5
	movs	r0, #98
	bl	SEGGER_SYSVIEW_RecordU32x3
.LVL403:
	.loc 1 1832 12 view .LVU1201
	movs	r0, #0
.LVL404:
.L266:
	.loc 1 1832 12 view .LVU1202
.LBE227:
	.loc 1 1836 2 is_stmt 1 view .LVU1203
.LBB228:
.LBI228:
	.loc 2 262 55 view .LVU1204
.LBB229:
	.loc 2 264 3 view .LVU1205
	.syntax unified
@ 264 "../../../../../../components/toolchain/cmsis/include/cmsis_gcc.h" 1
	MSR basepri, r9
@ 0 "" 2
.LVL405:
	.loc 2 264 3 is_stmt 0 view .LVU1206
	.thumb
	.syntax unified
.LBE229:
.LBE228:
	.loc 1 1838 2 is_stmt 1 view .LVU1207
	.loc 1 1839 1 is_stmt 0 view .LVU1208
	pop	{r4, r5, r6, r7, r8, r9, r10, pc}
.LVL406:
.L268:
.LBB230:
.LBB226:
	.loc 1 1828 12 view .LVU1209
	movs	r0, #1
	b	.L266
.L269:
	movs	r0, #1
	b	.L266
.L276:
	.align	2
.L275:
	.word	.LC0
.LBE226:
.LBE230:
.LFE214:
	.size	xQueueReceiveFromISR, .-xQueueReceiveFromISR
	.section	.text.xQueuePeekFromISR,"ax",%progbits
	.align	1
	.global	xQueuePeekFromISR
	.syntax unified
	.thumb
	.thumb_func
	.fpu fpv4-sp-d16
	.type	xQueuePeekFromISR, %function
xQueuePeekFromISR:
.LVL407:
.LFB215:
	.loc 1 1843 1 is_stmt 1 view -0
	@ args = 0, pretend = 0, frame = 0
	@ frame_needed = 0, uses_anonymous_args = 0
	.loc 1 1843 1 is_stmt 0 view .LVU1211
	push	{r3, r4, r5, r6, r7, lr}
.LCFI37:
	mov	r5, r1
	.loc 1 1844 1 is_stmt 1 view .LVU1212
	.loc 1 1845 1 view .LVU1213
	.loc 1 1846 1 view .LVU1214
	.loc 1 1847 1 view .LVU1215
.LVL408:
	.loc 1 1849 2 view .LVU1216
	.loc 1 1849 11 view .LVU1217
	.loc 1 1849 14 is_stmt 0 view .LVU1218
	mov	r4, r0
	cbz	r0, .L284
.LVL409:
.L278:
	.loc 1 1849 154 is_stmt 1 discriminator 1 view .LVU1219
	.loc 1 1850 2 discriminator 1 view .LVU1220
	.loc 1 1850 11 discriminator 1 view .LVU1221
	.loc 1 1850 14 is_stmt 0 discriminator 1 view .LVU1222
	cbz	r5, .L285
.L279:
	.loc 1 1850 185 is_stmt 1 discriminator 1 view .LVU1223
	.loc 1 1851 2 discriminator 1 view .LVU1224
	.loc 1 1851 11 discriminator 1 view .LVU1225
	.loc 1 1851 22 is_stmt 0 discriminator 1 view .LVU1226
	ldr	r3, [r4, #64]
	.loc 1 1851 14 discriminator 1 view .LVU1227
	cbz	r3, .L286
.L280:
	.loc 1 1851 171 is_stmt 1 discriminator 5 view .LVU1228
	.loc 1 1867 2 discriminator 5 view .LVU1229
	bl	vPortValidateInterruptPriority
.LVL410:
	.loc 1 1869 2 discriminator 5 view .LVU1230
.LBB231:
.LBI231:
	.loc 3 172 24 discriminator 5 view .LVU1231
.LBB232:
	.loc 3 174 5 discriminator 5 view .LVU1232
.LBB233:
.LBI233:
	.loc 2 248 59 discriminator 5 view .LVU1233
.LBB234:
	.loc 2 250 3 discriminator 5 view .LVU1234
	.loc 2 252 3 discriminator 5 view .LVU1235
	.syntax unified
@ 252 "../../../../../../components/toolchain/cmsis/include/cmsis_gcc.h" 1
	MRS r6, basepri
@ 0 "" 2
.LVL411:
	.loc 2 253 3 discriminator 5 view .LVU1236
	.loc 2 253 3 is_stmt 0 discriminator 5 view .LVU1237
	.thumb
	.syntax unified
.LBE234:
.LBE233:
	.loc 3 175 5 is_stmt 1 discriminator 5 view .LVU1238
.LBB235:
.LBI235:
	.loc 2 262 55 discriminator 5 view .LVU1239
.LBB236:
	.loc 2 264 3 discriminator 5 view .LVU1240
	movs	r3, #64
	.syntax unified
@ 264 "../../../../../../components/toolchain/cmsis/include/cmsis_gcc.h" 1
	MSR basepri, r3
@ 0 "" 2
.LVL412:
	.loc 2 264 3 is_stmt 0 discriminator 5 view .LVU1241
	.thumb
	.syntax unified
.LBE236:
.LBE235:
	.loc 3 176 5 is_stmt 1 discriminator 5 view .LVU1242
	.loc 3 176 5 is_stmt 0 discriminator 5 view .LVU1243
.LBE232:
.LBE231:
	.loc 1 1872 3 is_stmt 1 discriminator 5 view .LVU1244
	.loc 1 1872 14 is_stmt 0 discriminator 5 view .LVU1245
	ldr	r3, [r4, #56]
	.loc 1 1872 5 discriminator 5 view .LVU1246
	cbz	r3, .L281
	.loc 1 1874 4 is_stmt 1 view .LVU1247
	mov	r0, r4
	bl	SEGGER_SYSVIEW_ShrinkId
.LVL413:
	mov	r7, r0
	mov	r0, r5
	bl	SEGGER_SYSVIEW_ShrinkId
.LVL414:
	mov	r2, r0
	mov	r1, r7
	movs	r0, #91
	bl	SEGGER_SYSVIEW_RecordU32x2
.LVL415:
	.loc 1 1878 4 view .LVU1248
	.loc 1 1878 27 is_stmt 0 view .LVU1249
	ldr	r7, [r4, #12]
.LVL416:
	.loc 1 1879 4 is_stmt 1 view .LVU1250
	mov	r1, r5
	mov	r0, r4
	bl	prvCopyDataFromQueue
.LVL417:
	.loc 1 1880 4 view .LVU1251
	.loc 1 1880 26 is_stmt 0 view .LVU1252
	str	r7, [r4, #12]
	.loc 1 1882 4 is_stmt 1 view .LVU1253
.LVL418:
	.loc 1 1882 12 is_stmt 0 view .LVU1254
	movs	r0, #1
.LVL419:
.L282:
	.loc 1 1890 2 is_stmt 1 view .LVU1255
.LBB237:
.LBI237:
	.loc 2 262 55 view .LVU1256
.LBB238:
	.loc 2 264 3 view .LVU1257
	.syntax unified
@ 264 "../../../../../../components/toolchain/cmsis/include/cmsis_gcc.h" 1
	MSR basepri, r6
@ 0 "" 2
.LVL420:
	.loc 2 264 3 is_stmt 0 view .LVU1258
	.thumb
	.syntax unified
.LBE238:
.LBE237:
	.loc 1 1892 2 is_stmt 1 view .LVU1259
	.loc 1 1893 1 is_stmt 0 view .LVU1260
	pop	{r3, r4, r5, r6, r7, pc}
.LVL421:
.L284:
	.loc 1 1849 35 is_stmt 1 discriminator 4 view .LVU1261
	ldr	r1, .L287
.LVL422:
	.loc 1 1849 35 is_stmt 0 discriminator 4 view .LVU1262
	movw	r0, #1849
.LVL423:
	.loc 1 1849 35 discriminator 4 view .LVU1263
	bl	assert_nrf_callback
.LVL424:
	b	.L278
.L285:
	.loc 1 1850 15 discriminator 4 view .LVU1264
	ldr	r3, [r4, #64]
	.loc 1 1850 15 discriminator 4 view .LVU1265
	cmp	r3, #0
	beq	.L279
	.loc 1 1850 66 is_stmt 1 discriminator 6 view .LVU1266
	ldr	r1, .L287
	movw	r0, #1850
	bl	assert_nrf_callback
.LVL425:
	b	.L279
.L286:
	.loc 1 1851 52 discriminator 4 view .LVU1267
	ldr	r1, .L287
	movw	r0, #1851
	bl	assert_nrf_callback
.LVL426:
	b	.L280
.LVL427:
.L281:
	.loc 1 1886 4 view .LVU1268
	.loc 1 1887 4 view .LVU1269
	mov	r0, r4
	bl	SEGGER_SYSVIEW_ShrinkId
.LVL428:
	mov	r4, r0
.LVL429:
	.loc 1 1887 4 is_stmt 0 view .LVU1270
	mov	r0, r5
	bl	SEGGER_SYSVIEW_ShrinkId
.LVL430:
	mov	r2, r0
	mov	r1, r4
	movs	r0, #91
	bl	SEGGER_SYSVIEW_RecordU32x2
.LVL431:
	.loc 1 1886 12 view .LVU1271
	movs	r0, #0
	b	.L282
.L288:
	.align	2
.L287:
	.word	.LC0
.LFE215:
	.size	xQueuePeekFromISR, .-xQueuePeekFromISR
	.section	.text.uxQueueMessagesWaiting,"ax",%progbits
	.align	1
	.global	uxQueueMessagesWaiting
	.syntax unified
	.thumb
	.thumb_func
	.fpu fpv4-sp-d16
	.type	uxQueueMessagesWaiting, %function
uxQueueMessagesWaiting:
.LVL432:
.LFB216:
	.loc 1 1897 1 is_stmt 1 view -0
	@ args = 0, pretend = 0, frame = 0
	@ frame_needed = 0, uses_anonymous_args = 0
	.loc 1 1897 1 is_stmt 0 view .LVU1273
	push	{r4, lr}
.LCFI38:
	.loc 1 1898 1 is_stmt 1 view .LVU1274
	.loc 1 1900 2 view .LVU1275
	.loc 1 1900 11 view .LVU1276
	.loc 1 1900 14 is_stmt 0 view .LVU1277
	mov	r4, r0
	cbz	r0, .L292
.LVL433:
.L290:
	.loc 1 1900 153 is_stmt 1 discriminator 5 view .LVU1278
	.loc 1 1902 2 discriminator 5 view .LVU1279
	bl	vPortEnterCritical
.LVL434:
	.loc 1 1904 3 discriminator 5 view .LVU1280
	.loc 1 1904 12 is_stmt 0 discriminator 5 view .LVU1281
	ldr	r4, [r4, #56]
.LVL435:
	.loc 1 1906 2 is_stmt 1 discriminator 5 view .LVU1282
	bl	vPortExitCritical
.LVL436:
	.loc 1 1908 2 discriminator 5 view .LVU1283
	.loc 1 1909 1 is_stmt 0 discriminator 5 view .LVU1284
	mov	r0, r4
	pop	{r4, pc}
.LVL437:
.L292:
	.loc 1 1900 34 is_stmt 1 discriminator 4 view .LVU1285
	ldr	r1, .L293
	movw	r0, #1900
.LVL438:
	.loc 1 1900 34 is_stmt 0 discriminator 4 view .LVU1286
	bl	assert_nrf_callback
.LVL439:
	b	.L290
.L294:
	.align	2
.L293:
	.word	.LC0
.LFE216:
	.size	uxQueueMessagesWaiting, .-uxQueueMessagesWaiting
	.section	.text.uxQueueSpacesAvailable,"ax",%progbits
	.align	1
	.global	uxQueueSpacesAvailable
	.syntax unified
	.thumb
	.thumb_func
	.fpu fpv4-sp-d16
	.type	uxQueueSpacesAvailable, %function
uxQueueSpacesAvailable:
.LVL440:
.LFB217:
	.loc 1 1913 1 is_stmt 1 view -0
	@ args = 0, pretend = 0, frame = 0
	@ frame_needed = 0, uses_anonymous_args = 0
	.loc 1 1913 1 is_stmt 0 view .LVU1288
	push	{r3, r4, r5, lr}
.LCFI39:
	.loc 1 1914 1 is_stmt 1 view .LVU1289
	.loc 1 1915 1 view .LVU1290
	.loc 1 1917 2 view .LVU1291
.LVL441:
	.loc 1 1918 2 view .LVU1292
	.loc 1 1918 11 view .LVU1293
	.loc 1 1918 14 is_stmt 0 view .LVU1294
	mov	r5, r0
	cbz	r0, .L298
.LVL442:
.L296:
	.loc 1 1918 154 is_stmt 1 discriminator 5 view .LVU1295
	.loc 1 1920 2 discriminator 5 view .LVU1296
	bl	vPortEnterCritical
.LVL443:
	.loc 1 1922 3 discriminator 5 view .LVU1297
	.loc 1 1922 21 is_stmt 0 discriminator 5 view .LVU1298
	ldr	r4, [r5, #60]
	.loc 1 1922 41 discriminator 5 view .LVU1299
	ldr	r3, [r5, #56]
	.loc 1 1922 12 discriminator 5 view .LVU1300
	subs	r4, r4, r3
.LVL444:
	.loc 1 1924 2 is_stmt 1 discriminator 5 view .LVU1301
	bl	vPortExitCritical
.LVL445:
	.loc 1 1926 2 discriminator 5 view .LVU1302
	.loc 1 1927 1 is_stmt 0 discriminator 5 view .LVU1303
	mov	r0, r4
	pop	{r3, r4, r5, pc}
.LVL446:
.L298:
	.loc 1 1918 35 is_stmt 1 discriminator 4 view .LVU1304
	ldr	r1, .L299
	movw	r0, #1918
.LVL447:
	.loc 1 1918 35 is_stmt 0 discriminator 4 view .LVU1305
	bl	assert_nrf_callback
.LVL448:
	b	.L296
.L300:
	.align	2
.L299:
	.word	.LC0
.LFE217:
	.size	uxQueueSpacesAvailable, .-uxQueueSpacesAvailable
	.section	.text.uxQueueMessagesWaitingFromISR,"ax",%progbits
	.align	1
	.global	uxQueueMessagesWaitingFromISR
	.syntax unified
	.thumb
	.thumb_func
	.fpu fpv4-sp-d16
	.type	uxQueueMessagesWaitingFromISR, %function
uxQueueMessagesWaitingFromISR:
.LVL449:
.LFB218:
	.loc 1 1931 1 is_stmt 1 view -0
	@ args = 0, pretend = 0, frame = 0
	@ frame_needed = 0, uses_anonymous_args = 0
	.loc 1 1931 1 is_stmt 0 view .LVU1307
	push	{r4, lr}
.LCFI40:
	.loc 1 1932 1 is_stmt 1 view .LVU1308
	.loc 1 1934 2 view .LVU1309
	.loc 1 1934 11 view .LVU1310
	.loc 1 1934 14 is_stmt 0 view .LVU1311
	mov	r4, r0
	cbz	r0, .L304
.LVL450:
.L302:
	.loc 1 1934 153 is_stmt 1 discriminator 5 view .LVU1312
	.loc 1 1936 2 discriminator 5 view .LVU1313
	.loc 1 1936 11 is_stmt 0 discriminator 5 view .LVU1314
	ldr	r0, [r4, #56]
.LVL451:
	.loc 1 1938 2 is_stmt 1 discriminator 5 view .LVU1315
	.loc 1 1939 1 is_stmt 0 discriminator 5 view .LVU1316
	pop	{r4, pc}
.LVL452:
.L304:
	.loc 1 1934 34 is_stmt 1 discriminator 4 view .LVU1317
	ldr	r1, .L305
	movw	r0, #1934
.LVL453:
	.loc 1 1934 34 is_stmt 0 discriminator 4 view .LVU1318
	bl	assert_nrf_callback
.LVL454:
	b	.L302
.L306:
	.align	2
.L305:
	.word	.LC0
.LFE218:
	.size	uxQueueMessagesWaitingFromISR, .-uxQueueMessagesWaitingFromISR
	.section	.text.uxQueueGetQueueNumber,"ax",%progbits
	.align	1
	.global	uxQueueGetQueueNumber
	.syntax unified
	.thumb
	.thumb_func
	.fpu fpv4-sp-d16
	.type	uxQueueGetQueueNumber, %function
uxQueueGetQueueNumber:
.LVL455:
.LFB220:
	.loc 1 1987 2 is_stmt 1 view -0
	@ args = 0, pretend = 0, frame = 0
	@ frame_needed = 0, uses_anonymous_args = 0
	@ link register save eliminated.
	.loc 1 1988 3 view .LVU1320
	.loc 1 1989 2 is_stmt 0 view .LVU1321
	ldr	r0, [r0, #72]
.LVL456:
	.loc 1 1989 2 view .LVU1322
	bx	lr
.LFE220:
	.size	uxQueueGetQueueNumber, .-uxQueueGetQueueNumber
	.section	.text.vQueueSetQueueNumber,"ax",%progbits
	.align	1
	.global	vQueueSetQueueNumber
	.syntax unified
	.thumb
	.thumb_func
	.fpu fpv4-sp-d16
	.type	vQueueSetQueueNumber, %function
vQueueSetQueueNumber:
.LVL457:
.LFB221:
	.loc 1 1997 2 is_stmt 1 view -0
	@ args = 0, pretend = 0, frame = 0
	@ frame_needed = 0, uses_anonymous_args = 0
	@ link register save eliminated.
	.loc 1 1998 3 view .LVU1324
	.loc 1 1998 43 is_stmt 0 view .LVU1325
	str	r1, [r0, #72]
	.loc 1 1999 2 view .LVU1326
	bx	lr
.LFE221:
	.size	vQueueSetQueueNumber, .-vQueueSetQueueNumber
	.section	.text.ucQueueGetQueueType,"ax",%progbits
	.align	1
	.global	ucQueueGetQueueType
	.syntax unified
	.thumb
	.thumb_func
	.fpu fpv4-sp-d16
	.type	ucQueueGetQueueType, %function
ucQueueGetQueueType:
.LVL458:
.LFB222:
	.loc 1 2007 2 is_stmt 1 view -0
	@ args = 0, pretend = 0, frame = 0
	@ frame_needed = 0, uses_anonymous_args = 0
	@ link register save eliminated.
	.loc 1 2008 3 view .LVU1328
	.loc 1 2009 2 is_stmt 0 view .LVU1329
	ldrb	r0, [r0, #76]	@ zero_extendqisi2
.LVL459:
	.loc 1 2009 2 view .LVU1330
	bx	lr
.LFE222:
	.size	ucQueueGetQueueType, .-ucQueueGetQueueType
	.section	.text.xQueueIsQueueEmptyFromISR,"ax",%progbits
	.align	1
	.global	xQueueIsQueueEmptyFromISR
	.syntax unified
	.thumb
	.thumb_func
	.fpu fpv4-sp-d16
	.type	xQueueIsQueueEmptyFromISR, %function
xQueueIsQueueEmptyFromISR:
.LVL460:
.LFB228:
	.loc 1 2280 1 is_stmt 1 view -0
	@ args = 0, pretend = 0, frame = 0
	@ frame_needed = 0, uses_anonymous_args = 0
	.loc 1 2280 1 is_stmt 0 view .LVU1332
	push	{r4, lr}
.LCFI41:
	.loc 1 2281 1 is_stmt 1 view .LVU1333
	.loc 1 2283 2 view .LVU1334
	.loc 1 2283 11 view .LVU1335
	.loc 1 2283 14 is_stmt 0 view .LVU1336
	mov	r4, r0
	cbz	r0, .L315
.LVL461:
.L311:
	.loc 1 2283 153 is_stmt 1 discriminator 5 view .LVU1337
	.loc 1 2284 2 discriminator 5 view .LVU1338
	.loc 1 2284 30 is_stmt 0 discriminator 5 view .LVU1339
	ldr	r3, [r4, #56]
	.loc 1 2284 4 discriminator 5 view .LVU1340
	cbnz	r3, .L313
	.loc 1 2286 11 view .LVU1341
	movs	r0, #1
.L310:
	.loc 1 2294 1 view .LVU1342
	pop	{r4, pc}
.LVL462:
.L315:
	.loc 1 2283 34 is_stmt 1 discriminator 4 view .LVU1343
	ldr	r1, .L316
	movw	r0, #2283
.LVL463:
	.loc 1 2283 34 is_stmt 0 discriminator 4 view .LVU1344
	bl	assert_nrf_callback
.LVL464:
	b	.L311
.L313:
	.loc 1 2290 11 view .LVU1345
	movs	r0, #0
.LVL465:
	.loc 1 2293 2 is_stmt 1 view .LVU1346
	.loc 1 2293 9 is_stmt 0 view .LVU1347
	b	.L310
.L317:
	.align	2
.L316:
	.word	.LC0
.LFE228:
	.size	xQueueIsQueueEmptyFromISR, .-xQueueIsQueueEmptyFromISR
	.section	.text.xQueueIsQueueFullFromISR,"ax",%progbits
	.align	1
	.global	xQueueIsQueueFullFromISR
	.syntax unified
	.thumb
	.thumb_func
	.fpu fpv4-sp-d16
	.type	xQueueIsQueueFullFromISR, %function
xQueueIsQueueFullFromISR:
.LVL466:
.LFB230:
	.loc 1 2319 1 is_stmt 1 view -0
	@ args = 0, pretend = 0, frame = 0
	@ frame_needed = 0, uses_anonymous_args = 0
	.loc 1 2319 1 is_stmt 0 view .LVU1349
	push	{r4, lr}
.LCFI42:
	.loc 1 2320 1 is_stmt 1 view .LVU1350
	.loc 1 2322 2 view .LVU1351
	.loc 1 2322 11 view .LVU1352
	.loc 1 2322 14 is_stmt 0 view .LVU1353
	mov	r4, r0
	cbz	r0, .L323
.LVL467:
.L319:
	.loc 1 2322 153 is_stmt 1 discriminator 5 view .LVU1354
	.loc 1 2323 2 discriminator 5 view .LVU1355
	.loc 1 2323 30 is_stmt 0 discriminator 5 view .LVU1356
	ldr	r2, [r4, #56]
	.loc 1 2323 77 discriminator 5 view .LVU1357
	ldr	r3, [r4, #60]
	.loc 1 2323 4 discriminator 5 view .LVU1358
	cmp	r2, r3
	beq	.L324
	.loc 1 2329 11 view .LVU1359
	movs	r0, #0
.LVL468:
	.loc 1 2332 2 is_stmt 1 view .LVU1360
.L318:
	.loc 1 2333 1 is_stmt 0 view .LVU1361
	pop	{r4, pc}
.LVL469:
.L323:
	.loc 1 2322 34 is_stmt 1 discriminator 4 view .LVU1362
	ldr	r1, .L325
	movw	r0, #2322
.LVL470:
	.loc 1 2322 34 is_stmt 0 discriminator 4 view .LVU1363
	bl	assert_nrf_callback
.LVL471:
	b	.L319
.L324:
	.loc 1 2325 11 view .LVU1364
	movs	r0, #1
	b	.L318
.L326:
	.align	2
.L325:
	.word	.LC0
.LFE230:
	.size	xQueueIsQueueFullFromISR, .-xQueueIsQueueFullFromISR
	.section	.text.vQueueAddToRegistry,"ax",%progbits
	.align	1
	.global	vQueueAddToRegistry
	.syntax unified
	.thumb
	.thumb_func
	.fpu fpv4-sp-d16
	.type	vQueueAddToRegistry, %function
vQueueAddToRegistry:
.LVL472:
.LFB231:
	.loc 1 2614 2 is_stmt 1 view -0
	@ args = 0, pretend = 0, frame = 0
	@ frame_needed = 0, uses_anonymous_args = 0
	.loc 1 2614 2 is_stmt 0 view .LVU1366
	push	{r4, lr}
.LCFI43:
	mov	r4, r1
	.loc 1 2615 2 is_stmt 1 view .LVU1367
	.loc 1 2619 3 view .LVU1368
.LVL473:
	.loc 1 2619 11 is_stmt 0 view .LVU1369
	movs	r3, #0
.LVL474:
.L328:
	.loc 1 2619 33 is_stmt 1 discriminator 1 view .LVU1370
	.loc 1 2619 3 is_stmt 0 discriminator 1 view .LVU1371
	cmp	r3, #1
	bhi	.L327
	.loc 1 2621 4 is_stmt 1 view .LVU1372
	.loc 1 2621 28 is_stmt 0 view .LVU1373
	ldr	r2, .L334
	ldr	r2, [r2, r3, lsl #3]
	.loc 1 2621 6 view .LVU1374
	cbz	r2, .L333
	.loc 1 2632 5 is_stmt 1 discriminator 2 view .LVU1375
	.loc 1 2619 57 discriminator 2 view .LVU1376
	.loc 1 2619 59 is_stmt 0 discriminator 2 view .LVU1377
	adds	r3, r3, #1
.LVL475:
	.loc 1 2619 59 discriminator 2 view .LVU1378
	b	.L328
.L333:
	.loc 1 2624 5 is_stmt 1 view .LVU1379
	.loc 1 2624 38 is_stmt 0 view .LVU1380
	ldr	r2, .L334
	str	r4, [r2, r3, lsl #3]
	.loc 1 2625 5 is_stmt 1 view .LVU1381
	.loc 1 2625 34 is_stmt 0 view .LVU1382
	add	r3, r2, r3, lsl #3
.LVL476:
	.loc 1 2625 34 view .LVU1383
	str	r0, [r3, #4]
	.loc 1 2627 5 is_stmt 1 view .LVU1384
	bl	SEGGER_SYSVIEW_ShrinkId
.LVL477:
	.loc 1 2627 5 is_stmt 0 view .LVU1385
	mov	r1, r0
	mov	r2, r4
	movs	r0, #113
	bl	SEGGER_SYSVIEW_RecordU32x2
.LVL478:
	.loc 1 2628 5 is_stmt 1 view .LVU1386
.L327:
	.loc 1 2635 2 is_stmt 0 view .LVU1387
	pop	{r4, pc}
.LVL479:
.L335:
	.loc 1 2635 2 view .LVU1388
	.align	2
.L334:
	.word	.LANCHOR0
.LFE231:
	.size	vQueueAddToRegistry, .-vQueueAddToRegistry
	.section	.text.pcQueueGetName,"ax",%progbits
	.align	1
	.global	pcQueueGetName
	.syntax unified
	.thumb
	.thumb_func
	.fpu fpv4-sp-d16
	.type	pcQueueGetName, %function
pcQueueGetName:
.LVL480:
.LFB232:
	.loc 1 2643 2 is_stmt 1 view -0
	@ args = 0, pretend = 0, frame = 0
	@ frame_needed = 0, uses_anonymous_args = 0
	@ link register save eliminated.
	.loc 1 2644 2 view .LVU1390
	.loc 1 2645 2 view .LVU1391
	.loc 1 2649 3 view .LVU1392
	.loc 1 2649 11 is_stmt 0 view .LVU1393
	movs	r3, #0
.LVL481:
.L337:
	.loc 1 2649 33 is_stmt 1 discriminator 1 view .LVU1394
	.loc 1 2649 3 is_stmt 0 discriminator 1 view .LVU1395
	cmp	r3, #1
	bhi	.L341
	.loc 1 2651 4 is_stmt 1 view .LVU1396
	.loc 1 2651 28 is_stmt 0 view .LVU1397
	ldr	r2, .L343
	add	r2, r2, r3, lsl #3
	ldr	r2, [r2, #4]
	.loc 1 2651 6 view .LVU1398
	cmp	r2, r0
	beq	.L342
	.loc 1 2658 5 is_stmt 1 discriminator 2 view .LVU1399
	.loc 1 2649 57 discriminator 2 view .LVU1400
	.loc 1 2649 59 is_stmt 0 discriminator 2 view .LVU1401
	adds	r3, r3, #1
.LVL482:
	.loc 1 2649 59 discriminator 2 view .LVU1402
	b	.L337
.L342:
	.loc 1 2653 5 is_stmt 1 view .LVU1403
	.loc 1 2653 14 is_stmt 0 view .LVU1404
	ldr	r2, .L343
	ldr	r0, [r2, r3, lsl #3]
.LVL483:
	.loc 1 2654 5 is_stmt 1 view .LVU1405
	bx	lr
.LVL484:
.L341:
	.loc 1 2645 14 is_stmt 0 view .LVU1406
	movs	r0, #0
.LVL485:
	.loc 1 2662 3 is_stmt 1 view .LVU1407
	.loc 1 2663 2 is_stmt 0 view .LVU1408
	bx	lr
.L344:
	.align	2
.L343:
	.word	.LANCHOR0
.LFE232:
	.size	pcQueueGetName, .-pcQueueGetName
	.section	.text.vQueueUnregisterQueue,"ax",%progbits
	.align	1
	.global	vQueueUnregisterQueue
	.syntax unified
	.thumb
	.thumb_func
	.fpu fpv4-sp-d16
	.type	vQueueUnregisterQueue, %function
vQueueUnregisterQueue:
.LVL486:
.LFB233:
	.loc 1 2671 2 is_stmt 1 view -0
	@ args = 0, pretend = 0, frame = 0
	@ frame_needed = 0, uses_anonymous_args = 0
	@ link register save eliminated.
	.loc 1 2672 2 view .LVU1410
	.loc 1 2676 3 view .LVU1411
	.loc 1 2676 11 is_stmt 0 view .LVU1412
	movs	r3, #0
.LVL487:
.L346:
	.loc 1 2676 33 is_stmt 1 discriminator 1 view .LVU1413
	.loc 1 2676 3 is_stmt 0 discriminator 1 view .LVU1414
	cmp	r3, #1
	bhi	.L350
	.loc 1 2678 4 is_stmt 1 view .LVU1415
	.loc 1 2678 28 is_stmt 0 view .LVU1416
	ldr	r2, .L352
	add	r2, r2, r3, lsl #3
	ldr	r2, [r2, #4]
	.loc 1 2678 6 view .LVU1417
	cmp	r2, r0
	beq	.L351
	.loc 1 2691 5 is_stmt 1 discriminator 2 view .LVU1418
	.loc 1 2676 57 discriminator 2 view .LVU1419
	.loc 1 2676 59 is_stmt 0 discriminator 2 view .LVU1420
	adds	r3, r3, #1
.LVL488:
	.loc 1 2676 59 discriminator 2 view .LVU1421
	b	.L346
.L351:
	.loc 1 2681 5 is_stmt 1 view .LVU1422
	.loc 1 2681 38 is_stmt 0 view .LVU1423
	ldr	r2, .L352
	movs	r1, #0
	str	r1, [r2, r3, lsl #3]
	.loc 1 2686 5 is_stmt 1 view .LVU1424
	.loc 1 2686 34 is_stmt 0 view .LVU1425
	add	r3, r2, r3, lsl #3
.LVL489:
	.loc 1 2686 34 view .LVU1426
	str	r1, [r3, #4]
	.loc 1 2687 5 is_stmt 1 view .LVU1427
	bx	lr
.LVL490:
.L350:
	.loc 1 2695 2 is_stmt 0 view .LVU1428
	bx	lr
.L353:
	.align	2
.L352:
	.word	.LANCHOR0
.LFE233:
	.size	vQueueUnregisterQueue, .-vQueueUnregisterQueue
	.section	.text.vQueueDelete,"ax",%progbits
	.align	1
	.global	vQueueDelete
	.syntax unified
	.thumb
	.thumb_func
	.fpu fpv4-sp-d16
	.type	vQueueDelete, %function
vQueueDelete:
.LVL491:
.LFB219:
	.loc 1 1943 1 is_stmt 1 view -0
	@ args = 0, pretend = 0, frame = 0
	@ frame_needed = 0, uses_anonymous_args = 0
	.loc 1 1943 1 is_stmt 0 view .LVU1430
	push	{r4, lr}
.LCFI44:
	.loc 1 1944 1 is_stmt 1 view .LVU1431
.LVL492:
	.loc 1 1946 2 view .LVU1432
	.loc 1 1946 11 view .LVU1433
	.loc 1 1946 14 is_stmt 0 view .LVU1434
	mov	r4, r0
	cbz	r0, .L357
.LVL493:
.L355:
	.loc 1 1946 154 is_stmt 1 discriminator 5 view .LVU1435
	.loc 1 1947 2 discriminator 5 view .LVU1436
	mov	r0, r4
	bl	SEGGER_SYSVIEW_ShrinkId
.LVL494:
	mov	r1, r0
	movs	r0, #95
	bl	SEGGER_SYSVIEW_RecordU32
.LVL495:
	.loc 1 1951 3 discriminator 5 view .LVU1437
	mov	r0, r4
	bl	vQueueUnregisterQueue
.LVL496:
	.loc 1 1959 3 discriminator 5 view .LVU1438
	mov	r0, r4
	bl	vPortFree
.LVL497:
	.loc 1 1981 1 is_stmt 0 discriminator 5 view .LVU1439
	pop	{r4, pc}
.LVL498:
.L357:
	.loc 1 1946 35 is_stmt 1 discriminator 4 view .LVU1440
	ldr	r1, .L358
	movw	r0, #1946
.LVL499:
	.loc 1 1946 35 is_stmt 0 discriminator 4 view .LVU1441
	bl	assert_nrf_callback
.LVL500:
	b	.L355
.L359:
	.align	2
.L358:
	.word	.LC0
.LFE219:
	.size	vQueueDelete, .-vQueueDelete
	.section	.text.vQueueWaitForMessageRestricted,"ax",%progbits
	.align	1
	.global	vQueueWaitForMessageRestricted
	.syntax unified
	.thumb
	.thumb_func
	.fpu fpv4-sp-d16
	.type	vQueueWaitForMessageRestricted, %function
vQueueWaitForMessageRestricted:
.LVL501:
.LFB234:
	.loc 1 2703 2 is_stmt 1 view -0
	@ args = 0, pretend = 0, frame = 0
	@ frame_needed = 0, uses_anonymous_args = 0
	.loc 1 2703 2 is_stmt 0 view .LVU1443
	push	{r4, r5, r6, lr}
.LCFI45:
	mov	r4, r0
	mov	r5, r1
	mov	r6, r2
	.loc 1 2704 2 is_stmt 1 view .LVU1444
.LVL502:
	.loc 1 2720 3 view .LVU1445
	bl	vPortEnterCritical
.LVL503:
	.loc 1 2720 27 view .LVU1446
	.loc 1 2720 42 is_stmt 0 view .LVU1447
	ldrb	r3, [r4, #68]	@ zero_extendqisi2
	sxtb	r3, r3
	.loc 1 2720 29 view .LVU1448
	cmp	r3, #-1
	beq	.L365
.L361:
	.loc 1 2720 120 is_stmt 1 discriminator 3 view .LVU1449
	.loc 1 2720 135 is_stmt 0 discriminator 3 view .LVU1450
	ldrb	r3, [r4, #69]	@ zero_extendqisi2
	sxtb	r3, r3
	.loc 1 2720 122 discriminator 3 view .LVU1451
	cmp	r3, #-1
	beq	.L366
.L362:
	.loc 1 2720 215 is_stmt 1 discriminator 6 view .LVU1452
	bl	vPortExitCritical
.LVL504:
	.loc 1 2721 3 discriminator 6 view .LVU1453
	.loc 1 2721 14 is_stmt 0 discriminator 6 view .LVU1454
	ldr	r3, [r4, #56]
	.loc 1 2721 5 discriminator 6 view .LVU1455
	cbz	r3, .L367
.L363:
	.loc 1 2728 4 is_stmt 1 view .LVU1456
	.loc 1 2730 3 view .LVU1457
	mov	r0, r4
	bl	prvUnlockQueue
.LVL505:
	.loc 1 2731 2 is_stmt 0 view .LVU1458
	pop	{r4, r5, r6, pc}
.LVL506:
.L365:
	.loc 1 2720 77 is_stmt 1 discriminator 1 view .LVU1459
	.loc 1 2720 98 is_stmt 0 discriminator 1 view .LVU1460
	movs	r3, #0
	strb	r3, [r4, #68]
	b	.L361
.L366:
	.loc 1 2720 170 is_stmt 1 discriminator 4 view .LVU1461
	.loc 1 2720 191 is_stmt 0 discriminator 4 view .LVU1462
	movs	r3, #0
	strb	r3, [r4, #69]
	b	.L362
.L367:
	.loc 1 2724 4 is_stmt 1 view .LVU1463
	mov	r2, r6
	mov	r1, r5
	add	r0, r4, #36
	bl	vTaskPlaceOnEventListRestricted
.LVL507:
	b	.L363
.LFE234:
	.size	vQueueWaitForMessageRestricted, .-vQueueWaitForMessageRestricted
	.global	xQueueRegistry
	.section	.bss.xQueueRegistry,"aw",%nobits
	.align	2
	.set	.LANCHOR0,. + 0
	.type	xQueueRegistry, %object
	.size	xQueueRegistry, 16
xQueueRegistry:
	.space	16
	.section	.debug_frame,"",%progbits
.Lframe0:
	.4byte	.LECIE0-.LSCIE0
.LSCIE0:
	.4byte	0xffffffff
	.byte	0x3
	.ascii	"\000"
	.uleb128 0x1
	.sleb128 -4
	.uleb128 0xe
	.byte	0xc
	.uleb128 0xd
	.uleb128 0
	.align	2
.LECIE0:
.LSFDE0:
	.4byte	.LEFDE0-.LASFDE0
.LASFDE0:
	.4byte	.Lframe0
	.4byte	.LFB223
	.4byte	.LFE223-.LFB223
	.align	2
.LEFDE0:
.LSFDE2:
	.4byte	.LEFDE2-.LASFDE2
.LASFDE2:
	.4byte	.Lframe0
	.4byte	.LFB229
	.4byte	.LFE229-.LFB229
	.byte	0x4
	.4byte	.LCFI0-.LFB229
	.byte	0xe
	.uleb128 0x8
	.byte	0x84
	.uleb128 0x2
	.byte	0x8e
	.uleb128 0x1
	.align	2
.LEFDE2:
.LSFDE4:
	.4byte	.LEFDE4-.LASFDE4
.LASFDE4:
	.4byte	.Lframe0
	.4byte	.LFB227
	.4byte	.LFE227-.LFB227
	.byte	0x4
	.4byte	.LCFI1-.LFB227
	.byte	0xe
	.uleb128 0x8
	.byte	0x84
	.uleb128 0x2
	.byte	0x8e
	.uleb128 0x1
	.align	2
.LEFDE4:
.LSFDE6:
	.4byte	.LEFDE6-.LASFDE6
.LASFDE6:
	.4byte	.Lframe0
	.4byte	.LFB224
	.4byte	.LFE224-.LFB224
	.byte	0x4
	.4byte	.LCFI2-.LFB224
	.byte	0xe
	.uleb128 0x10
	.byte	0x84
	.uleb128 0x4
	.byte	0x85
	.uleb128 0x3
	.byte	0x86
	.uleb128 0x2
	.byte	0x8e
	.uleb128 0x1
	.align	2
.LEFDE6:
.LSFDE8:
	.4byte	.LEFDE8-.LASFDE8
.LASFDE8:
	.4byte	.Lframe0
	.4byte	.LFB225
	.4byte	.LFE225-.LFB225
	.byte	0x4
	.4byte	.LCFI3-.LFB225
	.byte	0xe
	.uleb128 0x8
	.byte	0x84
	.uleb128 0x2
	.byte	0x8e
	.uleb128 0x1
	.byte	0x4
	.4byte	.LCFI4-.LCFI3
	.byte	0xe
	.uleb128 0
	.byte	0xc4
	.byte	0xce
	.align	2
.LEFDE8:
.LSFDE10:
	.4byte	.LEFDE10-.LASFDE10
.LASFDE10:
	.4byte	.Lframe0
	.4byte	.LFB226
	.4byte	.LFE226-.LFB226
	.byte	0x4
	.4byte	.LCFI5-.LFB226
	.byte	0xe
	.uleb128 0x10
	.byte	0x83
	.uleb128 0x4
	.byte	0x84
	.uleb128 0x3
	.byte	0x85
	.uleb128 0x2
	.byte	0x8e
	.uleb128 0x1
	.align	2
.LEFDE10:
.LSFDE12:
	.4byte	.LEFDE12-.LASFDE12
.LASFDE12:
	.4byte	.Lframe0
	.4byte	.LFB200
	.4byte	.LFE200-.LFB200
	.byte	0x4
	.4byte	.LCFI6-.LFB200
	.byte	0xe
	.uleb128 0x10
	.byte	0x83
	.uleb128 0x4
	.byte	0x84
	.uleb128 0x3
	.byte	0x85
	.uleb128 0x2
	.byte	0x8e
	.uleb128 0x1
	.align	2
.LEFDE12:
.LSFDE14:
	.4byte	.LEFDE14-.LASFDE14
.LASFDE14:
	.4byte	.Lframe0
	.4byte	.LFB202
	.4byte	.LFE202-.LFB202
	.byte	0x4
	.4byte	.LCFI7-.LFB202
	.byte	0xe
	.uleb128 0x18
	.byte	0x83
	.uleb128 0x6
	.byte	0x84
	.uleb128 0x5
	.byte	0x85
	.uleb128 0x4
	.byte	0x86
	.uleb128 0x3
	.byte	0x87
	.uleb128 0x2
	.byte	0x8e
	.uleb128 0x1
	.align	2
.LEFDE14:
.LSFDE16:
	.4byte	.LEFDE16-.LASFDE16
.LASFDE16:
	.4byte	.Lframe0
	.4byte	.LFB201
	.4byte	.LFE201-.LFB201
	.byte	0x4
	.4byte	.LCFI8-.LFB201
	.byte	0xe
	.uleb128 0x14
	.byte	0x84
	.uleb128 0x5
	.byte	0x85
	.uleb128 0x4
	.byte	0x86
	.uleb128 0x3
	.byte	0x87
	.uleb128 0x2
	.byte	0x8e
	.uleb128 0x1
	.byte	0x4
	.4byte	.LCFI9-.LCFI8
	.byte	0xe
	.uleb128 0x20
	.byte	0x4
	.4byte	.LCFI10-.LCFI9
	.byte	0xa
	.byte	0xe
	.uleb128 0x14
	.byte	0x4
	.4byte	.LCFI11-.LCFI10
	.byte	0xb
	.align	2
.LEFDE16:
.LSFDE18:
	.4byte	.LEFDE18-.LASFDE18
.LASFDE18:
	.4byte	.Lframe0
	.4byte	.LFB207
	.4byte	.LFE207-.LFB207
	.byte	0x4
	.4byte	.LCFI12-.LFB207
	.byte	0xe
	.uleb128 0x10
	.byte	0x83
	.uleb128 0x4
	.byte	0x84
	.uleb128 0x3
	.byte	0x85
	.uleb128 0x2
	.byte	0x8e
	.uleb128 0x1
	.align	2
.LEFDE18:
.LSFDE20:
	.4byte	.LEFDE20-.LASFDE20
.LASFDE20:
	.4byte	.Lframe0
	.4byte	.LFB208
	.4byte	.LFE208-.LFB208
	.byte	0x4
	.4byte	.LCFI13-.LFB208
	.byte	0xe
	.uleb128 0x14
	.byte	0x84
	.uleb128 0x5
	.byte	0x85
	.uleb128 0x4
	.byte	0x86
	.uleb128 0x3
	.byte	0x87
	.uleb128 0x2
	.byte	0x8e
	.uleb128 0x1
	.byte	0x4
	.4byte	.LCFI14-.LCFI13
	.byte	0xe
	.uleb128 0x30
	.byte	0x4
	.4byte	.LCFI15-.LCFI14
	.byte	0xa
	.byte	0xe
	.uleb128 0x14
	.byte	0x4
	.4byte	.LCFI16-.LCFI15
	.byte	0xb
	.align	2
.LEFDE20:
.LSFDE22:
	.4byte	.LEFDE22-.LASFDE22
.LASFDE22:
	.4byte	.Lframe0
	.4byte	.LFB203
	.4byte	.LFE203-.LFB203
	.byte	0x4
	.4byte	.LCFI17-.LFB203
	.byte	0xe
	.uleb128 0x8
	.byte	0x84
	.uleb128 0x2
	.byte	0x8e
	.uleb128 0x1
	.byte	0x4
	.4byte	.LCFI18-.LCFI17
	.byte	0xe
	.uleb128 0
	.byte	0xc4
	.byte	0xce
	.align	2
.LEFDE22:
.LSFDE24:
	.4byte	.LEFDE24-.LASFDE24
.LASFDE24:
	.4byte	.Lframe0
	.4byte	.LFB204
	.4byte	.LFE204-.LFB204
	.byte	0x4
	.4byte	.LCFI19-.LFB204
	.byte	0xe
	.uleb128 0x8
	.byte	0x84
	.uleb128 0x2
	.byte	0x8e
	.uleb128 0x1
	.align	2
.LEFDE24:
.LSFDE26:
	.4byte	.LEFDE26-.LASFDE26
.LASFDE26:
	.4byte	.Lframe0
	.4byte	.LFB205
	.4byte	.LFE205-.LFB205
	.byte	0x4
	.4byte	.LCFI20-.LFB205
	.byte	0xe
	.uleb128 0x10
	.byte	0x83
	.uleb128 0x4
	.byte	0x84
	.uleb128 0x3
	.byte	0x85
	.uleb128 0x2
	.byte	0x8e
	.uleb128 0x1
	.align	2
.LEFDE26:
.LSFDE28:
	.4byte	.LEFDE28-.LASFDE28
.LASFDE28:
	.4byte	.Lframe0
	.4byte	.LFB209
	.4byte	.LFE209-.LFB209
	.byte	0x4
	.4byte	.LCFI21-.LFB209
	.byte	0xe
	.uleb128 0x20
	.byte	0x83
	.uleb128 0x8
	.byte	0x84
	.uleb128 0x7
	.byte	0x85
	.uleb128 0x6
	.byte	0x86
	.uleb128 0x5
	.byte	0x87
	.uleb128 0x4
	.byte	0x88
	.uleb128 0x3
	.byte	0x89
	.uleb128 0x2
	.byte	0x8e
	.uleb128 0x1
	.align	2
.LEFDE28:
.LSFDE30:
	.4byte	.LEFDE30-.LASFDE30
.LASFDE30:
	.4byte	.Lframe0
	.4byte	.LFB210
	.4byte	.LFE210-.LFB210
	.byte	0x4
	.4byte	.LCFI22-.LFB210
	.byte	0xe
	.uleb128 0x18
	.byte	0x84
	.uleb128 0x6
	.byte	0x85
	.uleb128 0x5
	.byte	0x86
	.uleb128 0x4
	.byte	0x87
	.uleb128 0x3
	.byte	0x88
	.uleb128 0x2
	.byte	0x8e
	.uleb128 0x1
	.align	2
.LEFDE30:
.LSFDE32:
	.4byte	.LEFDE32-.LASFDE32
.LASFDE32:
	.4byte	.Lframe0
	.4byte	.LFB211
	.4byte	.LFE211-.LFB211
	.byte	0x4
	.4byte	.LCFI23-.LFB211
	.byte	0xe
	.uleb128 0x14
	.byte	0x84
	.uleb128 0x5
	.byte	0x85
	.uleb128 0x4
	.byte	0x86
	.uleb128 0x3
	.byte	0x87
	.uleb128 0x2
	.byte	0x8e
	.uleb128 0x1
	.byte	0x4
	.4byte	.LCFI24-.LCFI23
	.byte	0xe
	.uleb128 0x30
	.byte	0x4
	.4byte	.LCFI25-.LCFI24
	.byte	0xa
	.byte	0xe
	.uleb128 0x14
	.byte	0x4
	.4byte	.LCFI26-.LCFI25
	.byte	0xb
	.align	2
.LEFDE32:
.LSFDE34:
	.4byte	.LEFDE34-.LASFDE34
.LASFDE34:
	.4byte	.Lframe0
	.4byte	.LFB212
	.4byte	.LFE212-.LFB212
	.byte	0x4
	.4byte	.LCFI27-.LFB212
	.byte	0xe
	.uleb128 0x14
	.byte	0x84
	.uleb128 0x5
	.byte	0x85
	.uleb128 0x4
	.byte	0x86
	.uleb128 0x3
	.byte	0x87
	.uleb128 0x2
	.byte	0x8e
	.uleb128 0x1
	.byte	0x4
	.4byte	.LCFI28-.LCFI27
	.byte	0xe
	.uleb128 0x30
	.byte	0x4
	.4byte	.LCFI29-.LCFI28
	.byte	0xa
	.byte	0xe
	.uleb128 0x14
	.byte	0x4
	.4byte	.LCFI30-.LCFI29
	.byte	0xb
	.align	2
.LEFDE34:
.LSFDE36:
	.4byte	.LEFDE36-.LASFDE36
.LASFDE36:
	.4byte	.Lframe0
	.4byte	.LFB206
	.4byte	.LFE206-.LFB206
	.byte	0x4
	.4byte	.LCFI31-.LFB206
	.byte	0xe
	.uleb128 0x10
	.byte	0x84
	.uleb128 0x4
	.byte	0x85
	.uleb128 0x3
	.byte	0x86
	.uleb128 0x2
	.byte	0x8e
	.uleb128 0x1
	.align	2
.LEFDE36:
.LSFDE38:
	.4byte	.LEFDE38-.LASFDE38
.LASFDE38:
	.4byte	.Lframe0
	.4byte	.LFB213
	.4byte	.LFE213-.LFB213
	.byte	0x4
	.4byte	.LCFI32-.LFB213
	.byte	0xe
	.uleb128 0x14
	.byte	0x84
	.uleb128 0x5
	.byte	0x85
	.uleb128 0x4
	.byte	0x86
	.uleb128 0x3
	.byte	0x87
	.uleb128 0x2
	.byte	0x8e
	.uleb128 0x1
	.byte	0x4
	.4byte	.LCFI33-.LCFI32
	.byte	0xe
	.uleb128 0x30
	.byte	0x4
	.4byte	.LCFI34-.LCFI33
	.byte	0xa
	.byte	0xe
	.uleb128 0x14
	.byte	0x4
	.4byte	.LCFI35-.LCFI34
	.byte	0xb
	.align	2
.LEFDE38:
.LSFDE40:
	.4byte	.LEFDE40-.LASFDE40
.LASFDE40:
	.4byte	.Lframe0
	.4byte	.LFB214
	.4byte	.LFE214-.LFB214
	.byte	0x4
	.4byte	.LCFI36-.LFB214
	.byte	0xe
	.uleb128 0x20
	.byte	0x84
	.uleb128 0x8
	.byte	0x85
	.uleb128 0x7
	.byte	0x86
	.uleb128 0x6
	.byte	0x87
	.uleb128 0x5
	.byte	0x88
	.uleb128 0x4
	.byte	0x89
	.uleb128 0x3
	.byte	0x8a
	.uleb128 0x2
	.byte	0x8e
	.uleb128 0x1
	.align	2
.LEFDE40:
.LSFDE42:
	.4byte	.LEFDE42-.LASFDE42
.LASFDE42:
	.4byte	.Lframe0
	.4byte	.LFB215
	.4byte	.LFE215-.LFB215
	.byte	0x4
	.4byte	.LCFI37-.LFB215
	.byte	0xe
	.uleb128 0x18
	.byte	0x83
	.uleb128 0x6
	.byte	0x84
	.uleb128 0x5
	.byte	0x85
	.uleb128 0x4
	.byte	0x86
	.uleb128 0x3
	.byte	0x87
	.uleb128 0x2
	.byte	0x8e
	.uleb128 0x1
	.align	2
.LEFDE42:
.LSFDE44:
	.4byte	.LEFDE44-.LASFDE44
.LASFDE44:
	.4byte	.Lframe0
	.4byte	.LFB216
	.4byte	.LFE216-.LFB216
	.byte	0x4
	.4byte	.LCFI38-.LFB216
	.byte	0xe
	.uleb128 0x8
	.byte	0x84
	.uleb128 0x2
	.byte	0x8e
	.uleb128 0x1
	.align	2
.LEFDE44:
.LSFDE46:
	.4byte	.LEFDE46-.LASFDE46
.LASFDE46:
	.4byte	.Lframe0
	.4byte	.LFB217
	.4byte	.LFE217-.LFB217
	.byte	0x4
	.4byte	.LCFI39-.LFB217
	.byte	0xe
	.uleb128 0x10
	.byte	0x83
	.uleb128 0x4
	.byte	0x84
	.uleb128 0x3
	.byte	0x85
	.uleb128 0x2
	.byte	0x8e
	.uleb128 0x1
	.align	2
.LEFDE46:
.LSFDE48:
	.4byte	.LEFDE48-.LASFDE48
.LASFDE48:
	.4byte	.Lframe0
	.4byte	.LFB218
	.4byte	.LFE218-.LFB218
	.byte	0x4
	.4byte	.LCFI40-.LFB218
	.byte	0xe
	.uleb128 0x8
	.byte	0x84
	.uleb128 0x2
	.byte	0x8e
	.uleb128 0x1
	.align	2
.LEFDE48:
.LSFDE50:
	.4byte	.LEFDE50-.LASFDE50
.LASFDE50:
	.4byte	.Lframe0
	.4byte	.LFB220
	.4byte	.LFE220-.LFB220
	.align	2
.LEFDE50:
.LSFDE52:
	.4byte	.LEFDE52-.LASFDE52
.LASFDE52:
	.4byte	.Lframe0
	.4byte	.LFB221
	.4byte	.LFE221-.LFB221
	.align	2
.LEFDE52:
.LSFDE54:
	.4byte	.LEFDE54-.LASFDE54
.LASFDE54:
	.4byte	.Lframe0
	.4byte	.LFB222
	.4byte	.LFE222-.LFB222
	.align	2
.LEFDE54:
.LSFDE56:
	.4byte	.LEFDE56-.LASFDE56
.LASFDE56:
	.4byte	.Lframe0
	.4byte	.LFB228
	.4byte	.LFE228-.LFB228
	.byte	0x4
	.4byte	.LCFI41-.LFB228
	.byte	0xe
	.uleb128 0x8
	.byte	0x84
	.uleb128 0x2
	.byte	0x8e
	.uleb128 0x1
	.align	2
.LEFDE56:
.LSFDE58:
	.4byte	.LEFDE58-.LASFDE58
.LASFDE58:
	.4byte	.Lframe0
	.4byte	.LFB230
	.4byte	.LFE230-.LFB230
	.byte	0x4
	.4byte	.LCFI42-.LFB230
	.byte	0xe
	.uleb128 0x8
	.byte	0x84
	.uleb128 0x2
	.byte	0x8e
	.uleb128 0x1
	.align	2
.LEFDE58:
.LSFDE60:
	.4byte	.LEFDE60-.LASFDE60
.LASFDE60:
	.4byte	.Lframe0
	.4byte	.LFB231
	.4byte	.LFE231-.LFB231
	.byte	0x4
	.4byte	.LCFI43-.LFB231
	.byte	0xe
	.uleb128 0x8
	.byte	0x84
	.uleb128 0x2
	.byte	0x8e
	.uleb128 0x1
	.align	2
.LEFDE60:
.LSFDE62:
	.4byte	.LEFDE62-.LASFDE62
.LASFDE62:
	.4byte	.Lframe0
	.4byte	.LFB232
	.4byte	.LFE232-.LFB232
	.align	2
.LEFDE62:
.LSFDE64:
	.4byte	.LEFDE64-.LASFDE64
.LASFDE64:
	.4byte	.Lframe0
	.4byte	.LFB233
	.4byte	.LFE233-.LFB233
	.align	2
.LEFDE64:
.LSFDE66:
	.4byte	.LEFDE66-.LASFDE66
.LASFDE66:
	.4byte	.Lframe0
	.4byte	.LFB219
	.4byte	.LFE219-.LFB219
	.byte	0x4
	.4byte	.LCFI44-.LFB219
	.byte	0xe
	.uleb128 0x8
	.byte	0x84
	.uleb128 0x2
	.byte	0x8e
	.uleb128 0x1
	.align	2
.LEFDE66:
.LSFDE68:
	.4byte	.LEFDE68-.LASFDE68
.LASFDE68:
	.4byte	.Lframe0
	.4byte	.LFB234
	.4byte	.LFE234-.LFB234
	.byte	0x4
	.4byte	.LCFI45-.LFB234
	.byte	0xe
	.uleb128 0x10
	.byte	0x84
	.uleb128 0x4
	.byte	0x85
	.uleb128 0x3
	.byte	0x86
	.uleb128 0x2
	.byte	0x8e
	.uleb128 0x1
	.align	2
.LEFDE68:
	.text
.Letext0:
	.file 4 "../../../../../../external/freertos/source/include/queue.h"