	.cpu cortex-m4
	.eabi_attribute 27, 1
	.eabi_attribute 28, 1
	.eabi_attribute 20, 1
	.eabi_attribute 21, 1
	.eabi_attribute 23, 3
	.eabi_attribute 24, 1
	.eabi_attribute 25, 1
	.eabi_attribute 26, 1
	.eabi_attribute 30, 1
	.eabi_attribute 34, 1
	.eabi_attribute 18, 4
	.file	"SEGGER_SYSVIEW.c"
	.text
.Ltext0:
	.section	.text._EncodeData,"ax",%progbits
	.align	1
	.syntax unified
	.thumb
	.thumb_func
	.fpu fpv4-sp-d16
	.type	_EncodeData, %function
_EncodeData:
.LVL0:
.LFB0:
	.file 1 "C:\\nRF5_SDK_15.0.0_a53641a\\examples\\ble_peripheral\\slam_application-master\\systemView\\SEGGER_SYSVIEW.c"
	.loc 1 354 101 view -0
	@ args = 0, pretend = 0, frame = 0
	@ frame_needed = 0, uses_anonymous_args = 0
	@ link register save eliminated.
	.loc 1 355 3 view .LVU1
	.loc 1 357 3 view .LVU2
	.loc 1 358 3 view .LVU3
	.loc 1 358 15 is_stmt 0 view .LVU4
	strb	r2, [r0], #1
.LVL1:
	.loc 1 359 3 is_stmt 1 view .LVU5
	.loc 1 357 5 is_stmt 0 view .LVU6
	movs	r3, #0
.LVL2:
	.loc 1 359 9 is_stmt 1 view .LVU7
	cmp	r3, r2
	bcs	.L7
	.loc 1 354 101 is_stmt 0 view .LVU8
	push	{r4}
.LCFI0:
.L3:
	.loc 1 360 5 is_stmt 1 view .LVU9
.LVL3:
	.loc 1 360 19 is_stmt 0 view .LVU10
	ldrb	r4, [r1], #1	@ zero_extendqisi2
.LVL4:
	.loc 1 360 17 view .LVU11
	strb	r4, [r0], #1
.LVL5:
	.loc 1 361 5 is_stmt 1 view .LVU12
	.loc 1 361 6 is_stmt 0 view .LVU13
	adds	r3, r3, #1
.LVL6:
	.loc 1 359 9 is_stmt 1 view .LVU14
	cmp	r3, r2
	bcc	.L3
	.loc 1 364 1 is_stmt 0 view .LVU15
	ldr	r4, [sp], #4
.LCFI1:
	bx	lr
.L7:
	.loc 1 364 1 view .LVU16
	bx	lr
.LFE0:
	.size	_EncodeData, .-_EncodeData
	.section	.text._EncodeStr,"ax",%progbits
	.align	1
	.syntax unified
	.thumb
	.thumb_func
	.fpu fpv4-sp-d16
	.type	_EncodeStr, %function
_EncodeStr:
.LVL7:
.LFB1:
	.loc 1 388 98 is_stmt 1 view -0
	@ args = 0, pretend = 0, frame = 0
	@ frame_needed = 0, uses_anonymous_args = 0
	@ link register save eliminated.
	.loc 1 388 98 is_stmt 0 view .LVU18
	push	{r4, r5}
.LCFI2:
	mov	r5, r0
	.loc 1 389 3 is_stmt 1 view .LVU19
	.loc 1 390 3 view .LVU20
	.loc 1 394 3 view .LVU21
.LVL8:
	.loc 1 395 3 view .LVU22
	.loc 1 394 7 is_stmt 0 view .LVU23
	movs	r3, #0
.LVL9:
.L9:
	.loc 1 395 8 is_stmt 1 view .LVU24
	.loc 1 395 9 is_stmt 0 view .LVU25
	ldrb	r4, [r1, r3]	@ zero_extendqisi2
	.loc 1 395 8 view .LVU26
	cbz	r4, .L17
	.loc 1 396 5 is_stmt 1 view .LVU27
	.loc 1 396 8 is_stmt 0 view .LVU28
	adds	r3, r3, #1
.LVL10:
	.loc 1 396 8 view .LVU29
	b	.L9
.L17:
	.loc 1 398 3 is_stmt 1 view .LVU30
	.loc 1 398 6 is_stmt 0 view .LVU31
	cmp	r3, r2
	bhi	.L11
	mov	r2, r3
.LVL11:
.L11:
	.loc 1 404 3 is_stmt 1 view .LVU32
	.loc 1 404 6 is_stmt 0 view .LVU33
	cmp	r2, #254
	bhi	.L12
	.loc 1 405 5 is_stmt 1 view .LVU34
	.loc 1 405 14 is_stmt 0 view .LVU35
	mov	r0, r5
.LVL12:
	.loc 1 405 17 view .LVU36
	strb	r2, [r0], #1
.LVL13:
.L13:
	.loc 1 398 6 view .LVU37
	movs	r3, #0
	b	.L14
.L12:
	.loc 1 407 5 is_stmt 1 view .LVU38
.LVL14:
	.loc 1 407 17 is_stmt 0 view .LVU39
	movs	r3, #255
	strb	r3, [r5]
	.loc 1 408 5 is_stmt 1 view .LVU40
.LVL15:
	.loc 1 408 17 is_stmt 0 view .LVU41
	strb	r2, [r5, #1]
	.loc 1 409 5 is_stmt 1 view .LVU42
	.loc 1 409 25 is_stmt 0 view .LVU43
	lsrs	r3, r2, #8
	.loc 1 409 14 view .LVU44
	adds	r0, r5, #3
.LVL16:
	.loc 1 409 17 view .LVU45
	strb	r3, [r5, #2]
	b	.L13
.LVL17:
.L15:
	.loc 1 416 5 is_stmt 1 view .LVU46
	.loc 1 416 19 is_stmt 0 view .LVU47
	ldrb	r4, [r1], #1	@ zero_extendqisi2
.LVL18:
	.loc 1 416 17 view .LVU48
	strb	r4, [r0], #1
.LVL19:
	.loc 1 417 5 is_stmt 1 view .LVU49
	.loc 1 417 6 is_stmt 0 view .LVU50
	adds	r3, r3, #1
.LVL20:
.L14:
	.loc 1 415 9 is_stmt 1 view .LVU51
	cmp	r3, r2
	bcc	.L15
	.loc 1 420 1 is_stmt 0 view .LVU52
	pop	{r4, r5}
.LCFI3:
	bx	lr
.LFE1:
	.size	_EncodeStr, .-_EncodeStr
	.section	.text._PreparePacket,"ax",%progbits
	.align	1
	.syntax unified
	.thumb
	.thumb_func
	.fpu fpv4-sp-d16
	.type	_PreparePacket, %function
_PreparePacket:
.LVL21:
.LFB2:
	.loc 1 440 62 is_stmt 1 view -0
	@ args = 0, pretend = 0, frame = 0
	@ frame_needed = 0, uses_anonymous_args = 0
	@ link register save eliminated.
	.loc 1 441 3 view .LVU54
	.loc 1 442 1 is_stmt 0 view .LVU55
	adds	r0, r0, #4
.LVL22:
	.loc 1 442 1 view .LVU56
	bx	lr
.LFE2:
	.size	_PreparePacket, .-_PreparePacket
	.section	.text._TrySendOverflowPacket,"ax",%progbits
	.align	1
	.syntax unified
	.thumb
	.thumb_func
	.fpu fpv4-sp-d16
	.type	_TrySendOverflowPacket, %function
_TrySendOverflowPacket:
.LFB4:
	.loc 1 522 41 is_stmt 1 view -0
	@ args = 0, pretend = 0, frame = 16
	@ frame_needed = 0, uses_anonymous_args = 0
	push	{r4, lr}
.LCFI4:
	sub	sp, sp, #16
.LCFI5:
	.loc 1 523 3 view .LVU58
	.loc 1 524 3 view .LVU59
	.loc 1 525 3 view .LVU60
	.loc 1 526 3 view .LVU61
	.loc 1 527 3 view .LVU62
	.loc 1 529 3 view .LVU63
	.loc 1 529 14 is_stmt 0 view .LVU64
	movs	r3, #1
	strb	r3, [sp, #4]
	.loc 1 530 3 is_stmt 1 view .LVU65
.LVL23:
.LBB2:
	.loc 1 531 5 view .LVU66
	.loc 1 531 37 view .LVU67
	.loc 1 531 64 view .LVU68
	.loc 1 531 92 view .LVU69
	.loc 1 531 104 is_stmt 0 view .LVU70
	ldr	r3, .L28
	ldr	r3, [r3, #20]
.LVL24:
	.loc 1 531 134 is_stmt 1 view .LVU71
	.loc 1 531 80 is_stmt 0 view .LVU72
	add	r2, sp, #5
.LVL25:
.L20:
	.loc 1 531 139 is_stmt 1 discriminator 1 view .LVU73
	cmp	r3, #127
	bls	.L27
	.loc 1 531 162 discriminator 3 view .LVU74
.LVL26:
	.loc 1 531 183 is_stmt 0 discriminator 3 view .LVU75
	orn	r1, r3, #127
	.loc 1 531 181 discriminator 3 view .LVU76
	strb	r1, [r2], #1
.LVL27:
	.loc 1 531 220 is_stmt 1 discriminator 3 view .LVU77
	.loc 1 531 232 is_stmt 0 discriminator 3 view .LVU78
	lsrs	r3, r3, #7
.LVL28:
	.loc 1 531 232 discriminator 3 view .LVU79
	b	.L20
.L27:
	.loc 1 531 240 is_stmt 1 discriminator 4 view .LVU80
	.loc 1 531 242 discriminator 4 view .LVU81
.LVL29:
	.loc 1 531 261 is_stmt 0 discriminator 4 view .LVU82
	strb	r3, [r2], #1
.LVL30:
	.loc 1 531 291 is_stmt 1 discriminator 4 view .LVU83
	.loc 1 531 291 is_stmt 0 discriminator 4 view .LVU84
.LBE2:
	.loc 1 531 320 is_stmt 1 discriminator 4 view .LVU85
	.loc 1 531 321 discriminator 4 view .LVU86
	.loc 1 535 3 discriminator 4 view .LVU87
	.loc 1 535 13 is_stmt 0 discriminator 4 view .LVU88
	ldr	r3, .L28+4
.LVL31:
	.loc 1 535 13 discriminator 4 view .LVU89
	ldr	r4, [r3]
.LVL32:
	.loc 1 536 3 is_stmt 1 discriminator 4 view .LVU90
	.loc 1 536 39 is_stmt 0 discriminator 4 view .LVU91
	ldr	r3, .L28
	ldr	r3, [r3, #12]
	.loc 1 536 21 discriminator 4 view .LVU92
	subs	r3, r4, r3
.LVL33:
	.loc 1 537 3 is_stmt 1 discriminator 4 view .LVU93
.LBB3:
	.loc 1 538 5 discriminator 4 view .LVU94
	.loc 1 538 37 discriminator 4 view .LVU95
	.loc 1 538 64 discriminator 4 view .LVU96
	.loc 1 538 92 discriminator 4 view .LVU97
	.loc 1 538 113 discriminator 4 view .LVU98
	.loc 1 538 118 is_stmt 0 discriminator 4 view .LVU99
	b	.L22
.LVL34:
.L23:
	.loc 1 538 141 is_stmt 1 discriminator 3 view .LVU100
	.loc 1 538 162 is_stmt 0 discriminator 3 view .LVU101
	orn	r1, r3, #127
	.loc 1 538 160 discriminator 3 view .LVU102
	strb	r1, [r2], #1
.LVL35:
	.loc 1 538 199 is_stmt 1 discriminator 3 view .LVU103
	.loc 1 538 211 is_stmt 0 discriminator 3 view .LVU104
	lsrs	r3, r3, #7
.LVL36:
.L22:
	.loc 1 538 118 is_stmt 1 discriminator 1 view .LVU105
	cmp	r3, #127
	bhi	.L23
	.loc 1 538 219 discriminator 4 view .LVU106
	.loc 1 538 221 discriminator 4 view .LVU107
.LVL37:
	.loc 1 538 240 is_stmt 0 discriminator 4 view .LVU108
	strb	r3, [r2], #1
.LVL38:
	.loc 1 538 270 is_stmt 1 discriminator 4 view .LVU109
	.loc 1 538 270 is_stmt 0 discriminator 4 view .LVU110
.LBE3:
	.loc 1 538 299 is_stmt 1 discriminator 4 view .LVU111
	.loc 1 538 300 discriminator 4 view .LVU112
	.loc 1 542 3 discriminator 4 view .LVU113
	.loc 1 542 64 is_stmt 0 discriminator 4 view .LVU114
	add	r1, sp, #4
	.loc 1 542 12 discriminator 4 view .LVU115
	subs	r2, r2, r1
.LVL39:
	.loc 1 542 12 discriminator 4 view .LVU116
	movs	r0, #1
	bl	SEGGER_RTT_ASM_WriteSkipNoLock
.LVL40:
	.loc 1 543 3 is_stmt 1 discriminator 4 view .LVU117
	.loc 1 543 6 is_stmt 0 discriminator 4 view .LVU118
	cbz	r0, .L24
	.loc 1 544 5 is_stmt 1 view .LVU119
	.loc 1 544 38 is_stmt 0 view .LVU120
	ldr	r3, .L28
	str	r4, [r3, #12]
	.loc 1 545 5 is_stmt 1 view .LVU121
	.loc 1 545 21 is_stmt 0 view .LVU122
	ldrb	r2, [r3]	@ zero_extendqisi2
	.loc 1 545 33 view .LVU123
	subs	r2, r2, #1
	strb	r2, [r3]
.L19:
	.loc 1 551 1 view .LVU124
	add	sp, sp, #16
.LCFI6:
	@ sp needed
	pop	{r4, pc}
.LVL41:
.L24:
.LCFI7:
	.loc 1 547 5 is_stmt 1 view .LVU125
	.loc 1 547 21 is_stmt 0 view .LVU126
	ldr	r2, .L28
	ldr	r3, [r2, #20]
	.loc 1 547 31 view .LVU127
	adds	r3, r3, #1
	str	r3, [r2, #20]
	.loc 1 550 3 is_stmt 1 view .LVU128
	.loc 1 550 10 is_stmt 0 view .LVU129
	b	.L19
.L29:
	.align	2
.L28:
	.word	.LANCHOR0
	.word	-536866812
.LFE4:
	.size	_TrySendOverflowPacket, .-_TrySendOverflowPacket
	.section	.rodata.SEGGER_SYSVIEW_Init.str1.4,"aMS",%progbits,1
	.align	2
.LC0:
	.ascii	"SysView\000"
	.section	.text.SEGGER_SYSVIEW_Init,"ax",%progbits
	.align	1
	.global	SEGGER_SYSVIEW_Init
	.syntax unified
	.thumb
	.thumb_func
	.fpu fpv4-sp-d16
	.type	SEGGER_SYSVIEW_Init, %function
SEGGER_SYSVIEW_Init:
.LVL42:
.LFB11:
	.loc 1 1227 158 is_stmt 1 view -0
	@ args = 0, pretend = 0, frame = 0
	@ frame_needed = 0, uses_anonymous_args = 0
	.loc 1 1227 158 is_stmt 0 view .LVU131
	push	{r4, r5, r6, r7, r8, r9, lr}
.LCFI8:
	sub	sp, sp, #12
.LCFI9:
	mov	r8, r0
	mov	r7, r1
	mov	r9, r2
	mov	r6, r3
	.loc 1 1250 3 is_stmt 1 view .LVU132
	ldr	r4, .L32
	movs	r5, #0
	str	r5, [sp]
	mov	r3, #4096
.LVL43:
	.loc 1 1250 3 is_stmt 0 view .LVU133
	ldr	r2, .L32+4
.LVL44:
	.loc 1 1250 3 view .LVU134
	mov	r1, r4
.LVL45:
	.loc 1 1250 3 view .LVU135
	movs	r0, #1
.LVL46:
	.loc 1 1250 3 view .LVU136
	bl	SEGGER_RTT_ConfigUpBuffer
.LVL47:
	.loc 1 1251 3 is_stmt 1 view .LVU137
	str	r5, [sp]
	movs	r3, #8
	ldr	r2, .L32+8
	mov	r1, r4
	movs	r0, #1
	bl	SEGGER_RTT_ConfigDownBuffer
.LVL48:
	.loc 1 1260 3 view .LVU138
	.loc 1 1260 35 is_stmt 0 view .LVU139
	ldr	r4, .L32+12
	mov	r3, #268435456
	str	r3, [r4, #16]
	.loc 1 1261 3 is_stmt 1 view .LVU140
	.loc 1 1261 39 is_stmt 0 view .LVU141
	ldr	r3, .L32+16
	ldr	r3, [r3]
	.loc 1 1261 36 view .LVU142
	str	r3, [r4, #12]
	.loc 1 1262 3 is_stmt 1 view .LVU143
	.loc 1 1262 27 is_stmt 0 view .LVU144
	str	r9, [r4, #32]
	.loc 1 1263 3 is_stmt 1 view .LVU145
	.loc 1 1263 28 is_stmt 0 view .LVU146
	str	r8, [r4, #4]
	.loc 1 1264 3 is_stmt 1 view .LVU147
	.loc 1 1264 28 is_stmt 0 view .LVU148
	str	r7, [r4, #8]
	.loc 1 1265 3 is_stmt 1 view .LVU149
	.loc 1 1265 34 is_stmt 0 view .LVU150
	str	r6, [r4, #36]
	.loc 1 1266 3 is_stmt 1 view .LVU151
	.loc 1 1266 32 is_stmt 0 view .LVU152
	strb	r5, [r4]
	.loc 1 1268 1 view .LVU153
	add	sp, sp, #12
.LCFI10:
	@ sp needed
	pop	{r4, r5, r6, r7, r8, r9, pc}
.LVL49:
.L33:
	.loc 1 1268 1 view .LVU154
	.align	2
.L32:
	.word	.LC0
	.word	_UpBuffer
	.word	.LANCHOR1
	.word	.LANCHOR0
	.word	-536866812
.LFE11:
	.size	SEGGER_SYSVIEW_Init, .-SEGGER_SYSVIEW_Init
	.section	.text.SEGGER_SYSVIEW_SetRAMBase,"ax",%progbits
	.align	1
	.global	SEGGER_SYSVIEW_SetRAMBase
	.syntax unified
	.thumb
	.thumb_func
	.fpu fpv4-sp-d16
	.type	SEGGER_SYSVIEW_SetRAMBase, %function
SEGGER_SYSVIEW_SetRAMBase:
.LVL50:
.LFB12:
	.loc 1 1281 62 is_stmt 1 view -0
	@ args = 0, pretend = 0, frame = 0
	@ frame_needed = 0, uses_anonymous_args = 0
	@ link register save eliminated.
	.loc 1 1282 3 view .LVU156
	.loc 1 1282 35 is_stmt 0 view .LVU157
	ldr	r3, .L35
	str	r0, [r3, #16]
	.loc 1 1283 1 view .LVU158
	bx	lr
.L36:
	.align	2
.L35:
	.word	.LANCHOR0
.LFE12:
	.size	SEGGER_SYSVIEW_SetRAMBase, .-SEGGER_SYSVIEW_SetRAMBase
	.section	.text.SEGGER_SYSVIEW_SendTaskList,"ax",%progbits
	.align	1
	.global	SEGGER_SYSVIEW_SendTaskList
	.syntax unified
	.thumb
	.thumb_func
	.fpu fpv4-sp-d16
	.type	SEGGER_SYSVIEW_SendTaskList, %function
SEGGER_SYSVIEW_SendTaskList:
.LFB29:
	.loc 1 1778 40 is_stmt 1 view -0
	@ args = 0, pretend = 0, frame = 0
	@ frame_needed = 0, uses_anonymous_args = 0
	push	{r3, lr}
.LCFI11:
	.loc 1 1779 3 view .LVU160
	.loc 1 1779 23 is_stmt 0 view .LVU161
	ldr	r3, .L40
	ldr	r3, [r3, #32]
	.loc 1 1779 6 view .LVU162
	cbz	r3, .L37
	.loc 1 1779 57 discriminator 1 view .LVU163
	ldr	r3, [r3, #4]
	.loc 1 1779 31 discriminator 1 view .LVU164
	cbz	r3, .L37
	.loc 1 1780 5 is_stmt 1 view .LVU165
	blx	r3
.LVL51:
.L37:
	.loc 1 1782 1 is_stmt 0 view .LVU166
	pop	{r3, pc}
.L41:
	.align	2
.L40:
	.word	.LANCHOR0
.LFE29:
	.size	SEGGER_SYSVIEW_SendTaskList, .-SEGGER_SYSVIEW_SendTaskList
	.section	.text.SEGGER_SYSVIEW_EncodeU32,"ax",%progbits
	.align	1
	.global	SEGGER_SYSVIEW_EncodeU32
	.syntax unified
	.thumb
	.thumb_func
	.fpu fpv4-sp-d16
	.type	SEGGER_SYSVIEW_EncodeU32, %function
SEGGER_SYSVIEW_EncodeU32:
.LVL52:
.LFB50:
	.loc 1 2240 87 is_stmt 1 view -0
	@ args = 0, pretend = 0, frame = 0
	@ frame_needed = 0, uses_anonymous_args = 0
	@ link register save eliminated.
.LBB4:
	.loc 1 2241 5 view .LVU168
	.loc 1 2241 37 view .LVU169
	.loc 1 2241 64 view .LVU170
	.loc 1 2241 92 view .LVU171
	.loc 1 2241 113 view .LVU172
.L43:
	.loc 1 2241 118 discriminator 1 view .LVU173
	cmp	r1, #127
	bls	.L45
	.loc 1 2241 141 discriminator 3 view .LVU174
.LVL53:
	.loc 1 2241 162 is_stmt 0 discriminator 3 view .LVU175
	orn	r3, r1, #127
	.loc 1 2241 160 discriminator 3 view .LVU176
	strb	r3, [r0], #1
.LVL54:
	.loc 1 2241 199 is_stmt 1 discriminator 3 view .LVU177
	.loc 1 2241 211 is_stmt 0 discriminator 3 view .LVU178
	lsrs	r1, r1, #7
.LVL55:
	.loc 1 2241 211 discriminator 3 view .LVU179
	b	.L43
.L45:
	.loc 1 2241 219 is_stmt 1 discriminator 4 view .LVU180
	.loc 1 2241 221 discriminator 4 view .LVU181
.LVL56:
	.loc 1 2241 240 is_stmt 0 discriminator 4 view .LVU182
	strb	r1, [r0], #1
.LVL57:
	.loc 1 2241 270 is_stmt 1 discriminator 4 view .LVU183
	.loc 1 2241 270 is_stmt 0 discriminator 4 view .LVU184
.LBE4:
	.loc 1 2241 299 is_stmt 1 discriminator 4 view .LVU185
	.loc 1 2241 300 discriminator 4 view .LVU186
	.loc 1 2242 3 discriminator 4 view .LVU187
	.loc 1 2243 1 is_stmt 0 discriminator 4 view .LVU188
	bx	lr
.LFE50:
	.size	SEGGER_SYSVIEW_EncodeU32, .-SEGGER_SYSVIEW_EncodeU32
	.section	.text.SEGGER_SYSVIEW_EncodeString,"ax",%progbits
	.align	1
	.global	SEGGER_SYSVIEW_EncodeString
	.syntax unified
	.thumb
	.thumb_func
	.fpu fpv4-sp-d16
	.type	SEGGER_SYSVIEW_EncodeString, %function
SEGGER_SYSVIEW_EncodeString:
.LVL58:
.LFB51:
	.loc 1 2267 105 is_stmt 1 view -0
	@ args = 0, pretend = 0, frame = 0
	@ frame_needed = 0, uses_anonymous_args = 0
	.loc 1 2267 105 is_stmt 0 view .LVU190
	push	{r3, lr}
.LCFI12:
	.loc 1 2268 3 is_stmt 1 view .LVU191
	.loc 1 2268 10 is_stmt 0 view .LVU192
	bl	_EncodeStr
.LVL59:
	.loc 1 2269 1 view .LVU193
	pop	{r3, pc}
.LFE51:
	.size	SEGGER_SYSVIEW_EncodeString, .-SEGGER_SYSVIEW_EncodeString
	.section	.text.SEGGER_SYSVIEW_EncodeData,"ax",%progbits
	.align	1
	.global	SEGGER_SYSVIEW_EncodeData
	.syntax unified
	.thumb
	.thumb_func
	.fpu fpv4-sp-d16
	.type	SEGGER_SYSVIEW_EncodeData, %function
SEGGER_SYSVIEW_EncodeData:
.LVL60:
.LFB52:
	.loc 1 2293 108 is_stmt 1 view -0
	@ args = 0, pretend = 0, frame = 0
	@ frame_needed = 0, uses_anonymous_args = 0
	.loc 1 2293 108 is_stmt 0 view .LVU195
	push	{r3, lr}
.LCFI13:
	.loc 1 2294 3 is_stmt 1 view .LVU196
	.loc 1 2294 10 is_stmt 0 view .LVU197
	bl	_EncodeData
.LVL61:
	.loc 1 2295 1 view .LVU198
	pop	{r3, pc}
.LFE52:
	.size	SEGGER_SYSVIEW_EncodeData, .-SEGGER_SYSVIEW_EncodeData
	.section	.text.SEGGER_SYSVIEW_EncodeId,"ax",%progbits
	.align	1
	.global	SEGGER_SYSVIEW_EncodeId
	.syntax unified
	.thumb
	.thumb_func
	.fpu fpv4-sp-d16
	.type	SEGGER_SYSVIEW_EncodeId, %function
SEGGER_SYSVIEW_EncodeId:
.LVL62:
.LFB53:
	.loc 1 2321 83 is_stmt 1 view -0
	@ args = 0, pretend = 0, frame = 0
	@ frame_needed = 0, uses_anonymous_args = 0
	@ link register save eliminated.
	.loc 1 2322 3 view .LVU200
	.loc 1 2322 33 is_stmt 0 view .LVU201
	ldr	r3, .L54
	ldr	r3, [r3, #16]
	.loc 1 2322 15 view .LVU202
	subs	r1, r1, r3
.LVL63:
	.loc 1 2322 6 view .LVU203
	lsrs	r1, r1, #2
.LVL64:
.LBB5:
	.loc 1 2323 5 is_stmt 1 view .LVU204
	.loc 1 2323 37 view .LVU205
	.loc 1 2323 64 view .LVU206
	.loc 1 2323 92 view .LVU207
	.loc 1 2323 110 view .LVU208
.L51:
	.loc 1 2323 115 discriminator 1 view .LVU209
	cmp	r1, #127
	bls	.L53
	.loc 1 2323 138 discriminator 3 view .LVU210
.LVL65:
	.loc 1 2323 159 is_stmt 0 discriminator 3 view .LVU211
	orn	r3, r1, #127
	.loc 1 2323 157 discriminator 3 view .LVU212
	strb	r3, [r0], #1
.LVL66:
	.loc 1 2323 196 is_stmt 1 discriminator 3 view .LVU213
	.loc 1 2323 208 is_stmt 0 discriminator 3 view .LVU214
	lsrs	r1, r1, #7
.LVL67:
	.loc 1 2323 208 discriminator 3 view .LVU215
	b	.L51
.L53:
	.loc 1 2323 216 is_stmt 1 discriminator 4 view .LVU216
	.loc 1 2323 218 discriminator 4 view .LVU217
.LVL68:
	.loc 1 2323 237 is_stmt 0 discriminator 4 view .LVU218
	strb	r1, [r0], #1
.LVL69:
	.loc 1 2323 267 is_stmt 1 discriminator 4 view .LVU219
	.loc 1 2323 267 is_stmt 0 discriminator 4 view .LVU220
.LBE5:
	.loc 1 2323 296 is_stmt 1 discriminator 4 view .LVU221
	.loc 1 2323 297 discriminator 4 view .LVU222
	.loc 1 2324 3 discriminator 4 view .LVU223
	.loc 1 2325 1 is_stmt 0 discriminator 4 view .LVU224
	bx	lr
.L55:
	.align	2
.L54:
	.word	.LANCHOR0
.LFE53:
	.size	SEGGER_SYSVIEW_EncodeId, .-SEGGER_SYSVIEW_EncodeId
	.section	.text.SEGGER_SYSVIEW_ShrinkId,"ax",%progbits
	.align	1
	.global	SEGGER_SYSVIEW_ShrinkId
	.syntax unified
	.thumb
	.thumb_func
	.fpu fpv4-sp-d16
	.type	SEGGER_SYSVIEW_ShrinkId, %function
SEGGER_SYSVIEW_ShrinkId:
.LVL70:
.LFB54:
	.loc 1 2349 57 is_stmt 1 view -0
	@ args = 0, pretend = 0, frame = 0
	@ frame_needed = 0, uses_anonymous_args = 0
	@ link register save eliminated.
	.loc 1 2350 3 view .LVU226
	.loc 1 2350 35 is_stmt 0 view .LVU227
	ldr	r3, .L57
	ldr	r3, [r3, #16]
	.loc 1 2350 17 view .LVU228
	subs	r0, r0, r3
.LVL71:
	.loc 1 2351 1 view .LVU229
	lsrs	r0, r0, #2
	bx	lr
.L58:
	.align	2
.L57:
	.word	.LANCHOR0
.LFE54:
	.size	SEGGER_SYSVIEW_ShrinkId, .-SEGGER_SYSVIEW_ShrinkId
	.section	.text.SEGGER_SYSVIEW_SendModuleDescription,"ax",%progbits
	.align	1
	.global	SEGGER_SYSVIEW_SendModuleDescription
	.syntax unified
	.thumb
	.thumb_func
	.fpu fpv4-sp-d16
	.type	SEGGER_SYSVIEW_SendModuleDescription, %function
SEGGER_SYSVIEW_SendModuleDescription:
.LFB58:
	.loc 1 2492 49 is_stmt 1 view -0
	@ args = 0, pretend = 0, frame = 0
	@ frame_needed = 0, uses_anonymous_args = 0
	push	{r4, lr}
.LCFI14:
	.loc 1 2493 3 view .LVU231
	.loc 1 2495 3 view .LVU232
	.loc 1 2495 21 is_stmt 0 view .LVU233
	ldr	r3, .L64
	ldr	r4, [r3]
	.loc 1 2495 6 view .LVU234
	cbnz	r4, .L62
.L59:
	.loc 1 2504 1 view .LVU235
	pop	{r4, pc}
.LVL72:
.L61:
	.loc 1 2501 7 is_stmt 1 view .LVU236
	.loc 1 2501 15 is_stmt 0 view .LVU237
	ldr	r4, [r4, #16]
.LVL73:
	.loc 1 2502 13 is_stmt 1 view .LVU238
	.loc 1 2502 5 is_stmt 0 view .LVU239
	cmp	r4, #0
	beq	.L59
.LVL74:
.L62:
	.loc 1 2497 5 is_stmt 1 view .LVU240
	.loc 1 2498 7 view .LVU241
	.loc 1 2498 18 is_stmt 0 view .LVU242
	ldr	r3, [r4, #12]
	.loc 1 2498 10 view .LVU243
	cmp	r3, #0
	beq	.L61
	.loc 1 2499 9 is_stmt 1 view .LVU244
	blx	r3
.LVL75:
	b	.L61
.L65:
	.align	2
.L64:
	.word	.LANCHOR2
.LFE58:
	.size	SEGGER_SYSVIEW_SendModuleDescription, .-SEGGER_SYSVIEW_SendModuleDescription
	.section	.text.SEGGER_SYSVIEW_SendNumModules,"ax",%progbits
	.align	1
	.global	SEGGER_SYSVIEW_SendNumModules
	.syntax unified
	.thumb
	.thumb_func
	.fpu fpv4-sp-d16
	.type	SEGGER_SYSVIEW_SendNumModules, %function
SEGGER_SYSVIEW_SendNumModules:
.LFB59:
	.loc 1 2513 42 view -0
	@ args = 0, pretend = 0, frame = 0
	@ frame_needed = 0, uses_anonymous_args = 0
	push	{r4, lr}
.LCFI15:
	.loc 1 2514 3 view .LVU246
	.loc 1 2515 3 view .LVU247
.LBB6:
	.loc 1 2516 5 view .LVU248
	.loc 1 2516 29 view .LVU249
	.syntax unified
@ 2516 "C:\nRF5_SDK_15.0.0_a53641a\examples\ble_peripheral\slam_application-master\systemView\SEGGER_SYSVIEW.c" 1
	mrs   r4, basepri  
	mov   r1, #32       
	msr   basepri, r1  
	
@ 0 "" 2
.LVL76:
	.loc 1 2516 165 view .LVU250
	.loc 1 2516 167 view .LVU251
	.loc 1 2516 183 is_stmt 0 view .LVU252
	.thumb
	.syntax unified
	ldr	r0, .L71
	bl	_PreparePacket
.LVL77:
	.loc 1 2516 208 is_stmt 1 view .LVU253
	.loc 1 2517 3 view .LVU254
.LBB7:
	.loc 1 2518 5 view .LVU255
	.loc 1 2518 37 view .LVU256
	.loc 1 2518 64 view .LVU257
	.loc 1 2518 92 view .LVU258
	.loc 1 2518 104 is_stmt 0 view .LVU259
	ldr	r3, .L71+4
	ldrb	r3, [r3]	@ zero_extendqisi2
.LVL78:
	.loc 1 2518 119 is_stmt 1 view .LVU260
	.loc 1 2518 80 is_stmt 0 view .LVU261
	mov	r1, r0
.LVL79:
.L67:
	.loc 1 2518 124 is_stmt 1 discriminator 1 view .LVU262
	cmp	r3, #127
	bls	.L70
	.loc 1 2518 147 discriminator 3 view .LVU263
.LVL80:
	.loc 1 2518 168 is_stmt 0 discriminator 3 view .LVU264
	orn	r2, r3, #127
	.loc 1 2518 166 discriminator 3 view .LVU265
	strb	r2, [r1], #1
.LVL81:
	.loc 1 2518 205 is_stmt 1 discriminator 3 view .LVU266
	.loc 1 2518 217 is_stmt 0 discriminator 3 view .LVU267
	lsrs	r3, r3, #7
.LVL82:
	.loc 1 2518 217 discriminator 3 view .LVU268
	b	.L67
.L70:
	.loc 1 2518 225 is_stmt 1 discriminator 4 view .LVU269
	.loc 1 2518 227 discriminator 4 view .LVU270
.LVL83:
	.loc 1 2518 246 is_stmt 0 discriminator 4 view .LVU271
	strb	r3, [r1], #1
.LVL84:
	.loc 1 2518 276 is_stmt 1 discriminator 4 view .LVU272
	.loc 1 2518 276 is_stmt 0 discriminator 4 view .LVU273
.LBE7:
	.loc 1 2518 305 is_stmt 1 discriminator 4 view .LVU274
	.loc 1 2518 306 discriminator 4 view .LVU275
	.loc 1 2519 3 discriminator 4 view .LVU276
	movs	r2, #27
	bl	_SendPacket
.LVL85:
	.loc 1 2520 3 discriminator 4 view .LVU277
	.syntax unified
@ 2520 "C:\nRF5_SDK_15.0.0_a53641a\examples\ble_peripheral\slam_application-master\systemView\SEGGER_SYSVIEW.c" 1
	msr   basepri, r4  
	
@ 0 "" 2
	.thumb
	.syntax unified
.LBE6:
	.loc 1 2520 71 discriminator 4 view .LVU278
	.loc 1 2521 1 is_stmt 0 discriminator 4 view .LVU279
	pop	{r4, pc}
.LVL86:
.L72:
	.loc 1 2521 1 discriminator 4 view .LVU280
	.align	2
.L71:
	.word	.LANCHOR3
	.word	.LANCHOR4
.LFE59:
	.size	SEGGER_SYSVIEW_SendNumModules, .-SEGGER_SYSVIEW_SendNumModules
	.section	.text.SEGGER_SYSVIEW_Start,"ax",%progbits
	.align	1
	.global	SEGGER_SYSVIEW_Start
	.syntax unified
	.thumb
	.thumb_func
	.fpu fpv4-sp-d16
	.type	SEGGER_SYSVIEW_Start, %function
SEGGER_SYSVIEW_Start:
.LFB25:
	.loc 1 1658 33 is_stmt 1 view -0
	@ args = 0, pretend = 0, frame = 0
	@ frame_needed = 0, uses_anonymous_args = 0
	push	{r3, r4, r5, lr}
.LCFI16:
	.loc 1 1659 3 view .LVU282
	.loc 1 1659 23 is_stmt 0 view .LVU283
	ldr	r3, .L85
	ldrb	r3, [r3]	@ zero_extendqisi2
	.loc 1 1659 6 view .LVU284
	cbz	r3, .L83
.L73:
	.loc 1 1689 1 view .LVU285
	pop	{r3, r4, r5, pc}
.L83:
	.loc 1 1660 5 is_stmt 1 view .LVU286
	.loc 1 1660 34 is_stmt 0 view .LVU287
	ldr	r5, .L85
	movs	r0, #1
	strb	r0, [r5]
.LBB8:
	.loc 1 1664 7 is_stmt 1 view .LVU288
	.loc 1 1664 31 view .LVU289
	.syntax unified
@ 1664 "C:\nRF5_SDK_15.0.0_a53641a\examples\ble_peripheral\slam_application-master\systemView\SEGGER_SYSVIEW.c" 1
	mrs   r4, basepri  
	mov   r1, #32       
	msr   basepri, r1  
	
@ 0 "" 2
.LVL87:
	.loc 1 1664 167 view .LVU290
	.loc 1 1665 5 view .LVU291
	.thumb
	.syntax unified
	movs	r2, #10
	ldr	r1, .L85+4
	bl	SEGGER_RTT_ASM_WriteSkipNoLock
.LVL88:
	.loc 1 1666 5 view .LVU292
	.syntax unified
@ 1666 "C:\nRF5_SDK_15.0.0_a53641a\examples\ble_peripheral\slam_application-master\systemView\SEGGER_SYSVIEW.c" 1
	msr   basepri, r4  
	
@ 0 "" 2
	.thumb
	.syntax unified
.LBE8:
	.loc 1 1666 73 view .LVU293
	.loc 1 1667 5 view .LVU294
	movs	r0, #10
	bl	SEGGER_SYSVIEW_RecordVoid
.LVL89:
.LBB9:
	.loc 1 1669 7 view .LVU295
	.loc 1 1670 7 view .LVU296
.LBB10:
	.loc 1 1671 9 view .LVU297
	.loc 1 1671 33 view .LVU298
	.syntax unified
@ 1671 "C:\nRF5_SDK_15.0.0_a53641a\examples\ble_peripheral\slam_application-master\systemView\SEGGER_SYSVIEW.c" 1
	mrs   r4, basepri  
	mov   r1, #32       
	msr   basepri, r1  
	
@ 0 "" 2
.LVL90:
	.loc 1 1671 169 view .LVU299
	.loc 1 1671 171 view .LVU300
	.loc 1 1671 187 is_stmt 0 view .LVU301
	.thumb
	.syntax unified
	ldr	r0, .L85+8
	bl	_PreparePacket
.LVL91:
	.loc 1 1671 212 is_stmt 1 view .LVU302
	.loc 1 1673 7 view .LVU303
.LBB11:
	.loc 1 1674 9 view .LVU304
	.loc 1 1674 41 view .LVU305
	.loc 1 1674 68 view .LVU306
	.loc 1 1674 96 view .LVU307
	.loc 1 1674 108 is_stmt 0 view .LVU308
	ldr	r2, [r5, #4]
.LVL92:
	.loc 1 1674 136 is_stmt 1 view .LVU309
	.loc 1 1674 84 is_stmt 0 view .LVU310
	mov	r3, r0
.LVL93:
.L75:
	.loc 1 1674 141 is_stmt 1 discriminator 1 view .LVU311
	cmp	r2, #127
	bls	.L84
	.loc 1 1674 164 discriminator 3 view .LVU312
.LVL94:
	.loc 1 1674 185 is_stmt 0 discriminator 3 view .LVU313
	orn	r1, r2, #127
	.loc 1 1674 183 discriminator 3 view .LVU314
	strb	r1, [r3], #1
.LVL95:
	.loc 1 1674 222 is_stmt 1 discriminator 3 view .LVU315
	.loc 1 1674 234 is_stmt 0 discriminator 3 view .LVU316
	lsrs	r2, r2, #7
.LVL96:
	.loc 1 1674 234 discriminator 3 view .LVU317
	b	.L75
.L84:
	.loc 1 1674 242 is_stmt 1 discriminator 4 view .LVU318
	.loc 1 1674 244 discriminator 4 view .LVU319
.LVL97:
	.loc 1 1674 263 is_stmt 0 discriminator 4 view .LVU320
	strb	r2, [r3], #1
.LVL98:
	.loc 1 1674 293 is_stmt 1 discriminator 4 view .LVU321
	.loc 1 1674 293 is_stmt 0 discriminator 4 view .LVU322
.LBE11:
	.loc 1 1674 322 is_stmt 1 discriminator 4 view .LVU323
	.loc 1 1674 323 discriminator 4 view .LVU324
.LBB12:
	.loc 1 1675 9 discriminator 4 view .LVU325
	.loc 1 1675 41 discriminator 4 view .LVU326
	.loc 1 1675 68 discriminator 4 view .LVU327
	.loc 1 1675 96 discriminator 4 view .LVU328
	.loc 1 1675 108 is_stmt 0 discriminator 4 view .LVU329
	ldr	r2, .L85
.LVL99:
	.loc 1 1675 108 discriminator 4 view .LVU330
	ldr	r2, [r2, #8]
.LVL100:
	.loc 1 1675 136 is_stmt 1 discriminator 4 view .LVU331
	.loc 1 1675 141 is_stmt 0 discriminator 4 view .LVU332
	b	.L77
.LVL101:
.L78:
	.loc 1 1675 164 is_stmt 1 discriminator 3 view .LVU333
	.loc 1 1675 185 is_stmt 0 discriminator 3 view .LVU334
	orn	r1, r2, #127
	.loc 1 1675 183 discriminator 3 view .LVU335
	strb	r1, [r3], #1
.LVL102:
	.loc 1 1675 222 is_stmt 1 discriminator 3 view .LVU336
	.loc 1 1675 234 is_stmt 0 discriminator 3 view .LVU337
	lsrs	r2, r2, #7
.LVL103:
.L77:
	.loc 1 1675 141 is_stmt 1 discriminator 1 view .LVU338
	cmp	r2, #127
	bhi	.L78
	.loc 1 1675 242 discriminator 4 view .LVU339
	.loc 1 1675 244 discriminator 4 view .LVU340
.LVL104:
	.loc 1 1675 263 is_stmt 0 discriminator 4 view .LVU341
	strb	r2, [r3], #1
.LVL105:
	.loc 1 1675 293 is_stmt 1 discriminator 4 view .LVU342
	.loc 1 1675 293 is_stmt 0 discriminator 4 view .LVU343
.LBE12:
	.loc 1 1675 322 is_stmt 1 discriminator 4 view .LVU344
	.loc 1 1675 323 discriminator 4 view .LVU345
.LBB13:
	.loc 1 1676 9 discriminator 4 view .LVU346
	.loc 1 1676 41 discriminator 4 view .LVU347
	.loc 1 1676 68 discriminator 4 view .LVU348
	.loc 1 1676 96 discriminator 4 view .LVU349
	.loc 1 1676 108 is_stmt 0 discriminator 4 view .LVU350
	ldr	r2, .L85
.LVL106:
	.loc 1 1676 108 discriminator 4 view .LVU351
	ldr	r2, [r2, #16]
.LVL107:
	.loc 1 1676 143 is_stmt 1 discriminator 4 view .LVU352
	.loc 1 1676 148 is_stmt 0 discriminator 4 view .LVU353
	b	.L79
.LVL108:
.L80:
	.loc 1 1676 171 is_stmt 1 discriminator 3 view .LVU354
	.loc 1 1676 192 is_stmt 0 discriminator 3 view .LVU355
	orn	r1, r2, #127
	.loc 1 1676 190 discriminator 3 view .LVU356
	strb	r1, [r3], #1
.LVL109:
	.loc 1 1676 229 is_stmt 1 discriminator 3 view .LVU357
	.loc 1 1676 241 is_stmt 0 discriminator 3 view .LVU358
	lsrs	r2, r2, #7
.LVL110:
.L79:
	.loc 1 1676 148 is_stmt 1 discriminator 1 view .LVU359
	cmp	r2, #127
	bhi	.L80
	.loc 1 1676 249 discriminator 4 view .LVU360
	.loc 1 1676 251 discriminator 4 view .LVU361
.LVL111:
	.loc 1 1676 270 is_stmt 0 discriminator 4 view .LVU362
	mov	r1, r3
	strb	r2, [r1], #2
	.loc 1 1676 300 is_stmt 1 discriminator 4 view .LVU363
.LVL112:
	.loc 1 1676 300 is_stmt 0 discriminator 4 view .LVU364
.LBE13:
	.loc 1 1676 329 is_stmt 1 discriminator 4 view .LVU365
	.loc 1 1676 330 discriminator 4 view .LVU366
.LBB14:
	.loc 1 1677 9 discriminator 4 view .LVU367
	.loc 1 1677 41 discriminator 4 view .LVU368
	.loc 1 1677 68 discriminator 4 view .LVU369
	.loc 1 1677 96 discriminator 4 view .LVU370
	.loc 1 1677 113 discriminator 4 view .LVU371
	.loc 1 1677 118 discriminator 4 view .LVU372
	.loc 1 1677 219 discriminator 4 view .LVU373
	.loc 1 1677 221 discriminator 4 view .LVU374
	.loc 1 1677 240 is_stmt 0 discriminator 4 view .LVU375
	movs	r2, #2
.LVL113:
	.loc 1 1677 240 discriminator 4 view .LVU376
	strb	r2, [r3, #1]
	.loc 1 1677 270 is_stmt 1 discriminator 4 view .LVU377
.LVL114:
	.loc 1 1677 270 is_stmt 0 discriminator 4 view .LVU378
.LBE14:
	.loc 1 1677 299 is_stmt 1 discriminator 4 view .LVU379
	.loc 1 1677 300 discriminator 4 view .LVU380
	.loc 1 1678 7 discriminator 4 view .LVU381
	movs	r2, #24
	bl	_SendPacket
.LVL115:
	.loc 1 1679 7 discriminator 4 view .LVU382
	.syntax unified
@ 1679 "C:\nRF5_SDK_15.0.0_a53641a\examples\ble_peripheral\slam_application-master\systemView\SEGGER_SYSVIEW.c" 1
	msr   basepri, r4  
	
@ 0 "" 2
	.thumb
	.syntax unified
.LBE10:
	.loc 1 1679 75 discriminator 4 view .LVU383
.LBE9:
	.loc 1 1681 5 discriminator 4 view .LVU384
	.loc 1 1681 25 is_stmt 0 discriminator 4 view .LVU385
	ldr	r3, .L85
	ldr	r3, [r3, #36]
	.loc 1 1681 8 discriminator 4 view .LVU386
	cbz	r3, .L81
	.loc 1 1682 7 is_stmt 1 view .LVU387
	blx	r3
.LVL116:
.L81:
	.loc 1 1684 5 view .LVU388
	bl	SEGGER_SYSVIEW_RecordSystime
.LVL117:
	.loc 1 1685 5 view .LVU389
	bl	SEGGER_SYSVIEW_SendTaskList
.LVL118:
	.loc 1 1686 5 view .LVU390
	bl	SEGGER_SYSVIEW_SendNumModules
.LVL119:
	.loc 1 1689 1 is_stmt 0 view .LVU391
	b	.L73
.L86:
	.align	2
.L85:
	.word	.LANCHOR0
	.word	.LANCHOR5
	.word	.LANCHOR3
.LFE25:
	.size	SEGGER_SYSVIEW_Start, .-SEGGER_SYSVIEW_Start
	.section	.text._HandleIncomingPacket,"ax",%progbits
	.align	1
	.syntax unified
	.thumb
	.thumb_func
	.fpu fpv4-sp-d16
	.type	_HandleIncomingPacket, %function
_HandleIncomingPacket:
.LFB3:
	.loc 1 457 41 is_stmt 1 view -0
	@ args = 0, pretend = 0, frame = 8
	@ frame_needed = 0, uses_anonymous_args = 0
	push	{lr}
.LCFI17:
	sub	sp, sp, #12
.LCFI18:
	.loc 1 458 3 view .LVU393
	.loc 1 459 3 view .LVU394
	.loc 1 461 3 view .LVU395
	.loc 1 461 12 is_stmt 0 view .LVU396
	movs	r2, #1
	add	r1, sp, #7
	mov	r0, r2
	bl	SEGGER_RTT_ReadNoLock
.LVL120:
	.loc 1 462 3 is_stmt 1 view .LVU397
	.loc 1 462 6 is_stmt 0 view .LVU398
	cmp	r0, #0
	ble	.L87
	.loc 1 463 5 is_stmt 1 view .LVU399
	ldrb	r3, [sp, #7]	@ zero_extendqisi2
	cmp	r3, #7
	bhi	.L89
	sxtb	r2, r3
	cbz	r2, .L90
	subs	r2, r3, #1
	cmp	r2, #6
	bhi	.L90
	tbb	[pc, r2]
.L92:
	.byte	(.L98-.L92)/2
	.byte	(.L97-.L92)/2
	.byte	(.L96-.L92)/2
	.byte	(.L95-.L92)/2
	.byte	(.L94-.L92)/2
	.byte	(.L93-.L92)/2
	.byte	(.L91-.L92)/2
	.p2align 1
.L89:
	cmp	r3, #128
	bne	.L90
	.loc 1 486 7 view .LVU400
	.loc 1 486 16 is_stmt 0 view .LVU401
	movs	r2, #1
	add	r1, sp, #7
	mov	r0, r2
.LVL121:
	.loc 1 486 16 view .LVU402
	bl	SEGGER_RTT_ReadNoLock
.LVL122:
	.loc 1 487 7 is_stmt 1 view .LVU403
	.loc 1 487 10 is_stmt 0 view .LVU404
	cmp	r0, #0
	ble	.L87
	.loc 1 488 9 is_stmt 1 view .LVU405
	ldrb	r0, [sp, #7]	@ zero_extendqisi2
.LVL123:
	.loc 1 488 9 is_stmt 0 view .LVU406
	bl	SEGGER_SYSVIEW_SendModule
.LVL124:
	b	.L87
.LVL125:
.L98:
	.loc 1 465 7 is_stmt 1 view .LVU407
	bl	SEGGER_SYSVIEW_Start
.LVL126:
	.loc 1 466 7 view .LVU408
.L87:
	.loc 1 498 1 is_stmt 0 view .LVU409
	add	sp, sp, #12
.LCFI19:
	@ sp needed
	ldr	pc, [sp], #4
.LVL127:
.L97:
.LCFI20:
	.loc 1 468 7 is_stmt 1 view .LVU410
	bl	SEGGER_SYSVIEW_Stop
.LVL128:
	.loc 1 469 7 view .LVU411
	b	.L87
.LVL129:
.L96:
	.loc 1 471 7 view .LVU412
	bl	SEGGER_SYSVIEW_RecordSystime
.LVL130:
	.loc 1 472 7 view .LVU413
	b	.L87
.LVL131:
.L95:
	.loc 1 474 7 view .LVU414
	bl	SEGGER_SYSVIEW_SendTaskList
.LVL132:
	.loc 1 475 7 view .LVU415
	b	.L87
.LVL133:
.L94:
	.loc 1 477 7 view .LVU416
	bl	SEGGER_SYSVIEW_GetSysDesc
.LVL134:
	.loc 1 478 7 view .LVU417
	b	.L87
.LVL135:
.L93:
	.loc 1 480 7 view .LVU418
	bl	SEGGER_SYSVIEW_SendNumModules
.LVL136:
	.loc 1 481 7 view .LVU419
	b	.L87
.LVL137:
.L91:
	.loc 1 483 7 view .LVU420
	bl	SEGGER_SYSVIEW_SendModuleDescription
.LVL138:
	.loc 1 484 7 view .LVU421
	b	.L87
.LVL139:
.L90:
	.loc 1 492 7 view .LVU422
	.loc 1 492 10 is_stmt 0 view .LVU423
	tst	r3, #128
	beq	.L87
	.loc 1 493 9 is_stmt 1 view .LVU424
	movs	r2, #1
	add	r1, sp, #7
	mov	r0, r2
.LVL140:
	.loc 1 493 9 is_stmt 0 view .LVU425
	bl	SEGGER_RTT_ReadNoLock
.LVL141:
	.loc 1 498 1 view .LVU426
	b	.L87
.LFE3:
	.size	_HandleIncomingPacket, .-_HandleIncomingPacket
	.section	.text._SendPacket,"ax",%progbits
	.align	1
	.syntax unified
	.thumb
	.thumb_func
	.fpu fpv4-sp-d16
	.type	_SendPacket, %function
_SendPacket:
.LVL142:
.LFB5:
	.loc 1 625 103 is_stmt 1 view -0
	@ args = 0, pretend = 0, frame = 0
	@ frame_needed = 0, uses_anonymous_args = 0
	.loc 1 625 103 is_stmt 0 view .LVU428
	push	{r4, r5, r6, lr}
.LCFI21:
	mov	r6, r0
	mov	r4, r1
	mov	r5, r2
	.loc 1 626 3 is_stmt 1 view .LVU429
	.loc 1 627 3 view .LVU430
	.loc 1 628 3 view .LVU431
	.loc 1 630 3 view .LVU432
	.loc 1 642 3 view .LVU433
	.loc 1 642 23 is_stmt 0 view .LVU434
	ldr	r3, .L117
	ldrb	r3, [r3]	@ zero_extendqisi2
	.loc 1 642 6 view .LVU435
	cmp	r3, #1
	beq	.L102
	.loc 1 645 3 is_stmt 1 view .LVU436
	.loc 1 645 6 is_stmt 0 view .LVU437
	cmp	r3, #0
	beq	.L103
	.loc 1 653 3 is_stmt 1 view .LVU438
	.loc 1 653 6 is_stmt 0 view .LVU439
	cmp	r3, #2
	beq	.L115
.LVL143:
.L102:
	.loc 1 664 3 is_stmt 1 view .LVU440
	.loc 1 664 6 is_stmt 0 view .LVU441
	cmp	r5, #31
	bhi	.L104
	.loc 1 665 5 is_stmt 1 view .LVU442
	.loc 1 665 25 is_stmt 0 view .LVU443
	ldr	r3, .L117
	ldr	r3, [r3, #28]
	.loc 1 665 9 view .LVU444
	lsrs	r3, r3, r5
	.loc 1 665 8 view .LVU445
	tst	r3, #1
	bne	.L103
.L104:
	.loc 1 674 3 is_stmt 1 view .LVU446
	.loc 1 674 6 is_stmt 0 view .LVU447
	cmp	r5, #23
	bhi	.L105
	.loc 1 675 5 is_stmt 1 view .LVU448
	.loc 1 675 21 is_stmt 0 view .LVU449
	subs	r1, r6, #1
.LVL144:
	.loc 1 675 21 view .LVU450
	strb	r5, [r6, #-1]
.LVL145:
.L106:
	.loc 1 694 3 is_stmt 1 view .LVU451
	.loc 1 694 13 is_stmt 0 view .LVU452
	ldr	r3, .L117+4
	ldr	r5, [r3]
.LVL146:
	.loc 1 695 3 is_stmt 1 view .LVU453
	.loc 1 695 39 is_stmt 0 view .LVU454
	ldr	r3, .L117
	ldr	r3, [r3, #12]
	.loc 1 695 9 view .LVU455
	subs	r3, r5, r3
.LVL147:
	.loc 1 696 3 is_stmt 1 view .LVU456
.LBB15:
	.loc 1 697 5 view .LVU457
	.loc 1 697 37 view .LVU458
	.loc 1 697 64 view .LVU459
	.loc 1 697 94 view .LVU460
	.loc 1 697 115 view .LVU461
	.loc 1 697 120 is_stmt 0 view .LVU462
	b	.L110
.LVL148:
.L115:
	.loc 1 697 120 view .LVU463
.LBE15:
	.loc 1 654 5 is_stmt 1 view .LVU464
	bl	_TrySendOverflowPacket
.LVL149:
	.loc 1 655 5 view .LVU465
	.loc 1 655 25 is_stmt 0 view .LVU466
	ldr	r3, .L117
	ldrb	r3, [r3]	@ zero_extendqisi2
	.loc 1 655 8 view .LVU467
	cmp	r3, #1
	bne	.L103
	.loc 1 659 1 view .LVU468
	b	.L102
.L105:
	.loc 1 677 5 is_stmt 1 view .LVU469
	.loc 1 677 27 is_stmt 0 view .LVU470
	subs	r3, r4, r6
.LVL150:
	.loc 1 678 5 is_stmt 1 view .LVU471
	.loc 1 678 8 is_stmt 0 view .LVU472
	cmp	r3, #127
	bls	.L107
	.loc 1 679 7 is_stmt 1 view .LVU473
	.loc 1 679 35 is_stmt 0 view .LVU474
	lsrs	r2, r3, #7
.LVL151:
	.loc 1 679 23 view .LVU475
	strb	r2, [r6, #-1]
	.loc 1 680 7 is_stmt 1 view .LVU476
	.loc 1 680 23 is_stmt 0 view .LVU477
	subs	r0, r6, #2
.LVL152:
	.loc 1 680 34 view .LVU478
	orn	r3, r3, #127
.LVL153:
	.loc 1 680 23 view .LVU479
	strb	r3, [r6, #-2]
.L108:
	.loc 1 684 5 is_stmt 1 view .LVU480
	.loc 1 684 8 is_stmt 0 view .LVU481
	cmp	r5, #127
	bls	.L109
	.loc 1 685 7 is_stmt 1 view .LVU482
	.loc 1 685 34 is_stmt 0 view .LVU483
	lsrs	r3, r5, #7
.LVL154:
	.loc 1 685 23 view .LVU484
	strb	r3, [r0, #-1]
	.loc 1 686 7 is_stmt 1 view .LVU485
	.loc 1 686 23 is_stmt 0 view .LVU486
	subs	r1, r0, #2
.LVL155:
	.loc 1 686 33 view .LVU487
	orn	r5, r5, #127
.LVL156:
	.loc 1 686 23 view .LVU488
	strb	r5, [r0, #-2]
	b	.L106
.LVL157:
.L107:
	.loc 1 682 7 is_stmt 1 view .LVU489
	.loc 1 682 23 is_stmt 0 view .LVU490
	subs	r0, r6, #1
.LVL158:
	.loc 1 682 23 view .LVU491
	strb	r3, [r6, #-1]
	b	.L108
.LVL159:
.L109:
	.loc 1 688 7 is_stmt 1 view .LVU492
	.loc 1 688 23 is_stmt 0 view .LVU493
	subs	r1, r0, #1
.LVL160:
	.loc 1 688 23 view .LVU494
	strb	r5, [r0, #-1]
	b	.L106
.LVL161:
.L111:
.LBB16:
	.loc 1 697 143 is_stmt 1 discriminator 3 view .LVU495
	.loc 1 697 159 is_stmt 0 discriminator 3 view .LVU496
	mov	r2, r4
.LVL162:
	.loc 1 697 164 discriminator 3 view .LVU497
	orn	r0, r3, #127
	.loc 1 697 162 discriminator 3 view .LVU498
	strb	r0, [r2], #1
.LVL163:
	.loc 1 697 201 is_stmt 1 discriminator 3 view .LVU499
	.loc 1 697 213 is_stmt 0 discriminator 3 view .LVU500
	lsrs	r3, r3, #7
.LVL164:
	.loc 1 697 159 discriminator 3 view .LVU501
	mov	r4, r2
.LVL165:
.L110:
	.loc 1 697 120 is_stmt 1 discriminator 1 view .LVU502
	cmp	r3, #127
	bhi	.L111
	.loc 1 697 221 discriminator 4 view .LVU503
	.loc 1 697 223 discriminator 4 view .LVU504
.LVL166:
	.loc 1 697 242 is_stmt 0 discriminator 4 view .LVU505
	strb	r3, [r4], #1
.LVL167:
	.loc 1 697 272 is_stmt 1 discriminator 4 view .LVU506
	.loc 1 697 272 is_stmt 0 discriminator 4 view .LVU507
.LBE16:
	.loc 1 697 303 is_stmt 1 discriminator 4 view .LVU508
	.loc 1 697 304 discriminator 4 view .LVU509
	.loc 1 708 3 discriminator 4 view .LVU510
	.loc 1 708 12 is_stmt 0 discriminator 4 view .LVU511
	subs	r2, r4, r1
	movs	r0, #1
	bl	SEGGER_RTT_ASM_WriteSkipNoLock
.LVL168:
	.loc 1 709 3 is_stmt 1 discriminator 4 view .LVU512
	.loc 1 709 6 is_stmt 0 discriminator 4 view .LVU513
	cbz	r0, .L112
	.loc 1 710 5 is_stmt 1 view .LVU514
	.loc 1 710 38 is_stmt 0 view .LVU515
	ldr	r3, .L117
	str	r5, [r3, #12]
.LVL169:
.L103:
	.loc 1 737 3 is_stmt 1 view .LVU516
	.loc 1 737 28 is_stmt 0 view .LVU517
	ldr	r3, .L117+8
	ldr	r2, [r3, #132]
	.loc 1 737 57 view .LVU518
	ldr	r3, [r3, #136]
	.loc 1 737 6 view .LVU519
	cmp	r2, r3
	beq	.L101
	.loc 1 738 5 is_stmt 1 view .LVU520
	.loc 1 738 25 is_stmt 0 view .LVU521
	ldr	r3, .L117
	ldrb	r3, [r3, #2]	@ zero_extendqisi2
	.loc 1 738 8 view .LVU522
	cbz	r3, .L116
.LVL170:
.L101:
	.loc 1 749 1 view .LVU523
	pop	{r4, r5, r6, pc}
.LVL171:
.L112:
	.loc 1 712 5 is_stmt 1 view .LVU524
	.loc 1 712 21 is_stmt 0 view .LVU525
	ldr	r2, .L117
	ldrb	r3, [r2]	@ zero_extendqisi2
	.loc 1 712 33 view .LVU526
	adds	r3, r3, #1
	strb	r3, [r2]
	b	.L103
.LVL172:
.L116:
	.loc 1 739 7 is_stmt 1 view .LVU527
	.loc 1 739 37 is_stmt 0 view .LVU528
	ldr	r4, .L117
.LVL173:
	.loc 1 739 37 view .LVU529
	movs	r3, #1
	strb	r3, [r4, #2]
	.loc 1 740 7 is_stmt 1 view .LVU530
	bl	_HandleIncomingPacket
.LVL174:
	.loc 1 741 7 view .LVU531
	.loc 1 741 37 is_stmt 0 view .LVU532
	movs	r3, #0
	strb	r3, [r4, #2]
	.loc 1 749 1 view .LVU533
	b	.L101
.L118:
	.align	2
.L117:
	.word	.LANCHOR0
	.word	-536866812
	.word	_SEGGER_RTT
.LFE5:
	.size	_SendPacket, .-_SendPacket
	.section	.text.SEGGER_SYSVIEW_RecordVoid,"ax",%progbits
	.align	1
	.global	SEGGER_SYSVIEW_RecordVoid
	.syntax unified
	.thumb
	.thumb_func
	.fpu fpv4-sp-d16
	.type	SEGGER_SYSVIEW_RecordVoid, %function
SEGGER_SYSVIEW_RecordVoid:
.LVL175:
.LFB13:
	.loc 1 1295 54 is_stmt 1 view -0
	@ args = 0, pretend = 0, frame = 0
	@ frame_needed = 0, uses_anonymous_args = 0
	.loc 1 1295 54 is_stmt 0 view .LVU535
	push	{r3, r4, r5, lr}
.LCFI22:
	mov	r4, r0
	.loc 1 1296 3 is_stmt 1 view .LVU536
.LBB17:
	.loc 1 1297 5 view .LVU537
	.loc 1 1297 29 view .LVU538
	.syntax unified
@ 1297 "C:\nRF5_SDK_15.0.0_a53641a\examples\ble_peripheral\slam_application-master\systemView\SEGGER_SYSVIEW.c" 1
	mrs   r5, basepri  
	mov   r1, #32       
	msr   basepri, r1  
	
@ 0 "" 2
.LVL176:
	.loc 1 1297 165 view .LVU539
	.loc 1 1297 167 view .LVU540
	.loc 1 1297 183 is_stmt 0 view .LVU541
	.thumb
	.syntax unified
	ldr	r0, .L121
.LVL177:
	.loc 1 1297 183 view .LVU542
	bl	_PreparePacket
.LVL178:
	mov	r1, r0
.LVL179:
	.loc 1 1297 208 is_stmt 1 view .LVU543
	.loc 1 1299 3 view .LVU544
	mov	r2, r4
	bl	_SendPacket
.LVL180:
	.loc 1 1300 3 view .LVU545
	.syntax unified
@ 1300 "C:\nRF5_SDK_15.0.0_a53641a\examples\ble_peripheral\slam_application-master\systemView\SEGGER_SYSVIEW.c" 1
	msr   basepri, r5  
	
@ 0 "" 2
	.thumb
	.syntax unified
.LBE17:
	.loc 1 1300 71 view .LVU546
	.loc 1 1301 1 is_stmt 0 view .LVU547
	pop	{r3, r4, r5, pc}
.LVL181:
.L122:
	.loc 1 1301 1 view .LVU548
	.align	2
.L121:
	.word	.LANCHOR3
.LFE13:
	.size	SEGGER_SYSVIEW_RecordVoid, .-SEGGER_SYSVIEW_RecordVoid
	.section	.text.SEGGER_SYSVIEW_RecordU32,"ax",%progbits
	.align	1
	.global	SEGGER_SYSVIEW_RecordU32
	.syntax unified
	.thumb
	.thumb_func
	.fpu fpv4-sp-d16
	.type	SEGGER_SYSVIEW_RecordU32, %function
SEGGER_SYSVIEW_RecordU32:
.LVL182:
.LFB14:
	.loc 1 1315 74 is_stmt 1 view -0
	@ args = 0, pretend = 0, frame = 0
	@ frame_needed = 0, uses_anonymous_args = 0
	.loc 1 1315 74 is_stmt 0 view .LVU550
	push	{r4, r5, r6, lr}
.LCFI23:
	mov	r5, r0
	mov	r4, r1
	.loc 1 1316 3 is_stmt 1 view .LVU551
	.loc 1 1317 3 view .LVU552
.LBB18:
	.loc 1 1318 5 view .LVU553
	.loc 1 1318 29 view .LVU554
	.syntax unified
@ 1318 "C:\nRF5_SDK_15.0.0_a53641a\examples\ble_peripheral\slam_application-master\systemView\SEGGER_SYSVIEW.c" 1
	mrs   r6, basepri  
	mov   r1, #32       
	msr   basepri, r1  
	
@ 0 "" 2
.LVL183:
	.loc 1 1318 165 view .LVU555
	.loc 1 1318 167 view .LVU556
	.loc 1 1318 183 is_stmt 0 view .LVU557
	.thumb
	.syntax unified
	ldr	r0, .L128
.LVL184:
	.loc 1 1318 183 view .LVU558
	bl	_PreparePacket
.LVL185:
	.loc 1 1318 208 is_stmt 1 view .LVU559
	.loc 1 1320 3 view .LVU560
.LBB19:
	.loc 1 1321 5 view .LVU561
	.loc 1 1321 37 view .LVU562
	.loc 1 1321 64 view .LVU563
	.loc 1 1321 92 view .LVU564
	.loc 1 1321 113 view .LVU565
	.loc 1 1321 80 is_stmt 0 view .LVU566
	mov	r1, r0
.LVL186:
.L124:
	.loc 1 1321 118 is_stmt 1 discriminator 1 view .LVU567
	cmp	r4, #127
	bls	.L127
	.loc 1 1321 141 discriminator 3 view .LVU568
.LVL187:
	.loc 1 1321 162 is_stmt 0 discriminator 3 view .LVU569
	orn	r3, r4, #127
	.loc 1 1321 160 discriminator 3 view .LVU570
	strb	r3, [r1], #1
.LVL188:
	.loc 1 1321 199 is_stmt 1 discriminator 3 view .LVU571
	.loc 1 1321 211 is_stmt 0 discriminator 3 view .LVU572
	lsrs	r4, r4, #7
.LVL189:
	.loc 1 1321 211 discriminator 3 view .LVU573
	b	.L124
.L127:
	.loc 1 1321 219 is_stmt 1 discriminator 4 view .LVU574
	.loc 1 1321 221 discriminator 4 view .LVU575
.LVL190:
	.loc 1 1321 240 is_stmt 0 discriminator 4 view .LVU576
	strb	r4, [r1], #1
.LVL191:
	.loc 1 1321 270 is_stmt 1 discriminator 4 view .LVU577
	.loc 1 1321 270 is_stmt 0 discriminator 4 view .LVU578
.LBE19:
	.loc 1 1321 299 is_stmt 1 discriminator 4 view .LVU579
	.loc 1 1321 300 discriminator 4 view .LVU580
	.loc 1 1322 3 discriminator 4 view .LVU581
	mov	r2, r5
	bl	_SendPacket
.LVL192:
	.loc 1 1323 3 discriminator 4 view .LVU582
	.syntax unified
@ 1323 "C:\nRF5_SDK_15.0.0_a53641a\examples\ble_peripheral\slam_application-master\systemView\SEGGER_SYSVIEW.c" 1
	msr   basepri, r6  
	
@ 0 "" 2
	.thumb
	.syntax unified
.LBE18:
	.loc 1 1323 71 discriminator 4 view .LVU583
	.loc 1 1324 1 is_stmt 0 discriminator 4 view .LVU584
	pop	{r4, r5, r6, pc}
.LVL193:
.L129:
	.loc 1 1324 1 discriminator 4 view .LVU585
	.align	2
.L128:
	.word	.LANCHOR3
.LFE14:
	.size	SEGGER_SYSVIEW_RecordU32, .-SEGGER_SYSVIEW_RecordU32
	.section	.text.SEGGER_SYSVIEW_RecordU32x2,"ax",%progbits
	.align	1
	.global	SEGGER_SYSVIEW_RecordU32x2
	.syntax unified
	.thumb
	.thumb_func
	.fpu fpv4-sp-d16
	.type	SEGGER_SYSVIEW_RecordU32x2, %function
SEGGER_SYSVIEW_RecordU32x2:
.LVL194:
.LFB15:
	.loc 1 1338 97 is_stmt 1 view -0
	@ args = 0, pretend = 0, frame = 0
	@ frame_needed = 0, uses_anonymous_args = 0
	.loc 1 1338 97 is_stmt 0 view .LVU587
	push	{r3, r4, r5, r6, r7, lr}
.LCFI24:
	mov	r5, r0
	mov	r7, r1
	mov	r4, r2
	.loc 1 1339 3 is_stmt 1 view .LVU588
	.loc 1 1340 3 view .LVU589
.LBB20:
	.loc 1 1341 5 view .LVU590
	.loc 1 1341 29 view .LVU591
	.syntax unified
@ 1341 "C:\nRF5_SDK_15.0.0_a53641a\examples\ble_peripheral\slam_application-master\systemView\SEGGER_SYSVIEW.c" 1
	mrs   r6, basepri  
	mov   r1, #32       
	msr   basepri, r1  
	
@ 0 "" 2
.LVL195:
	.loc 1 1341 165 view .LVU592
	.loc 1 1341 167 view .LVU593
	.loc 1 1341 183 is_stmt 0 view .LVU594
	.thumb
	.syntax unified
	ldr	r0, .L137
.LVL196:
	.loc 1 1341 183 view .LVU595
	bl	_PreparePacket
.LVL197:
	.loc 1 1341 208 is_stmt 1 view .LVU596
	.loc 1 1343 3 view .LVU597
.LBB21:
	.loc 1 1344 5 view .LVU598
	.loc 1 1344 37 view .LVU599
	.loc 1 1344 64 view .LVU600
	.loc 1 1344 92 view .LVU601
	.loc 1 1344 113 view .LVU602
	.loc 1 1344 80 is_stmt 0 view .LVU603
	mov	r1, r0
.LVL198:
.L131:
	.loc 1 1344 118 is_stmt 1 discriminator 1 view .LVU604
	cmp	r7, #127
	bls	.L136
	.loc 1 1344 141 discriminator 3 view .LVU605
.LVL199:
	.loc 1 1344 162 is_stmt 0 discriminator 3 view .LVU606
	orn	r3, r7, #127
	.loc 1 1344 160 discriminator 3 view .LVU607
	strb	r3, [r1], #1
.LVL200:
	.loc 1 1344 199 is_stmt 1 discriminator 3 view .LVU608
	.loc 1 1344 211 is_stmt 0 discriminator 3 view .LVU609
	lsrs	r7, r7, #7
.LVL201:
	.loc 1 1344 211 discriminator 3 view .LVU610
	b	.L131
.L136:
	.loc 1 1344 219 is_stmt 1 discriminator 4 view .LVU611
	.loc 1 1344 221 discriminator 4 view .LVU612
.LVL202:
	.loc 1 1344 240 is_stmt 0 discriminator 4 view .LVU613
	strb	r7, [r1], #1
.LVL203:
	.loc 1 1344 270 is_stmt 1 discriminator 4 view .LVU614
	.loc 1 1344 270 is_stmt 0 discriminator 4 view .LVU615
.LBE21:
	.loc 1 1344 299 is_stmt 1 discriminator 4 view .LVU616
	.loc 1 1344 300 discriminator 4 view .LVU617
.LBB22:
	.loc 1 1345 5 discriminator 4 view .LVU618
	.loc 1 1345 37 discriminator 4 view .LVU619
	.loc 1 1345 64 discriminator 4 view .LVU620
	.loc 1 1345 92 discriminator 4 view .LVU621
	.loc 1 1345 113 discriminator 4 view .LVU622
	.loc 1 1345 118 is_stmt 0 discriminator 4 view .LVU623
	b	.L133
.LVL204:
.L134:
	.loc 1 1345 141 is_stmt 1 discriminator 3 view .LVU624
	.loc 1 1345 162 is_stmt 0 discriminator 3 view .LVU625
	orn	r3, r4, #127
	.loc 1 1345 160 discriminator 3 view .LVU626
	strb	r3, [r1], #1
.LVL205:
	.loc 1 1345 199 is_stmt 1 discriminator 3 view .LVU627
	.loc 1 1345 211 is_stmt 0 discriminator 3 view .LVU628
	lsrs	r4, r4, #7
.LVL206:
.L133:
	.loc 1 1345 118 is_stmt 1 discriminator 1 view .LVU629
	cmp	r4, #127
	bhi	.L134
	.loc 1 1345 219 discriminator 4 view .LVU630
	.loc 1 1345 221 discriminator 4 view .LVU631
.LVL207:
	.loc 1 1345 240 is_stmt 0 discriminator 4 view .LVU632
	strb	r4, [r1], #1
.LVL208:
	.loc 1 1345 270 is_stmt 1 discriminator 4 view .LVU633
	.loc 1 1345 270 is_stmt 0 discriminator 4 view .LVU634
.LBE22:
	.loc 1 1345 299 is_stmt 1 discriminator 4 view .LVU635
	.loc 1 1345 300 discriminator 4 view .LVU636
	.loc 1 1346 3 discriminator 4 view .LVU637
	mov	r2, r5
	bl	_SendPacket
.LVL209:
	.loc 1 1347 3 discriminator 4 view .LVU638
	.syntax unified
@ 1347 "C:\nRF5_SDK_15.0.0_a53641a\examples\ble_peripheral\slam_application-master\systemView\SEGGER_SYSVIEW.c" 1
	msr   basepri, r6  
	
@ 0 "" 2
	.thumb
	.syntax unified
.LBE20:
	.loc 1 1347 71 discriminator 4 view .LVU639
	.loc 1 1348 1 is_stmt 0 discriminator 4 view .LVU640
	pop	{r3, r4, r5, r6, r7, pc}
.LVL210:
.L138:
	.loc 1 1348 1 discriminator 4 view .LVU641
	.align	2
.L137:
	.word	.LANCHOR3
.LFE15:
	.size	SEGGER_SYSVIEW_RecordU32x2, .-SEGGER_SYSVIEW_RecordU32x2
	.section	.text.SEGGER_SYSVIEW_RecordSystime,"ax",%progbits
	.align	1
	.global	SEGGER_SYSVIEW_RecordSystime
	.syntax unified
	.thumb
	.thumb_func
	.fpu fpv4-sp-d16
	.type	SEGGER_SYSVIEW_RecordSystime, %function
SEGGER_SYSVIEW_RecordSystime:
.LFB31:
	.loc 1 1821 41 is_stmt 1 view -0
	@ args = 0, pretend = 0, frame = 0
	@ frame_needed = 0, uses_anonymous_args = 0
	push	{r3, lr}
.LCFI25:
	.loc 1 1822 3 view .LVU643
	.loc 1 1824 3 view .LVU644
	.loc 1 1824 23 is_stmt 0 view .LVU645
	ldr	r3, .L143
	ldr	r3, [r3, #32]
	.loc 1 1824 6 view .LVU646
	cbz	r3, .L140
	.loc 1 1824 57 discriminator 1 view .LVU647
	ldr	r3, [r3]
	.loc 1 1824 31 discriminator 1 view .LVU648
	cbz	r3, .L140
	.loc 1 1825 5 is_stmt 1 view .LVU649
	.loc 1 1825 15 is_stmt 0 view .LVU650
	blx	r3
.LVL211:
	mov	r2, r1
.LVL212:
	.loc 1 1826 5 is_stmt 1 view .LVU651
	mov	r1, r0
.LVL213:
	.loc 1 1826 5 is_stmt 0 view .LVU652
	movs	r0, #13
.LVL214:
	.loc 1 1826 5 view .LVU653
	bl	SEGGER_SYSVIEW_RecordU32x2
.LVL215:
.L139:
	.loc 1 1832 1 view .LVU654
	pop	{r3, pc}
.L140:
	.loc 1 1830 5 is_stmt 1 view .LVU655
	ldr	r3, .L143+4
	ldr	r1, [r3]
	movs	r0, #12
	bl	SEGGER_SYSVIEW_RecordU32
.LVL216:
	.loc 1 1832 1 is_stmt 0 view .LVU656
	b	.L139
.L144:
	.align	2
.L143:
	.word	.LANCHOR0
	.word	-536866812
.LFE31:
	.size	SEGGER_SYSVIEW_RecordSystime, .-SEGGER_SYSVIEW_RecordSystime
	.section	.text.SEGGER_SYSVIEW_RecordU32x3,"ax",%progbits
	.align	1
	.global	SEGGER_SYSVIEW_RecordU32x3
	.syntax unified
	.thumb
	.thumb_func
	.fpu fpv4-sp-d16
	.type	SEGGER_SYSVIEW_RecordU32x3, %function
SEGGER_SYSVIEW_RecordU32x3:
.LVL217:
.LFB16:
	.loc 1 1363 118 is_stmt 1 view -0
	@ args = 0, pretend = 0, frame = 0
	@ frame_needed = 0, uses_anonymous_args = 0
	.loc 1 1363 118 is_stmt 0 view .LVU658
	push	{r4, r5, r6, r7, r8, lr}
.LCFI26:
	mov	r5, r0
	mov	r8, r1
	mov	r7, r2
	mov	r4, r3
	.loc 1 1364 3 is_stmt 1 view .LVU659
	.loc 1 1365 3 view .LVU660
.LBB23:
	.loc 1 1366 5 view .LVU661
	.loc 1 1366 29 view .LVU662
	.syntax unified
@ 1366 "C:\nRF5_SDK_15.0.0_a53641a\examples\ble_peripheral\slam_application-master\systemView\SEGGER_SYSVIEW.c" 1
	mrs   r6, basepri  
	mov   r1, #32       
	msr   basepri, r1  
	
@ 0 "" 2
.LVL218:
	.loc 1 1366 165 view .LVU663
	.loc 1 1366 167 view .LVU664
	.loc 1 1366 183 is_stmt 0 view .LVU665
	.thumb
	.syntax unified
	ldr	r0, .L155
.LVL219:
	.loc 1 1366 183 view .LVU666
	bl	_PreparePacket
.LVL220:
	.loc 1 1366 208 is_stmt 1 view .LVU667
	.loc 1 1368 3 view .LVU668
.LBB24:
	.loc 1 1369 5 view .LVU669
	.loc 1 1369 37 view .LVU670
	.loc 1 1369 64 view .LVU671
	.loc 1 1369 92 view .LVU672
	.loc 1 1369 113 view .LVU673
	.loc 1 1369 80 is_stmt 0 view .LVU674
	mov	r1, r0
.LVL221:
.L146:
	.loc 1 1369 118 is_stmt 1 discriminator 1 view .LVU675
	cmp	r8, #127
	bls	.L153
	.loc 1 1369 141 discriminator 3 view .LVU676
.LVL222:
	.loc 1 1369 162 is_stmt 0 discriminator 3 view .LVU677
	orn	r3, r8, #127
	.loc 1 1369 160 discriminator 3 view .LVU678
	strb	r3, [r1], #1
.LVL223:
	.loc 1 1369 199 is_stmt 1 discriminator 3 view .LVU679
	.loc 1 1369 211 is_stmt 0 discriminator 3 view .LVU680
	lsr	r8, r8, #7
.LVL224:
	.loc 1 1369 211 discriminator 3 view .LVU681
	b	.L146
.L153:
	.loc 1 1369 219 is_stmt 1 discriminator 4 view .LVU682
	.loc 1 1369 221 discriminator 4 view .LVU683
.LVL225:
	.loc 1 1369 240 is_stmt 0 discriminator 4 view .LVU684
	strb	r8, [r1], #1
.LVL226:
	.loc 1 1369 270 is_stmt 1 discriminator 4 view .LVU685
	.loc 1 1369 270 is_stmt 0 discriminator 4 view .LVU686
.LBE24:
	.loc 1 1369 299 is_stmt 1 discriminator 4 view .LVU687
	.loc 1 1369 300 discriminator 4 view .LVU688
.LBB25:
	.loc 1 1370 5 discriminator 4 view .LVU689
	.loc 1 1370 37 discriminator 4 view .LVU690
	.loc 1 1370 64 discriminator 4 view .LVU691
	.loc 1 1370 92 discriminator 4 view .LVU692
	.loc 1 1370 113 discriminator 4 view .LVU693
.L148:
	.loc 1 1370 118 discriminator 1 view .LVU694
	cmp	r7, #127
	bls	.L154
	.loc 1 1370 141 discriminator 3 view .LVU695
.LVL227:
	.loc 1 1370 162 is_stmt 0 discriminator 3 view .LVU696
	orn	r3, r7, #127
	.loc 1 1370 160 discriminator 3 view .LVU697
	strb	r3, [r1], #1
.LVL228:
	.loc 1 1370 199 is_stmt 1 discriminator 3 view .LVU698
	.loc 1 1370 211 is_stmt 0 discriminator 3 view .LVU699
	lsrs	r7, r7, #7
.LVL229:
	.loc 1 1370 211 discriminator 3 view .LVU700
	b	.L148
.L154:
	.loc 1 1370 219 is_stmt 1 discriminator 4 view .LVU701
	.loc 1 1370 221 discriminator 4 view .LVU702
.LVL230:
	.loc 1 1370 240 is_stmt 0 discriminator 4 view .LVU703
	strb	r7, [r1], #1
.LVL231:
	.loc 1 1370 270 is_stmt 1 discriminator 4 view .LVU704
	.loc 1 1370 270 is_stmt 0 discriminator 4 view .LVU705
.LBE25:
	.loc 1 1370 299 is_stmt 1 discriminator 4 view .LVU706
	.loc 1 1370 300 discriminator 4 view .LVU707
.LBB26:
	.loc 1 1371 5 discriminator 4 view .LVU708
	.loc 1 1371 37 discriminator 4 view .LVU709
	.loc 1 1371 64 discriminator 4 view .LVU710
	.loc 1 1371 92 discriminator 4 view .LVU711
	.loc 1 1371 113 discriminator 4 view .LVU712
	.loc 1 1371 118 is_stmt 0 discriminator 4 view .LVU713
	b	.L150
.LVL232:
.L151:
	.loc 1 1371 141 is_stmt 1 discriminator 3 view .LVU714
	.loc 1 1371 162 is_stmt 0 discriminator 3 view .LVU715
	orn	r3, r4, #127
	.loc 1 1371 160 discriminator 3 view .LVU716
	strb	r3, [r1], #1
.LVL233:
	.loc 1 1371 199 is_stmt 1 discriminator 3 view .LVU717
	.loc 1 1371 211 is_stmt 0 discriminator 3 view .LVU718
	lsrs	r4, r4, #7
.LVL234:
.L150:
	.loc 1 1371 118 is_stmt 1 discriminator 1 view .LVU719
	cmp	r4, #127
	bhi	.L151
	.loc 1 1371 219 discriminator 4 view .LVU720
	.loc 1 1371 221 discriminator 4 view .LVU721
.LVL235:
	.loc 1 1371 240 is_stmt 0 discriminator 4 view .LVU722
	strb	r4, [r1], #1
.LVL236:
	.loc 1 1371 270 is_stmt 1 discriminator 4 view .LVU723
	.loc 1 1371 270 is_stmt 0 discriminator 4 view .LVU724
.LBE26:
	.loc 1 1371 299 is_stmt 1 discriminator 4 view .LVU725
	.loc 1 1371 300 discriminator 4 view .LVU726
	.loc 1 1372 3 discriminator 4 view .LVU727
	mov	r2, r5
	bl	_SendPacket
.LVL237:
	.loc 1 1373 3 discriminator 4 view .LVU728
	.syntax unified
@ 1373 "C:\nRF5_SDK_15.0.0_a53641a\examples\ble_peripheral\slam_application-master\systemView\SEGGER_SYSVIEW.c" 1
	msr   basepri, r6  
	
@ 0 "" 2
	.thumb
	.syntax unified
.LBE23:
	.loc 1 1373 71 discriminator 4 view .LVU729
	.loc 1 1374 1 is_stmt 0 discriminator 4 view .LVU730
	pop	{r4, r5, r6, r7, r8, pc}
.LVL238:
.L156:
	.loc 1 1374 1 discriminator 4 view .LVU731
	.align	2
.L155:
	.word	.LANCHOR3
.LFE16:
	.size	SEGGER_SYSVIEW_RecordU32x3, .-SEGGER_SYSVIEW_RecordU32x3
	.section	.text.SEGGER_SYSVIEW_RecordU32x4,"ax",%progbits
	.align	1
	.global	SEGGER_SYSVIEW_RecordU32x4
	.syntax unified
	.thumb
	.thumb_func
	.fpu fpv4-sp-d16
	.type	SEGGER_SYSVIEW_RecordU32x4, %function
SEGGER_SYSVIEW_RecordU32x4:
.LVL239:
.LFB17:
	.loc 1 1390 139 is_stmt 1 view -0
	@ args = 4, pretend = 0, frame = 0
	@ frame_needed = 0, uses_anonymous_args = 0
	.loc 1 1390 139 is_stmt 0 view .LVU733
	push	{r3, r4, r5, r6, r7, r8, r9, lr}
.LCFI27:
	mov	r5, r0
	mov	r9, r1
	mov	r8, r2
	mov	r7, r3
	ldr	r4, [sp, #32]
	.loc 1 1391 3 is_stmt 1 view .LVU734
	.loc 1 1392 3 view .LVU735
.LBB27:
	.loc 1 1393 5 view .LVU736
	.loc 1 1393 29 view .LVU737
	.syntax unified
@ 1393 "C:\nRF5_SDK_15.0.0_a53641a\examples\ble_peripheral\slam_application-master\systemView\SEGGER_SYSVIEW.c" 1
	mrs   r6, basepri  
	mov   r1, #32       
	msr   basepri, r1  
	
@ 0 "" 2
.LVL240:
	.loc 1 1393 165 view .LVU738
	.loc 1 1393 167 view .LVU739
	.loc 1 1393 183 is_stmt 0 view .LVU740
	.thumb
	.syntax unified
	ldr	r0, .L170
.LVL241:
	.loc 1 1393 183 view .LVU741
	bl	_PreparePacket
.LVL242:
	.loc 1 1393 208 is_stmt 1 view .LVU742
	.loc 1 1395 3 view .LVU743
.LBB28:
	.loc 1 1396 5 view .LVU744
	.loc 1 1396 37 view .LVU745
	.loc 1 1396 64 view .LVU746
	.loc 1 1396 92 view .LVU747
	.loc 1 1396 113 view .LVU748
	.loc 1 1396 80 is_stmt 0 view .LVU749
	mov	r1, r0
.LVL243:
.L158:
	.loc 1 1396 118 is_stmt 1 discriminator 1 view .LVU750
	cmp	r9, #127
	bls	.L167
	.loc 1 1396 141 discriminator 3 view .LVU751
.LVL244:
	.loc 1 1396 162 is_stmt 0 discriminator 3 view .LVU752
	orn	r3, r9, #127
	.loc 1 1396 160 discriminator 3 view .LVU753
	strb	r3, [r1], #1
.LVL245:
	.loc 1 1396 199 is_stmt 1 discriminator 3 view .LVU754
	.loc 1 1396 211 is_stmt 0 discriminator 3 view .LVU755
	lsr	r9, r9, #7
.LVL246:
	.loc 1 1396 211 discriminator 3 view .LVU756
	b	.L158
.L167:
	.loc 1 1396 219 is_stmt 1 discriminator 4 view .LVU757
	.loc 1 1396 221 discriminator 4 view .LVU758
.LVL247:
	.loc 1 1396 240 is_stmt 0 discriminator 4 view .LVU759
	strb	r9, [r1], #1
.LVL248:
	.loc 1 1396 270 is_stmt 1 discriminator 4 view .LVU760
	.loc 1 1396 270 is_stmt 0 discriminator 4 view .LVU761
.LBE28:
	.loc 1 1396 299 is_stmt 1 discriminator 4 view .LVU762
	.loc 1 1396 300 discriminator 4 view .LVU763
.LBB29:
	.loc 1 1397 5 discriminator 4 view .LVU764
	.loc 1 1397 37 discriminator 4 view .LVU765
	.loc 1 1397 64 discriminator 4 view .LVU766
	.loc 1 1397 92 discriminator 4 view .LVU767
	.loc 1 1397 113 discriminator 4 view .LVU768
.L160:
	.loc 1 1397 118 discriminator 1 view .LVU769
	cmp	r8, #127
	bls	.L168
	.loc 1 1397 141 discriminator 3 view .LVU770
.LVL249:
	.loc 1 1397 162 is_stmt 0 discriminator 3 view .LVU771
	orn	r3, r8, #127
	.loc 1 1397 160 discriminator 3 view .LVU772
	strb	r3, [r1], #1
.LVL250:
	.loc 1 1397 199 is_stmt 1 discriminator 3 view .LVU773
	.loc 1 1397 211 is_stmt 0 discriminator 3 view .LVU774
	lsr	r8, r8, #7
.LVL251:
	.loc 1 1397 211 discriminator 3 view .LVU775
	b	.L160
.L168:
	.loc 1 1397 219 is_stmt 1 discriminator 4 view .LVU776
	.loc 1 1397 221 discriminator 4 view .LVU777
.LVL252:
	.loc 1 1397 240 is_stmt 0 discriminator 4 view .LVU778
	strb	r8, [r1], #1
.LVL253:
	.loc 1 1397 270 is_stmt 1 discriminator 4 view .LVU779
	.loc 1 1397 270 is_stmt 0 discriminator 4 view .LVU780
.LBE29:
	.loc 1 1397 299 is_stmt 1 discriminator 4 view .LVU781
	.loc 1 1397 300 discriminator 4 view .LVU782
.LBB30:
	.loc 1 1398 5 discriminator 4 view .LVU783
	.loc 1 1398 37 discriminator 4 view .LVU784
	.loc 1 1398 64 discriminator 4 view .LVU785
	.loc 1 1398 92 discriminator 4 view .LVU786
	.loc 1 1398 113 discriminator 4 view .LVU787
.L162:
	.loc 1 1398 118 discriminator 1 view .LVU788
	cmp	r7, #127
	bls	.L169
	.loc 1 1398 141 discriminator 3 view .LVU789
.LVL254:
	.loc 1 1398 162 is_stmt 0 discriminator 3 view .LVU790
	orn	r3, r7, #127
	.loc 1 1398 160 discriminator 3 view .LVU791
	strb	r3, [r1], #1
.LVL255:
	.loc 1 1398 199 is_stmt 1 discriminator 3 view .LVU792
	.loc 1 1398 211 is_stmt 0 discriminator 3 view .LVU793
	lsrs	r7, r7, #7
.LVL256:
	.loc 1 1398 211 discriminator 3 view .LVU794
	b	.L162
.L169:
	.loc 1 1398 219 is_stmt 1 discriminator 4 view .LVU795
	.loc 1 1398 221 discriminator 4 view .LVU796
.LVL257:
	.loc 1 1398 240 is_stmt 0 discriminator 4 view .LVU797
	strb	r7, [r1], #1
.LVL258:
	.loc 1 1398 270 is_stmt 1 discriminator 4 view .LVU798
	.loc 1 1398 270 is_stmt 0 discriminator 4 view .LVU799
.LBE30:
	.loc 1 1398 299 is_stmt 1 discriminator 4 view .LVU800
	.loc 1 1398 300 discriminator 4 view .LVU801
.LBB31:
	.loc 1 1399 5 discriminator 4 view .LVU802
	.loc 1 1399 37 discriminator 4 view .LVU803
	.loc 1 1399 64 discriminator 4 view .LVU804
	.loc 1 1399 92 discriminator 4 view .LVU805
	.loc 1 1399 113 discriminator 4 view .LVU806
	.loc 1 1399 118 is_stmt 0 discriminator 4 view .LVU807
	b	.L164
.LVL259:
.L165:
	.loc 1 1399 141 is_stmt 1 discriminator 3 view .LVU808
	.loc 1 1399 162 is_stmt 0 discriminator 3 view .LVU809
	orn	r3, r4, #127
	.loc 1 1399 160 discriminator 3 view .LVU810
	strb	r3, [r1], #1
.LVL260:
	.loc 1 1399 199 is_stmt 1 discriminator 3 view .LVU811
	.loc 1 1399 211 is_stmt 0 discriminator 3 view .LVU812
	lsrs	r4, r4, #7
.LVL261:
.L164:
	.loc 1 1399 118 is_stmt 1 discriminator 1 view .LVU813
	cmp	r4, #127
	bhi	.L165
	.loc 1 1399 219 discriminator 4 view .LVU814
	.loc 1 1399 221 discriminator 4 view .LVU815
.LVL262:
	.loc 1 1399 240 is_stmt 0 discriminator 4 view .LVU816
	strb	r4, [r1], #1
.LVL263:
	.loc 1 1399 270 is_stmt 1 discriminator 4 view .LVU817
	.loc 1 1399 270 is_stmt 0 discriminator 4 view .LVU818
.LBE31:
	.loc 1 1399 299 is_stmt 1 discriminator 4 view .LVU819
	.loc 1 1399 300 discriminator 4 view .LVU820
	.loc 1 1400 3 discriminator 4 view .LVU821
	mov	r2, r5
	bl	_SendPacket
.LVL264:
	.loc 1 1401 3 discriminator 4 view .LVU822
	.syntax unified
@ 1401 "C:\nRF5_SDK_15.0.0_a53641a\examples\ble_peripheral\slam_application-master\systemView\SEGGER_SYSVIEW.c" 1
	msr   basepri, r6  
	
@ 0 "" 2
	.thumb
	.syntax unified
.LBE27:
	.loc 1 1401 71 discriminator 4 view .LVU823
	.loc 1 1402 1 is_stmt 0 discriminator 4 view .LVU824
	pop	{r3, r4, r5, r6, r7, r8, r9, pc}
.LVL265:
.L171:
	.loc 1 1402 1 discriminator 4 view .LVU825
	.align	2
.L170:
	.word	.LANCHOR3
.LFE17:
	.size	SEGGER_SYSVIEW_RecordU32x4, .-SEGGER_SYSVIEW_RecordU32x4
	.section	.text.SEGGER_SYSVIEW_RecordU32x5,"ax",%progbits
	.align	1
	.global	SEGGER_SYSVIEW_RecordU32x5
	.syntax unified
	.thumb
	.thumb_func
	.fpu fpv4-sp-d16
	.type	SEGGER_SYSVIEW_RecordU32x5, %function
SEGGER_SYSVIEW_RecordU32x5:
.LVL266:
.LFB18:
	.loc 1 1419 160 is_stmt 1 view -0
	@ args = 8, pretend = 0, frame = 0
	@ frame_needed = 0, uses_anonymous_args = 0
	.loc 1 1419 160 is_stmt 0 view .LVU827
	push	{r4, r5, r6, r7, r8, r9, r10, lr}
.LCFI28:
	mov	r6, r0
	mov	r10, r1
	mov	r9, r2
	mov	r4, r3
	ldr	r8, [sp, #32]
	ldr	r5, [sp, #36]
	.loc 1 1420 3 is_stmt 1 view .LVU828
	.loc 1 1421 3 view .LVU829
.LBB32:
	.loc 1 1422 5 view .LVU830
	.loc 1 1422 29 view .LVU831
	.syntax unified
@ 1422 "C:\nRF5_SDK_15.0.0_a53641a\examples\ble_peripheral\slam_application-master\systemView\SEGGER_SYSVIEW.c" 1
	mrs   r7, basepri  
	mov   r1, #32       
	msr   basepri, r1  
	
@ 0 "" 2
.LVL267:
	.loc 1 1422 165 view .LVU832
	.loc 1 1422 167 view .LVU833
	.loc 1 1422 183 is_stmt 0 view .LVU834
	.thumb
	.syntax unified
	ldr	r0, .L187
.LVL268:
	.loc 1 1422 183 view .LVU835
	bl	_PreparePacket
.LVL269:
	.loc 1 1422 208 is_stmt 1 view .LVU836
	.loc 1 1424 3 view .LVU837
.LBB33:
	.loc 1 1425 5 view .LVU838
	.loc 1 1425 37 view .LVU839
	.loc 1 1425 64 view .LVU840
	.loc 1 1425 92 view .LVU841
	.loc 1 1425 113 view .LVU842
	.loc 1 1425 80 is_stmt 0 view .LVU843
	mov	r1, r0
.LVL270:
.L173:
	.loc 1 1425 118 is_stmt 1 discriminator 1 view .LVU844
	cmp	r10, #127
	bls	.L184
	.loc 1 1425 141 discriminator 3 view .LVU845
.LVL271:
	.loc 1 1425 162 is_stmt 0 discriminator 3 view .LVU846
	orn	r3, r10, #127
	.loc 1 1425 160 discriminator 3 view .LVU847
	strb	r3, [r1], #1
.LVL272:
	.loc 1 1425 199 is_stmt 1 discriminator 3 view .LVU848
	.loc 1 1425 211 is_stmt 0 discriminator 3 view .LVU849
	lsr	r10, r10, #7
.LVL273:
	.loc 1 1425 211 discriminator 3 view .LVU850
	b	.L173
.L184:
	.loc 1 1425 219 is_stmt 1 discriminator 4 view .LVU851
	.loc 1 1425 221 discriminator 4 view .LVU852
.LVL274:
	.loc 1 1425 240 is_stmt 0 discriminator 4 view .LVU853
	strb	r10, [r1], #1
.LVL275:
	.loc 1 1425 270 is_stmt 1 discriminator 4 view .LVU854
	.loc 1 1425 270 is_stmt 0 discriminator 4 view .LVU855
.LBE33:
	.loc 1 1425 299 is_stmt 1 discriminator 4 view .LVU856
	.loc 1 1425 300 discriminator 4 view .LVU857
.LBB34:
	.loc 1 1426 5 discriminator 4 view .LVU858
	.loc 1 1426 37 discriminator 4 view .LVU859
	.loc 1 1426 64 discriminator 4 view .LVU860
	.loc 1 1426 92 discriminator 4 view .LVU861
	.loc 1 1426 113 discriminator 4 view .LVU862
.L175:
	.loc 1 1426 118 discriminator 1 view .LVU863
	cmp	r9, #127
	bls	.L185
	.loc 1 1426 141 discriminator 3 view .LVU864
.LVL276:
	.loc 1 1426 162 is_stmt 0 discriminator 3 view .LVU865
	orn	r3, r9, #127
	.loc 1 1426 160 discriminator 3 view .LVU866
	strb	r3, [r1], #1
.LVL277:
	.loc 1 1426 199 is_stmt 1 discriminator 3 view .LVU867
	.loc 1 1426 211 is_stmt 0 discriminator 3 view .LVU868
	lsr	r9, r9, #7
.LVL278:
	.loc 1 1426 211 discriminator 3 view .LVU869
	b	.L175
.L185:
	.loc 1 1426 219 is_stmt 1 discriminator 4 view .LVU870
	.loc 1 1426 221 discriminator 4 view .LVU871
.LVL279:
	.loc 1 1426 240 is_stmt 0 discriminator 4 view .LVU872
	strb	r9, [r1], #1
.LVL280:
	.loc 1 1426 270 is_stmt 1 discriminator 4 view .LVU873
	.loc 1 1426 270 is_stmt 0 discriminator 4 view .LVU874
.LBE34:
	.loc 1 1426 299 is_stmt 1 discriminator 4 view .LVU875
	.loc 1 1426 300 discriminator 4 view .LVU876
.LBB35:
	.loc 1 1427 5 discriminator 4 view .LVU877
	.loc 1 1427 37 discriminator 4 view .LVU878
	.loc 1 1427 64 discriminator 4 view .LVU879
	.loc 1 1427 92 discriminator 4 view .LVU880
	.loc 1 1427 113 discriminator 4 view .LVU881
.L177:
	.loc 1 1427 118 discriminator 1 view .LVU882
	cmp	r4, #127
	bls	.L186
	.loc 1 1427 141 discriminator 3 view .LVU883
.LVL281:
	.loc 1 1427 162 is_stmt 0 discriminator 3 view .LVU884
	orn	r3, r4, #127
	.loc 1 1427 160 discriminator 3 view .LVU885
	strb	r3, [r1], #1
.LVL282:
	.loc 1 1427 199 is_stmt 1 discriminator 3 view .LVU886
	.loc 1 1427 211 is_stmt 0 discriminator 3 view .LVU887
	lsrs	r4, r4, #7
.LVL283:
	.loc 1 1427 211 discriminator 3 view .LVU888
	b	.L177
.L186:
	.loc 1 1427 219 is_stmt 1 discriminator 4 view .LVU889
	.loc 1 1427 221 discriminator 4 view .LVU890
.LVL284:
	.loc 1 1427 240 is_stmt 0 discriminator 4 view .LVU891
	strb	r4, [r1], #1
.LVL285:
	.loc 1 1427 270 is_stmt 1 discriminator 4 view .LVU892
	.loc 1 1427 270 is_stmt 0 discriminator 4 view .LVU893
.LBE35:
	.loc 1 1427 299 is_stmt 1 discriminator 4 view .LVU894
	.loc 1 1427 300 discriminator 4 view .LVU895
.LBB36:
	.loc 1 1428 5 discriminator 4 view .LVU896
	.loc 1 1428 37 discriminator 4 view .LVU897
	.loc 1 1428 64 discriminator 4 view .LVU898
	.loc 1 1428 92 discriminator 4 view .LVU899
	.loc 1 1428 113 discriminator 4 view .LVU900
	.loc 1 1428 118 is_stmt 0 discriminator 4 view .LVU901
	b	.L179
.LVL286:
.L180:
	.loc 1 1428 141 is_stmt 1 discriminator 3 view .LVU902
	.loc 1 1428 162 is_stmt 0 discriminator 3 view .LVU903
	orn	r3, r8, #127
	.loc 1 1428 160 discriminator 3 view .LVU904
	strb	r3, [r1], #1
.LVL287:
	.loc 1 1428 199 is_stmt 1 discriminator 3 view .LVU905
	.loc 1 1428 211 is_stmt 0 discriminator 3 view .LVU906
	lsr	r8, r8, #7
.LVL288:
.L179:
	.loc 1 1428 118 is_stmt 1 discriminator 1 view .LVU907
	cmp	r8, #127
	bhi	.L180
	.loc 1 1428 219 discriminator 4 view .LVU908
	.loc 1 1428 221 discriminator 4 view .LVU909
.LVL289:
	.loc 1 1428 240 is_stmt 0 discriminator 4 view .LVU910
	strb	r8, [r1], #1
.LVL290:
	.loc 1 1428 270 is_stmt 1 discriminator 4 view .LVU911
	.loc 1 1428 270 is_stmt 0 discriminator 4 view .LVU912
.LBE36:
	.loc 1 1428 299 is_stmt 1 discriminator 4 view .LVU913
	.loc 1 1428 300 discriminator 4 view .LVU914
.LBB37:
	.loc 1 1429 5 discriminator 4 view .LVU915
	.loc 1 1429 37 discriminator 4 view .LVU916
	.loc 1 1429 64 discriminator 4 view .LVU917
	.loc 1 1429 92 discriminator 4 view .LVU918
	.loc 1 1429 113 discriminator 4 view .LVU919
	.loc 1 1429 118 is_stmt 0 discriminator 4 view .LVU920
	b	.L181
.LVL291:
.L182:
	.loc 1 1429 141 is_stmt 1 discriminator 3 view .LVU921
	.loc 1 1429 162 is_stmt 0 discriminator 3 view .LVU922
	orn	r3, r5, #127
	.loc 1 1429 160 discriminator 3 view .LVU923
	strb	r3, [r1], #1
.LVL292:
	.loc 1 1429 199 is_stmt 1 discriminator 3 view .LVU924
	.loc 1 1429 211 is_stmt 0 discriminator 3 view .LVU925
	lsrs	r5, r5, #7
.LVL293:
.L181:
	.loc 1 1429 118 is_stmt 1 discriminator 1 view .LVU926
	cmp	r5, #127
	bhi	.L182
	.loc 1 1429 219 discriminator 4 view .LVU927
	.loc 1 1429 221 discriminator 4 view .LVU928
.LVL294:
	.loc 1 1429 240 is_stmt 0 discriminator 4 view .LVU929
	strb	r5, [r1], #1
.LVL295:
	.loc 1 1429 270 is_stmt 1 discriminator 4 view .LVU930
	.loc 1 1429 270 is_stmt 0 discriminator 4 view .LVU931
.LBE37:
	.loc 1 1429 299 is_stmt 1 discriminator 4 view .LVU932
	.loc 1 1429 300 discriminator 4 view .LVU933
	.loc 1 1430 3 discriminator 4 view .LVU934
	mov	r2, r6
	bl	_SendPacket
.LVL296:
	.loc 1 1431 3 discriminator 4 view .LVU935
	.syntax unified
@ 1431 "C:\nRF5_SDK_15.0.0_a53641a\examples\ble_peripheral\slam_application-master\systemView\SEGGER_SYSVIEW.c" 1
	msr   basepri, r7  
	
@ 0 "" 2
	.thumb
	.syntax unified
.LBE32:
	.loc 1 1431 71 discriminator 4 view .LVU936
	.loc 1 1432 1 is_stmt 0 discriminator 4 view .LVU937
	pop	{r4, r5, r6, r7, r8, r9, r10, pc}
.LVL297:
.L188:
	.loc 1 1432 1 discriminator 4 view .LVU938
	.align	2
.L187:
	.word	.LANCHOR3
.LFE18:
	.size	SEGGER_SYSVIEW_RecordU32x5, .-SEGGER_SYSVIEW_RecordU32x5
	.section	.text.SEGGER_SYSVIEW_RecordU32x6,"ax",%progbits
	.align	1
	.global	SEGGER_SYSVIEW_RecordU32x6
	.syntax unified
	.thumb
	.thumb_func
	.fpu fpv4-sp-d16
	.type	SEGGER_SYSVIEW_RecordU32x6, %function
SEGGER_SYSVIEW_RecordU32x6:
.LVL298:
.LFB19:
	.loc 1 1450 181 is_stmt 1 view -0
	@ args = 12, pretend = 0, frame = 0
	@ frame_needed = 0, uses_anonymous_args = 0
	.loc 1 1450 181 is_stmt 0 view .LVU940
	push	{r3, r4, r5, r6, r7, r8, r9, r10, fp, lr}
.LCFI29:
	mov	r7, r0
	mov	fp, r1
	mov	r5, r2
	mov	r4, r3
	ldr	r10, [sp, #40]
	ldr	r9, [sp, #44]
	ldr	r6, [sp, #48]
	.loc 1 1451 3 is_stmt 1 view .LVU941
	.loc 1 1452 3 view .LVU942
.LBB38:
	.loc 1 1453 5 view .LVU943
	.loc 1 1453 29 view .LVU944
	.syntax unified
@ 1453 "C:\nRF5_SDK_15.0.0_a53641a\examples\ble_peripheral\slam_application-master\systemView\SEGGER_SYSVIEW.c" 1
	mrs   r8, basepri  
	mov   r1, #32       
	msr   basepri, r1  
	
@ 0 "" 2
.LVL299:
	.loc 1 1453 165 view .LVU945
	.loc 1 1453 167 view .LVU946
	.loc 1 1453 183 is_stmt 0 view .LVU947
	.thumb
	.syntax unified
	ldr	r0, .L207
.LVL300:
	.loc 1 1453 183 view .LVU948
	bl	_PreparePacket
.LVL301:
	.loc 1 1453 208 is_stmt 1 view .LVU949
	.loc 1 1455 3 view .LVU950
.LBB39:
	.loc 1 1456 5 view .LVU951
	.loc 1 1456 37 view .LVU952
	.loc 1 1456 64 view .LVU953
	.loc 1 1456 92 view .LVU954
	.loc 1 1456 113 view .LVU955
	.loc 1 1456 80 is_stmt 0 view .LVU956
	mov	r1, r0
.LVL302:
.L190:
	.loc 1 1456 118 is_stmt 1 discriminator 1 view .LVU957
	cmp	fp, #127
	bls	.L203
	.loc 1 1456 141 discriminator 3 view .LVU958
.LVL303:
	.loc 1 1456 162 is_stmt 0 discriminator 3 view .LVU959
	orn	r3, fp, #127
	.loc 1 1456 160 discriminator 3 view .LVU960
	strb	r3, [r1], #1
.LVL304:
	.loc 1 1456 199 is_stmt 1 discriminator 3 view .LVU961
	.loc 1 1456 211 is_stmt 0 discriminator 3 view .LVU962
	lsr	fp, fp, #7
.LVL305:
	.loc 1 1456 211 discriminator 3 view .LVU963
	b	.L190
.L203:
	.loc 1 1456 219 is_stmt 1 discriminator 4 view .LVU964
	.loc 1 1456 221 discriminator 4 view .LVU965
.LVL306:
	.loc 1 1456 240 is_stmt 0 discriminator 4 view .LVU966
	strb	fp, [r1], #1
.LVL307:
	.loc 1 1456 270 is_stmt 1 discriminator 4 view .LVU967
	.loc 1 1456 270 is_stmt 0 discriminator 4 view .LVU968
.LBE39:
	.loc 1 1456 299 is_stmt 1 discriminator 4 view .LVU969
	.loc 1 1456 300 discriminator 4 view .LVU970
.LBB40:
	.loc 1 1457 5 discriminator 4 view .LVU971
	.loc 1 1457 37 discriminator 4 view .LVU972
	.loc 1 1457 64 discriminator 4 view .LVU973
	.loc 1 1457 92 discriminator 4 view .LVU974
	.loc 1 1457 113 discriminator 4 view .LVU975
.L192:
	.loc 1 1457 118 discriminator 1 view .LVU976
	cmp	r5, #127
	bls	.L204
	.loc 1 1457 141 discriminator 3 view .LVU977
.LVL308:
	.loc 1 1457 162 is_stmt 0 discriminator 3 view .LVU978
	orn	r3, r5, #127
	.loc 1 1457 160 discriminator 3 view .LVU979
	strb	r3, [r1], #1
.LVL309:
	.loc 1 1457 199 is_stmt 1 discriminator 3 view .LVU980
	.loc 1 1457 211 is_stmt 0 discriminator 3 view .LVU981
	lsrs	r5, r5, #7
.LVL310:
	.loc 1 1457 211 discriminator 3 view .LVU982
	b	.L192
.L204:
	.loc 1 1457 219 is_stmt 1 discriminator 4 view .LVU983
	.loc 1 1457 221 discriminator 4 view .LVU984
.LVL311:
	.loc 1 1457 240 is_stmt 0 discriminator 4 view .LVU985
	strb	r5, [r1], #1
.LVL312:
	.loc 1 1457 270 is_stmt 1 discriminator 4 view .LVU986
	.loc 1 1457 270 is_stmt 0 discriminator 4 view .LVU987
.LBE40:
	.loc 1 1457 299 is_stmt 1 discriminator 4 view .LVU988
	.loc 1 1457 300 discriminator 4 view .LVU989
.LBB41:
	.loc 1 1458 5 discriminator 4 view .LVU990
	.loc 1 1458 37 discriminator 4 view .LVU991
	.loc 1 1458 64 discriminator 4 view .LVU992
	.loc 1 1458 92 discriminator 4 view .LVU993
	.loc 1 1458 113 discriminator 4 view .LVU994
.L194:
	.loc 1 1458 118 discriminator 1 view .LVU995
	cmp	r4, #127
	bls	.L205
	.loc 1 1458 141 discriminator 3 view .LVU996
.LVL313:
	.loc 1 1458 162 is_stmt 0 discriminator 3 view .LVU997
	orn	r3, r4, #127
	.loc 1 1458 160 discriminator 3 view .LVU998
	strb	r3, [r1], #1
.LVL314:
	.loc 1 1458 199 is_stmt 1 discriminator 3 view .LVU999
	.loc 1 1458 211 is_stmt 0 discriminator 3 view .LVU1000
	lsrs	r4, r4, #7
.LVL315:
	.loc 1 1458 211 discriminator 3 view .LVU1001
	b	.L194
.L205:
	.loc 1 1458 219 is_stmt 1 discriminator 4 view .LVU1002
	.loc 1 1458 221 discriminator 4 view .LVU1003
.LVL316:
	.loc 1 1458 240 is_stmt 0 discriminator 4 view .LVU1004
	strb	r4, [r1], #1
.LVL317:
	.loc 1 1458 270 is_stmt 1 discriminator 4 view .LVU1005
	.loc 1 1458 270 is_stmt 0 discriminator 4 view .LVU1006
.LBE41:
	.loc 1 1458 299 is_stmt 1 discriminator 4 view .LVU1007
	.loc 1 1458 300 discriminator 4 view .LVU1008
.LBB42:
	.loc 1 1459 5 discriminator 4 view .LVU1009
	.loc 1 1459 37 discriminator 4 view .LVU1010
	.loc 1 1459 64 discriminator 4 view .LVU1011
	.loc 1 1459 92 discriminator 4 view .LVU1012
	.loc 1 1459 113 discriminator 4 view .LVU1013
	.loc 1 1459 118 is_stmt 0 discriminator 4 view .LVU1014
	b	.L196
.LVL318:
.L197:
	.loc 1 1459 141 is_stmt 1 discriminator 3 view .LVU1015
	.loc 1 1459 162 is_stmt 0 discriminator 3 view .LVU1016
	orn	r3, r10, #127
	.loc 1 1459 160 discriminator 3 view .LVU1017
	strb	r3, [r1], #1
.LVL319:
	.loc 1 1459 199 is_stmt 1 discriminator 3 view .LVU1018
	.loc 1 1459 211 is_stmt 0 discriminator 3 view .LVU1019
	lsr	r10, r10, #7
.LVL320:
.L196:
	.loc 1 1459 118 is_stmt 1 discriminator 1 view .LVU1020
	cmp	r10, #127
	bhi	.L197
	.loc 1 1459 219 discriminator 4 view .LVU1021
	.loc 1 1459 221 discriminator 4 view .LVU1022
.LVL321:
	.loc 1 1459 240 is_stmt 0 discriminator 4 view .LVU1023
	strb	r10, [r1], #1
.LVL322:
	.loc 1 1459 270 is_stmt 1 discriminator 4 view .LVU1024
	.loc 1 1459 270 is_stmt 0 discriminator 4 view .LVU1025
.LBE42:
	.loc 1 1459 299 is_stmt 1 discriminator 4 view .LVU1026
	.loc 1 1459 300 discriminator 4 view .LVU1027
.LBB43:
	.loc 1 1460 5 discriminator 4 view .LVU1028
	.loc 1 1460 37 discriminator 4 view .LVU1029
	.loc 1 1460 64 discriminator 4 view .LVU1030
	.loc 1 1460 92 discriminator 4 view .LVU1031
	.loc 1 1460 113 discriminator 4 view .LVU1032
.L198:
	.loc 1 1460 118 discriminator 1 view .LVU1033
	cmp	r9, #127
	bls	.L206
	.loc 1 1460 141 discriminator 3 view .LVU1034
.LVL323:
	.loc 1 1460 162 is_stmt 0 discriminator 3 view .LVU1035
	orn	r3, r9, #127
	.loc 1 1460 160 discriminator 3 view .LVU1036
	strb	r3, [r1], #1
.LVL324:
	.loc 1 1460 199 is_stmt 1 discriminator 3 view .LVU1037
	.loc 1 1460 211 is_stmt 0 discriminator 3 view .LVU1038
	lsr	r9, r9, #7
.LVL325:
	.loc 1 1460 211 discriminator 3 view .LVU1039
	b	.L198
.L206:
	.loc 1 1460 219 is_stmt 1 discriminator 4 view .LVU1040
	.loc 1 1460 221 discriminator 4 view .LVU1041
.LVL326:
	.loc 1 1460 240 is_stmt 0 discriminator 4 view .LVU1042
	strb	r9, [r1], #1
.LVL327:
	.loc 1 1460 270 is_stmt 1 discriminator 4 view .LVU1043
	.loc 1 1460 270 is_stmt 0 discriminator 4 view .LVU1044
.LBE43:
	.loc 1 1460 299 is_stmt 1 discriminator 4 view .LVU1045
	.loc 1 1460 300 discriminator 4 view .LVU1046
.LBB44:
	.loc 1 1461 5 discriminator 4 view .LVU1047
	.loc 1 1461 37 discriminator 4 view .LVU1048
	.loc 1 1461 64 discriminator 4 view .LVU1049
	.loc 1 1461 92 discriminator 4 view .LVU1050
	.loc 1 1461 113 discriminator 4 view .LVU1051
	.loc 1 1461 118 is_stmt 0 discriminator 4 view .LVU1052
	b	.L200
.LVL328:
.L201:
	.loc 1 1461 141 is_stmt 1 discriminator 3 view .LVU1053
	.loc 1 1461 162 is_stmt 0 discriminator 3 view .LVU1054
	orn	r3, r6, #127
	.loc 1 1461 160 discriminator 3 view .LVU1055
	strb	r3, [r1], #1
.LVL329:
	.loc 1 1461 199 is_stmt 1 discriminator 3 view .LVU1056
	.loc 1 1461 211 is_stmt 0 discriminator 3 view .LVU1057
	lsrs	r6, r6, #7
.LVL330:
.L200:
	.loc 1 1461 118 is_stmt 1 discriminator 1 view .LVU1058
	cmp	r6, #127
	bhi	.L201
	.loc 1 1461 219 discriminator 4 view .LVU1059
	.loc 1 1461 221 discriminator 4 view .LVU1060
.LVL331:
	.loc 1 1461 240 is_stmt 0 discriminator 4 view .LVU1061
	strb	r6, [r1], #1
.LVL332:
	.loc 1 1461 270 is_stmt 1 discriminator 4 view .LVU1062
	.loc 1 1461 270 is_stmt 0 discriminator 4 view .LVU1063
.LBE44:
	.loc 1 1461 299 is_stmt 1 discriminator 4 view .LVU1064
	.loc 1 1461 300 discriminator 4 view .LVU1065
	.loc 1 1462 3 discriminator 4 view .LVU1066
	mov	r2, r7
	bl	_SendPacket
.LVL333:
	.loc 1 1463 3 discriminator 4 view .LVU1067
	.syntax unified
@ 1463 "C:\nRF5_SDK_15.0.0_a53641a\examples\ble_peripheral\slam_application-master\systemView\SEGGER_SYSVIEW.c" 1
	msr   basepri, r8  
	
@ 0 "" 2
	.thumb
	.syntax unified
.LBE38:
	.loc 1 1463 71 discriminator 4 view .LVU1068
	.loc 1 1464 1 is_stmt 0 discriminator 4 view .LVU1069
	pop	{r3, r4, r5, r6, r7, r8, r9, r10, fp, pc}
.LVL334:
.L208:
	.loc 1 1464 1 discriminator 4 view .LVU1070
	.align	2
.L207:
	.word	.LANCHOR3
.LFE19:
	.size	SEGGER_SYSVIEW_RecordU32x6, .-SEGGER_SYSVIEW_RecordU32x6
	.section	.text.SEGGER_SYSVIEW_RecordU32x7,"ax",%progbits
	.align	1
	.global	SEGGER_SYSVIEW_RecordU32x7
	.syntax unified
	.thumb
	.thumb_func
	.fpu fpv4-sp-d16
	.type	SEGGER_SYSVIEW_RecordU32x7, %function
SEGGER_SYSVIEW_RecordU32x7:
.LVL335:
.LFB20:
	.loc 1 1483 202 is_stmt 1 view -0
	@ args = 16, pretend = 0, frame = 8
	@ frame_needed = 0, uses_anonymous_args = 0
	.loc 1 1483 202 is_stmt 0 view .LVU1072
	push	{r4, r5, r6, r7, r8, r9, r10, fp, lr}
.LCFI30:
	sub	sp, sp, #12
.LCFI31:
	str	r0, [sp, #4]
	mov	r6, r1
	mov	r5, r2
	mov	r4, r3
	ldr	r10, [sp, #48]
	ldr	r9, [sp, #52]
	ldr	r8, [sp, #56]
	ldr	r7, [sp, #60]
	.loc 1 1484 3 is_stmt 1 view .LVU1073
	.loc 1 1485 3 view .LVU1074
.LBB45:
	.loc 1 1486 5 view .LVU1075
	.loc 1 1486 29 view .LVU1076
	.syntax unified
@ 1486 "C:\nRF5_SDK_15.0.0_a53641a\examples\ble_peripheral\slam_application-master\systemView\SEGGER_SYSVIEW.c" 1
	mrs   fp, basepri  
	mov   r1, #32       
	msr   basepri, r1  
	
@ 0 "" 2
.LVL336:
	.loc 1 1486 165 view .LVU1077
	.loc 1 1486 167 view .LVU1078
	.loc 1 1486 183 is_stmt 0 view .LVU1079
	.thumb
	.syntax unified
	ldr	r0, .L228
.LVL337:
	.loc 1 1486 183 view .LVU1080
	bl	_PreparePacket
.LVL338:
	.loc 1 1486 208 is_stmt 1 view .LVU1081
	.loc 1 1488 3 view .LVU1082
.LBB46:
	.loc 1 1489 5 view .LVU1083
	.loc 1 1489 37 view .LVU1084
	.loc 1 1489 64 view .LVU1085
	.loc 1 1489 92 view .LVU1086
	.loc 1 1489 113 view .LVU1087
	.loc 1 1489 80 is_stmt 0 view .LVU1088
	mov	r1, r0
.LVL339:
.L210:
	.loc 1 1489 118 is_stmt 1 discriminator 1 view .LVU1089
	cmp	r6, #127
	bls	.L225
	.loc 1 1489 141 discriminator 3 view .LVU1090
.LVL340:
	.loc 1 1489 162 is_stmt 0 discriminator 3 view .LVU1091
	orn	r3, r6, #127
	.loc 1 1489 160 discriminator 3 view .LVU1092
	strb	r3, [r1], #1
.LVL341:
	.loc 1 1489 199 is_stmt 1 discriminator 3 view .LVU1093
	.loc 1 1489 211 is_stmt 0 discriminator 3 view .LVU1094
	lsrs	r6, r6, #7
.LVL342:
	.loc 1 1489 211 discriminator 3 view .LVU1095
	b	.L210
.L225:
	.loc 1 1489 219 is_stmt 1 discriminator 4 view .LVU1096
	.loc 1 1489 221 discriminator 4 view .LVU1097
.LVL343:
	.loc 1 1489 240 is_stmt 0 discriminator 4 view .LVU1098
	strb	r6, [r1], #1
.LVL344:
	.loc 1 1489 270 is_stmt 1 discriminator 4 view .LVU1099
	.loc 1 1489 270 is_stmt 0 discriminator 4 view .LVU1100
.LBE46:
	.loc 1 1489 299 is_stmt 1 discriminator 4 view .LVU1101
	.loc 1 1489 300 discriminator 4 view .LVU1102
.LBB47:
	.loc 1 1490 5 discriminator 4 view .LVU1103
	.loc 1 1490 37 discriminator 4 view .LVU1104
	.loc 1 1490 64 discriminator 4 view .LVU1105
	.loc 1 1490 92 discriminator 4 view .LVU1106
	.loc 1 1490 113 discriminator 4 view .LVU1107
.L212:
	.loc 1 1490 118 discriminator 1 view .LVU1108
	cmp	r5, #127
	bls	.L226
	.loc 1 1490 141 discriminator 3 view .LVU1109
.LVL345:
	.loc 1 1490 162 is_stmt 0 discriminator 3 view .LVU1110
	orn	r3, r5, #127
	.loc 1 1490 160 discriminator 3 view .LVU1111
	strb	r3, [r1], #1
.LVL346:
	.loc 1 1490 199 is_stmt 1 discriminator 3 view .LVU1112
	.loc 1 1490 211 is_stmt 0 discriminator 3 view .LVU1113
	lsrs	r5, r5, #7
.LVL347:
	.loc 1 1490 211 discriminator 3 view .LVU1114
	b	.L212
.L226:
	.loc 1 1490 219 is_stmt 1 discriminator 4 view .LVU1115
	.loc 1 1490 221 discriminator 4 view .LVU1116
.LVL348:
	.loc 1 1490 240 is_stmt 0 discriminator 4 view .LVU1117
	strb	r5, [r1], #1
.LVL349:
	.loc 1 1490 270 is_stmt 1 discriminator 4 view .LVU1118
	.loc 1 1490 270 is_stmt 0 discriminator 4 view .LVU1119
.LBE47:
	.loc 1 1490 299 is_stmt 1 discriminator 4 view .LVU1120
	.loc 1 1490 300 discriminator 4 view .LVU1121
.LBB48:
	.loc 1 1491 5 discriminator 4 view .LVU1122
	.loc 1 1491 37 discriminator 4 view .LVU1123
	.loc 1 1491 64 discriminator 4 view .LVU1124
	.loc 1 1491 92 discriminator 4 view .LVU1125
	.loc 1 1491 113 discriminator 4 view .LVU1126
	.loc 1 1491 118 is_stmt 0 discriminator 4 view .LVU1127
	b	.L214
.LVL350:
.L215:
	.loc 1 1491 141 is_stmt 1 discriminator 3 view .LVU1128
	.loc 1 1491 162 is_stmt 0 discriminator 3 view .LVU1129
	orn	r3, r4, #127
	.loc 1 1491 160 discriminator 3 view .LVU1130
	strb	r3, [r1], #1
.LVL351:
	.loc 1 1491 199 is_stmt 1 discriminator 3 view .LVU1131
	.loc 1 1491 211 is_stmt 0 discriminator 3 view .LVU1132
	lsrs	r4, r4, #7
.LVL352:
.L214:
	.loc 1 1491 118 is_stmt 1 discriminator 1 view .LVU1133
	cmp	r4, #127
	bhi	.L215
	.loc 1 1491 219 discriminator 4 view .LVU1134
	.loc 1 1491 221 discriminator 4 view .LVU1135
.LVL353:
	.loc 1 1491 240 is_stmt 0 discriminator 4 view .LVU1136
	strb	r4, [r1], #1
.LVL354:
	.loc 1 1491 270 is_stmt 1 discriminator 4 view .LVU1137
	.loc 1 1491 270 is_stmt 0 discriminator 4 view .LVU1138
.LBE48:
	.loc 1 1491 299 is_stmt 1 discriminator 4 view .LVU1139
	.loc 1 1491 300 discriminator 4 view .LVU1140
.LBB49:
	.loc 1 1492 5 discriminator 4 view .LVU1141
	.loc 1 1492 37 discriminator 4 view .LVU1142
	.loc 1 1492 64 discriminator 4 view .LVU1143
	.loc 1 1492 92 discriminator 4 view .LVU1144
	.loc 1 1492 113 discriminator 4 view .LVU1145
	.loc 1 1492 118 is_stmt 0 discriminator 4 view .LVU1146
	b	.L216
.LVL355:
.L217:
	.loc 1 1492 141 is_stmt 1 discriminator 3 view .LVU1147
	.loc 1 1492 162 is_stmt 0 discriminator 3 view .LVU1148
	orn	r3, r10, #127
	.loc 1 1492 160 discriminator 3 view .LVU1149
	strb	r3, [r1], #1
.LVL356:
	.loc 1 1492 199 is_stmt 1 discriminator 3 view .LVU1150
	.loc 1 1492 211 is_stmt 0 discriminator 3 view .LVU1151
	lsr	r10, r10, #7
.LVL357:
.L216:
	.loc 1 1492 118 is_stmt 1 discriminator 1 view .LVU1152
	cmp	r10, #127
	bhi	.L217
	.loc 1 1492 219 discriminator 4 view .LVU1153
	.loc 1 1492 221 discriminator 4 view .LVU1154
.LVL358:
	.loc 1 1492 240 is_stmt 0 discriminator 4 view .LVU1155
	strb	r10, [r1], #1
.LVL359:
	.loc 1 1492 270 is_stmt 1 discriminator 4 view .LVU1156
	.loc 1 1492 270 is_stmt 0 discriminator 4 view .LVU1157
.LBE49:
	.loc 1 1492 299 is_stmt 1 discriminator 4 view .LVU1158
	.loc 1 1492 300 discriminator 4 view .LVU1159
.LBB50:
	.loc 1 1493 5 discriminator 4 view .LVU1160
	.loc 1 1493 37 discriminator 4 view .LVU1161
	.loc 1 1493 64 discriminator 4 view .LVU1162
	.loc 1 1493 92 discriminator 4 view .LVU1163
	.loc 1 1493 113 discriminator 4 view .LVU1164
.L218:
	.loc 1 1493 118 discriminator 1 view .LVU1165
	cmp	r9, #127
	bls	.L227
	.loc 1 1493 141 discriminator 3 view .LVU1166
.LVL360:
	.loc 1 1493 162 is_stmt 0 discriminator 3 view .LVU1167
	orn	r3, r9, #127
	.loc 1 1493 160 discriminator 3 view .LVU1168
	strb	r3, [r1], #1
.LVL361:
	.loc 1 1493 199 is_stmt 1 discriminator 3 view .LVU1169
	.loc 1 1493 211 is_stmt 0 discriminator 3 view .LVU1170
	lsr	r9, r9, #7
.LVL362:
	.loc 1 1493 211 discriminator 3 view .LVU1171
	b	.L218
.L227:
	.loc 1 1493 219 is_stmt 1 discriminator 4 view .LVU1172
	.loc 1 1493 221 discriminator 4 view .LVU1173
.LVL363:
	.loc 1 1493 240 is_stmt 0 discriminator 4 view .LVU1174
	strb	r9, [r1], #1
.LVL364:
	.loc 1 1493 270 is_stmt 1 discriminator 4 view .LVU1175
	.loc 1 1493 270 is_stmt 0 discriminator 4 view .LVU1176
.LBE50:
	.loc 1 1493 299 is_stmt 1 discriminator 4 view .LVU1177
	.loc 1 1493 300 discriminator 4 view .LVU1178
.LBB51:
	.loc 1 1494 5 discriminator 4 view .LVU1179
	.loc 1 1494 37 discriminator 4 view .LVU1180
	.loc 1 1494 64 discriminator 4 view .LVU1181
	.loc 1 1494 92 discriminator 4 view .LVU1182
	.loc 1 1494 113 discriminator 4 view .LVU1183
	.loc 1 1494 118 is_stmt 0 discriminator 4 view .LVU1184
	b	.L220
.LVL365:
.L221:
	.loc 1 1494 141 is_stmt 1 discriminator 3 view .LVU1185
	.loc 1 1494 162 is_stmt 0 discriminator 3 view .LVU1186
	orn	r3, r8, #127
	.loc 1 1494 160 discriminator 3 view .LVU1187
	strb	r3, [r1], #1
.LVL366:
	.loc 1 1494 199 is_stmt 1 discriminator 3 view .LVU1188
	.loc 1 1494 211 is_stmt 0 discriminator 3 view .LVU1189
	lsr	r8, r8, #7
.LVL367:
.L220:
	.loc 1 1494 118 is_stmt 1 discriminator 1 view .LVU1190
	cmp	r8, #127
	bhi	.L221
	.loc 1 1494 219 discriminator 4 view .LVU1191
	.loc 1 1494 221 discriminator 4 view .LVU1192
.LVL368:
	.loc 1 1494 240 is_stmt 0 discriminator 4 view .LVU1193
	strb	r8, [r1], #1
.LVL369:
	.loc 1 1494 270 is_stmt 1 discriminator 4 view .LVU1194
	.loc 1 1494 270 is_stmt 0 discriminator 4 view .LVU1195
.LBE51:
	.loc 1 1494 299 is_stmt 1 discriminator 4 view .LVU1196
	.loc 1 1494 300 discriminator 4 view .LVU1197
.LBB52:
	.loc 1 1495 5 discriminator 4 view .LVU1198
	.loc 1 1495 37 discriminator 4 view .LVU1199
	.loc 1 1495 64 discriminator 4 view .LVU1200
	.loc 1 1495 92 discriminator 4 view .LVU1201
	.loc 1 1495 113 discriminator 4 view .LVU1202
	.loc 1 1495 118 is_stmt 0 discriminator 4 view .LVU1203
	b	.L222
.LVL370:
.L223:
	.loc 1 1495 141 is_stmt 1 discriminator 3 view .LVU1204
	.loc 1 1495 162 is_stmt 0 discriminator 3 view .LVU1205
	orn	r3, r7, #127
	.loc 1 1495 160 discriminator 3 view .LVU1206
	strb	r3, [r1], #1
.LVL371:
	.loc 1 1495 199 is_stmt 1 discriminator 3 view .LVU1207
	.loc 1 1495 211 is_stmt 0 discriminator 3 view .LVU1208
	lsrs	r7, r7, #7
.LVL372:
.L222:
	.loc 1 1495 118 is_stmt 1 discriminator 1 view .LVU1209
	cmp	r7, #127
	bhi	.L223
	.loc 1 1495 219 discriminator 4 view .LVU1210
	.loc 1 1495 221 discriminator 4 view .LVU1211
.LVL373:
	.loc 1 1495 240 is_stmt 0 discriminator 4 view .LVU1212
	strb	r7, [r1], #1
.LVL374:
	.loc 1 1495 270 is_stmt 1 discriminator 4 view .LVU1213
	.loc 1 1495 270 is_stmt 0 discriminator 4 view .LVU1214
.LBE52:
	.loc 1 1495 299 is_stmt 1 discriminator 4 view .LVU1215
	.loc 1 1495 300 discriminator 4 view .LVU1216
	.loc 1 1496 3 discriminator 4 view .LVU1217
	ldr	r2, [sp, #4]
	bl	_SendPacket
.LVL375:
	.loc 1 1497 3 discriminator 4 view .LVU1218
	.syntax unified
@ 1497 "C:\nRF5_SDK_15.0.0_a53641a\examples\ble_peripheral\slam_application-master\systemView\SEGGER_SYSVIEW.c" 1
	msr   basepri, fp  
	
@ 0 "" 2
	.thumb
	.syntax unified
.LBE45:
	.loc 1 1497 71 discriminator 4 view .LVU1219
	.loc 1 1498 1 is_stmt 0 discriminator 4 view .LVU1220
	add	sp, sp, #12
.LCFI32:
	@ sp needed
	pop	{r4, r5, r6, r7, r8, r9, r10, fp, pc}
.LVL376:
.L229:
	.loc 1 1498 1 discriminator 4 view .LVU1221
	.align	2
.L228:
	.word	.LANCHOR3
.LFE20:
	.size	SEGGER_SYSVIEW_RecordU32x7, .-SEGGER_SYSVIEW_RecordU32x7
	.section	.text.SEGGER_SYSVIEW_RecordU32x8,"ax",%progbits
	.align	1
	.global	SEGGER_SYSVIEW_RecordU32x8
	.syntax unified
	.thumb
	.thumb_func
	.fpu fpv4-sp-d16
	.type	SEGGER_SYSVIEW_RecordU32x8, %function
SEGGER_SYSVIEW_RecordU32x8:
.LVL377:
.LFB21:
	.loc 1 1518 223 is_stmt 1 view -0
	@ args = 20, pretend = 0, frame = 8
	@ frame_needed = 0, uses_anonymous_args = 0
	.loc 1 1518 223 is_stmt 0 view .LVU1223
	push	{r4, r5, r6, r7, r8, r9, r10, fp, lr}
.LCFI33:
	sub	sp, sp, #12
.LCFI34:
	str	r0, [sp]
	mov	r6, r1
	mov	r5, r2
	mov	r4, r3
	ldr	fp, [sp, #48]
	ldr	r10, [sp, #52]
	ldr	r9, [sp, #56]
	ldr	r8, [sp, #60]
	ldr	r7, [sp, #64]
	.loc 1 1519 3 is_stmt 1 view .LVU1224
	.loc 1 1520 3 view .LVU1225
.LBB53:
	.loc 1 1521 5 view .LVU1226
	.loc 1 1521 29 view .LVU1227
	.syntax unified
@ 1521 "C:\nRF5_SDK_15.0.0_a53641a\examples\ble_peripheral\slam_application-master\systemView\SEGGER_SYSVIEW.c" 1
	mrs   r3, basepri  
	mov   r1, #32       
	msr   basepri, r1  
	
@ 0 "" 2
.LVL378:
	.loc 1 1521 29 is_stmt 0 view .LVU1228
	.thumb
	.syntax unified
	str	r3, [sp, #4]
.LVL379:
	.loc 1 1521 165 is_stmt 1 view .LVU1229
	.loc 1 1521 167 view .LVU1230
	.loc 1 1521 183 is_stmt 0 view .LVU1231
	ldr	r0, .L253
.LVL380:
	.loc 1 1521 183 view .LVU1232
	bl	_PreparePacket
.LVL381:
	.loc 1 1521 208 is_stmt 1 view .LVU1233
	.loc 1 1523 3 view .LVU1234
.LBB54:
	.loc 1 1524 5 view .LVU1235
	.loc 1 1524 37 view .LVU1236
	.loc 1 1524 64 view .LVU1237
	.loc 1 1524 92 view .LVU1238
	.loc 1 1524 113 view .LVU1239
	.loc 1 1524 80 is_stmt 0 view .LVU1240
	mov	r1, r0
.LVL382:
.L231:
	.loc 1 1524 118 is_stmt 1 discriminator 1 view .LVU1241
	cmp	r6, #127
	bls	.L248
	.loc 1 1524 141 discriminator 3 view .LVU1242
.LVL383:
	.loc 1 1524 162 is_stmt 0 discriminator 3 view .LVU1243
	orn	r3, r6, #127
	.loc 1 1524 160 discriminator 3 view .LVU1244
	strb	r3, [r1], #1
.LVL384:
	.loc 1 1524 199 is_stmt 1 discriminator 3 view .LVU1245
	.loc 1 1524 211 is_stmt 0 discriminator 3 view .LVU1246
	lsrs	r6, r6, #7
.LVL385:
	.loc 1 1524 211 discriminator 3 view .LVU1247
	b	.L231
.L248:
	.loc 1 1524 219 is_stmt 1 discriminator 4 view .LVU1248
	.loc 1 1524 221 discriminator 4 view .LVU1249
.LVL386:
	.loc 1 1524 240 is_stmt 0 discriminator 4 view .LVU1250
	strb	r6, [r1], #1
.LVL387:
	.loc 1 1524 270 is_stmt 1 discriminator 4 view .LVU1251
	.loc 1 1524 270 is_stmt 0 discriminator 4 view .LVU1252
.LBE54:
	.loc 1 1524 299 is_stmt 1 discriminator 4 view .LVU1253
	.loc 1 1524 300 discriminator 4 view .LVU1254
.LBB55:
	.loc 1 1525 5 discriminator 4 view .LVU1255
	.loc 1 1525 37 discriminator 4 view .LVU1256
	.loc 1 1525 64 discriminator 4 view .LVU1257
	.loc 1 1525 92 discriminator 4 view .LVU1258
	.loc 1 1525 113 discriminator 4 view .LVU1259
.L233:
	.loc 1 1525 118 discriminator 1 view .LVU1260
	cmp	r5, #127
	bls	.L249
	.loc 1 1525 141 discriminator 3 view .LVU1261
.LVL388:
	.loc 1 1525 162 is_stmt 0 discriminator 3 view .LVU1262
	orn	r3, r5, #127
	.loc 1 1525 160 discriminator 3 view .LVU1263
	strb	r3, [r1], #1
.LVL389:
	.loc 1 1525 199 is_stmt 1 discriminator 3 view .LVU1264
	.loc 1 1525 211 is_stmt 0 discriminator 3 view .LVU1265
	lsrs	r5, r5, #7
.LVL390:
	.loc 1 1525 211 discriminator 3 view .LVU1266
	b	.L233
.L249:
	.loc 1 1525 219 is_stmt 1 discriminator 4 view .LVU1267
	.loc 1 1525 221 discriminator 4 view .LVU1268
.LVL391:
	.loc 1 1525 240 is_stmt 0 discriminator 4 view .LVU1269
	strb	r5, [r1], #1
.LVL392:
	.loc 1 1525 270 is_stmt 1 discriminator 4 view .LVU1270
	.loc 1 1525 270 is_stmt 0 discriminator 4 view .LVU1271
.LBE55:
	.loc 1 1525 299 is_stmt 1 discriminator 4 view .LVU1272
	.loc 1 1525 300 discriminator 4 view .LVU1273
.LBB56:
	.loc 1 1526 5 discriminator 4 view .LVU1274
	.loc 1 1526 37 discriminator 4 view .LVU1275
	.loc 1 1526 64 discriminator 4 view .LVU1276
	.loc 1 1526 92 discriminator 4 view .LVU1277
	.loc 1 1526 113 discriminator 4 view .LVU1278
.L235:
	.loc 1 1526 118 discriminator 1 view .LVU1279
	cmp	r4, #127
	bls	.L250
	.loc 1 1526 141 discriminator 3 view .LVU1280
.LVL393:
	.loc 1 1526 162 is_stmt 0 discriminator 3 view .LVU1281
	orn	r3, r4, #127
	.loc 1 1526 160 discriminator 3 view .LVU1282
	strb	r3, [r1], #1
.LVL394:
	.loc 1 1526 199 is_stmt 1 discriminator 3 view .LVU1283
	.loc 1 1526 211 is_stmt 0 discriminator 3 view .LVU1284
	lsrs	r4, r4, #7
.LVL395:
	.loc 1 1526 211 discriminator 3 view .LVU1285
	b	.L235
.L250:
	.loc 1 1526 219 is_stmt 1 discriminator 4 view .LVU1286
	.loc 1 1526 221 discriminator 4 view .LVU1287
.LVL396:
	.loc 1 1526 240 is_stmt 0 discriminator 4 view .LVU1288
	strb	r4, [r1], #1
.LVL397:
	.loc 1 1526 270 is_stmt 1 discriminator 4 view .LVU1289
	.loc 1 1526 270 is_stmt 0 discriminator 4 view .LVU1290
.LBE56:
	.loc 1 1526 299 is_stmt 1 discriminator 4 view .LVU1291
	.loc 1 1526 300 discriminator 4 view .LVU1292
.LBB57:
	.loc 1 1527 5 discriminator 4 view .LVU1293
	.loc 1 1527 37 discriminator 4 view .LVU1294
	.loc 1 1527 64 discriminator 4 view .LVU1295
	.loc 1 1527 92 discriminator 4 view .LVU1296
	.loc 1 1527 113 discriminator 4 view .LVU1297
.L237:
	.loc 1 1527 118 discriminator 1 view .LVU1298
	cmp	fp, #127
	bls	.L251
	.loc 1 1527 141 discriminator 3 view .LVU1299
.LVL398:
	.loc 1 1527 162 is_stmt 0 discriminator 3 view .LVU1300
	orn	r3, fp, #127
	.loc 1 1527 160 discriminator 3 view .LVU1301
	strb	r3, [r1], #1
.LVL399:
	.loc 1 1527 199 is_stmt 1 discriminator 3 view .LVU1302
	.loc 1 1527 211 is_stmt 0 discriminator 3 view .LVU1303
	lsr	fp, fp, #7
.LVL400:
	.loc 1 1527 211 discriminator 3 view .LVU1304
	b	.L237
.L251:
	.loc 1 1527 219 is_stmt 1 discriminator 4 view .LVU1305
	.loc 1 1527 221 discriminator 4 view .LVU1306
.LVL401:
	.loc 1 1527 240 is_stmt 0 discriminator 4 view .LVU1307
	strb	fp, [r1], #1
.LVL402:
	.loc 1 1527 270 is_stmt 1 discriminator 4 view .LVU1308
	.loc 1 1527 270 is_stmt 0 discriminator 4 view .LVU1309
.LBE57:
	.loc 1 1527 299 is_stmt 1 discriminator 4 view .LVU1310
	.loc 1 1527 300 discriminator 4 view .LVU1311
.LBB58:
	.loc 1 1528 5 discriminator 4 view .LVU1312
	.loc 1 1528 37 discriminator 4 view .LVU1313
	.loc 1 1528 64 discriminator 4 view .LVU1314
	.loc 1 1528 92 discriminator 4 view .LVU1315
	.loc 1 1528 113 discriminator 4 view .LVU1316
.L239:
	.loc 1 1528 118 discriminator 1 view .LVU1317
	cmp	r10, #127
	bls	.L252
	.loc 1 1528 141 discriminator 3 view .LVU1318
.LVL403:
	.loc 1 1528 162 is_stmt 0 discriminator 3 view .LVU1319
	orn	r3, r10, #127
	.loc 1 1528 160 discriminator 3 view .LVU1320
	strb	r3, [r1], #1
.LVL404:
	.loc 1 1528 199 is_stmt 1 discriminator 3 view .LVU1321
	.loc 1 1528 211 is_stmt 0 discriminator 3 view .LVU1322
	lsr	r10, r10, #7
.LVL405:
	.loc 1 1528 211 discriminator 3 view .LVU1323
	b	.L239
.L252:
	.loc 1 1528 219 is_stmt 1 discriminator 4 view .LVU1324
	.loc 1 1528 221 discriminator 4 view .LVU1325
.LVL406:
	.loc 1 1528 240 is_stmt 0 discriminator 4 view .LVU1326
	strb	r10, [r1], #1
.LVL407:
	.loc 1 1528 270 is_stmt 1 discriminator 4 view .LVU1327
	.loc 1 1528 270 is_stmt 0 discriminator 4 view .LVU1328
.LBE58:
	.loc 1 1528 299 is_stmt 1 discriminator 4 view .LVU1329
	.loc 1 1528 300 discriminator 4 view .LVU1330
.LBB59:
	.loc 1 1529 5 discriminator 4 view .LVU1331
	.loc 1 1529 37 discriminator 4 view .LVU1332
	.loc 1 1529 64 discriminator 4 view .LVU1333
	.loc 1 1529 92 discriminator 4 view .LVU1334
	.loc 1 1529 113 discriminator 4 view .LVU1335
	.loc 1 1529 118 is_stmt 0 discriminator 4 view .LVU1336
	b	.L241
.LVL408:
.L242:
	.loc 1 1529 141 is_stmt 1 discriminator 3 view .LVU1337
	.loc 1 1529 162 is_stmt 0 discriminator 3 view .LVU1338
	orn	r3, r9, #127
	.loc 1 1529 160 discriminator 3 view .LVU1339
	strb	r3, [r1], #1
.LVL409:
	.loc 1 1529 199 is_stmt 1 discriminator 3 view .LVU1340
	.loc 1 1529 211 is_stmt 0 discriminator 3 view .LVU1341
	lsr	r9, r9, #7
.LVL410:
.L241:
	.loc 1 1529 118 is_stmt 1 discriminator 1 view .LVU1342
	cmp	r9, #127
	bhi	.L242
	.loc 1 1529 219 discriminator 4 view .LVU1343
	.loc 1 1529 221 discriminator 4 view .LVU1344
.LVL411:
	.loc 1 1529 240 is_stmt 0 discriminator 4 view .LVU1345
	strb	r9, [r1], #1
.LVL412:
	.loc 1 1529 270 is_stmt 1 discriminator 4 view .LVU1346
	.loc 1 1529 270 is_stmt 0 discriminator 4 view .LVU1347
.LBE59:
	.loc 1 1529 299 is_stmt 1 discriminator 4 view .LVU1348
	.loc 1 1529 300 discriminator 4 view .LVU1349
.LBB60:
	.loc 1 1530 5 discriminator 4 view .LVU1350
	.loc 1 1530 37 discriminator 4 view .LVU1351
	.loc 1 1530 64 discriminator 4 view .LVU1352
	.loc 1 1530 92 discriminator 4 view .LVU1353
	.loc 1 1530 113 discriminator 4 view .LVU1354
	.loc 1 1530 118 is_stmt 0 discriminator 4 view .LVU1355
	b	.L243
.LVL413:
.L244:
	.loc 1 1530 141 is_stmt 1 discriminator 3 view .LVU1356
	.loc 1 1530 162 is_stmt 0 discriminator 3 view .LVU1357
	orn	r3, r8, #127
	.loc 1 1530 160 discriminator 3 view .LVU1358
	strb	r3, [r1], #1
.LVL414:
	.loc 1 1530 199 is_stmt 1 discriminator 3 view .LVU1359
	.loc 1 1530 211 is_stmt 0 discriminator 3 view .LVU1360
	lsr	r8, r8, #7
.LVL415:
.L243:
	.loc 1 1530 118 is_stmt 1 discriminator 1 view .LVU1361
	cmp	r8, #127
	bhi	.L244
	.loc 1 1530 219 discriminator 4 view .LVU1362
	.loc 1 1530 221 discriminator 4 view .LVU1363
.LVL416:
	.loc 1 1530 240 is_stmt 0 discriminator 4 view .LVU1364
	strb	r8, [r1], #1
.LVL417:
	.loc 1 1530 270 is_stmt 1 discriminator 4 view .LVU1365
	.loc 1 1530 270 is_stmt 0 discriminator 4 view .LVU1366
.LBE60:
	.loc 1 1530 299 is_stmt 1 discriminator 4 view .LVU1367
	.loc 1 1530 300 discriminator 4 view .LVU1368
.LBB61:
	.loc 1 1531 5 discriminator 4 view .LVU1369
	.loc 1 1531 37 discriminator 4 view .LVU1370
	.loc 1 1531 64 discriminator 4 view .LVU1371
	.loc 1 1531 92 discriminator 4 view .LVU1372
	.loc 1 1531 113 discriminator 4 view .LVU1373
	.loc 1 1531 118 is_stmt 0 discriminator 4 view .LVU1374
	b	.L245
.LVL418:
.L246:
	.loc 1 1531 141 is_stmt 1 discriminator 3 view .LVU1375
	.loc 1 1531 162 is_stmt 0 discriminator 3 view .LVU1376
	orn	r3, r7, #127
	.loc 1 1531 160 discriminator 3 view .LVU1377
	strb	r3, [r1], #1
.LVL419:
	.loc 1 1531 199 is_stmt 1 discriminator 3 view .LVU1378
	.loc 1 1531 211 is_stmt 0 discriminator 3 view .LVU1379
	lsrs	r7, r7, #7
.LVL420:
.L245:
	.loc 1 1531 118 is_stmt 1 discriminator 1 view .LVU1380
	cmp	r7, #127
	bhi	.L246
	.loc 1 1531 219 discriminator 4 view .LVU1381
	.loc 1 1531 221 discriminator 4 view .LVU1382
.LVL421:
	.loc 1 1531 240 is_stmt 0 discriminator 4 view .LVU1383
	strb	r7, [r1], #1
.LVL422:
	.loc 1 1531 270 is_stmt 1 discriminator 4 view .LVU1384
	.loc 1 1531 270 is_stmt 0 discriminator 4 view .LVU1385
.LBE61:
	.loc 1 1531 299 is_stmt 1 discriminator 4 view .LVU1386
	.loc 1 1531 300 discriminator 4 view .LVU1387
	.loc 1 1532 3 discriminator 4 view .LVU1388
	ldr	r2, [sp]
	bl	_SendPacket
.LVL423:
	.loc 1 1533 3 discriminator 4 view .LVU1389
	ldr	r3, [sp, #4]
	.syntax unified
@ 1533 "C:\nRF5_SDK_15.0.0_a53641a\examples\ble_peripheral\slam_application-master\systemView\SEGGER_SYSVIEW.c" 1
	msr   basepri, r3  
	
@ 0 "" 2
	.thumb
	.syntax unified
.LBE53:
	.loc 1 1533 71 discriminator 4 view .LVU1390
	.loc 1 1534 1 is_stmt 0 discriminator 4 view .LVU1391
	add	sp, sp, #12
.LCFI35:
.LVL424:
	.loc 1 1534 1 discriminator 4 view .LVU1392
	@ sp needed
	pop	{r4, r5, r6, r7, r8, r9, r10, fp, pc}
.LVL425:
.L254:
	.loc 1 1534 1 discriminator 4 view .LVU1393
	.align	2
.L253:
	.word	.LANCHOR3
.LFE21:
	.size	SEGGER_SYSVIEW_RecordU32x8, .-SEGGER_SYSVIEW_RecordU32x8
	.section	.text.SEGGER_SYSVIEW_RecordU32x9,"ax",%progbits
	.align	1
	.global	SEGGER_SYSVIEW_RecordU32x9
	.syntax unified
	.thumb
	.thumb_func
	.fpu fpv4-sp-d16
	.type	SEGGER_SYSVIEW_RecordU32x9, %function
SEGGER_SYSVIEW_RecordU32x9:
.LVL426:
.LFB22:
	.loc 1 1555 244 is_stmt 1 view -0
	@ args = 24, pretend = 0, frame = 8
	@ frame_needed = 0, uses_anonymous_args = 0
	.loc 1 1555 244 is_stmt 0 view .LVU1395
	push	{r4, r5, r6, r7, r8, r9, r10, fp, lr}
.LCFI36:
	sub	sp, sp, #12
.LCFI37:
	str	r0, [sp]
	mov	r6, r1
	mov	r5, r2
	mov	r4, r3
	ldr	fp, [sp, #48]
	ldr	r10, [sp, #52]
	ldr	r9, [sp, #56]
	ldr	r8, [sp, #60]
	ldr	r7, [sp, #64]
	.loc 1 1556 3 is_stmt 1 view .LVU1396
	.loc 1 1557 3 view .LVU1397
.LBB62:
	.loc 1 1558 5 view .LVU1398
	.loc 1 1558 29 view .LVU1399
	.syntax unified
@ 1558 "C:\nRF5_SDK_15.0.0_a53641a\examples\ble_peripheral\slam_application-master\systemView\SEGGER_SYSVIEW.c" 1
	mrs   r3, basepri  
	mov   r1, #32       
	msr   basepri, r1  
	
@ 0 "" 2
.LVL427:
	.loc 1 1558 29 is_stmt 0 view .LVU1400
	.thumb
	.syntax unified
	str	r3, [sp, #4]
.LVL428:
	.loc 1 1558 165 is_stmt 1 view .LVU1401
	.loc 1 1558 167 view .LVU1402
	.loc 1 1558 183 is_stmt 0 view .LVU1403
	ldr	r0, .L279
.LVL429:
	.loc 1 1558 183 view .LVU1404
	bl	_PreparePacket
.LVL430:
	.loc 1 1558 208 is_stmt 1 view .LVU1405
	.loc 1 1560 3 view .LVU1406
.LBB63:
	.loc 1 1561 5 view .LVU1407
	.loc 1 1561 37 view .LVU1408
	.loc 1 1561 64 view .LVU1409
	.loc 1 1561 92 view .LVU1410
	.loc 1 1561 113 view .LVU1411
	.loc 1 1561 80 is_stmt 0 view .LVU1412
	mov	r1, r0
.LVL431:
.L256:
	.loc 1 1561 118 is_stmt 1 discriminator 1 view .LVU1413
	cmp	r6, #127
	bls	.L275
	.loc 1 1561 141 discriminator 3 view .LVU1414
.LVL432:
	.loc 1 1561 162 is_stmt 0 discriminator 3 view .LVU1415
	orn	r3, r6, #127
	.loc 1 1561 160 discriminator 3 view .LVU1416
	strb	r3, [r1], #1
.LVL433:
	.loc 1 1561 199 is_stmt 1 discriminator 3 view .LVU1417
	.loc 1 1561 211 is_stmt 0 discriminator 3 view .LVU1418
	lsrs	r6, r6, #7
.LVL434:
	.loc 1 1561 211 discriminator 3 view .LVU1419
	b	.L256
.L275:
	.loc 1 1561 219 is_stmt 1 discriminator 4 view .LVU1420
	.loc 1 1561 221 discriminator 4 view .LVU1421
.LVL435:
	.loc 1 1561 240 is_stmt 0 discriminator 4 view .LVU1422
	strb	r6, [r1], #1
.LVL436:
	.loc 1 1561 270 is_stmt 1 discriminator 4 view .LVU1423
	.loc 1 1561 270 is_stmt 0 discriminator 4 view .LVU1424
.LBE63:
	.loc 1 1561 299 is_stmt 1 discriminator 4 view .LVU1425
	.loc 1 1561 300 discriminator 4 view .LVU1426
.LBB64:
	.loc 1 1562 5 discriminator 4 view .LVU1427
	.loc 1 1562 37 discriminator 4 view .LVU1428
	.loc 1 1562 64 discriminator 4 view .LVU1429
	.loc 1 1562 92 discriminator 4 view .LVU1430
	.loc 1 1562 113 discriminator 4 view .LVU1431
.L258:
	.loc 1 1562 118 discriminator 1 view .LVU1432
	cmp	r5, #127
	bls	.L276
	.loc 1 1562 141 discriminator 3 view .LVU1433
.LVL437:
	.loc 1 1562 162 is_stmt 0 discriminator 3 view .LVU1434
	orn	r3, r5, #127
	.loc 1 1562 160 discriminator 3 view .LVU1435
	strb	r3, [r1], #1
.LVL438:
	.loc 1 1562 199 is_stmt 1 discriminator 3 view .LVU1436
	.loc 1 1562 211 is_stmt 0 discriminator 3 view .LVU1437
	lsrs	r5, r5, #7
.LVL439:
	.loc 1 1562 211 discriminator 3 view .LVU1438
	b	.L258
.L276:
	.loc 1 1562 219 is_stmt 1 discriminator 4 view .LVU1439
	.loc 1 1562 221 discriminator 4 view .LVU1440
.LVL440:
	.loc 1 1562 240 is_stmt 0 discriminator 4 view .LVU1441
	strb	r5, [r1], #1
.LVL441:
	.loc 1 1562 270 is_stmt 1 discriminator 4 view .LVU1442
	.loc 1 1562 270 is_stmt 0 discriminator 4 view .LVU1443
.LBE64:
	.loc 1 1562 299 is_stmt 1 discriminator 4 view .LVU1444
	.loc 1 1562 300 discriminator 4 view .LVU1445
.LBB65:
	.loc 1 1563 5 discriminator 4 view .LVU1446
	.loc 1 1563 37 discriminator 4 view .LVU1447
	.loc 1 1563 64 discriminator 4 view .LVU1448
	.loc 1 1563 92 discriminator 4 view .LVU1449
	.loc 1 1563 113 discriminator 4 view .LVU1450
.L260:
	.loc 1 1563 118 discriminator 1 view .LVU1451
	cmp	r4, #127
	bls	.L277
	.loc 1 1563 141 discriminator 3 view .LVU1452
.LVL442:
	.loc 1 1563 162 is_stmt 0 discriminator 3 view .LVU1453
	orn	r3, r4, #127
	.loc 1 1563 160 discriminator 3 view .LVU1454
	strb	r3, [r1], #1
.LVL443:
	.loc 1 1563 199 is_stmt 1 discriminator 3 view .LVU1455
	.loc 1 1563 211 is_stmt 0 discriminator 3 view .LVU1456
	lsrs	r4, r4, #7
.LVL444:
	.loc 1 1563 211 discriminator 3 view .LVU1457
	b	.L260
.L277:
	.loc 1 1563 219 is_stmt 1 discriminator 4 view .LVU1458
	.loc 1 1563 221 discriminator 4 view .LVU1459
.LVL445:
	.loc 1 1563 240 is_stmt 0 discriminator 4 view .LVU1460
	strb	r4, [r1], #1
.LVL446:
	.loc 1 1563 270 is_stmt 1 discriminator 4 view .LVU1461
	.loc 1 1563 270 is_stmt 0 discriminator 4 view .LVU1462
.LBE65:
	.loc 1 1563 299 is_stmt 1 discriminator 4 view .LVU1463
	.loc 1 1563 300 discriminator 4 view .LVU1464
.LBB66:
	.loc 1 1564 5 discriminator 4 view .LVU1465
	.loc 1 1564 37 discriminator 4 view .LVU1466
	.loc 1 1564 64 discriminator 4 view .LVU1467
	.loc 1 1564 92 discriminator 4 view .LVU1468
	.loc 1 1564 113 discriminator 4 view .LVU1469
	.loc 1 1564 118 is_stmt 0 discriminator 4 view .LVU1470
	b	.L262
.LVL447:
.L263:
	.loc 1 1564 141 is_stmt 1 discriminator 3 view .LVU1471
	.loc 1 1564 162 is_stmt 0 discriminator 3 view .LVU1472
	orn	r3, fp, #127
	.loc 1 1564 160 discriminator 3 view .LVU1473
	strb	r3, [r1], #1
.LVL448:
	.loc 1 1564 199 is_stmt 1 discriminator 3 view .LVU1474
	.loc 1 1564 211 is_stmt 0 discriminator 3 view .LVU1475
	lsr	fp, fp, #7
.LVL449:
.L262:
	.loc 1 1564 118 is_stmt 1 discriminator 1 view .LVU1476
	cmp	fp, #127
	bhi	.L263
	.loc 1 1564 219 discriminator 4 view .LVU1477
	.loc 1 1564 221 discriminator 4 view .LVU1478
.LVL450:
	.loc 1 1564 240 is_stmt 0 discriminator 4 view .LVU1479
	strb	fp, [r1], #1
.LVL451:
	.loc 1 1564 270 is_stmt 1 discriminator 4 view .LVU1480
	.loc 1 1564 270 is_stmt 0 discriminator 4 view .LVU1481
.LBE66:
	.loc 1 1564 299 is_stmt 1 discriminator 4 view .LVU1482
	.loc 1 1564 300 discriminator 4 view .LVU1483
.LBB67:
	.loc 1 1565 5 discriminator 4 view .LVU1484
	.loc 1 1565 37 discriminator 4 view .LVU1485
	.loc 1 1565 64 discriminator 4 view .LVU1486
	.loc 1 1565 92 discriminator 4 view .LVU1487
	.loc 1 1565 113 discriminator 4 view .LVU1488
	.loc 1 1565 118 is_stmt 0 discriminator 4 view .LVU1489
	b	.L264
.LVL452:
.L265:
	.loc 1 1565 141 is_stmt 1 discriminator 3 view .LVU1490
	.loc 1 1565 162 is_stmt 0 discriminator 3 view .LVU1491
	orn	r3, r10, #127
	.loc 1 1565 160 discriminator 3 view .LVU1492
	strb	r3, [r1], #1
.LVL453:
	.loc 1 1565 199 is_stmt 1 discriminator 3 view .LVU1493
	.loc 1 1565 211 is_stmt 0 discriminator 3 view .LVU1494
	lsr	r10, r10, #7
.LVL454:
.L264:
	.loc 1 1565 118 is_stmt 1 discriminator 1 view .LVU1495
	cmp	r10, #127
	bhi	.L265
	.loc 1 1565 219 discriminator 4 view .LVU1496
	.loc 1 1565 221 discriminator 4 view .LVU1497
.LVL455:
	.loc 1 1565 240 is_stmt 0 discriminator 4 view .LVU1498
	strb	r10, [r1], #1
.LVL456:
	.loc 1 1565 270 is_stmt 1 discriminator 4 view .LVU1499
	.loc 1 1565 270 is_stmt 0 discriminator 4 view .LVU1500
.LBE67:
	.loc 1 1565 299 is_stmt 1 discriminator 4 view .LVU1501
	.loc 1 1565 300 discriminator 4 view .LVU1502
.LBB68:
	.loc 1 1566 5 discriminator 4 view .LVU1503
	.loc 1 1566 37 discriminator 4 view .LVU1504
	.loc 1 1566 64 discriminator 4 view .LVU1505
	.loc 1 1566 92 discriminator 4 view .LVU1506
	.loc 1 1566 113 discriminator 4 view .LVU1507
	.loc 1 1566 118 is_stmt 0 discriminator 4 view .LVU1508
	b	.L266
.LVL457:
.L267:
	.loc 1 1566 141 is_stmt 1 discriminator 3 view .LVU1509
	.loc 1 1566 162 is_stmt 0 discriminator 3 view .LVU1510
	orn	r3, r9, #127
	.loc 1 1566 160 discriminator 3 view .LVU1511
	strb	r3, [r1], #1
.LVL458:
	.loc 1 1566 199 is_stmt 1 discriminator 3 view .LVU1512
	.loc 1 1566 211 is_stmt 0 discriminator 3 view .LVU1513
	lsr	r9, r9, #7
.LVL459:
.L266:
	.loc 1 1566 118 is_stmt 1 discriminator 1 view .LVU1514
	cmp	r9, #127
	bhi	.L267
	.loc 1 1566 219 discriminator 4 view .LVU1515
	.loc 1 1566 221 discriminator 4 view .LVU1516
.LVL460:
	.loc 1 1566 240 is_stmt 0 discriminator 4 view .LVU1517
	strb	r9, [r1], #1
.LVL461:
	.loc 1 1566 270 is_stmt 1 discriminator 4 view .LVU1518
	.loc 1 1566 270 is_stmt 0 discriminator 4 view .LVU1519
.LBE68:
	.loc 1 1566 299 is_stmt 1 discriminator 4 view .LVU1520
	.loc 1 1566 300 discriminator 4 view .LVU1521
.LBB69:
	.loc 1 1567 5 discriminator 4 view .LVU1522
	.loc 1 1567 37 discriminator 4 view .LVU1523
	.loc 1 1567 64 discriminator 4 view .LVU1524
	.loc 1 1567 92 discriminator 4 view .LVU1525
	.loc 1 1567 113 discriminator 4 view .LVU1526
	.loc 1 1567 118 is_stmt 0 discriminator 4 view .LVU1527
	b	.L268
.LVL462:
.L269:
	.loc 1 1567 141 is_stmt 1 discriminator 3 view .LVU1528
	.loc 1 1567 162 is_stmt 0 discriminator 3 view .LVU1529
	orn	r3, r8, #127
	.loc 1 1567 160 discriminator 3 view .LVU1530
	strb	r3, [r1], #1
.LVL463:
	.loc 1 1567 199 is_stmt 1 discriminator 3 view .LVU1531
	.loc 1 1567 211 is_stmt 0 discriminator 3 view .LVU1532
	lsr	r8, r8, #7
.LVL464:
.L268:
	.loc 1 1567 118 is_stmt 1 discriminator 1 view .LVU1533
	cmp	r8, #127
	bhi	.L269
	.loc 1 1567 219 discriminator 4 view .LVU1534
	.loc 1 1567 221 discriminator 4 view .LVU1535
.LVL465:
	.loc 1 1567 240 is_stmt 0 discriminator 4 view .LVU1536
	strb	r8, [r1], #1
.LVL466:
	.loc 1 1567 270 is_stmt 1 discriminator 4 view .LVU1537
	.loc 1 1567 270 is_stmt 0 discriminator 4 view .LVU1538
.LBE69:
	.loc 1 1567 299 is_stmt 1 discriminator 4 view .LVU1539
	.loc 1 1567 300 discriminator 4 view .LVU1540
.LBB70:
	.loc 1 1568 5 discriminator 4 view .LVU1541
	.loc 1 1568 37 discriminator 4 view .LVU1542
	.loc 1 1568 64 discriminator 4 view .LVU1543
	.loc 1 1568 92 discriminator 4 view .LVU1544
	.loc 1 1568 113 discriminator 4 view .LVU1545
	.loc 1 1568 118 is_stmt 0 discriminator 4 view .LVU1546
	b	.L270
.LVL467:
.L271:
	.loc 1 1568 141 is_stmt 1 discriminator 3 view .LVU1547
	.loc 1 1568 162 is_stmt 0 discriminator 3 view .LVU1548
	orn	r3, r7, #127
	.loc 1 1568 160 discriminator 3 view .LVU1549
	strb	r3, [r1], #1
.LVL468:
	.loc 1 1568 199 is_stmt 1 discriminator 3 view .LVU1550
	.loc 1 1568 211 is_stmt 0 discriminator 3 view .LVU1551
	lsrs	r7, r7, #7
.LVL469:
.L270:
	.loc 1 1568 118 is_stmt 1 discriminator 1 view .LVU1552
	cmp	r7, #127
	bhi	.L271
	.loc 1 1568 219 discriminator 4 view .LVU1553
	.loc 1 1568 221 discriminator 4 view .LVU1554
.LVL470:
	.loc 1 1568 240 is_stmt 0 discriminator 4 view .LVU1555
	strb	r7, [r1], #1
.LVL471:
	.loc 1 1568 270 is_stmt 1 discriminator 4 view .LVU1556
	.loc 1 1568 270 is_stmt 0 discriminator 4 view .LVU1557
.LBE70:
	.loc 1 1568 299 is_stmt 1 discriminator 4 view .LVU1558
	.loc 1 1568 300 discriminator 4 view .LVU1559
.LBB71:
	.loc 1 1569 5 discriminator 4 view .LVU1560
	.loc 1 1569 37 discriminator 4 view .LVU1561
	.loc 1 1569 64 discriminator 4 view .LVU1562
	.loc 1 1569 92 discriminator 4 view .LVU1563
	.loc 1 1569 113 discriminator 4 view .LVU1564
.L272:
	.loc 1 1569 118 discriminator 1 view .LVU1565
	ldr	r3, [sp, #68]
	cmp	r3, #127
	bls	.L278
	.loc 1 1569 141 discriminator 3 view .LVU1566
.LVL472:
	.loc 1 1569 162 is_stmt 0 discriminator 3 view .LVU1567
	ldr	r3, [sp, #68]
	orn	r3, r3, #127
	.loc 1 1569 160 discriminator 3 view .LVU1568
	strb	r3, [r1], #1
.LVL473:
	.loc 1 1569 199 is_stmt 1 discriminator 3 view .LVU1569
	.loc 1 1569 211 is_stmt 0 discriminator 3 view .LVU1570
	ldr	r3, [sp, #68]
	lsrs	r3, r3, #7
	str	r3, [sp, #68]
.LVL474:
	.loc 1 1569 211 discriminator 3 view .LVU1571
	b	.L272
.L278:
	.loc 1 1569 219 is_stmt 1 discriminator 4 view .LVU1572
	.loc 1 1569 221 discriminator 4 view .LVU1573
.LVL475:
	.loc 1 1569 240 is_stmt 0 discriminator 4 view .LVU1574
	strb	r3, [r1], #1
.LVL476:
	.loc 1 1569 270 is_stmt 1 discriminator 4 view .LVU1575
	.loc 1 1569 270 is_stmt 0 discriminator 4 view .LVU1576
.LBE71:
	.loc 1 1569 299 is_stmt 1 discriminator 4 view .LVU1577
	.loc 1 1569 300 discriminator 4 view .LVU1578
	.loc 1 1570 3 discriminator 4 view .LVU1579
	ldr	r2, [sp]
	bl	_SendPacket
.LVL477:
	.loc 1 1571 3 discriminator 4 view .LVU1580
	ldr	r3, [sp, #4]
	.syntax unified
@ 1571 "C:\nRF5_SDK_15.0.0_a53641a\examples\ble_peripheral\slam_application-master\systemView\SEGGER_SYSVIEW.c" 1
	msr   basepri, r3  
	
@ 0 "" 2
	.thumb
	.syntax unified
.LBE62:
	.loc 1 1571 71 discriminator 4 view .LVU1581
	.loc 1 1572 1 is_stmt 0 discriminator 4 view .LVU1582
	add	sp, sp, #12
.LCFI38:
.LVL478:
	.loc 1 1572 1 discriminator 4 view .LVU1583
	@ sp needed
	pop	{r4, r5, r6, r7, r8, r9, r10, fp, pc}
.LVL479:
.L280:
	.loc 1 1572 1 discriminator 4 view .LVU1584
	.align	2
.L279:
	.word	.LANCHOR3
.LFE22:
	.size	SEGGER_SYSVIEW_RecordU32x9, .-SEGGER_SYSVIEW_RecordU32x9
	.section	.text.SEGGER_SYSVIEW_RecordU32x10,"ax",%progbits
	.align	1
	.global	SEGGER_SYSVIEW_RecordU32x10
	.syntax unified
	.thumb
	.thumb_func
	.fpu fpv4-sp-d16
	.type	SEGGER_SYSVIEW_RecordU32x10, %function
SEGGER_SYSVIEW_RecordU32x10:
.LVL480:
.LFB23:
	.loc 1 1594 266 is_stmt 1 view -0
	@ args = 28, pretend = 0, frame = 8
	@ frame_needed = 0, uses_anonymous_args = 0
	.loc 1 1594 266 is_stmt 0 view .LVU1586
	push	{r4, r5, r6, r7, r8, r9, r10, fp, lr}
.LCFI39:
	sub	sp, sp, #12
.LCFI40:
	str	r0, [sp]
	mov	r6, r1
	mov	r5, r2
	mov	r4, r3
	ldr	fp, [sp, #48]
	ldr	r10, [sp, #52]
	ldr	r9, [sp, #56]
	ldr	r8, [sp, #60]
	ldr	r7, [sp, #64]
	.loc 1 1595 3 is_stmt 1 view .LVU1587
	.loc 1 1596 3 view .LVU1588
.LBB72:
	.loc 1 1597 5 view .LVU1589
	.loc 1 1597 29 view .LVU1590
	.syntax unified
@ 1597 "C:\nRF5_SDK_15.0.0_a53641a\examples\ble_peripheral\slam_application-master\systemView\SEGGER_SYSVIEW.c" 1
	mrs   r3, basepri  
	mov   r1, #32       
	msr   basepri, r1  
	
@ 0 "" 2
.LVL481:
	.loc 1 1597 29 is_stmt 0 view .LVU1591
	.thumb
	.syntax unified
	str	r3, [sp, #4]
.LVL482:
	.loc 1 1597 165 is_stmt 1 view .LVU1592
	.loc 1 1597 167 view .LVU1593
	.loc 1 1597 183 is_stmt 0 view .LVU1594
	ldr	r0, .L308
.LVL483:
	.loc 1 1597 183 view .LVU1595
	bl	_PreparePacket
.LVL484:
	.loc 1 1597 208 is_stmt 1 view .LVU1596
	.loc 1 1599 3 view .LVU1597
.LBB73:
	.loc 1 1600 5 view .LVU1598
	.loc 1 1600 37 view .LVU1599
	.loc 1 1600 64 view .LVU1600
	.loc 1 1600 92 view .LVU1601
	.loc 1 1600 113 view .LVU1602
	.loc 1 1600 80 is_stmt 0 view .LVU1603
	mov	r1, r0
.LVL485:
.L282:
	.loc 1 1600 118 is_stmt 1 discriminator 1 view .LVU1604
	cmp	r6, #127
	bls	.L303
	.loc 1 1600 141 discriminator 3 view .LVU1605
.LVL486:
	.loc 1 1600 162 is_stmt 0 discriminator 3 view .LVU1606
	orn	r3, r6, #127
	.loc 1 1600 160 discriminator 3 view .LVU1607
	strb	r3, [r1], #1
.LVL487:
	.loc 1 1600 199 is_stmt 1 discriminator 3 view .LVU1608
	.loc 1 1600 211 is_stmt 0 discriminator 3 view .LVU1609
	lsrs	r6, r6, #7
.LVL488:
	.loc 1 1600 211 discriminator 3 view .LVU1610
	b	.L282
.L303:
	.loc 1 1600 219 is_stmt 1 discriminator 4 view .LVU1611
	.loc 1 1600 221 discriminator 4 view .LVU1612
.LVL489:
	.loc 1 1600 240 is_stmt 0 discriminator 4 view .LVU1613
	strb	r6, [r1], #1
.LVL490:
	.loc 1 1600 270 is_stmt 1 discriminator 4 view .LVU1614
	.loc 1 1600 270 is_stmt 0 discriminator 4 view .LVU1615
.LBE73:
	.loc 1 1600 299 is_stmt 1 discriminator 4 view .LVU1616
	.loc 1 1600 300 discriminator 4 view .LVU1617
.LBB74:
	.loc 1 1601 5 discriminator 4 view .LVU1618
	.loc 1 1601 37 discriminator 4 view .LVU1619
	.loc 1 1601 64 discriminator 4 view .LVU1620
	.loc 1 1601 92 discriminator 4 view .LVU1621
	.loc 1 1601 113 discriminator 4 view .LVU1622
.L284:
	.loc 1 1601 118 discriminator 1 view .LVU1623
	cmp	r5, #127
	bls	.L304
	.loc 1 1601 141 discriminator 3 view .LVU1624
.LVL491:
	.loc 1 1601 162 is_stmt 0 discriminator 3 view .LVU1625
	orn	r3, r5, #127
	.loc 1 1601 160 discriminator 3 view .LVU1626
	strb	r3, [r1], #1
.LVL492:
	.loc 1 1601 199 is_stmt 1 discriminator 3 view .LVU1627
	.loc 1 1601 211 is_stmt 0 discriminator 3 view .LVU1628
	lsrs	r5, r5, #7
.LVL493:
	.loc 1 1601 211 discriminator 3 view .LVU1629
	b	.L284
.L304:
	.loc 1 1601 219 is_stmt 1 discriminator 4 view .LVU1630
	.loc 1 1601 221 discriminator 4 view .LVU1631
.LVL494:
	.loc 1 1601 240 is_stmt 0 discriminator 4 view .LVU1632
	strb	r5, [r1], #1
.LVL495:
	.loc 1 1601 270 is_stmt 1 discriminator 4 view .LVU1633
	.loc 1 1601 270 is_stmt 0 discriminator 4 view .LVU1634
.LBE74:
	.loc 1 1601 299 is_stmt 1 discriminator 4 view .LVU1635
	.loc 1 1601 300 discriminator 4 view .LVU1636
.LBB75:
	.loc 1 1602 5 discriminator 4 view .LVU1637
	.loc 1 1602 37 discriminator 4 view .LVU1638
	.loc 1 1602 64 discriminator 4 view .LVU1639
	.loc 1 1602 92 discriminator 4 view .LVU1640
	.loc 1 1602 113 discriminator 4 view .LVU1641
	.loc 1 1602 118 is_stmt 0 discriminator 4 view .LVU1642
	b	.L286
.LVL496:
.L287:
	.loc 1 1602 141 is_stmt 1 discriminator 3 view .LVU1643
	.loc 1 1602 162 is_stmt 0 discriminator 3 view .LVU1644
	orn	r3, r4, #127
	.loc 1 1602 160 discriminator 3 view .LVU1645
	strb	r3, [r1], #1
.LVL497:
	.loc 1 1602 199 is_stmt 1 discriminator 3 view .LVU1646
	.loc 1 1602 211 is_stmt 0 discriminator 3 view .LVU1647
	lsrs	r4, r4, #7
.LVL498:
.L286:
	.loc 1 1602 118 is_stmt 1 discriminator 1 view .LVU1648
	cmp	r4, #127
	bhi	.L287
	.loc 1 1602 219 discriminator 4 view .LVU1649
	.loc 1 1602 221 discriminator 4 view .LVU1650
.LVL499:
	.loc 1 1602 240 is_stmt 0 discriminator 4 view .LVU1651
	strb	r4, [r1], #1
.LVL500:
	.loc 1 1602 270 is_stmt 1 discriminator 4 view .LVU1652
	.loc 1 1602 270 is_stmt 0 discriminator 4 view .LVU1653
.LBE75:
	.loc 1 1602 299 is_stmt 1 discriminator 4 view .LVU1654
	.loc 1 1602 300 discriminator 4 view .LVU1655
.LBB76:
	.loc 1 1603 5 discriminator 4 view .LVU1656
	.loc 1 1603 37 discriminator 4 view .LVU1657
	.loc 1 1603 64 discriminator 4 view .LVU1658
	.loc 1 1603 92 discriminator 4 view .LVU1659
	.loc 1 1603 113 discriminator 4 view .LVU1660
	.loc 1 1603 118 is_stmt 0 discriminator 4 view .LVU1661
	b	.L288
.LVL501:
.L289:
	.loc 1 1603 141 is_stmt 1 discriminator 3 view .LVU1662
	.loc 1 1603 162 is_stmt 0 discriminator 3 view .LVU1663
	orn	r3, fp, #127
	.loc 1 1603 160 discriminator 3 view .LVU1664
	strb	r3, [r1], #1
.LVL502:
	.loc 1 1603 199 is_stmt 1 discriminator 3 view .LVU1665
	.loc 1 1603 211 is_stmt 0 discriminator 3 view .LVU1666
	lsr	fp, fp, #7
.LVL503:
.L288:
	.loc 1 1603 118 is_stmt 1 discriminator 1 view .LVU1667
	cmp	fp, #127
	bhi	.L289
	.loc 1 1603 219 discriminator 4 view .LVU1668
	.loc 1 1603 221 discriminator 4 view .LVU1669
.LVL504:
	.loc 1 1603 240 is_stmt 0 discriminator 4 view .LVU1670
	strb	fp, [r1], #1
.LVL505:
	.loc 1 1603 270 is_stmt 1 discriminator 4 view .LVU1671
	.loc 1 1603 270 is_stmt 0 discriminator 4 view .LVU1672
.LBE76:
	.loc 1 1603 299 is_stmt 1 discriminator 4 view .LVU1673
	.loc 1 1603 300 discriminator 4 view .LVU1674
.LBB77:
	.loc 1 1604 5 discriminator 4 view .LVU1675
	.loc 1 1604 37 discriminator 4 view .LVU1676
	.loc 1 1604 64 discriminator 4 view .LVU1677
	.loc 1 1604 92 discriminator 4 view .LVU1678
	.loc 1 1604 113 discriminator 4 view .LVU1679
.L290:
	.loc 1 1604 118 discriminator 1 view .LVU1680
	cmp	r10, #127
	bls	.L305
	.loc 1 1604 141 discriminator 3 view .LVU1681
.LVL506:
	.loc 1 1604 162 is_stmt 0 discriminator 3 view .LVU1682
	orn	r3, r10, #127
	.loc 1 1604 160 discriminator 3 view .LVU1683
	strb	r3, [r1], #1
.LVL507:
	.loc 1 1604 199 is_stmt 1 discriminator 3 view .LVU1684
	.loc 1 1604 211 is_stmt 0 discriminator 3 view .LVU1685
	lsr	r10, r10, #7
.LVL508:
	.loc 1 1604 211 discriminator 3 view .LVU1686
	b	.L290
.L305:
	.loc 1 1604 219 is_stmt 1 discriminator 4 view .LVU1687
	.loc 1 1604 221 discriminator 4 view .LVU1688
.LVL509:
	.loc 1 1604 240 is_stmt 0 discriminator 4 view .LVU1689
	strb	r10, [r1], #1
.LVL510:
	.loc 1 1604 270 is_stmt 1 discriminator 4 view .LVU1690
	.loc 1 1604 270 is_stmt 0 discriminator 4 view .LVU1691
.LBE77:
	.loc 1 1604 299 is_stmt 1 discriminator 4 view .LVU1692
	.loc 1 1604 300 discriminator 4 view .LVU1693
.LBB78:
	.loc 1 1605 5 discriminator 4 view .LVU1694
	.loc 1 1605 37 discriminator 4 view .LVU1695
	.loc 1 1605 64 discriminator 4 view .LVU1696
	.loc 1 1605 92 discriminator 4 view .LVU1697
	.loc 1 1605 113 discriminator 4 view .LVU1698
	.loc 1 1605 118 is_stmt 0 discriminator 4 view .LVU1699
	b	.L292
.LVL511:
.L293:
	.loc 1 1605 141 is_stmt 1 discriminator 3 view .LVU1700
	.loc 1 1605 162 is_stmt 0 discriminator 3 view .LVU1701
	orn	r3, r9, #127
	.loc 1 1605 160 discriminator 3 view .LVU1702
	strb	r3, [r1], #1
.LVL512:
	.loc 1 1605 199 is_stmt 1 discriminator 3 view .LVU1703
	.loc 1 1605 211 is_stmt 0 discriminator 3 view .LVU1704
	lsr	r9, r9, #7
.LVL513:
.L292:
	.loc 1 1605 118 is_stmt 1 discriminator 1 view .LVU1705
	cmp	r9, #127
	bhi	.L293
	.loc 1 1605 219 discriminator 4 view .LVU1706
	.loc 1 1605 221 discriminator 4 view .LVU1707
.LVL514:
	.loc 1 1605 240 is_stmt 0 discriminator 4 view .LVU1708
	strb	r9, [r1], #1
.LVL515:
	.loc 1 1605 270 is_stmt 1 discriminator 4 view .LVU1709
	.loc 1 1605 270 is_stmt 0 discriminator 4 view .LVU1710
.LBE78:
	.loc 1 1605 299 is_stmt 1 discriminator 4 view .LVU1711
	.loc 1 1605 300 discriminator 4 view .LVU1712
.LBB79:
	.loc 1 1606 5 discriminator 4 view .LVU1713
	.loc 1 1606 37 discriminator 4 view .LVU1714
	.loc 1 1606 64 discriminator 4 view .LVU1715
	.loc 1 1606 92 discriminator 4 view .LVU1716
	.loc 1 1606 113 discriminator 4 view .LVU1717
	.loc 1 1606 118 is_stmt 0 discriminator 4 view .LVU1718
	b	.L294
.LVL516:
.L295:
	.loc 1 1606 141 is_stmt 1 discriminator 3 view .LVU1719
	.loc 1 1606 162 is_stmt 0 discriminator 3 view .LVU1720
	orn	r3, r8, #127
	.loc 1 1606 160 discriminator 3 view .LVU1721
	strb	r3, [r1], #1
.LVL517:
	.loc 1 1606 199 is_stmt 1 discriminator 3 view .LVU1722
	.loc 1 1606 211 is_stmt 0 discriminator 3 view .LVU1723
	lsr	r8, r8, #7
.LVL518:
.L294:
	.loc 1 1606 118 is_stmt 1 discriminator 1 view .LVU1724
	cmp	r8, #127
	bhi	.L295
	.loc 1 1606 219 discriminator 4 view .LVU1725
	.loc 1 1606 221 discriminator 4 view .LVU1726
.LVL519:
	.loc 1 1606 240 is_stmt 0 discriminator 4 view .LVU1727
	strb	r8, [r1], #1
.LVL520:
	.loc 1 1606 270 is_stmt 1 discriminator 4 view .LVU1728
	.loc 1 1606 270 is_stmt 0 discriminator 4 view .LVU1729
.LBE79:
	.loc 1 1606 299 is_stmt 1 discriminator 4 view .LVU1730
	.loc 1 1606 300 discriminator 4 view .LVU1731
.LBB80:
	.loc 1 1607 5 discriminator 4 view .LVU1732
	.loc 1 1607 37 discriminator 4 view .LVU1733
	.loc 1 1607 64 discriminator 4 view .LVU1734
	.loc 1 1607 92 discriminator 4 view .LVU1735
	.loc 1 1607 113 discriminator 4 view .LVU1736
.L296:
	.loc 1 1607 118 discriminator 1 view .LVU1737
	cmp	r7, #127
	bls	.L306
	.loc 1 1607 141 discriminator 3 view .LVU1738
.LVL521:
	.loc 1 1607 162 is_stmt 0 discriminator 3 view .LVU1739
	orn	r3, r7, #127
	.loc 1 1607 160 discriminator 3 view .LVU1740
	strb	r3, [r1], #1
.LVL522:
	.loc 1 1607 199 is_stmt 1 discriminator 3 view .LVU1741
	.loc 1 1607 211 is_stmt 0 discriminator 3 view .LVU1742
	lsrs	r7, r7, #7
.LVL523:
	.loc 1 1607 211 discriminator 3 view .LVU1743
	b	.L296
.L306:
	.loc 1 1607 219 is_stmt 1 discriminator 4 view .LVU1744
	.loc 1 1607 221 discriminator 4 view .LVU1745
.LVL524:
	.loc 1 1607 240 is_stmt 0 discriminator 4 view .LVU1746
	strb	r7, [r1], #1
.LVL525:
	.loc 1 1607 270 is_stmt 1 discriminator 4 view .LVU1747
	.loc 1 1607 270 is_stmt 0 discriminator 4 view .LVU1748
.LBE80:
	.loc 1 1607 299 is_stmt 1 discriminator 4 view .LVU1749
	.loc 1 1607 300 discriminator 4 view .LVU1750
.LBB81:
	.loc 1 1608 5 discriminator 4 view .LVU1751
	.loc 1 1608 37 discriminator 4 view .LVU1752
	.loc 1 1608 64 discriminator 4 view .LVU1753
	.loc 1 1608 92 discriminator 4 view .LVU1754
	.loc 1 1608 113 discriminator 4 view .LVU1755
	ldr	r3, [sp, #68]
.LVL526:
.L298:
	.loc 1 1608 118 discriminator 1 view .LVU1756
	cmp	r3, #127
	bls	.L307
	.loc 1 1608 141 discriminator 3 view .LVU1757
.LVL527:
	.loc 1 1608 162 is_stmt 0 discriminator 3 view .LVU1758
	orn	r2, r3, #127
	.loc 1 1608 160 discriminator 3 view .LVU1759
	strb	r2, [r1], #1
.LVL528:
	.loc 1 1608 199 is_stmt 1 discriminator 3 view .LVU1760
	.loc 1 1608 211 is_stmt 0 discriminator 3 view .LVU1761
	lsrs	r3, r3, #7
.LVL529:
	.loc 1 1608 211 discriminator 3 view .LVU1762
	b	.L298
.L307:
	.loc 1 1608 211 discriminator 3 view .LVU1763
	str	r3, [sp, #68]
.LVL530:
	.loc 1 1608 219 is_stmt 1 discriminator 4 view .LVU1764
	.loc 1 1608 221 discriminator 4 view .LVU1765
	.loc 1 1608 240 is_stmt 0 discriminator 4 view .LVU1766
	strb	r3, [r1], #1
.LVL531:
	.loc 1 1608 270 is_stmt 1 discriminator 4 view .LVU1767
	.loc 1 1608 270 is_stmt 0 discriminator 4 view .LVU1768
.LBE81:
	.loc 1 1608 299 is_stmt 1 discriminator 4 view .LVU1769
	.loc 1 1608 300 discriminator 4 view .LVU1770
.LBB82:
	.loc 1 1609 5 discriminator 4 view .LVU1771
	.loc 1 1609 37 discriminator 4 view .LVU1772
	.loc 1 1609 64 discriminator 4 view .LVU1773
	.loc 1 1609 92 discriminator 4 view .LVU1774
	.loc 1 1609 113 discriminator 4 view .LVU1775
	ldr	r3, [sp, #72]
.LVL532:
	.loc 1 1609 118 is_stmt 0 discriminator 4 view .LVU1776
	b	.L300
.LVL533:
.L301:
	.loc 1 1609 141 is_stmt 1 discriminator 3 view .LVU1777
	.loc 1 1609 162 is_stmt 0 discriminator 3 view .LVU1778
	orn	r2, r3, #127
	.loc 1 1609 160 discriminator 3 view .LVU1779
	strb	r2, [r1], #1
.LVL534:
	.loc 1 1609 199 is_stmt 1 discriminator 3 view .LVU1780
	.loc 1 1609 211 is_stmt 0 discriminator 3 view .LVU1781
	lsrs	r3, r3, #7
.LVL535:
.L300:
	.loc 1 1609 118 is_stmt 1 discriminator 1 view .LVU1782
	cmp	r3, #127
	bhi	.L301
	.loc 1 1609 118 is_stmt 0 discriminator 1 view .LVU1783
	str	r3, [sp, #72]
.LVL536:
	.loc 1 1609 219 is_stmt 1 discriminator 4 view .LVU1784
	.loc 1 1609 221 discriminator 4 view .LVU1785
	.loc 1 1609 240 is_stmt 0 discriminator 4 view .LVU1786
	strb	r3, [r1], #1
.LVL537:
	.loc 1 1609 270 is_stmt 1 discriminator 4 view .LVU1787
	.loc 1 1609 270 is_stmt 0 discriminator 4 view .LVU1788
.LBE82:
	.loc 1 1609 299 is_stmt 1 discriminator 4 view .LVU1789
	.loc 1 1609 300 discriminator 4 view .LVU1790
	.loc 1 1610 3 discriminator 4 view .LVU1791
	ldr	r2, [sp]
	bl	_SendPacket
.LVL538:
	.loc 1 1611 3 discriminator 4 view .LVU1792
	ldr	r3, [sp, #4]
	.syntax unified
@ 1611 "C:\nRF5_SDK_15.0.0_a53641a\examples\ble_peripheral\slam_application-master\systemView\SEGGER_SYSVIEW.c" 1
	msr   basepri, r3  
	
@ 0 "" 2
	.thumb
	.syntax unified
.LBE72:
	.loc 1 1611 71 discriminator 4 view .LVU1793
	.loc 1 1612 1 is_stmt 0 discriminator 4 view .LVU1794
	add	sp, sp, #12
.LCFI41:
.LVL539:
	.loc 1 1612 1 discriminator 4 view .LVU1795
	@ sp needed
	pop	{r4, r5, r6, r7, r8, r9, r10, fp, pc}
.LVL540:
.L309:
	.loc 1 1612 1 discriminator 4 view .LVU1796
	.align	2
.L308:
	.word	.LANCHOR3
.LFE23:
	.size	SEGGER_SYSVIEW_RecordU32x10, .-SEGGER_SYSVIEW_RecordU32x10
	.section	.text.SEGGER_SYSVIEW_RecordString,"ax",%progbits
	.align	1
	.global	SEGGER_SYSVIEW_RecordString
	.syntax unified
	.thumb
	.thumb_func
	.fpu fpv4-sp-d16
	.type	SEGGER_SYSVIEW_RecordString, %function
SEGGER_SYSVIEW_RecordString:
.LVL541:
.LFB24:
	.loc 1 1629 77 is_stmt 1 view -0
	@ args = 0, pretend = 0, frame = 0
	@ frame_needed = 0, uses_anonymous_args = 0
	.loc 1 1629 77 is_stmt 0 view .LVU1798
	push	{r3, r4, r5, r6, r7, lr}
.LCFI42:
	mov	r5, r0
	mov	r6, r1
	.loc 1 1630 3 is_stmt 1 view .LVU1799
	.loc 1 1631 3 view .LVU1800
.LBB83:
	.loc 1 1632 5 view .LVU1801
	.loc 1 1632 29 view .LVU1802
	.syntax unified
@ 1632 "C:\nRF5_SDK_15.0.0_a53641a\examples\ble_peripheral\slam_application-master\systemView\SEGGER_SYSVIEW.c" 1
	mrs   r7, basepri  
	mov   r1, #32       
	msr   basepri, r1  
	
@ 0 "" 2
.LVL542:
	.loc 1 1632 165 view .LVU1803
	.loc 1 1632 167 view .LVU1804
	.loc 1 1632 183 is_stmt 0 view .LVU1805
	.thumb
	.syntax unified
	ldr	r0, .L312
.LVL543:
	.loc 1 1632 183 view .LVU1806
	bl	_PreparePacket
.LVL544:
	mov	r4, r0
.LVL545:
	.loc 1 1632 208 is_stmt 1 view .LVU1807
	.loc 1 1634 3 view .LVU1808
	.loc 1 1634 14 is_stmt 0 view .LVU1809
	movs	r2, #128
	mov	r1, r6
	bl	_EncodeStr
.LVL546:
	.loc 1 1634 14 view .LVU1810
	mov	r1, r0
.LVL547:
	.loc 1 1635 3 is_stmt 1 view .LVU1811
	mov	r2, r5
	mov	r0, r4
.LVL548:
	.loc 1 1635 3 is_stmt 0 view .LVU1812
	bl	_SendPacket
.LVL549:
	.loc 1 1636 3 is_stmt 1 view .LVU1813
	.syntax unified
@ 1636 "C:\nRF5_SDK_15.0.0_a53641a\examples\ble_peripheral\slam_application-master\systemView\SEGGER_SYSVIEW.c" 1
	msr   basepri, r7  
	
@ 0 "" 2
	.thumb
	.syntax unified
.LBE83:
	.loc 1 1636 71 view .LVU1814
	.loc 1 1637 1 is_stmt 0 view .LVU1815
	pop	{r3, r4, r5, r6, r7, pc}
.LVL550:
.L313:
	.loc 1 1637 1 view .LVU1816
	.align	2
.L312:
	.word	.LANCHOR3
.LFE24:
	.size	SEGGER_SYSVIEW_RecordString, .-SEGGER_SYSVIEW_RecordString
	.section	.text.SEGGER_SYSVIEW_Stop,"ax",%progbits
	.align	1
	.global	SEGGER_SYSVIEW_Stop
	.syntax unified
	.thumb
	.thumb_func
	.fpu fpv4-sp-d16
	.type	SEGGER_SYSVIEW_Stop, %function
SEGGER_SYSVIEW_Stop:
.LFB26:
	.loc 1 1704 32 is_stmt 1 view -0
	@ args = 0, pretend = 0, frame = 0
	@ frame_needed = 0, uses_anonymous_args = 0
	push	{r4, lr}
.LCFI43:
	.loc 1 1705 3 view .LVU1818
.LBB84:
	.loc 1 1706 5 view .LVU1819
	.loc 1 1706 29 view .LVU1820
	.syntax unified
@ 1706 "C:\nRF5_SDK_15.0.0_a53641a\examples\ble_peripheral\slam_application-master\systemView\SEGGER_SYSVIEW.c" 1
	mrs   r4, basepri  
	mov   r1, #32       
	msr   basepri, r1  
	
@ 0 "" 2
.LVL551:
	.loc 1 1706 165 view .LVU1821
	.loc 1 1706 167 view .LVU1822
	.loc 1 1706 183 is_stmt 0 view .LVU1823
	.thumb
	.syntax unified
	ldr	r0, .L318
	bl	_PreparePacket
.LVL552:
	.loc 1 1706 208 is_stmt 1 view .LVU1824
	.loc 1 1708 3 view .LVU1825
	.loc 1 1708 23 is_stmt 0 view .LVU1826
	ldr	r3, .L318+4
	ldrb	r3, [r3]	@ zero_extendqisi2
	.loc 1 1708 6 view .LVU1827
	cbnz	r3, .L317
.LVL553:
.L315:
	.loc 1 1712 3 is_stmt 1 view .LVU1828
	.syntax unified
@ 1712 "C:\nRF5_SDK_15.0.0_a53641a\examples\ble_peripheral\slam_application-master\systemView\SEGGER_SYSVIEW.c" 1
	msr   basepri, r4  
	
@ 0 "" 2
	.thumb
	.syntax unified
.LBE84:
	.loc 1 1712 71 view .LVU1829
	.loc 1 1713 1 is_stmt 0 view .LVU1830
	pop	{r4, pc}
.LVL554:
.L317:
.LBB85:
	.loc 1 1709 5 is_stmt 1 view .LVU1831
	movs	r2, #11
	mov	r1, r0
	bl	_SendPacket
.LVL555:
	.loc 1 1710 5 view .LVU1832
	.loc 1 1710 34 is_stmt 0 view .LVU1833
	ldr	r3, .L318+4
	movs	r2, #0
	strb	r2, [r3]
	b	.L315
.L319:
	.align	2
.L318:
	.word	.LANCHOR3
	.word	.LANCHOR0
.LBE85:
.LFE26:
	.size	SEGGER_SYSVIEW_Stop, .-SEGGER_SYSVIEW_Stop
	.section	.text.SEGGER_SYSVIEW_GetSysDesc,"ax",%progbits
	.align	1
	.global	SEGGER_SYSVIEW_GetSysDesc
	.syntax unified
	.thumb
	.thumb_func
	.fpu fpv4-sp-d16
	.type	SEGGER_SYSVIEW_GetSysDesc, %function
SEGGER_SYSVIEW_GetSysDesc:
.LFB27:
	.loc 1 1723 38 is_stmt 1 view -0
	@ args = 0, pretend = 0, frame = 0
	@ frame_needed = 0, uses_anonymous_args = 0
	push	{r4, lr}
.LCFI44:
	.loc 1 1724 3 view .LVU1835
	.loc 1 1725 3 view .LVU1836
.LBB86:
	.loc 1 1726 5 view .LVU1837
	.loc 1 1726 29 view .LVU1838
	.syntax unified
@ 1726 "C:\nRF5_SDK_15.0.0_a53641a\examples\ble_peripheral\slam_application-master\systemView\SEGGER_SYSVIEW.c" 1
	mrs   r4, basepri  
	mov   r1, #32       
	msr   basepri, r1  
	
@ 0 "" 2
.LVL556:
	.loc 1 1726 165 view .LVU1839
	.loc 1 1726 167 view .LVU1840
	.loc 1 1726 183 is_stmt 0 view .LVU1841
	.thumb
	.syntax unified
	ldr	r0, .L331
	bl	_PreparePacket
.LVL557:
	.loc 1 1726 208 is_stmt 1 view .LVU1842
	.loc 1 1728 3 view .LVU1843
.LBB87:
	.loc 1 1729 5 view .LVU1844
	.loc 1 1729 37 view .LVU1845
	.loc 1 1729 64 view .LVU1846
	.loc 1 1729 92 view .LVU1847
	.loc 1 1729 104 is_stmt 0 view .LVU1848
	ldr	r3, .L331+4
	ldr	r2, [r3, #4]
.LVL558:
	.loc 1 1729 132 is_stmt 1 view .LVU1849
	.loc 1 1729 80 is_stmt 0 view .LVU1850
	mov	r3, r0
.LVL559:
.L321:
	.loc 1 1729 137 is_stmt 1 discriminator 1 view .LVU1851
	cmp	r2, #127
	bls	.L329
	.loc 1 1729 160 discriminator 3 view .LVU1852
.LVL560:
	.loc 1 1729 181 is_stmt 0 discriminator 3 view .LVU1853
	orn	r1, r2, #127
	.loc 1 1729 179 discriminator 3 view .LVU1854
	strb	r1, [r3], #1
.LVL561:
	.loc 1 1729 218 is_stmt 1 discriminator 3 view .LVU1855
	.loc 1 1729 230 is_stmt 0 discriminator 3 view .LVU1856
	lsrs	r2, r2, #7
.LVL562:
	.loc 1 1729 230 discriminator 3 view .LVU1857
	b	.L321
.L329:
	.loc 1 1729 238 is_stmt 1 discriminator 4 view .LVU1858
	.loc 1 1729 240 discriminator 4 view .LVU1859
.LVL563:
	.loc 1 1729 259 is_stmt 0 discriminator 4 view .LVU1860
	strb	r2, [r3], #1
.LVL564:
	.loc 1 1729 289 is_stmt 1 discriminator 4 view .LVU1861
	.loc 1 1729 289 is_stmt 0 discriminator 4 view .LVU1862
.LBE87:
	.loc 1 1729 318 is_stmt 1 discriminator 4 view .LVU1863
	.loc 1 1729 319 discriminator 4 view .LVU1864
.LBB88:
	.loc 1 1730 5 discriminator 4 view .LVU1865
	.loc 1 1730 37 discriminator 4 view .LVU1866
	.loc 1 1730 64 discriminator 4 view .LVU1867
	.loc 1 1730 92 discriminator 4 view .LVU1868
	.loc 1 1730 104 is_stmt 0 discriminator 4 view .LVU1869
	ldr	r2, .L331+4
.LVL565:
	.loc 1 1730 104 discriminator 4 view .LVU1870
	ldr	r2, [r2, #8]
.LVL566:
	.loc 1 1730 132 is_stmt 1 discriminator 4 view .LVU1871
.L323:
	.loc 1 1730 137 discriminator 1 view .LVU1872
	cmp	r2, #127
	bls	.L330
	.loc 1 1730 160 discriminator 3 view .LVU1873
.LVL567:
	.loc 1 1730 181 is_stmt 0 discriminator 3 view .LVU1874
	orn	r1, r2, #127
	.loc 1 1730 179 discriminator 3 view .LVU1875
	strb	r1, [r3], #1
.LVL568:
	.loc 1 1730 218 is_stmt 1 discriminator 3 view .LVU1876
	.loc 1 1730 230 is_stmt 0 discriminator 3 view .LVU1877
	lsrs	r2, r2, #7
.LVL569:
	.loc 1 1730 230 discriminator 3 view .LVU1878
	b	.L323
.L330:
	.loc 1 1730 238 is_stmt 1 discriminator 4 view .LVU1879
	.loc 1 1730 240 discriminator 4 view .LVU1880
.LVL570:
	.loc 1 1730 259 is_stmt 0 discriminator 4 view .LVU1881
	strb	r2, [r3], #1
.LVL571:
	.loc 1 1730 289 is_stmt 1 discriminator 4 view .LVU1882
	.loc 1 1730 289 is_stmt 0 discriminator 4 view .LVU1883
.LBE88:
	.loc 1 1730 318 is_stmt 1 discriminator 4 view .LVU1884
	.loc 1 1730 319 discriminator 4 view .LVU1885
.LBB89:
	.loc 1 1731 5 discriminator 4 view .LVU1886
	.loc 1 1731 37 discriminator 4 view .LVU1887
	.loc 1 1731 64 discriminator 4 view .LVU1888
	.loc 1 1731 92 discriminator 4 view .LVU1889
	.loc 1 1731 104 is_stmt 0 discriminator 4 view .LVU1890
	ldr	r2, .L331+4
.LVL572:
	.loc 1 1731 104 discriminator 4 view .LVU1891
	ldr	r2, [r2, #16]
.LVL573:
	.loc 1 1731 139 is_stmt 1 discriminator 4 view .LVU1892
	.loc 1 1731 144 is_stmt 0 discriminator 4 view .LVU1893
	b	.L325
.LVL574:
.L326:
	.loc 1 1731 167 is_stmt 1 discriminator 3 view .LVU1894
	.loc 1 1731 188 is_stmt 0 discriminator 3 view .LVU1895
	orn	r1, r2, #127
	.loc 1 1731 186 discriminator 3 view .LVU1896
	strb	r1, [r3], #1
.LVL575:
	.loc 1 1731 225 is_stmt 1 discriminator 3 view .LVU1897
	.loc 1 1731 237 is_stmt 0 discriminator 3 view .LVU1898
	lsrs	r2, r2, #7
.LVL576:
.L325:
	.loc 1 1731 144 is_stmt 1 discriminator 1 view .LVU1899
	cmp	r2, #127
	bhi	.L326
	.loc 1 1731 245 discriminator 4 view .LVU1900
	.loc 1 1731 247 discriminator 4 view .LVU1901
.LVL577:
	.loc 1 1731 266 is_stmt 0 discriminator 4 view .LVU1902
	mov	r1, r3
	strb	r2, [r1], #2
	.loc 1 1731 296 is_stmt 1 discriminator 4 view .LVU1903
.LVL578:
	.loc 1 1731 296 is_stmt 0 discriminator 4 view .LVU1904
.LBE89:
	.loc 1 1731 325 is_stmt 1 discriminator 4 view .LVU1905
	.loc 1 1731 326 discriminator 4 view .LVU1906
.LBB90:
	.loc 1 1732 5 discriminator 4 view .LVU1907
	.loc 1 1732 37 discriminator 4 view .LVU1908
	.loc 1 1732 64 discriminator 4 view .LVU1909
	.loc 1 1732 92 discriminator 4 view .LVU1910
	.loc 1 1732 109 discriminator 4 view .LVU1911
	.loc 1 1732 114 discriminator 4 view .LVU1912
	.loc 1 1732 215 discriminator 4 view .LVU1913
	.loc 1 1732 217 discriminator 4 view .LVU1914
	.loc 1 1732 236 is_stmt 0 discriminator 4 view .LVU1915
	movs	r2, #2
.LVL579:
	.loc 1 1732 236 discriminator 4 view .LVU1916
	strb	r2, [r3, #1]
	.loc 1 1732 266 is_stmt 1 discriminator 4 view .LVU1917
.LVL580:
	.loc 1 1732 266 is_stmt 0 discriminator 4 view .LVU1918
.LBE90:
	.loc 1 1732 295 is_stmt 1 discriminator 4 view .LVU1919
	.loc 1 1732 296 discriminator 4 view .LVU1920
	.loc 1 1733 3 discriminator 4 view .LVU1921
	movs	r2, #24
	bl	_SendPacket
.LVL581:
	.loc 1 1734 3 discriminator 4 view .LVU1922
	.syntax unified
@ 1734 "C:\nRF5_SDK_15.0.0_a53641a\examples\ble_peripheral\slam_application-master\systemView\SEGGER_SYSVIEW.c" 1
	msr   basepri, r4  
	
@ 0 "" 2
	.thumb
	.syntax unified
.LBE86:
	.loc 1 1734 71 discriminator 4 view .LVU1923
	.loc 1 1735 3 discriminator 4 view .LVU1924
	.loc 1 1735 23 is_stmt 0 discriminator 4 view .LVU1925
	ldr	r3, .L331+4
	ldr	r3, [r3, #36]
	.loc 1 1735 6 discriminator 4 view .LVU1926
	cbz	r3, .L320
	.loc 1 1736 5 is_stmt 1 view .LVU1927
	blx	r3
.LVL582:
.L320:
	.loc 1 1738 1 is_stmt 0 view .LVU1928
	pop	{r4, pc}
.LVL583:
.L332:
	.loc 1 1738 1 view .LVU1929
	.align	2
.L331:
	.word	.LANCHOR3
	.word	.LANCHOR0
.LFE27:
	.size	SEGGER_SYSVIEW_GetSysDesc, .-SEGGER_SYSVIEW_GetSysDesc
	.section	.text.SEGGER_SYSVIEW_SendTaskInfo,"ax",%progbits
	.align	1
	.global	SEGGER_SYSVIEW_SendTaskInfo
	.syntax unified
	.thumb
	.thumb_func
	.fpu fpv4-sp-d16
	.type	SEGGER_SYSVIEW_SendTaskInfo, %function
SEGGER_SYSVIEW_SendTaskInfo:
.LVL584:
.LFB28:
	.loc 1 1751 72 is_stmt 1 view -0
	@ args = 0, pretend = 0, frame = 0
	@ frame_needed = 0, uses_anonymous_args = 0
	.loc 1 1751 72 is_stmt 0 view .LVU1931
	push	{r4, r5, r6, lr}
.LCFI45:
	mov	r6, r0
	.loc 1 1752 3 is_stmt 1 view .LVU1932
	.loc 1 1753 3 view .LVU1933
.LBB91:
	.loc 1 1754 5 view .LVU1934
	.loc 1 1754 29 view .LVU1935
	.syntax unified
@ 1754 "C:\nRF5_SDK_15.0.0_a53641a\examples\ble_peripheral\slam_application-master\systemView\SEGGER_SYSVIEW.c" 1
	mrs   r5, basepri  
	mov   r1, #32       
	msr   basepri, r1  
	
@ 0 "" 2
.LVL585:
	.loc 1 1754 165 view .LVU1936
	.loc 1 1754 167 view .LVU1937
	.loc 1 1754 183 is_stmt 0 view .LVU1938
	.thumb
	.syntax unified
	ldr	r0, .L348
.LVL586:
	.loc 1 1754 183 view .LVU1939
	bl	_PreparePacket
.LVL587:
	mov	r4, r0
.LVL588:
	.loc 1 1754 208 is_stmt 1 view .LVU1940
	.loc 1 1756 3 view .LVU1941
.LBB92:
	.loc 1 1757 5 view .LVU1942
	.loc 1 1757 37 view .LVU1943
	.loc 1 1757 64 view .LVU1944
	.loc 1 1757 92 view .LVU1945
	.loc 1 1757 114 is_stmt 0 view .LVU1946
	ldr	r3, [r6]
	.loc 1 1757 142 view .LVU1947
	ldr	r2, .L348+4
	ldr	r2, [r2, #16]
	.loc 1 1757 124 view .LVU1948
	subs	r3, r3, r2
	.loc 1 1757 104 view .LVU1949
	lsrs	r3, r3, #2
.LVL589:
	.loc 1 1757 166 is_stmt 1 view .LVU1950
.L334:
	.loc 1 1757 171 discriminator 1 view .LVU1951
	cmp	r3, #127
	bls	.L345
	.loc 1 1757 194 discriminator 3 view .LVU1952
.LVL590:
	.loc 1 1757 215 is_stmt 0 discriminator 3 view .LVU1953
	orn	r2, r3, #127
	.loc 1 1757 213 discriminator 3 view .LVU1954
	strb	r2, [r0], #1
.LVL591:
	.loc 1 1757 252 is_stmt 1 discriminator 3 view .LVU1955
	.loc 1 1757 264 is_stmt 0 discriminator 3 view .LVU1956
	lsrs	r3, r3, #7
.LVL592:
	.loc 1 1757 264 discriminator 3 view .LVU1957
	b	.L334
.L345:
	.loc 1 1757 272 is_stmt 1 discriminator 4 view .LVU1958
	.loc 1 1757 274 discriminator 4 view .LVU1959
.LVL593:
	.loc 1 1757 293 is_stmt 0 discriminator 4 view .LVU1960
	strb	r3, [r0], #1
.LVL594:
	.loc 1 1757 323 is_stmt 1 discriminator 4 view .LVU1961
	.loc 1 1757 323 is_stmt 0 discriminator 4 view .LVU1962
.LBE92:
	.loc 1 1757 352 is_stmt 1 discriminator 4 view .LVU1963
	.loc 1 1757 353 discriminator 4 view .LVU1964
.LBB93:
	.loc 1 1758 5 discriminator 4 view .LVU1965
	.loc 1 1758 37 discriminator 4 view .LVU1966
	.loc 1 1758 64 discriminator 4 view .LVU1967
	.loc 1 1758 92 discriminator 4 view .LVU1968
	.loc 1 1758 104 is_stmt 0 discriminator 4 view .LVU1969
	ldr	r3, [r6, #8]
.LVL595:
	.loc 1 1758 119 is_stmt 1 discriminator 4 view .LVU1970
.L336:
	.loc 1 1758 124 discriminator 1 view .LVU1971
	cmp	r3, #127
	bls	.L346
	.loc 1 1758 147 discriminator 3 view .LVU1972
.LVL596:
	.loc 1 1758 168 is_stmt 0 discriminator 3 view .LVU1973
	orn	r2, r3, #127
	.loc 1 1758 166 discriminator 3 view .LVU1974
	strb	r2, [r0], #1
.LVL597:
	.loc 1 1758 205 is_stmt 1 discriminator 3 view .LVU1975
	.loc 1 1758 217 is_stmt 0 discriminator 3 view .LVU1976
	lsrs	r3, r3, #7
.LVL598:
	.loc 1 1758 217 discriminator 3 view .LVU1977
	b	.L336
.L346:
	.loc 1 1758 225 is_stmt 1 discriminator 4 view .LVU1978
	.loc 1 1758 227 discriminator 4 view .LVU1979
.LVL599:
	.loc 1 1758 246 is_stmt 0 discriminator 4 view .LVU1980
	strb	r3, [r0], #1
.LVL600:
	.loc 1 1758 276 is_stmt 1 discriminator 4 view .LVU1981
	.loc 1 1758 276 is_stmt 0 discriminator 4 view .LVU1982
.LBE93:
	.loc 1 1758 305 is_stmt 1 discriminator 4 view .LVU1983
	.loc 1 1758 306 discriminator 4 view .LVU1984
	.loc 1 1759 3 discriminator 4 view .LVU1985
	.loc 1 1759 14 is_stmt 0 discriminator 4 view .LVU1986
	movs	r2, #32
	ldr	r1, [r6, #4]
	bl	_EncodeStr
.LVL601:
	.loc 1 1759 14 discriminator 4 view .LVU1987
	mov	r1, r0
.LVL602:
	.loc 1 1760 3 is_stmt 1 discriminator 4 view .LVU1988
	movs	r2, #9
	mov	r0, r4
.LVL603:
	.loc 1 1760 3 is_stmt 0 discriminator 4 view .LVU1989
	bl	_SendPacket
.LVL604:
	.loc 1 1762 3 is_stmt 1 discriminator 4 view .LVU1990
.LBB94:
	.loc 1 1763 5 discriminator 4 view .LVU1991
	.loc 1 1763 37 discriminator 4 view .LVU1992
	.loc 1 1763 64 discriminator 4 view .LVU1993
	.loc 1 1763 92 discriminator 4 view .LVU1994
	.loc 1 1763 114 is_stmt 0 discriminator 4 view .LVU1995
	ldr	r2, [r6]
	.loc 1 1763 142 discriminator 4 view .LVU1996
	ldr	r3, .L348+4
	ldr	r3, [r3, #16]
	.loc 1 1763 124 discriminator 4 view .LVU1997
	subs	r2, r2, r3
	.loc 1 1763 104 discriminator 4 view .LVU1998
	lsrs	r2, r2, #2
.LVL605:
	.loc 1 1763 166 is_stmt 1 discriminator 4 view .LVU1999
	.loc 1 1763 80 is_stmt 0 discriminator 4 view .LVU2000
	mov	r3, r4
.LVL606:
.L338:
	.loc 1 1763 171 is_stmt 1 discriminator 1 view .LVU2001
	cmp	r2, #127
	bls	.L347
	.loc 1 1763 194 discriminator 3 view .LVU2002
.LVL607:
	.loc 1 1763 215 is_stmt 0 discriminator 3 view .LVU2003
	orn	r1, r2, #127
	.loc 1 1763 213 discriminator 3 view .LVU2004
	strb	r1, [r3], #1
.LVL608:
	.loc 1 1763 252 is_stmt 1 discriminator 3 view .LVU2005
	.loc 1 1763 264 is_stmt 0 discriminator 3 view .LVU2006
	lsrs	r2, r2, #7
.LVL609:
	.loc 1 1763 264 discriminator 3 view .LVU2007
	b	.L338
.L347:
	.loc 1 1763 272 is_stmt 1 discriminator 4 view .LVU2008
	.loc 1 1763 274 discriminator 4 view .LVU2009
.LVL610:
	.loc 1 1763 293 is_stmt 0 discriminator 4 view .LVU2010
	strb	r2, [r3], #1
.LVL611:
	.loc 1 1763 323 is_stmt 1 discriminator 4 view .LVU2011
	.loc 1 1763 323 is_stmt 0 discriminator 4 view .LVU2012
.LBE94:
	.loc 1 1763 352 is_stmt 1 discriminator 4 view .LVU2013
	.loc 1 1763 353 discriminator 4 view .LVU2014
.LBB95:
	.loc 1 1764 5 discriminator 4 view .LVU2015
	.loc 1 1764 37 discriminator 4 view .LVU2016
	.loc 1 1764 64 discriminator 4 view .LVU2017
	.loc 1 1764 92 discriminator 4 view .LVU2018
	.loc 1 1764 104 is_stmt 0 discriminator 4 view .LVU2019
	ldr	r2, [r6, #12]
.LVL612:
	.loc 1 1764 124 is_stmt 1 discriminator 4 view .LVU2020
	.loc 1 1764 129 is_stmt 0 discriminator 4 view .LVU2021
	b	.L340
.LVL613:
.L341:
	.loc 1 1764 152 is_stmt 1 discriminator 3 view .LVU2022
	.loc 1 1764 173 is_stmt 0 discriminator 3 view .LVU2023
	orn	r1, r2, #127
	.loc 1 1764 171 discriminator 3 view .LVU2024
	strb	r1, [r3], #1
.LVL614:
	.loc 1 1764 210 is_stmt 1 discriminator 3 view .LVU2025
	.loc 1 1764 222 is_stmt 0 discriminator 3 view .LVU2026
	lsrs	r2, r2, #7
.LVL615:
.L340:
	.loc 1 1764 129 is_stmt 1 discriminator 1 view .LVU2027
	cmp	r2, #127
	bhi	.L341
	.loc 1 1764 230 discriminator 4 view .LVU2028
	.loc 1 1764 232 discriminator 4 view .LVU2029
.LVL616:
	.loc 1 1764 251 is_stmt 0 discriminator 4 view .LVU2030
	strb	r2, [r3], #1
.LVL617:
	.loc 1 1764 281 is_stmt 1 discriminator 4 view .LVU2031
	.loc 1 1764 281 is_stmt 0 discriminator 4 view .LVU2032
.LBE95:
	.loc 1 1764 310 is_stmt 1 discriminator 4 view .LVU2033
	.loc 1 1764 311 discriminator 4 view .LVU2034
.LBB96:
	.loc 1 1765 5 discriminator 4 view .LVU2035
	.loc 1 1765 37 discriminator 4 view .LVU2036
	.loc 1 1765 64 discriminator 4 view .LVU2037
	.loc 1 1765 92 discriminator 4 view .LVU2038
	.loc 1 1765 104 is_stmt 0 discriminator 4 view .LVU2039
	ldr	r2, [r6, #16]
.LVL618:
	.loc 1 1765 124 is_stmt 1 discriminator 4 view .LVU2040
	.loc 1 1765 129 is_stmt 0 discriminator 4 view .LVU2041
	b	.L342
.LVL619:
.L343:
	.loc 1 1765 152 is_stmt 1 discriminator 3 view .LVU2042
	.loc 1 1765 173 is_stmt 0 discriminator 3 view .LVU2043
	orn	r1, r2, #127
	.loc 1 1765 171 discriminator 3 view .LVU2044
	strb	r1, [r3], #1
.LVL620:
	.loc 1 1765 210 is_stmt 1 discriminator 3 view .LVU2045
	.loc 1 1765 222 is_stmt 0 discriminator 3 view .LVU2046
	lsrs	r2, r2, #7
.LVL621:
.L342:
	.loc 1 1765 129 is_stmt 1 discriminator 1 view .LVU2047
	cmp	r2, #127
	bhi	.L343
	.loc 1 1765 230 discriminator 4 view .LVU2048
	.loc 1 1765 232 discriminator 4 view .LVU2049
.LVL622:
	.loc 1 1765 251 is_stmt 0 discriminator 4 view .LVU2050
	mov	r1, r3
	strb	r2, [r1], #2
	.loc 1 1765 281 is_stmt 1 discriminator 4 view .LVU2051
.LVL623:
	.loc 1 1765 281 is_stmt 0 discriminator 4 view .LVU2052
.LBE96:
	.loc 1 1765 310 is_stmt 1 discriminator 4 view .LVU2053
	.loc 1 1765 311 discriminator 4 view .LVU2054
.LBB97:
	.loc 1 1766 5 discriminator 4 view .LVU2055
	.loc 1 1766 37 discriminator 4 view .LVU2056
	.loc 1 1766 64 discriminator 4 view .LVU2057
	.loc 1 1766 92 discriminator 4 view .LVU2058
	.loc 1 1766 109 discriminator 4 view .LVU2059
	.loc 1 1766 114 discriminator 4 view .LVU2060
	.loc 1 1766 215 discriminator 4 view .LVU2061
	.loc 1 1766 217 discriminator 4 view .LVU2062
	.loc 1 1766 236 is_stmt 0 discriminator 4 view .LVU2063
	movs	r2, #0
.LVL624:
	.loc 1 1766 236 discriminator 4 view .LVU2064
	strb	r2, [r3, #1]
	.loc 1 1766 266 is_stmt 1 discriminator 4 view .LVU2065
.LVL625:
	.loc 1 1766 266 is_stmt 0 discriminator 4 view .LVU2066
.LBE97:
	.loc 1 1766 295 is_stmt 1 discriminator 4 view .LVU2067
	.loc 1 1766 296 discriminator 4 view .LVU2068
	.loc 1 1767 3 discriminator 4 view .LVU2069
	movs	r2, #21
	mov	r0, r4
	bl	_SendPacket
.LVL626:
	.loc 1 1768 3 discriminator 4 view .LVU2070
	.syntax unified
@ 1768 "C:\nRF5_SDK_15.0.0_a53641a\examples\ble_peripheral\slam_application-master\systemView\SEGGER_SYSVIEW.c" 1
	msr   basepri, r5  
	
@ 0 "" 2
	.thumb
	.syntax unified
.LBE91:
	.loc 1 1768 71 discriminator 4 view .LVU2071
	.loc 1 1769 1 is_stmt 0 discriminator 4 view .LVU2072
	pop	{r4, r5, r6, pc}
.LVL627:
.L349:
	.loc 1 1769 1 discriminator 4 view .LVU2073
	.align	2
.L348:
	.word	.LANCHOR3
	.word	.LANCHOR0
.LFE28:
	.size	SEGGER_SYSVIEW_SendTaskInfo, .-SEGGER_SYSVIEW_SendTaskInfo
	.section	.text.SEGGER_SYSVIEW_SendSysDesc,"ax",%progbits
	.align	1
	.global	SEGGER_SYSVIEW_SendSysDesc
	.syntax unified
	.thumb
	.thumb_func
	.fpu fpv4-sp-d16
	.type	SEGGER_SYSVIEW_SendSysDesc, %function
SEGGER_SYSVIEW_SendSysDesc:
.LVL628:
.LFB30:
	.loc 1 1803 55 is_stmt 1 view -0
	@ args = 0, pretend = 0, frame = 0
	@ frame_needed = 0, uses_anonymous_args = 0
	.loc 1 1803 55 is_stmt 0 view .LVU2075
	push	{r4, r5, r6, lr}
.LCFI46:
	mov	r5, r0
	.loc 1 1804 3 is_stmt 1 view .LVU2076
	.loc 1 1805 3 view .LVU2077
.LBB98:
	.loc 1 1806 5 view .LVU2078
	.loc 1 1806 29 view .LVU2079
	.syntax unified
@ 1806 "C:\nRF5_SDK_15.0.0_a53641a\examples\ble_peripheral\slam_application-master\systemView\SEGGER_SYSVIEW.c" 1
	mrs   r6, basepri  
	mov   r1, #32       
	msr   basepri, r1  
	
@ 0 "" 2
.LVL629:
	.loc 1 1806 165 view .LVU2080
	.loc 1 1806 167 view .LVU2081
	.loc 1 1806 183 is_stmt 0 view .LVU2082
	.thumb
	.syntax unified
	ldr	r0, .L352
.LVL630:
	.loc 1 1806 183 view .LVU2083
	bl	_PreparePacket
.LVL631:
	mov	r4, r0
.LVL632:
	.loc 1 1806 208 is_stmt 1 view .LVU2084
	.loc 1 1808 3 view .LVU2085
	.loc 1 1808 14 is_stmt 0 view .LVU2086
	movs	r2, #128
	mov	r1, r5
	bl	_EncodeStr
.LVL633:
	.loc 1 1808 14 view .LVU2087
	mov	r1, r0
.LVL634:
	.loc 1 1809 3 is_stmt 1 view .LVU2088
	movs	r2, #14
	mov	r0, r4
.LVL635:
	.loc 1 1809 3 is_stmt 0 view .LVU2089
	bl	_SendPacket
.LVL636:
	.loc 1 1810 3 is_stmt 1 view .LVU2090
	.syntax unified
@ 1810 "C:\nRF5_SDK_15.0.0_a53641a\examples\ble_peripheral\slam_application-master\systemView\SEGGER_SYSVIEW.c" 1
	msr   basepri, r6  
	
@ 0 "" 2
	.thumb
	.syntax unified
.LBE98:
	.loc 1 1810 71 view .LVU2091
	.loc 1 1811 1 is_stmt 0 view .LVU2092
	pop	{r4, r5, r6, pc}
.LVL637:
.L353:
	.loc 1 1811 1 view .LVU2093
	.align	2
.L352:
	.word	.LANCHOR3
.LFE30:
	.size	SEGGER_SYSVIEW_SendSysDesc, .-SEGGER_SYSVIEW_SendSysDesc
	.section	.text.SEGGER_SYSVIEW_RecordEnterISR,"ax",%progbits
	.align	1
	.global	SEGGER_SYSVIEW_RecordEnterISR
	.syntax unified
	.thumb
	.thumb_func
	.fpu fpv4-sp-d16
	.type	SEGGER_SYSVIEW_RecordEnterISR, %function
SEGGER_SYSVIEW_RecordEnterISR:
.LFB32:
	.loc 1 1845 42 is_stmt 1 view -0
	@ args = 0, pretend = 0, frame = 0
	@ frame_needed = 0, uses_anonymous_args = 0
	push	{r4, lr}
.LCFI47:
	.loc 1 1846 3 view .LVU2095
	.loc 1 1847 3 view .LVU2096
	.loc 1 1848 3 view .LVU2097
.LBB99:
	.loc 1 1849 5 view .LVU2098
	.loc 1 1849 29 view .LVU2099
	.syntax unified
@ 1849 "C:\nRF5_SDK_15.0.0_a53641a\examples\ble_peripheral\slam_application-master\systemView\SEGGER_SYSVIEW.c" 1
	mrs   r4, basepri  
	mov   r1, #32       
	msr   basepri, r1  
	
@ 0 "" 2
.LVL638:
	.loc 1 1849 165 view .LVU2100
	.loc 1 1849 167 view .LVU2101
	.loc 1 1849 183 is_stmt 0 view .LVU2102
	.thumb
	.syntax unified
	ldr	r0, .L359
	bl	_PreparePacket
.LVL639:
	.loc 1 1849 208 is_stmt 1 view .LVU2103
	.loc 1 1851 3 view .LVU2104
	.loc 1 1852 3 view .LVU2105
	.loc 1 1852 41 is_stmt 0 view .LVU2106
	ldr	r3, .L359+4
	ldr	r3, [r3]
	.loc 1 1852 5 view .LVU2107
	ubfx	r3, r3, #0, #9
.LVL640:
.LBB100:
	.loc 1 1853 5 is_stmt 1 view .LVU2108
	.loc 1 1853 37 view .LVU2109
	.loc 1 1853 64 view .LVU2110
	.loc 1 1853 92 view .LVU2111
	.loc 1 1853 109 view .LVU2112
	.loc 1 1853 80 is_stmt 0 view .LVU2113
	mov	r1, r0
.LVL641:
.L355:
	.loc 1 1853 114 is_stmt 1 discriminator 1 view .LVU2114
	cmp	r3, #127
	bls	.L358
	.loc 1 1853 137 discriminator 3 view .LVU2115
.LVL642:
	.loc 1 1853 158 is_stmt 0 discriminator 3 view .LVU2116
	orn	r2, r3, #127
	.loc 1 1853 156 discriminator 3 view .LVU2117
	strb	r2, [r1], #1
.LVL643:
	.loc 1 1853 195 is_stmt 1 discriminator 3 view .LVU2118
	.loc 1 1853 207 is_stmt 0 discriminator 3 view .LVU2119
	lsrs	r3, r3, #7
.LVL644:
	.loc 1 1853 207 discriminator 3 view .LVU2120
	b	.L355
.L358:
	.loc 1 1853 215 is_stmt 1 discriminator 4 view .LVU2121
	.loc 1 1853 217 discriminator 4 view .LVU2122
.LVL645:
	.loc 1 1853 236 is_stmt 0 discriminator 4 view .LVU2123
	strb	r3, [r1], #1
.LVL646:
	.loc 1 1853 266 is_stmt 1 discriminator 4 view .LVU2124
	.loc 1 1853 266 is_stmt 0 discriminator 4 view .LVU2125
.LBE100:
	.loc 1 1853 295 is_stmt 1 discriminator 4 view .LVU2126
	.loc 1 1853 296 discriminator 4 view .LVU2127
	.loc 1 1854 3 discriminator 4 view .LVU2128
	movs	r2, #2
	bl	_SendPacket
.LVL647:
	.loc 1 1855 3 discriminator 4 view .LVU2129
	.syntax unified
@ 1855 "C:\nRF5_SDK_15.0.0_a53641a\examples\ble_peripheral\slam_application-master\systemView\SEGGER_SYSVIEW.c" 1
	msr   basepri, r4  
	
@ 0 "" 2
	.thumb
	.syntax unified
.LBE99:
	.loc 1 1855 71 discriminator 4 view .LVU2130
	.loc 1 1856 1 is_stmt 0 discriminator 4 view .LVU2131
	pop	{r4, pc}
.LVL648:
.L360:
	.loc 1 1856 1 discriminator 4 view .LVU2132
	.align	2
.L359:
	.word	.LANCHOR3
	.word	-536810236
.LFE32:
	.size	SEGGER_SYSVIEW_RecordEnterISR, .-SEGGER_SYSVIEW_RecordEnterISR
	.section	.text.SEGGER_SYSVIEW_RecordExitISR,"ax",%progbits
	.align	1
	.global	SEGGER_SYSVIEW_RecordExitISR
	.syntax unified
	.thumb
	.thumb_func
	.fpu fpv4-sp-d16
	.type	SEGGER_SYSVIEW_RecordExitISR, %function
SEGGER_SYSVIEW_RecordExitISR:
.LFB33:
	.loc 1 1872 41 is_stmt 1 view -0
	@ args = 0, pretend = 0, frame = 0
	@ frame_needed = 0, uses_anonymous_args = 0
	push	{r4, lr}
.LCFI48:
	.loc 1 1873 3 view .LVU2134
.LBB101:
	.loc 1 1874 5 view .LVU2135
	.loc 1 1874 29 view .LVU2136
	.syntax unified
@ 1874 "C:\nRF5_SDK_15.0.0_a53641a\examples\ble_peripheral\slam_application-master\systemView\SEGGER_SYSVIEW.c" 1
	mrs   r4, basepri  
	mov   r1, #32       
	msr   basepri, r1  
	
@ 0 "" 2
.LVL649:
	.loc 1 1874 165 view .LVU2137
	.loc 1 1874 167 view .LVU2138
	.loc 1 1874 183 is_stmt 0 view .LVU2139
	.thumb
	.syntax unified
	ldr	r0, .L363
	bl	_PreparePacket
.LVL650:
	mov	r1, r0
.LVL651:
	.loc 1 1874 208 is_stmt 1 view .LVU2140
	.loc 1 1876 3 view .LVU2141
	movs	r2, #3
	bl	_SendPacket
.LVL652:
	.loc 1 1877 3 view .LVU2142
	.syntax unified
@ 1877 "C:\nRF5_SDK_15.0.0_a53641a\examples\ble_peripheral\slam_application-master\systemView\SEGGER_SYSVIEW.c" 1
	msr   basepri, r4  
	
@ 0 "" 2
	.thumb
	.syntax unified
.LBE101:
	.loc 1 1877 71 view .LVU2143
	.loc 1 1878 1 is_stmt 0 view .LVU2144
	pop	{r4, pc}
.LVL653:
.L364:
	.loc 1 1878 1 view .LVU2145
	.align	2
.L363:
	.word	.LANCHOR3
.LFE33:
	.size	SEGGER_SYSVIEW_RecordExitISR, .-SEGGER_SYSVIEW_RecordExitISR
	.section	.text.SEGGER_SYSVIEW_RecordExitISRToScheduler,"ax",%progbits
	.align	1
	.global	SEGGER_SYSVIEW_RecordExitISRToScheduler
	.syntax unified
	.thumb
	.thumb_func
	.fpu fpv4-sp-d16
	.type	SEGGER_SYSVIEW_RecordExitISRToScheduler, %function
SEGGER_SYSVIEW_RecordExitISRToScheduler:
.LFB34:
	.loc 1 1894 52 is_stmt 1 view -0
	@ args = 0, pretend = 0, frame = 0
	@ frame_needed = 0, uses_anonymous_args = 0
	push	{r4, lr}
.LCFI49:
	.loc 1 1895 3 view .LVU2147
.LBB102:
	.loc 1 1896 5 view .LVU2148
	.loc 1 1896 29 view .LVU2149
	.syntax unified
@ 1896 "C:\nRF5_SDK_15.0.0_a53641a\examples\ble_peripheral\slam_application-master\systemView\SEGGER_SYSVIEW.c" 1
	mrs   r4, basepri  
	mov   r1, #32       
	msr   basepri, r1  
	
@ 0 "" 2
.LVL654:
	.loc 1 1896 165 view .LVU2150
	.loc 1 1896 167 view .LVU2151
	.loc 1 1896 183 is_stmt 0 view .LVU2152
	.thumb
	.syntax unified
	ldr	r0, .L367
	bl	_PreparePacket
.LVL655:
	mov	r1, r0
.LVL656:
	.loc 1 1896 208 is_stmt 1 view .LVU2153
	.loc 1 1898 3 view .LVU2154
	movs	r2, #18
	bl	_SendPacket
.LVL657:
	.loc 1 1899 3 view .LVU2155
	.syntax unified
@ 1899 "C:\nRF5_SDK_15.0.0_a53641a\examples\ble_peripheral\slam_application-master\systemView\SEGGER_SYSVIEW.c" 1
	msr   basepri, r4  
	
@ 0 "" 2
	.thumb
	.syntax unified
.LBE102:
	.loc 1 1899 71 view .LVU2156
	.loc 1 1900 1 is_stmt 0 view .LVU2157
	pop	{r4, pc}
.LVL658:
.L368:
	.loc 1 1900 1 view .LVU2158
	.align	2
.L367:
	.word	.LANCHOR3
.LFE34:
	.size	SEGGER_SYSVIEW_RecordExitISRToScheduler, .-SEGGER_SYSVIEW_RecordExitISRToScheduler
	.section	.text.SEGGER_SYSVIEW_RecordEnterTimer,"ax",%progbits
	.align	1
	.global	SEGGER_SYSVIEW_RecordEnterTimer
	.syntax unified
	.thumb
	.thumb_func
	.fpu fpv4-sp-d16
	.type	SEGGER_SYSVIEW_RecordEnterTimer, %function
SEGGER_SYSVIEW_RecordEnterTimer:
.LVL659:
.LFB35:
	.loc 1 1912 61 is_stmt 1 view -0
	@ args = 0, pretend = 0, frame = 0
	@ frame_needed = 0, uses_anonymous_args = 0
	.loc 1 1912 61 is_stmt 0 view .LVU2160
	push	{r3, r4, r5, lr}
.LCFI50:
	mov	r4, r0
	.loc 1 1913 3 is_stmt 1 view .LVU2161
	.loc 1 1914 3 view .LVU2162
.LBB103:
	.loc 1 1915 5 view .LVU2163
	.loc 1 1915 29 view .LVU2164
	.syntax unified
@ 1915 "C:\nRF5_SDK_15.0.0_a53641a\examples\ble_peripheral\slam_application-master\systemView\SEGGER_SYSVIEW.c" 1
	mrs   r5, basepri  
	mov   r1, #32       
	msr   basepri, r1  
	
@ 0 "" 2
.LVL660:
	.loc 1 1915 165 view .LVU2165
	.loc 1 1915 167 view .LVU2166
	.loc 1 1915 183 is_stmt 0 view .LVU2167
	.thumb
	.syntax unified
	ldr	r0, .L374
.LVL661:
	.loc 1 1915 183 view .LVU2168
	bl	_PreparePacket
.LVL662:
	.loc 1 1915 208 is_stmt 1 view .LVU2169
	.loc 1 1917 3 view .LVU2170
.LBB104:
	.loc 1 1918 5 view .LVU2171
	.loc 1 1918 37 view .LVU2172
	.loc 1 1918 64 view .LVU2173
	.loc 1 1918 92 view .LVU2174
	.loc 1 1918 136 is_stmt 0 view .LVU2175
	ldr	r3, .L374+4
	ldr	r3, [r3, #16]
	.loc 1 1918 118 view .LVU2176
	subs	r3, r4, r3
	.loc 1 1918 104 view .LVU2177
	lsrs	r3, r3, #2
.LVL663:
	.loc 1 1918 160 is_stmt 1 view .LVU2178
	.loc 1 1918 80 is_stmt 0 view .LVU2179
	mov	r1, r0
.LVL664:
.L370:
	.loc 1 1918 165 is_stmt 1 discriminator 1 view .LVU2180
	cmp	r3, #127
	bls	.L373
	.loc 1 1918 188 discriminator 3 view .LVU2181
.LVL665:
	.loc 1 1918 209 is_stmt 0 discriminator 3 view .LVU2182
	orn	r2, r3, #127
	.loc 1 1918 207 discriminator 3 view .LVU2183
	strb	r2, [r1], #1
.LVL666:
	.loc 1 1918 246 is_stmt 1 discriminator 3 view .LVU2184
	.loc 1 1918 258 is_stmt 0 discriminator 3 view .LVU2185
	lsrs	r3, r3, #7
.LVL667:
	.loc 1 1918 258 discriminator 3 view .LVU2186
	b	.L370
.L373:
	.loc 1 1918 266 is_stmt 1 discriminator 4 view .LVU2187
	.loc 1 1918 268 discriminator 4 view .LVU2188
.LVL668:
	.loc 1 1918 287 is_stmt 0 discriminator 4 view .LVU2189
	strb	r3, [r1], #1
.LVL669:
	.loc 1 1918 317 is_stmt 1 discriminator 4 view .LVU2190
	.loc 1 1918 317 is_stmt 0 discriminator 4 view .LVU2191
.LBE104:
	.loc 1 1918 346 is_stmt 1 discriminator 4 view .LVU2192
	.loc 1 1918 347 discriminator 4 view .LVU2193
	.loc 1 1919 3 discriminator 4 view .LVU2194
	movs	r2, #19
	bl	_SendPacket
.LVL670:
	.loc 1 1920 3 discriminator 4 view .LVU2195
	.syntax unified
@ 1920 "C:\nRF5_SDK_15.0.0_a53641a\examples\ble_peripheral\slam_application-master\systemView\SEGGER_SYSVIEW.c" 1
	msr   basepri, r5  
	
@ 0 "" 2
	.thumb
	.syntax unified
.LBE103:
	.loc 1 1920 71 discriminator 4 view .LVU2196
	.loc 1 1921 1 is_stmt 0 discriminator 4 view .LVU2197
	pop	{r3, r4, r5, pc}
.LVL671:
.L375:
	.loc 1 1921 1 discriminator 4 view .LVU2198
	.align	2
.L374:
	.word	.LANCHOR3
	.word	.LANCHOR0
.LFE35:
	.size	SEGGER_SYSVIEW_RecordEnterTimer, .-SEGGER_SYSVIEW_RecordEnterTimer
	.section	.text.SEGGER_SYSVIEW_RecordExitTimer,"ax",%progbits
	.align	1
	.global	SEGGER_SYSVIEW_RecordExitTimer
	.syntax unified
	.thumb
	.thumb_func
	.fpu fpv4-sp-d16
	.type	SEGGER_SYSVIEW_RecordExitTimer, %function
SEGGER_SYSVIEW_RecordExitTimer:
.LFB36:
	.loc 1 1930 43 is_stmt 1 view -0
	@ args = 0, pretend = 0, frame = 0
	@ frame_needed = 0, uses_anonymous_args = 0
	push	{r4, lr}
.LCFI51:
	.loc 1 1931 3 view .LVU2200
.LBB105:
	.loc 1 1932 5 view .LVU2201
	.loc 1 1932 29 view .LVU2202
	.syntax unified
@ 1932 "C:\nRF5_SDK_15.0.0_a53641a\examples\ble_peripheral\slam_application-master\systemView\SEGGER_SYSVIEW.c" 1
	mrs   r4, basepri  
	mov   r1, #32       
	msr   basepri, r1  
	
@ 0 "" 2
.LVL672:
	.loc 1 1932 165 view .LVU2203
	.loc 1 1932 167 view .LVU2204
	.loc 1 1932 183 is_stmt 0 view .LVU2205
	.thumb
	.syntax unified
	ldr	r0, .L378
	bl	_PreparePacket
.LVL673:
	mov	r1, r0
.LVL674:
	.loc 1 1932 208 is_stmt 1 view .LVU2206
	.loc 1 1934 3 view .LVU2207
	movs	r2, #20
	bl	_SendPacket
.LVL675:
	.loc 1 1935 3 view .LVU2208
	.syntax unified
@ 1935 "C:\nRF5_SDK_15.0.0_a53641a\examples\ble_peripheral\slam_application-master\systemView\SEGGER_SYSVIEW.c" 1
	msr   basepri, r4  
	
@ 0 "" 2
	.thumb
	.syntax unified
.LBE105:
	.loc 1 1935 71 view .LVU2209
	.loc 1 1936 1 is_stmt 0 view .LVU2210
	pop	{r4, pc}
.LVL676:
.L379:
	.loc 1 1936 1 view .LVU2211
	.align	2
.L378:
	.word	.LANCHOR3
.LFE36:
	.size	SEGGER_SYSVIEW_RecordExitTimer, .-SEGGER_SYSVIEW_RecordExitTimer
	.section	.text.SEGGER_SYSVIEW_RecordEndCall,"ax",%progbits
	.align	1
	.global	SEGGER_SYSVIEW_RecordEndCall
	.syntax unified
	.thumb
	.thumb_func
	.fpu fpv4-sp-d16
	.type	SEGGER_SYSVIEW_RecordEndCall, %function
SEGGER_SYSVIEW_RecordEndCall:
.LVL677:
.LFB37:
	.loc 1 1948 57 is_stmt 1 view -0
	@ args = 0, pretend = 0, frame = 0
	@ frame_needed = 0, uses_anonymous_args = 0
	.loc 1 1948 57 is_stmt 0 view .LVU2213
	push	{r3, r4, r5, lr}
.LCFI52:
	mov	r4, r0
	.loc 1 1949 3 is_stmt 1 view .LVU2214
	.loc 1 1950 3 view .LVU2215
.LBB106:
	.loc 1 1951 5 view .LVU2216
	.loc 1 1951 29 view .LVU2217
	.syntax unified
@ 1951 "C:\nRF5_SDK_15.0.0_a53641a\examples\ble_peripheral\slam_application-master\systemView\SEGGER_SYSVIEW.c" 1
	mrs   r5, basepri  
	mov   r1, #32       
	msr   basepri, r1  
	
@ 0 "" 2
.LVL678:
	.loc 1 1951 165 view .LVU2218
	.loc 1 1951 167 view .LVU2219
	.loc 1 1951 183 is_stmt 0 view .LVU2220
	.thumb
	.syntax unified
	ldr	r0, .L385
.LVL679:
	.loc 1 1951 183 view .LVU2221
	bl	_PreparePacket
.LVL680:
	.loc 1 1951 208 is_stmt 1 view .LVU2222
	.loc 1 1953 3 view .LVU2223
.LBB107:
	.loc 1 1954 5 view .LVU2224
	.loc 1 1954 37 view .LVU2225
	.loc 1 1954 64 view .LVU2226
	.loc 1 1954 92 view .LVU2227
	.loc 1 1954 115 view .LVU2228
	.loc 1 1954 80 is_stmt 0 view .LVU2229
	mov	r1, r0
.LVL681:
.L381:
	.loc 1 1954 120 is_stmt 1 discriminator 1 view .LVU2230
	cmp	r4, #127
	bls	.L384
	.loc 1 1954 143 discriminator 3 view .LVU2231
.LVL682:
	.loc 1 1954 164 is_stmt 0 discriminator 3 view .LVU2232
	orn	r3, r4, #127
	.loc 1 1954 162 discriminator 3 view .LVU2233
	strb	r3, [r1], #1
.LVL683:
	.loc 1 1954 201 is_stmt 1 discriminator 3 view .LVU2234
	.loc 1 1954 213 is_stmt 0 discriminator 3 view .LVU2235
	lsrs	r4, r4, #7
.LVL684:
	.loc 1 1954 213 discriminator 3 view .LVU2236
	b	.L381
.L384:
	.loc 1 1954 221 is_stmt 1 discriminator 4 view .LVU2237
	.loc 1 1954 223 discriminator 4 view .LVU2238
.LVL685:
	.loc 1 1954 242 is_stmt 0 discriminator 4 view .LVU2239
	strb	r4, [r1], #1
.LVL686:
	.loc 1 1954 272 is_stmt 1 discriminator 4 view .LVU2240
	.loc 1 1954 272 is_stmt 0 discriminator 4 view .LVU2241
.LBE107:
	.loc 1 1954 301 is_stmt 1 discriminator 4 view .LVU2242
	.loc 1 1954 302 discriminator 4 view .LVU2243
	.loc 1 1955 3 discriminator 4 view .LVU2244
	movs	r2, #28
	bl	_SendPacket
.LVL687:
	.loc 1 1956 3 discriminator 4 view .LVU2245
	.syntax unified
@ 1956 "C:\nRF5_SDK_15.0.0_a53641a\examples\ble_peripheral\slam_application-master\systemView\SEGGER_SYSVIEW.c" 1
	msr   basepri, r5  
	
@ 0 "" 2
	.thumb
	.syntax unified
.LBE106:
	.loc 1 1956 71 discriminator 4 view .LVU2246
	.loc 1 1957 1 is_stmt 0 discriminator 4 view .LVU2247
	pop	{r3, r4, r5, pc}
.LVL688:
.L386:
	.loc 1 1957 1 discriminator 4 view .LVU2248
	.align	2
.L385:
	.word	.LANCHOR3
.LFE37:
	.size	SEGGER_SYSVIEW_RecordEndCall, .-SEGGER_SYSVIEW_RecordEndCall
	.section	.text.SEGGER_SYSVIEW_RecordEndCallU32,"ax",%progbits
	.align	1
	.global	SEGGER_SYSVIEW_RecordEndCallU32
	.syntax unified
	.thumb
	.thumb_func
	.fpu fpv4-sp-d16
	.type	SEGGER_SYSVIEW_RecordEndCallU32, %function
SEGGER_SYSVIEW_RecordEndCallU32:
.LVL689:
.LFB38:
	.loc 1 1970 81 is_stmt 1 view -0
	@ args = 0, pretend = 0, frame = 0
	@ frame_needed = 0, uses_anonymous_args = 0
	.loc 1 1970 81 is_stmt 0 view .LVU2250
	push	{r4, r5, r6, lr}
.LCFI53:
	mov	r5, r0
	mov	r4, r1
	.loc 1 1971 3 is_stmt 1 view .LVU2251
	.loc 1 1972 3 view .LVU2252
.LBB108:
	.loc 1 1973 5 view .LVU2253
	.loc 1 1973 29 view .LVU2254
	.syntax unified
@ 1973 "C:\nRF5_SDK_15.0.0_a53641a\examples\ble_peripheral\slam_application-master\systemView\SEGGER_SYSVIEW.c" 1
	mrs   r6, basepri  
	mov   r1, #32       
	msr   basepri, r1  
	
@ 0 "" 2
.LVL690:
	.loc 1 1973 165 view .LVU2255
	.loc 1 1973 167 view .LVU2256
	.loc 1 1973 183 is_stmt 0 view .LVU2257
	.thumb
	.syntax unified
	ldr	r0, .L394
.LVL691:
	.loc 1 1973 183 view .LVU2258
	bl	_PreparePacket
.LVL692:
	.loc 1 1973 208 is_stmt 1 view .LVU2259
	.loc 1 1975 3 view .LVU2260
.LBB109:
	.loc 1 1976 5 view .LVU2261
	.loc 1 1976 37 view .LVU2262
	.loc 1 1976 64 view .LVU2263
	.loc 1 1976 92 view .LVU2264
	.loc 1 1976 115 view .LVU2265
	.loc 1 1976 80 is_stmt 0 view .LVU2266
	mov	r1, r0
.LVL693:
.L388:
	.loc 1 1976 120 is_stmt 1 discriminator 1 view .LVU2267
	cmp	r5, #127
	bls	.L393
	.loc 1 1976 143 discriminator 3 view .LVU2268
.LVL694:
	.loc 1 1976 164 is_stmt 0 discriminator 3 view .LVU2269
	orn	r3, r5, #127
	.loc 1 1976 162 discriminator 3 view .LVU2270
	strb	r3, [r1], #1
.LVL695:
	.loc 1 1976 201 is_stmt 1 discriminator 3 view .LVU2271
	.loc 1 1976 213 is_stmt 0 discriminator 3 view .LVU2272
	lsrs	r5, r5, #7
.LVL696:
	.loc 1 1976 213 discriminator 3 view .LVU2273
	b	.L388
.L393:
	.loc 1 1976 221 is_stmt 1 discriminator 4 view .LVU2274
	.loc 1 1976 223 discriminator 4 view .LVU2275
.LVL697:
	.loc 1 1976 242 is_stmt 0 discriminator 4 view .LVU2276
	strb	r5, [r1], #1
.LVL698:
	.loc 1 1976 272 is_stmt 1 discriminator 4 view .LVU2277
	.loc 1 1976 272 is_stmt 0 discriminator 4 view .LVU2278
.LBE109:
	.loc 1 1976 301 is_stmt 1 discriminator 4 view .LVU2279
	.loc 1 1976 302 discriminator 4 view .LVU2280
.LBB110:
	.loc 1 1977 5 discriminator 4 view .LVU2281
	.loc 1 1977 37 discriminator 4 view .LVU2282
	.loc 1 1977 64 discriminator 4 view .LVU2283
	.loc 1 1977 92 discriminator 4 view .LVU2284
	.loc 1 1977 113 discriminator 4 view .LVU2285
	.loc 1 1977 118 is_stmt 0 discriminator 4 view .LVU2286
	b	.L390
.LVL699:
.L391:
	.loc 1 1977 141 is_stmt 1 discriminator 3 view .LVU2287
	.loc 1 1977 162 is_stmt 0 discriminator 3 view .LVU2288
	orn	r3, r4, #127
	.loc 1 1977 160 discriminator 3 view .LVU2289
	strb	r3, [r1], #1
.LVL700:
	.loc 1 1977 199 is_stmt 1 discriminator 3 view .LVU2290
	.loc 1 1977 211 is_stmt 0 discriminator 3 view .LVU2291
	lsrs	r4, r4, #7
.LVL701:
.L390:
	.loc 1 1977 118 is_stmt 1 discriminator 1 view .LVU2292
	cmp	r4, #127
	bhi	.L391
	.loc 1 1977 219 discriminator 4 view .LVU2293
	.loc 1 1977 221 discriminator 4 view .LVU2294
.LVL702:
	.loc 1 1977 240 is_stmt 0 discriminator 4 view .LVU2295
	strb	r4, [r1], #1
.LVL703:
	.loc 1 1977 270 is_stmt 1 discriminator 4 view .LVU2296
	.loc 1 1977 270 is_stmt 0 discriminator 4 view .LVU2297
.LBE110:
	.loc 1 1977 299 is_stmt 1 discriminator 4 view .LVU2298
	.loc 1 1977 300 discriminator 4 view .LVU2299
	.loc 1 1978 3 discriminator 4 view .LVU2300
	movs	r2, #28
	bl	_SendPacket
.LVL704:
	.loc 1 1979 3 discriminator 4 view .LVU2301
	.syntax unified
@ 1979 "C:\nRF5_SDK_15.0.0_a53641a\examples\ble_peripheral\slam_application-master\systemView\SEGGER_SYSVIEW.c" 1
	msr   basepri, r6  
	
@ 0 "" 2
	.thumb
	.syntax unified
.LBE108:
	.loc 1 1979 71 discriminator 4 view .LVU2302
	.loc 1 1980 1 is_stmt 0 discriminator 4 view .LVU2303
	pop	{r4, r5, r6, pc}
.LVL705:
.L395:
	.loc 1 1980 1 discriminator 4 view .LVU2304
	.align	2
.L394:
	.word	.LANCHOR3
.LFE38:
	.size	SEGGER_SYSVIEW_RecordEndCallU32, .-SEGGER_SYSVIEW_RecordEndCallU32
	.section	.text.SEGGER_SYSVIEW_OnIdle,"ax",%progbits
	.align	1
	.global	SEGGER_SYSVIEW_OnIdle
	.syntax unified
	.thumb
	.thumb_func
	.fpu fpv4-sp-d16
	.type	SEGGER_SYSVIEW_OnIdle, %function
SEGGER_SYSVIEW_OnIdle:
.LFB39:
	.loc 1 1989 34 is_stmt 1 view -0
	@ args = 0, pretend = 0, frame = 0
	@ frame_needed = 0, uses_anonymous_args = 0
	push	{r4, lr}
.LCFI54:
	.loc 1 1990 3 view .LVU2306
.LBB111:
	.loc 1 1991 5 view .LVU2307
	.loc 1 1991 29 view .LVU2308
	.syntax unified
@ 1991 "C:\nRF5_SDK_15.0.0_a53641a\examples\ble_peripheral\slam_application-master\systemView\SEGGER_SYSVIEW.c" 1
	mrs   r4, basepri  
	mov   r1, #32       
	msr   basepri, r1  
	
@ 0 "" 2
.LVL706:
	.loc 1 1991 165 view .LVU2309
	.loc 1 1991 167 view .LVU2310
	.loc 1 1991 183 is_stmt 0 view .LVU2311
	.thumb
	.syntax unified
	ldr	r0, .L398
	bl	_PreparePacket
.LVL707:
	mov	r1, r0
.LVL708:
	.loc 1 1991 208 is_stmt 1 view .LVU2312
	.loc 1 1993 3 view .LVU2313
	movs	r2, #17
	bl	_SendPacket
.LVL709:
	.loc 1 1994 3 view .LVU2314
	.syntax unified
@ 1994 "C:\nRF5_SDK_15.0.0_a53641a\examples\ble_peripheral\slam_application-master\systemView\SEGGER_SYSVIEW.c" 1
	msr   basepri, r4  
	
@ 0 "" 2
	.thumb
	.syntax unified
.LBE111:
	.loc 1 1994 71 view .LVU2315
	.loc 1 1995 1 is_stmt 0 view .LVU2316
	pop	{r4, pc}
.LVL710:
.L399:
	.loc 1 1995 1 view .LVU2317
	.align	2
.L398:
	.word	.LANCHOR3
.LFE39:
	.size	SEGGER_SYSVIEW_OnIdle, .-SEGGER_SYSVIEW_OnIdle
	.section	.text.SEGGER_SYSVIEW_OnTaskCreate,"ax",%progbits
	.align	1
	.global	SEGGER_SYSVIEW_OnTaskCreate
	.syntax unified
	.thumb
	.thumb_func
	.fpu fpv4-sp-d16
	.type	SEGGER_SYSVIEW_OnTaskCreate, %function
SEGGER_SYSVIEW_OnTaskCreate:
.LVL711:
.LFB40:
	.loc 1 2008 56 is_stmt 1 view -0
	@ args = 0, pretend = 0, frame = 0
	@ frame_needed = 0, uses_anonymous_args = 0
	.loc 1 2008 56 is_stmt 0 view .LVU2319
	push	{r3, r4, r5, lr}
.LCFI55:
	mov	r4, r0
	.loc 1 2009 3 is_stmt 1 view .LVU2320
	.loc 1 2010 3 view .LVU2321
.LBB112:
	.loc 1 2011 5 view .LVU2322
	.loc 1 2011 29 view .LVU2323
	.syntax unified
@ 2011 "C:\nRF5_SDK_15.0.0_a53641a\examples\ble_peripheral\slam_application-master\systemView\SEGGER_SYSVIEW.c" 1
	mrs   r5, basepri  
	mov   r1, #32       
	msr   basepri, r1  
	
@ 0 "" 2
.LVL712:
	.loc 1 2011 165 view .LVU2324
	.loc 1 2011 167 view .LVU2325
	.loc 1 2011 183 is_stmt 0 view .LVU2326
	.thumb
	.syntax unified
	ldr	r0, .L405
.LVL713:
	.loc 1 2011 183 view .LVU2327
	bl	_PreparePacket
.LVL714:
	.loc 1 2011 208 is_stmt 1 view .LVU2328
	.loc 1 2013 3 view .LVU2329
	.loc 1 2014 3 view .LVU2330
	.loc 1 2014 41 is_stmt 0 view .LVU2331
	ldr	r3, .L405+4
	ldr	r3, [r3, #16]
	.loc 1 2014 23 view .LVU2332
	subs	r3, r4, r3
	.loc 1 2014 10 view .LVU2333
	lsrs	r3, r3, #2
.LVL715:
.LBB113:
	.loc 1 2015 5 is_stmt 1 view .LVU2334
	.loc 1 2015 37 view .LVU2335
	.loc 1 2015 64 view .LVU2336
	.loc 1 2015 92 view .LVU2337
	.loc 1 2015 114 view .LVU2338
	.loc 1 2015 80 is_stmt 0 view .LVU2339
	mov	r1, r0
.LVL716:
.L401:
	.loc 1 2015 119 is_stmt 1 discriminator 1 view .LVU2340
	cmp	r3, #127
	bls	.L404
	.loc 1 2015 142 discriminator 3 view .LVU2341
.LVL717:
	.loc 1 2015 163 is_stmt 0 discriminator 3 view .LVU2342
	orn	r2, r3, #127
	.loc 1 2015 161 discriminator 3 view .LVU2343
	strb	r2, [r1], #1
.LVL718:
	.loc 1 2015 200 is_stmt 1 discriminator 3 view .LVU2344
	.loc 1 2015 212 is_stmt 0 discriminator 3 view .LVU2345
	lsrs	r3, r3, #7
.LVL719:
	.loc 1 2015 212 discriminator 3 view .LVU2346
	b	.L401
.L404:
	.loc 1 2015 220 is_stmt 1 discriminator 4 view .LVU2347
	.loc 1 2015 222 discriminator 4 view .LVU2348
.LVL720:
	.loc 1 2015 241 is_stmt 0 discriminator 4 view .LVU2349
	strb	r3, [r1], #1
.LVL721:
	.loc 1 2015 271 is_stmt 1 discriminator 4 view .LVU2350
	.loc 1 2015 271 is_stmt 0 discriminator 4 view .LVU2351
.LBE113:
	.loc 1 2015 300 is_stmt 1 discriminator 4 view .LVU2352
	.loc 1 2015 301 discriminator 4 view .LVU2353
	.loc 1 2016 3 discriminator 4 view .LVU2354
	movs	r2, #8
	bl	_SendPacket
.LVL722:
	.loc 1 2017 3 discriminator 4 view .LVU2355
	.syntax unified
@ 2017 "C:\nRF5_SDK_15.0.0_a53641a\examples\ble_peripheral\slam_application-master\systemView\SEGGER_SYSVIEW.c" 1
	msr   basepri, r5  
	
@ 0 "" 2
	.thumb
	.syntax unified
.LBE112:
	.loc 1 2017 71 discriminator 4 view .LVU2356
	.loc 1 2018 1 is_stmt 0 discriminator 4 view .LVU2357
	pop	{r3, r4, r5, pc}
.LVL723:
.L406:
	.loc 1 2018 1 discriminator 4 view .LVU2358
	.align	2
.L405:
	.word	.LANCHOR3
	.word	.LANCHOR0
.LFE40:
	.size	SEGGER_SYSVIEW_OnTaskCreate, .-SEGGER_SYSVIEW_OnTaskCreate
	.section	.text.SEGGER_SYSVIEW_OnTaskTerminate,"ax",%progbits
	.align	1
	.global	SEGGER_SYSVIEW_OnTaskTerminate
	.syntax unified
	.thumb
	.thumb_func
	.fpu fpv4-sp-d16
	.type	SEGGER_SYSVIEW_OnTaskTerminate, %function
SEGGER_SYSVIEW_OnTaskTerminate:
.LVL724:
.LFB41:
	.loc 1 2033 59 is_stmt 1 view -0
	@ args = 0, pretend = 0, frame = 0
	@ frame_needed = 0, uses_anonymous_args = 0
	.loc 1 2033 59 is_stmt 0 view .LVU2360
	push	{r3, r4, r5, lr}
.LCFI56:
	mov	r4, r0
	.loc 1 2034 3 is_stmt 1 view .LVU2361
	.loc 1 2035 3 view .LVU2362
.LBB114:
	.loc 1 2036 5 view .LVU2363
	.loc 1 2036 29 view .LVU2364
	.syntax unified
@ 2036 "C:\nRF5_SDK_15.0.0_a53641a\examples\ble_peripheral\slam_application-master\systemView\SEGGER_SYSVIEW.c" 1
	mrs   r5, basepri  
	mov   r1, #32       
	msr   basepri, r1  
	
@ 0 "" 2
.LVL725:
	.loc 1 2036 165 view .LVU2365
	.loc 1 2036 167 view .LVU2366
	.loc 1 2036 183 is_stmt 0 view .LVU2367
	.thumb
	.syntax unified
	ldr	r0, .L412
.LVL726:
	.loc 1 2036 183 view .LVU2368
	bl	_PreparePacket
.LVL727:
	.loc 1 2036 208 is_stmt 1 view .LVU2369
	.loc 1 2038 3 view .LVU2370
	.loc 1 2039 3 view .LVU2371
	.loc 1 2039 41 is_stmt 0 view .LVU2372
	ldr	r3, .L412+4
	ldr	r3, [r3, #16]
	.loc 1 2039 23 view .LVU2373
	subs	r3, r4, r3
	.loc 1 2039 10 view .LVU2374
	lsrs	r3, r3, #2
.LVL728:
.LBB115:
	.loc 1 2040 5 is_stmt 1 view .LVU2375
	.loc 1 2040 37 view .LVU2376
	.loc 1 2040 64 view .LVU2377
	.loc 1 2040 92 view .LVU2378
	.loc 1 2040 114 view .LVU2379
	.loc 1 2040 80 is_stmt 0 view .LVU2380
	mov	r1, r0
.LVL729:
.L408:
	.loc 1 2040 119 is_stmt 1 discriminator 1 view .LVU2381
	cmp	r3, #127
	bls	.L411
	.loc 1 2040 142 discriminator 3 view .LVU2382
.LVL730:
	.loc 1 2040 163 is_stmt 0 discriminator 3 view .LVU2383
	orn	r2, r3, #127
	.loc 1 2040 161 discriminator 3 view .LVU2384
	strb	r2, [r1], #1
.LVL731:
	.loc 1 2040 200 is_stmt 1 discriminator 3 view .LVU2385
	.loc 1 2040 212 is_stmt 0 discriminator 3 view .LVU2386
	lsrs	r3, r3, #7
.LVL732:
	.loc 1 2040 212 discriminator 3 view .LVU2387
	b	.L408
.L411:
	.loc 1 2040 220 is_stmt 1 discriminator 4 view .LVU2388
	.loc 1 2040 222 discriminator 4 view .LVU2389
.LVL733:
	.loc 1 2040 241 is_stmt 0 discriminator 4 view .LVU2390
	strb	r3, [r1], #1
.LVL734:
	.loc 1 2040 271 is_stmt 1 discriminator 4 view .LVU2391
	.loc 1 2040 271 is_stmt 0 discriminator 4 view .LVU2392
.LBE115:
	.loc 1 2040 300 is_stmt 1 discriminator 4 view .LVU2393
	.loc 1 2040 301 discriminator 4 view .LVU2394
	.loc 1 2041 3 discriminator 4 view .LVU2395
	movs	r2, #29
	bl	_SendPacket
.LVL735:
	.loc 1 2042 3 discriminator 4 view .LVU2396
	.syntax unified
@ 2042 "C:\nRF5_SDK_15.0.0_a53641a\examples\ble_peripheral\slam_application-master\systemView\SEGGER_SYSVIEW.c" 1
	msr   basepri, r5  
	
@ 0 "" 2
	.thumb
	.syntax unified
.LBE114:
	.loc 1 2042 71 discriminator 4 view .LVU2397
	.loc 1 2043 1 is_stmt 0 discriminator 4 view .LVU2398
	pop	{r3, r4, r5, pc}
.LVL736:
.L413:
	.loc 1 2043 1 discriminator 4 view .LVU2399
	.align	2
.L412:
	.word	.LANCHOR3
	.word	.LANCHOR0
.LFE41:
	.size	SEGGER_SYSVIEW_OnTaskTerminate, .-SEGGER_SYSVIEW_OnTaskTerminate
	.section	.text.SEGGER_SYSVIEW_OnTaskStartExec,"ax",%progbits
	.align	1
	.global	SEGGER_SYSVIEW_OnTaskStartExec
	.syntax unified
	.thumb
	.thumb_func
	.fpu fpv4-sp-d16
	.type	SEGGER_SYSVIEW_OnTaskStartExec, %function
SEGGER_SYSVIEW_OnTaskStartExec:
.LVL737:
.LFB42:
	.loc 1 2057 59 is_stmt 1 view -0
	@ args = 0, pretend = 0, frame = 0
	@ frame_needed = 0, uses_anonymous_args = 0
	.loc 1 2057 59 is_stmt 0 view .LVU2401
	push	{r3, r4, r5, lr}
.LCFI57:
	mov	r4, r0
	.loc 1 2058 3 is_stmt 1 view .LVU2402
	.loc 1 2059 3 view .LVU2403
.LBB116:
	.loc 1 2060 5 view .LVU2404
	.loc 1 2060 29 view .LVU2405
	.syntax unified
@ 2060 "C:\nRF5_SDK_15.0.0_a53641a\examples\ble_peripheral\slam_application-master\systemView\SEGGER_SYSVIEW.c" 1
	mrs   r5, basepri  
	mov   r1, #32       
	msr   basepri, r1  
	
@ 0 "" 2
.LVL738:
	.loc 1 2060 165 view .LVU2406
	.loc 1 2060 167 view .LVU2407
	.loc 1 2060 183 is_stmt 0 view .LVU2408
	.thumb
	.syntax unified
	ldr	r0, .L419
.LVL739:
	.loc 1 2060 183 view .LVU2409
	bl	_PreparePacket
.LVL740:
	.loc 1 2060 208 is_stmt 1 view .LVU2410
	.loc 1 2062 3 view .LVU2411
	.loc 1 2063 3 view .LVU2412
	.loc 1 2063 41 is_stmt 0 view .LVU2413
	ldr	r3, .L419+4
	ldr	r3, [r3, #16]
	.loc 1 2063 23 view .LVU2414
	subs	r3, r4, r3
	.loc 1 2063 10 view .LVU2415
	lsrs	r3, r3, #2
.LVL741:
.LBB117:
	.loc 1 2064 5 is_stmt 1 view .LVU2416
	.loc 1 2064 37 view .LVU2417
	.loc 1 2064 64 view .LVU2418
	.loc 1 2064 92 view .LVU2419
	.loc 1 2064 114 view .LVU2420
	.loc 1 2064 80 is_stmt 0 view .LVU2421
	mov	r1, r0
.LVL742:
.L415:
	.loc 1 2064 119 is_stmt 1 discriminator 1 view .LVU2422
	cmp	r3, #127
	bls	.L418
	.loc 1 2064 142 discriminator 3 view .LVU2423
.LVL743:
	.loc 1 2064 163 is_stmt 0 discriminator 3 view .LVU2424
	orn	r2, r3, #127
	.loc 1 2064 161 discriminator 3 view .LVU2425
	strb	r2, [r1], #1
.LVL744:
	.loc 1 2064 200 is_stmt 1 discriminator 3 view .LVU2426
	.loc 1 2064 212 is_stmt 0 discriminator 3 view .LVU2427
	lsrs	r3, r3, #7
.LVL745:
	.loc 1 2064 212 discriminator 3 view .LVU2428
	b	.L415
.L418:
	.loc 1 2064 220 is_stmt 1 discriminator 4 view .LVU2429
	.loc 1 2064 222 discriminator 4 view .LVU2430
.LVL746:
	.loc 1 2064 241 is_stmt 0 discriminator 4 view .LVU2431
	strb	r3, [r1], #1
.LVL747:
	.loc 1 2064 271 is_stmt 1 discriminator 4 view .LVU2432
	.loc 1 2064 271 is_stmt 0 discriminator 4 view .LVU2433
.LBE117:
	.loc 1 2064 300 is_stmt 1 discriminator 4 view .LVU2434
	.loc 1 2064 301 discriminator 4 view .LVU2435
	.loc 1 2065 3 discriminator 4 view .LVU2436
	movs	r2, #4
	bl	_SendPacket
.LVL748:
	.loc 1 2066 3 discriminator 4 view .LVU2437
	.syntax unified
@ 2066 "C:\nRF5_SDK_15.0.0_a53641a\examples\ble_peripheral\slam_application-master\systemView\SEGGER_SYSVIEW.c" 1
	msr   basepri, r5  
	
@ 0 "" 2
	.thumb
	.syntax unified
.LBE116:
	.loc 1 2066 71 discriminator 4 view .LVU2438
	.loc 1 2067 1 is_stmt 0 discriminator 4 view .LVU2439
	pop	{r3, r4, r5, pc}
.LVL749:
.L420:
	.loc 1 2067 1 discriminator 4 view .LVU2440
	.align	2
.L419:
	.word	.LANCHOR3
	.word	.LANCHOR0
.LFE42:
	.size	SEGGER_SYSVIEW_OnTaskStartExec, .-SEGGER_SYSVIEW_OnTaskStartExec
	.section	.text.SEGGER_SYSVIEW_OnTaskStopExec,"ax",%progbits
	.align	1
	.global	SEGGER_SYSVIEW_OnTaskStopExec
	.syntax unified
	.thumb
	.thumb_func
	.fpu fpv4-sp-d16
	.type	SEGGER_SYSVIEW_OnTaskStopExec, %function
SEGGER_SYSVIEW_OnTaskStopExec:
.LFB43:
	.loc 1 2077 42 is_stmt 1 view -0
	@ args = 0, pretend = 0, frame = 0
	@ frame_needed = 0, uses_anonymous_args = 0
	push	{r4, lr}
.LCFI58:
	.loc 1 2078 3 view .LVU2442
.LBB118:
	.loc 1 2079 5 view .LVU2443
	.loc 1 2079 29 view .LVU2444
	.syntax unified
@ 2079 "C:\nRF5_SDK_15.0.0_a53641a\examples\ble_peripheral\slam_application-master\systemView\SEGGER_SYSVIEW.c" 1
	mrs   r4, basepri  
	mov   r1, #32       
	msr   basepri, r1  
	
@ 0 "" 2
.LVL750:
	.loc 1 2079 165 view .LVU2445
	.loc 1 2079 167 view .LVU2446
	.loc 1 2079 183 is_stmt 0 view .LVU2447
	.thumb
	.syntax unified
	ldr	r0, .L423
	bl	_PreparePacket
.LVL751:
	mov	r1, r0
.LVL752:
	.loc 1 2079 208 is_stmt 1 view .LVU2448
	.loc 1 2081 3 view .LVU2449
	movs	r2, #5
	bl	_SendPacket
.LVL753:
	.loc 1 2082 3 view .LVU2450
	.syntax unified
@ 2082 "C:\nRF5_SDK_15.0.0_a53641a\examples\ble_peripheral\slam_application-master\systemView\SEGGER_SYSVIEW.c" 1
	msr   basepri, r4  
	
@ 0 "" 2
	.thumb
	.syntax unified
.LBE118:
	.loc 1 2082 71 view .LVU2451
	.loc 1 2083 1 is_stmt 0 view .LVU2452
	pop	{r4, pc}
.LVL754:
.L424:
	.loc 1 2083 1 view .LVU2453
	.align	2
.L423:
	.word	.LANCHOR3
.LFE43:
	.size	SEGGER_SYSVIEW_OnTaskStopExec, .-SEGGER_SYSVIEW_OnTaskStopExec
	.section	.text.SEGGER_SYSVIEW_OnTaskStartReady,"ax",%progbits
	.align	1
	.global	SEGGER_SYSVIEW_OnTaskStartReady
	.syntax unified
	.thumb
	.thumb_func
	.fpu fpv4-sp-d16
	.type	SEGGER_SYSVIEW_OnTaskStartReady, %function
SEGGER_SYSVIEW_OnTaskStartReady:
.LVL755:
.LFB44:
	.loc 1 2095 60 is_stmt 1 view -0
	@ args = 0, pretend = 0, frame = 0
	@ frame_needed = 0, uses_anonymous_args = 0
	.loc 1 2095 60 is_stmt 0 view .LVU2455
	push	{r3, r4, r5, lr}
.LCFI59:
	mov	r4, r0
	.loc 1 2096 3 is_stmt 1 view .LVU2456
	.loc 1 2097 3 view .LVU2457
.LBB119:
	.loc 1 2098 5 view .LVU2458
	.loc 1 2098 29 view .LVU2459
	.syntax unified
@ 2098 "C:\nRF5_SDK_15.0.0_a53641a\examples\ble_peripheral\slam_application-master\systemView\SEGGER_SYSVIEW.c" 1
	mrs   r5, basepri  
	mov   r1, #32       
	msr   basepri, r1  
	
@ 0 "" 2
.LVL756:
	.loc 1 2098 165 view .LVU2460
	.loc 1 2098 167 view .LVU2461
	.loc 1 2098 183 is_stmt 0 view .LVU2462
	.thumb
	.syntax unified
	ldr	r0, .L430
.LVL757:
	.loc 1 2098 183 view .LVU2463
	bl	_PreparePacket
.LVL758:
	.loc 1 2098 208 is_stmt 1 view .LVU2464
	.loc 1 2100 3 view .LVU2465
	.loc 1 2101 3 view .LVU2466
	.loc 1 2101 41 is_stmt 0 view .LVU2467
	ldr	r3, .L430+4
	ldr	r3, [r3, #16]
	.loc 1 2101 23 view .LVU2468
	subs	r3, r4, r3
	.loc 1 2101 10 view .LVU2469
	lsrs	r3, r3, #2
.LVL759:
.LBB120:
	.loc 1 2102 5 is_stmt 1 view .LVU2470
	.loc 1 2102 37 view .LVU2471
	.loc 1 2102 64 view .LVU2472
	.loc 1 2102 92 view .LVU2473
	.loc 1 2102 114 view .LVU2474
	.loc 1 2102 80 is_stmt 0 view .LVU2475
	mov	r1, r0
.LVL760:
.L426:
	.loc 1 2102 119 is_stmt 1 discriminator 1 view .LVU2476
	cmp	r3, #127
	bls	.L429
	.loc 1 2102 142 discriminator 3 view .LVU2477
.LVL761:
	.loc 1 2102 163 is_stmt 0 discriminator 3 view .LVU2478
	orn	r2, r3, #127
	.loc 1 2102 161 discriminator 3 view .LVU2479
	strb	r2, [r1], #1
.LVL762:
	.loc 1 2102 200 is_stmt 1 discriminator 3 view .LVU2480
	.loc 1 2102 212 is_stmt 0 discriminator 3 view .LVU2481
	lsrs	r3, r3, #7
.LVL763:
	.loc 1 2102 212 discriminator 3 view .LVU2482
	b	.L426
.L429:
	.loc 1 2102 220 is_stmt 1 discriminator 4 view .LVU2483
	.loc 1 2102 222 discriminator 4 view .LVU2484
.LVL764:
	.loc 1 2102 241 is_stmt 0 discriminator 4 view .LVU2485
	strb	r3, [r1], #1
.LVL765:
	.loc 1 2102 271 is_stmt 1 discriminator 4 view .LVU2486
	.loc 1 2102 271 is_stmt 0 discriminator 4 view .LVU2487
.LBE120:
	.loc 1 2102 300 is_stmt 1 discriminator 4 view .LVU2488
	.loc 1 2102 301 discriminator 4 view .LVU2489
	.loc 1 2103 3 discriminator 4 view .LVU2490
	movs	r2, #6
	bl	_SendPacket
.LVL766:
	.loc 1 2104 3 discriminator 4 view .LVU2491
	.syntax unified
@ 2104 "C:\nRF5_SDK_15.0.0_a53641a\examples\ble_peripheral\slam_application-master\systemView\SEGGER_SYSVIEW.c" 1
	msr   basepri, r5  
	
@ 0 "" 2
	.thumb
	.syntax unified
.LBE119:
	.loc 1 2104 71 discriminator 4 view .LVU2492
	.loc 1 2105 1 is_stmt 0 discriminator 4 view .LVU2493
	pop	{r3, r4, r5, pc}
.LVL767:
.L431:
	.loc 1 2105 1 discriminator 4 view .LVU2494
	.align	2
.L430:
	.word	.LANCHOR3
	.word	.LANCHOR0
.LFE44:
	.size	SEGGER_SYSVIEW_OnTaskStartReady, .-SEGGER_SYSVIEW_OnTaskStartReady
	.section	.text.SEGGER_SYSVIEW_OnTaskStopReady,"ax",%progbits
	.align	1
	.global	SEGGER_SYSVIEW_OnTaskStopReady
	.syntax unified
	.thumb
	.thumb_func
	.fpu fpv4-sp-d16
	.type	SEGGER_SYSVIEW_OnTaskStopReady, %function
SEGGER_SYSVIEW_OnTaskStopReady:
.LVL768:
.LFB45:
	.loc 1 2118 79 is_stmt 1 view -0
	@ args = 0, pretend = 0, frame = 0
	@ frame_needed = 0, uses_anonymous_args = 0
	.loc 1 2118 79 is_stmt 0 view .LVU2496
	push	{r4, r5, r6, lr}
.LCFI60:
	mov	r6, r0
	mov	r4, r1
	.loc 1 2119 3 is_stmt 1 view .LVU2497
	.loc 1 2120 3 view .LVU2498
.LBB121:
	.loc 1 2121 5 view .LVU2499
	.loc 1 2121 29 view .LVU2500
	.syntax unified
@ 2121 "C:\nRF5_SDK_15.0.0_a53641a\examples\ble_peripheral\slam_application-master\systemView\SEGGER_SYSVIEW.c" 1
	mrs   r5, basepri  
	mov   r1, #32       
	msr   basepri, r1  
	
@ 0 "" 2
.LVL769:
	.loc 1 2121 165 view .LVU2501
	.loc 1 2121 167 view .LVU2502
	.loc 1 2121 183 is_stmt 0 view .LVU2503
	.thumb
	.syntax unified
	ldr	r0, .L439
.LVL770:
	.loc 1 2121 183 view .LVU2504
	bl	_PreparePacket
.LVL771:
	.loc 1 2121 208 is_stmt 1 view .LVU2505
	.loc 1 2123 3 view .LVU2506
	.loc 1 2124 3 view .LVU2507
	.loc 1 2124 41 is_stmt 0 view .LVU2508
	ldr	r3, .L439+4
	ldr	r3, [r3, #16]
	.loc 1 2124 23 view .LVU2509
	subs	r3, r6, r3
	.loc 1 2124 10 view .LVU2510
	lsrs	r3, r3, #2
.LVL772:
.LBB122:
	.loc 1 2125 5 is_stmt 1 view .LVU2511
	.loc 1 2125 37 view .LVU2512
	.loc 1 2125 64 view .LVU2513
	.loc 1 2125 92 view .LVU2514
	.loc 1 2125 114 view .LVU2515
	.loc 1 2125 80 is_stmt 0 view .LVU2516
	mov	r1, r0
.LVL773:
.L433:
	.loc 1 2125 119 is_stmt 1 discriminator 1 view .LVU2517
	cmp	r3, #127
	bls	.L438
	.loc 1 2125 142 discriminator 3 view .LVU2518
.LVL774:
	.loc 1 2125 163 is_stmt 0 discriminator 3 view .LVU2519
	orn	r2, r3, #127
	.loc 1 2125 161 discriminator 3 view .LVU2520
	strb	r2, [r1], #1
.LVL775:
	.loc 1 2125 200 is_stmt 1 discriminator 3 view .LVU2521
	.loc 1 2125 212 is_stmt 0 discriminator 3 view .LVU2522
	lsrs	r3, r3, #7
.LVL776:
	.loc 1 2125 212 discriminator 3 view .LVU2523
	b	.L433
.L438:
	.loc 1 2125 220 is_stmt 1 discriminator 4 view .LVU2524
	.loc 1 2125 222 discriminator 4 view .LVU2525
.LVL777:
	.loc 1 2125 241 is_stmt 0 discriminator 4 view .LVU2526
	strb	r3, [r1], #1
.LVL778:
	.loc 1 2125 271 is_stmt 1 discriminator 4 view .LVU2527
	.loc 1 2125 271 is_stmt 0 discriminator 4 view .LVU2528
.LBE122:
	.loc 1 2125 300 is_stmt 1 discriminator 4 view .LVU2529
	.loc 1 2125 301 discriminator 4 view .LVU2530
.LBB123:
	.loc 1 2126 5 discriminator 4 view .LVU2531
	.loc 1 2126 37 discriminator 4 view .LVU2532
	.loc 1 2126 64 discriminator 4 view .LVU2533
	.loc 1 2126 92 discriminator 4 view .LVU2534
	.loc 1 2126 113 discriminator 4 view .LVU2535
	.loc 1 2126 118 is_stmt 0 discriminator 4 view .LVU2536
	b	.L435
.LVL779:
.L436:
	.loc 1 2126 141 is_stmt 1 discriminator 3 view .LVU2537
	.loc 1 2126 162 is_stmt 0 discriminator 3 view .LVU2538
	orn	r3, r4, #127
	.loc 1 2126 160 discriminator 3 view .LVU2539
	strb	r3, [r1], #1
.LVL780:
	.loc 1 2126 199 is_stmt 1 discriminator 3 view .LVU2540
	.loc 1 2126 211 is_stmt 0 discriminator 3 view .LVU2541
	lsrs	r4, r4, #7
.LVL781:
.L435:
	.loc 1 2126 118 is_stmt 1 discriminator 1 view .LVU2542
	cmp	r4, #127
	bhi	.L436
	.loc 1 2126 219 discriminator 4 view .LVU2543
	.loc 1 2126 221 discriminator 4 view .LVU2544
.LVL782:
	.loc 1 2126 240 is_stmt 0 discriminator 4 view .LVU2545
	strb	r4, [r1], #1
.LVL783:
	.loc 1 2126 270 is_stmt 1 discriminator 4 view .LVU2546
	.loc 1 2126 270 is_stmt 0 discriminator 4 view .LVU2547
.LBE123:
	.loc 1 2126 299 is_stmt 1 discriminator 4 view .LVU2548
	.loc 1 2126 300 discriminator 4 view .LVU2549
	.loc 1 2127 3 discriminator 4 view .LVU2550
	movs	r2, #7
	bl	_SendPacket
.LVL784:
	.loc 1 2128 3 discriminator 4 view .LVU2551
	.syntax unified
@ 2128 "C:\nRF5_SDK_15.0.0_a53641a\examples\ble_peripheral\slam_application-master\systemView\SEGGER_SYSVIEW.c" 1
	msr   basepri, r5  
	
@ 0 "" 2
	.thumb
	.syntax unified
.LBE121:
	.loc 1 2128 71 discriminator 4 view .LVU2552
	.loc 1 2129 1 is_stmt 0 discriminator 4 view .LVU2553
	pop	{r4, r5, r6, pc}
.LVL785:
.L440:
	.loc 1 2129 1 discriminator 4 view .LVU2554
	.align	2
.L439:
	.word	.LANCHOR3
	.word	.LANCHOR0
.LFE45:
	.size	SEGGER_SYSVIEW_OnTaskStopReady, .-SEGGER_SYSVIEW_OnTaskStopReady
	.section	.text.SEGGER_SYSVIEW_OnUserStart,"ax",%progbits
	.align	1
	.global	SEGGER_SYSVIEW_OnUserStart
	.syntax unified
	.thumb
	.thumb_func
	.fpu fpv4-sp-d16
	.type	SEGGER_SYSVIEW_OnUserStart, %function
SEGGER_SYSVIEW_OnUserStart:
.LVL786:
.LFB46:
	.loc 1 2141 50 is_stmt 1 view -0
	@ args = 0, pretend = 0, frame = 0
	@ frame_needed = 0, uses_anonymous_args = 0
	.loc 1 2141 50 is_stmt 0 view .LVU2556
	push	{r3, r4, r5, lr}
.LCFI61:
	mov	r4, r0
	.loc 1 2142 3 is_stmt 1 view .LVU2557
	.loc 1 2143 3 view .LVU2558
.LBB124:
	.loc 1 2144 5 view .LVU2559
	.loc 1 2144 29 view .LVU2560
	.syntax unified
@ 2144 "C:\nRF5_SDK_15.0.0_a53641a\examples\ble_peripheral\slam_application-master\systemView\SEGGER_SYSVIEW.c" 1
	mrs   r5, basepri  
	mov   r1, #32       
	msr   basepri, r1  
	
@ 0 "" 2
.LVL787:
	.loc 1 2144 165 view .LVU2561
	.loc 1 2144 167 view .LVU2562
	.loc 1 2144 183 is_stmt 0 view .LVU2563
	.thumb
	.syntax unified
	ldr	r0, .L446
.LVL788:
	.loc 1 2144 183 view .LVU2564
	bl	_PreparePacket
.LVL789:
	.loc 1 2144 208 is_stmt 1 view .LVU2565
	.loc 1 2146 3 view .LVU2566
.LBB125:
	.loc 1 2147 5 view .LVU2567
	.loc 1 2147 37 view .LVU2568
	.loc 1 2147 64 view .LVU2569
	.loc 1 2147 92 view .LVU2570
	.loc 1 2147 114 view .LVU2571
	.loc 1 2147 80 is_stmt 0 view .LVU2572
	mov	r1, r0
.LVL790:
.L442:
	.loc 1 2147 119 is_stmt 1 discriminator 1 view .LVU2573
	cmp	r4, #127
	bls	.L445
	.loc 1 2147 142 discriminator 3 view .LVU2574
.LVL791:
	.loc 1 2147 163 is_stmt 0 discriminator 3 view .LVU2575
	orn	r3, r4, #127
	.loc 1 2147 161 discriminator 3 view .LVU2576
	strb	r3, [r1], #1
.LVL792:
	.loc 1 2147 200 is_stmt 1 discriminator 3 view .LVU2577
	.loc 1 2147 212 is_stmt 0 discriminator 3 view .LVU2578
	lsrs	r4, r4, #7
.LVL793:
	.loc 1 2147 212 discriminator 3 view .LVU2579
	b	.L442
.L445:
	.loc 1 2147 220 is_stmt 1 discriminator 4 view .LVU2580
	.loc 1 2147 222 discriminator 4 view .LVU2581
.LVL794:
	.loc 1 2147 241 is_stmt 0 discriminator 4 view .LVU2582
	strb	r4, [r1], #1
.LVL795:
	.loc 1 2147 271 is_stmt 1 discriminator 4 view .LVU2583
	.loc 1 2147 271 is_stmt 0 discriminator 4 view .LVU2584
.LBE125:
	.loc 1 2147 300 is_stmt 1 discriminator 4 view .LVU2585
	.loc 1 2147 301 discriminator 4 view .LVU2586
	.loc 1 2148 3 discriminator 4 view .LVU2587
	movs	r2, #15
	bl	_SendPacket
.LVL796:
	.loc 1 2149 3 discriminator 4 view .LVU2588
	.syntax unified
@ 2149 "C:\nRF5_SDK_15.0.0_a53641a\examples\ble_peripheral\slam_application-master\systemView\SEGGER_SYSVIEW.c" 1
	msr   basepri, r5  
	
@ 0 "" 2
	.thumb
	.syntax unified
.LBE124:
	.loc 1 2149 71 discriminator 4 view .LVU2589
	.loc 1 2150 1 is_stmt 0 discriminator 4 view .LVU2590
	pop	{r3, r4, r5, pc}
.LVL797:
.L447:
	.loc 1 2150 1 discriminator 4 view .LVU2591
	.align	2
.L446:
	.word	.LANCHOR3
.LFE46:
	.size	SEGGER_SYSVIEW_OnUserStart, .-SEGGER_SYSVIEW_OnUserStart
	.section	.text.SEGGER_SYSVIEW_OnUserStop,"ax",%progbits
	.align	1
	.global	SEGGER_SYSVIEW_OnUserStop
	.syntax unified
	.thumb
	.thumb_func
	.fpu fpv4-sp-d16
	.type	SEGGER_SYSVIEW_OnUserStop, %function
SEGGER_SYSVIEW_OnUserStop:
.LVL798:
.LFB47:
	.loc 1 2162 49 is_stmt 1 view -0
	@ args = 0, pretend = 0, frame = 0
	@ frame_needed = 0, uses_anonymous_args = 0
	.loc 1 2162 49 is_stmt 0 view .LVU2593
	push	{r3, r4, r5, lr}
.LCFI62:
	mov	r4, r0
	.loc 1 2163 3 is_stmt 1 view .LVU2594
	.loc 1 2164 3 view .LVU2595
.LBB126:
	.loc 1 2165 5 view .LVU2596
	.loc 1 2165 29 view .LVU2597
	.syntax unified
@ 2165 "C:\nRF5_SDK_15.0.0_a53641a\examples\ble_peripheral\slam_application-master\systemView\SEGGER_SYSVIEW.c" 1
	mrs   r5, basepri  
	mov   r1, #32       
	msr   basepri, r1  
	
@ 0 "" 2
.LVL799:
	.loc 1 2165 165 view .LVU2598
	.loc 1 2165 167 view .LVU2599
	.loc 1 2165 183 is_stmt 0 view .LVU2600
	.thumb
	.syntax unified
	ldr	r0, .L453
.LVL800:
	.loc 1 2165 183 view .LVU2601
	bl	_PreparePacket
.LVL801:
	.loc 1 2165 208 is_stmt 1 view .LVU2602
	.loc 1 2167 3 view .LVU2603
.LBB127:
	.loc 1 2168 5 view .LVU2604
	.loc 1 2168 37 view .LVU2605
	.loc 1 2168 64 view .LVU2606
	.loc 1 2168 92 view .LVU2607
	.loc 1 2168 114 view .LVU2608
	.loc 1 2168 80 is_stmt 0 view .LVU2609
	mov	r1, r0
.LVL802:
.L449:
	.loc 1 2168 119 is_stmt 1 discriminator 1 view .LVU2610
	cmp	r4, #127
	bls	.L452
	.loc 1 2168 142 discriminator 3 view .LVU2611
.LVL803:
	.loc 1 2168 163 is_stmt 0 discriminator 3 view .LVU2612
	orn	r3, r4, #127
	.loc 1 2168 161 discriminator 3 view .LVU2613
	strb	r3, [r1], #1
.LVL804:
	.loc 1 2168 200 is_stmt 1 discriminator 3 view .LVU2614
	.loc 1 2168 212 is_stmt 0 discriminator 3 view .LVU2615
	lsrs	r4, r4, #7
.LVL805:
	.loc 1 2168 212 discriminator 3 view .LVU2616
	b	.L449
.L452:
	.loc 1 2168 220 is_stmt 1 discriminator 4 view .LVU2617
	.loc 1 2168 222 discriminator 4 view .LVU2618
.LVL806:
	.loc 1 2168 241 is_stmt 0 discriminator 4 view .LVU2619
	strb	r4, [r1], #1
.LVL807:
	.loc 1 2168 271 is_stmt 1 discriminator 4 view .LVU2620
	.loc 1 2168 271 is_stmt 0 discriminator 4 view .LVU2621
.LBE127:
	.loc 1 2168 300 is_stmt 1 discriminator 4 view .LVU2622
	.loc 1 2168 301 discriminator 4 view .LVU2623
	.loc 1 2169 3 discriminator 4 view .LVU2624
	movs	r2, #16
	bl	_SendPacket
.LVL808:
	.loc 1 2170 3 discriminator 4 view .LVU2625
	.syntax unified
@ 2170 "C:\nRF5_SDK_15.0.0_a53641a\examples\ble_peripheral\slam_application-master\systemView\SEGGER_SYSVIEW.c" 1
	msr   basepri, r5  
	
@ 0 "" 2
	.thumb
	.syntax unified
.LBE126:
	.loc 1 2170 71 discriminator 4 view .LVU2626
	.loc 1 2171 1 is_stmt 0 discriminator 4 view .LVU2627
	pop	{r3, r4, r5, pc}
.LVL809:
.L454:
	.loc 1 2171 1 discriminator 4 view .LVU2628
	.align	2
.L453:
	.word	.LANCHOR3
.LFE47:
	.size	SEGGER_SYSVIEW_OnUserStop, .-SEGGER_SYSVIEW_OnUserStop
	.section	.text.SEGGER_SYSVIEW_NameResource,"ax",%progbits
	.align	1
	.global	SEGGER_SYSVIEW_NameResource
	.syntax unified
	.thumb
	.thumb_func
	.fpu fpv4-sp-d16
	.type	SEGGER_SYSVIEW_NameResource, %function
SEGGER_SYSVIEW_NameResource:
.LVL810:
.LFB48:
	.loc 1 2184 79 is_stmt 1 view -0
	@ args = 0, pretend = 0, frame = 0
	@ frame_needed = 0, uses_anonymous_args = 0
	.loc 1 2184 79 is_stmt 0 view .LVU2630
	push	{r3, r4, r5, r6, r7, lr}
.LCFI63:
	mov	r4, r0
	mov	r6, r1
	.loc 1 2185 3 is_stmt 1 view .LVU2631
	.loc 1 2186 3 view .LVU2632
.LBB128:
	.loc 1 2187 5 view .LVU2633
	.loc 1 2187 29 view .LVU2634
	.syntax unified
@ 2187 "C:\nRF5_SDK_15.0.0_a53641a\examples\ble_peripheral\slam_application-master\systemView\SEGGER_SYSVIEW.c" 1
	mrs   r7, basepri  
	mov   r1, #32       
	msr   basepri, r1  
	
@ 0 "" 2
.LVL811:
	.loc 1 2187 165 view .LVU2635
	.loc 1 2187 167 view .LVU2636
	.loc 1 2187 183 is_stmt 0 view .LVU2637
	.thumb
	.syntax unified
	ldr	r0, .L460
.LVL812:
	.loc 1 2187 183 view .LVU2638
	bl	_PreparePacket
.LVL813:
	mov	r5, r0
.LVL814:
	.loc 1 2187 208 is_stmt 1 view .LVU2639
	.loc 1 2189 3 view .LVU2640
.LBB129:
	.loc 1 2190 5 view .LVU2641
	.loc 1 2190 37 view .LVU2642
	.loc 1 2190 64 view .LVU2643
	.loc 1 2190 92 view .LVU2644
	.loc 1 2190 139 is_stmt 0 view .LVU2645
	ldr	r3, .L460+4
	ldr	r3, [r3, #16]
	.loc 1 2190 121 view .LVU2646
	subs	r3, r4, r3
	.loc 1 2190 104 view .LVU2647
	lsrs	r3, r3, #2
.LVL815:
	.loc 1 2190 163 is_stmt 1 view .LVU2648
.L456:
	.loc 1 2190 168 discriminator 1 view .LVU2649
	cmp	r3, #127
	bls	.L459
	.loc 1 2190 191 discriminator 3 view .LVU2650
.LVL816:
	.loc 1 2190 212 is_stmt 0 discriminator 3 view .LVU2651
	orn	r2, r3, #127
	.loc 1 2190 210 discriminator 3 view .LVU2652
	strb	r2, [r0], #1
.LVL817:
	.loc 1 2190 249 is_stmt 1 discriminator 3 view .LVU2653
	.loc 1 2190 261 is_stmt 0 discriminator 3 view .LVU2654
	lsrs	r3, r3, #7
.LVL818:
	.loc 1 2190 261 discriminator 3 view .LVU2655
	b	.L456
.L459:
	.loc 1 2190 269 is_stmt 1 discriminator 4 view .LVU2656
	.loc 1 2190 271 discriminator 4 view .LVU2657
.LVL819:
	.loc 1 2190 290 is_stmt 0 discriminator 4 view .LVU2658
	strb	r3, [r0], #1
.LVL820:
	.loc 1 2190 320 is_stmt 1 discriminator 4 view .LVU2659
	.loc 1 2190 320 is_stmt 0 discriminator 4 view .LVU2660
.LBE129:
	.loc 1 2190 349 is_stmt 1 discriminator 4 view .LVU2661
	.loc 1 2190 350 discriminator 4 view .LVU2662
	.loc 1 2191 3 discriminator 4 view .LVU2663
	.loc 1 2191 14 is_stmt 0 discriminator 4 view .LVU2664
	movs	r2, #128
	mov	r1, r6
	bl	_EncodeStr
.LVL821:
	.loc 1 2191 14 discriminator 4 view .LVU2665
	mov	r1, r0
.LVL822:
	.loc 1 2192 3 is_stmt 1 discriminator 4 view .LVU2666
	movs	r2, #25
	mov	r0, r5
.LVL823:
	.loc 1 2192 3 is_stmt 0 discriminator 4 view .LVU2667
	bl	_SendPacket
.LVL824:
	.loc 1 2193 3 is_stmt 1 discriminator 4 view .LVU2668
	.syntax unified
@ 2193 "C:\nRF5_SDK_15.0.0_a53641a\examples\ble_peripheral\slam_application-master\systemView\SEGGER_SYSVIEW.c" 1
	msr   basepri, r7  
	
@ 0 "" 2
	.thumb
	.syntax unified
.LBE128:
	.loc 1 2193 71 discriminator 4 view .LVU2669
	.loc 1 2194 1 is_stmt 0 discriminator 4 view .LVU2670
	pop	{r3, r4, r5, r6, r7, pc}
.LVL825:
.L461:
	.loc 1 2194 1 discriminator 4 view .LVU2671
	.align	2
.L460:
	.word	.LANCHOR3
	.word	.LANCHOR0
.LFE48:
	.size	SEGGER_SYSVIEW_NameResource, .-SEGGER_SYSVIEW_NameResource
	.section	.text.SEGGER_SYSVIEW_SendPacket,"ax",%progbits
	.align	1
	.global	SEGGER_SYSVIEW_SendPacket
	.syntax unified
	.thumb
	.thumb_func
	.fpu fpv4-sp-d16
	.type	SEGGER_SYSVIEW_SendPacket, %function
SEGGER_SYSVIEW_SendPacket:
.LVL826:
.LFB49:
	.loc 1 2213 105 is_stmt 1 view -0
	@ args = 0, pretend = 0, frame = 0
	@ frame_needed = 0, uses_anonymous_args = 0
	.loc 1 2213 105 is_stmt 0 view .LVU2673
	push	{r4, lr}
.LCFI64:
	mov	r3, r1
.LBB130:
	.loc 1 2215 5 is_stmt 1 view .LVU2674
	.loc 1 2215 29 view .LVU2675
	.syntax unified
@ 2215 "C:\nRF5_SDK_15.0.0_a53641a\examples\ble_peripheral\slam_application-master\systemView\SEGGER_SYSVIEW.c" 1
	mrs   r4, basepri  
	mov   r1, #32       
	msr   basepri, r1  
	
@ 0 "" 2
.LVL827:
	.loc 1 2215 165 view .LVU2676
	.loc 1 2217 3 view .LVU2677
	.thumb
	.syntax unified
	mov	r1, r3
	adds	r0, r0, #4
.LVL828:
	.loc 1 2217 3 is_stmt 0 view .LVU2678
	bl	_SendPacket
.LVL829:
	.loc 1 2219 3 is_stmt 1 view .LVU2679
	.syntax unified
@ 2219 "C:\nRF5_SDK_15.0.0_a53641a\examples\ble_peripheral\slam_application-master\systemView\SEGGER_SYSVIEW.c" 1
	msr   basepri, r4  
	
@ 0 "" 2
	.thumb
	.syntax unified
.LBE130:
	.loc 1 2219 71 view .LVU2680
	.loc 1 2221 3 view .LVU2681
	.loc 1 2222 1 is_stmt 0 view .LVU2682
	movs	r0, #0
	pop	{r4, pc}
	.loc 1 2222 1 view .LVU2683
.LFE49:
	.size	SEGGER_SYSVIEW_SendPacket, .-SEGGER_SYSVIEW_SendPacket
	.section	.text.SEGGER_SYSVIEW_RecordModuleDescription,"ax",%progbits
	.align	1
	.global	SEGGER_SYSVIEW_RecordModuleDescription
	.syntax unified
	.thumb
	.thumb_func
	.fpu fpv4-sp-d16
	.type	SEGGER_SYSVIEW_RecordModuleDescription, %function
SEGGER_SYSVIEW_RecordModuleDescription:
.LVL830:
.LFB56:
	.loc 1 2412 109 is_stmt 1 view -0
	@ args = 0, pretend = 0, frame = 0
	@ frame_needed = 0, uses_anonymous_args = 0
	.loc 1 2412 109 is_stmt 0 view .LVU2685
	push	{r4, r5, r6, r7, r8, lr}
.LCFI65:
	mov	r7, r0
	mov	r5, r1
	.loc 1 2413 3 is_stmt 1 view .LVU2686
	.loc 1 2414 3 view .LVU2687
	.loc 1 2416 3 view .LVU2688
	.loc 1 2416 5 is_stmt 0 view .LVU2689
	ldr	r3, .L473
	ldr	r2, [r3]
.LVL831:
	.loc 1 2417 3 is_stmt 1 view .LVU2690
	.loc 1 2417 12 is_stmt 0 view .LVU2691
	mov	r8, #0
.LVL832:
.L466:
	.loc 1 2418 3 is_stmt 1 view .LVU2692
	.loc 1 2419 5 view .LVU2693
	.loc 1 2419 8 is_stmt 0 view .LVU2694
	cmp	r2, r7
	beq	.L465
	.loc 1 2422 5 is_stmt 1 view .LVU2695
	.loc 1 2422 13 is_stmt 0 view .LVU2696
	add	r3, r8, #1
	uxtb	r8, r3
.LVL833:
	.loc 1 2423 5 is_stmt 1 view .LVU2697
	.loc 1 2423 7 is_stmt 0 view .LVU2698
	ldr	r2, [r2, #16]
.LVL834:
	.loc 1 2424 11 is_stmt 1 view .LVU2699
	.loc 1 2424 3 is_stmt 0 view .LVU2700
	cmp	r2, #0
	bne	.L466
.L465:
.LBB131:
	.loc 1 2426 5 is_stmt 1 view .LVU2701
	.loc 1 2427 5 view .LVU2702
.LBB132:
	.loc 1 2428 7 view .LVU2703
	.loc 1 2428 31 view .LVU2704
	.syntax unified
@ 2428 "C:\nRF5_SDK_15.0.0_a53641a\examples\ble_peripheral\slam_application-master\systemView\SEGGER_SYSVIEW.c" 1
	mrs   r6, basepri  
	mov   r1, #32       
	msr   basepri, r1  
	
@ 0 "" 2
.LVL835:
	.loc 1 2428 167 view .LVU2705
	.loc 1 2428 169 view .LVU2706
	.loc 1 2428 185 is_stmt 0 view .LVU2707
	.thumb
	.syntax unified
	ldr	r0, .L473+4
.LVL836:
	.loc 1 2428 185 view .LVU2708
	bl	_PreparePacket
.LVL837:
	.loc 1 2428 185 view .LVU2709
	mov	r4, r0
.LVL838:
	.loc 1 2428 210 is_stmt 1 view .LVU2710
	.loc 1 2430 5 view .LVU2711
.LBB133:
	.loc 1 2435 7 view .LVU2712
	.loc 1 2435 39 view .LVU2713
	.loc 1 2435 66 view .LVU2714
	.loc 1 2435 94 view .LVU2715
	.loc 1 2435 106 is_stmt 0 view .LVU2716
	mov	r3, r8
.LVL839:
	.loc 1 2435 118 is_stmt 1 view .LVU2717
	.loc 1 2435 123 is_stmt 0 view .LVU2718
	b	.L467
.LVL840:
.L468:
	.loc 1 2435 146 is_stmt 1 discriminator 3 view .LVU2719
	.loc 1 2435 167 is_stmt 0 discriminator 3 view .LVU2720
	orn	r2, r3, #127
	.loc 1 2435 165 discriminator 3 view .LVU2721
	strb	r2, [r0], #1
.LVL841:
	.loc 1 2435 204 is_stmt 1 discriminator 3 view .LVU2722
	.loc 1 2435 216 is_stmt 0 discriminator 3 view .LVU2723
	lsrs	r3, r3, #7
.LVL842:
.L467:
	.loc 1 2435 123 is_stmt 1 discriminator 1 view .LVU2724
	cmp	r3, #127
	bhi	.L468
	.loc 1 2435 224 discriminator 4 view .LVU2725
	.loc 1 2435 226 discriminator 4 view .LVU2726
.LVL843:
	.loc 1 2435 245 is_stmt 0 discriminator 4 view .LVU2727
	strb	r3, [r0], #1
.LVL844:
	.loc 1 2435 275 is_stmt 1 discriminator 4 view .LVU2728
	.loc 1 2435 275 is_stmt 0 discriminator 4 view .LVU2729
.LBE133:
	.loc 1 2435 304 is_stmt 1 discriminator 4 view .LVU2730
	.loc 1 2435 305 discriminator 4 view .LVU2731
.LBB134:
	.loc 1 2436 7 discriminator 4 view .LVU2732
	.loc 1 2436 39 discriminator 4 view .LVU2733
	.loc 1 2436 66 discriminator 4 view .LVU2734
	.loc 1 2436 94 discriminator 4 view .LVU2735
	.loc 1 2436 106 is_stmt 0 discriminator 4 view .LVU2736
	ldr	r3, [r7, #8]
.LVL845:
	.loc 1 2436 132 is_stmt 1 discriminator 4 view .LVU2737
.L469:
	.loc 1 2436 137 discriminator 1 view .LVU2738
	cmp	r3, #127
	bls	.L472
	.loc 1 2436 160 discriminator 3 view .LVU2739
.LVL846:
	.loc 1 2436 181 is_stmt 0 discriminator 3 view .LVU2740
	orn	r2, r3, #127
	.loc 1 2436 179 discriminator 3 view .LVU2741
	strb	r2, [r0], #1
.LVL847:
	.loc 1 2436 218 is_stmt 1 discriminator 3 view .LVU2742
	.loc 1 2436 230 is_stmt 0 discriminator 3 view .LVU2743
	lsrs	r3, r3, #7
.LVL848:
	.loc 1 2436 230 discriminator 3 view .LVU2744
	b	.L469
.L472:
	.loc 1 2436 238 is_stmt 1 discriminator 4 view .LVU2745
	.loc 1 2436 240 discriminator 4 view .LVU2746
.LVL849:
	.loc 1 2436 259 is_stmt 0 discriminator 4 view .LVU2747
	strb	r3, [r0], #1
.LVL850:
	.loc 1 2436 289 is_stmt 1 discriminator 4 view .LVU2748
	.loc 1 2436 289 is_stmt 0 discriminator 4 view .LVU2749
.LBE134:
	.loc 1 2436 318 is_stmt 1 discriminator 4 view .LVU2750
	.loc 1 2436 319 discriminator 4 view .LVU2751
	.loc 1 2437 5 discriminator 4 view .LVU2752
	.loc 1 2437 16 is_stmt 0 discriminator 4 view .LVU2753
	movs	r2, #128
	mov	r1, r5
	bl	_EncodeStr
.LVL851:
	.loc 1 2437 16 discriminator 4 view .LVU2754
	mov	r1, r0
.LVL852:
	.loc 1 2438 5 is_stmt 1 discriminator 4 view .LVU2755
	movs	r2, #22
	mov	r0, r4
.LVL853:
	.loc 1 2438 5 is_stmt 0 discriminator 4 view .LVU2756
	bl	_SendPacket
.LVL854:
	.loc 1 2439 5 is_stmt 1 discriminator 4 view .LVU2757
	.syntax unified
@ 2439 "C:\nRF5_SDK_15.0.0_a53641a\examples\ble_peripheral\slam_application-master\systemView\SEGGER_SYSVIEW.c" 1
	msr   basepri, r6  
	
@ 0 "" 2
	.thumb
	.syntax unified
.LBE132:
	.loc 1 2439 73 discriminator 4 view .LVU2758
.LBE131:
	.loc 1 2441 1 is_stmt 0 discriminator 4 view .LVU2759
	pop	{r4, r5, r6, r7, r8, pc}
.LVL855:
.L474:
	.loc 1 2441 1 discriminator 4 view .LVU2760
	.align	2
.L473:
	.word	.LANCHOR2
	.word	.LANCHOR3
.LFE56:
	.size	SEGGER_SYSVIEW_RecordModuleDescription, .-SEGGER_SYSVIEW_RecordModuleDescription
	.section	.text.SEGGER_SYSVIEW_SendModule,"ax",%progbits
	.align	1
	.global	SEGGER_SYSVIEW_SendModule
	.syntax unified
	.thumb
	.thumb_func
	.fpu fpv4-sp-d16
	.type	SEGGER_SYSVIEW_SendModule, %function
SEGGER_SYSVIEW_SendModule:
.LVL856:
.LFB57:
	.loc 1 2453 56 is_stmt 1 view -0
	@ args = 0, pretend = 0, frame = 0
	@ frame_needed = 0, uses_anonymous_args = 0
	.loc 1 2453 56 is_stmt 0 view .LVU2762
	push	{r3, r4, r5, r6, r7, lr}
.LCFI66:
	.loc 1 2454 3 is_stmt 1 view .LVU2763
	.loc 1 2455 3 view .LVU2764
	.loc 1 2457 3 view .LVU2765
	.loc 1 2457 21 is_stmt 0 view .LVU2766
	ldr	r3, .L489
	ldr	r4, [r3]
	.loc 1 2457 6 view .LVU2767
	cbz	r4, .L475
	.loc 1 2459 12 view .LVU2768
	movs	r3, #0
	b	.L476
.LVL857:
.L486:
	.loc 1 2459 31 is_stmt 1 discriminator 2 view .LVU2769
	.loc 1 2459 32 is_stmt 0 discriminator 2 view .LVU2770
	adds	r3, r3, #1
.LVL858:
.L476:
	.loc 1 2459 17 is_stmt 1 discriminator 1 view .LVU2771
	.loc 1 2459 19 is_stmt 0 discriminator 1 view .LVU2772
	mov	r7, r0
	.loc 1 2459 5 discriminator 1 view .LVU2773
	cmp	r0, r3
	bls	.L478
	.loc 1 2460 7 is_stmt 1 view .LVU2774
	.loc 1 2460 15 is_stmt 0 view .LVU2775
	ldr	r4, [r4, #16]
.LVL859:
	.loc 1 2461 7 is_stmt 1 view .LVU2776
	.loc 1 2461 10 is_stmt 0 view .LVU2777
	cmp	r4, #0
	bne	.L486
.L478:
	.loc 1 2465 5 is_stmt 1 view .LVU2778
	.loc 1 2465 8 is_stmt 0 view .LVU2779
	cbz	r4, .L475
.LBB135:
	.loc 1 2466 7 is_stmt 1 view .LVU2780
	.loc 1 2467 7 view .LVU2781
.LBB136:
	.loc 1 2468 9 view .LVU2782
	.loc 1 2468 33 view .LVU2783
	.syntax unified
@ 2468 "C:\nRF5_SDK_15.0.0_a53641a\examples\ble_peripheral\slam_application-master\systemView\SEGGER_SYSVIEW.c" 1
	mrs   r6, basepri  
	mov   r1, #32       
	msr   basepri, r1  
	
@ 0 "" 2
.LVL860:
	.loc 1 2468 169 view .LVU2784
	.loc 1 2468 171 view .LVU2785
	.loc 1 2468 187 is_stmt 0 view .LVU2786
	.thumb
	.syntax unified
	ldr	r0, .L489+4
.LVL861:
	.loc 1 2468 187 view .LVU2787
	bl	_PreparePacket
.LVL862:
	.loc 1 2468 187 view .LVU2788
	mov	r5, r0
.LVL863:
	.loc 1 2468 212 is_stmt 1 view .LVU2789
	.loc 1 2470 7 view .LVU2790
.LBB137:
	.loc 1 2475 9 view .LVU2791
	.loc 1 2475 41 view .LVU2792
	.loc 1 2475 68 view .LVU2793
	.loc 1 2475 96 view .LVU2794
	.loc 1 2475 120 view .LVU2795
.L480:
	.loc 1 2475 125 discriminator 1 view .LVU2796
	cmp	r7, #127
	bls	.L487
	.loc 1 2475 148 discriminator 3 view .LVU2797
.LVL864:
	.loc 1 2475 169 is_stmt 0 discriminator 3 view .LVU2798
	orn	r3, r7, #127
	.loc 1 2475 167 discriminator 3 view .LVU2799
	strb	r3, [r0], #1
.LVL865:
	.loc 1 2475 206 is_stmt 1 discriminator 3 view .LVU2800
	.loc 1 2475 218 is_stmt 0 discriminator 3 view .LVU2801
	lsrs	r7, r7, #7
.LVL866:
	.loc 1 2475 218 discriminator 3 view .LVU2802
	b	.L480
.L487:
	.loc 1 2475 226 is_stmt 1 discriminator 4 view .LVU2803
	.loc 1 2475 228 discriminator 4 view .LVU2804
.LVL867:
	.loc 1 2475 247 is_stmt 0 discriminator 4 view .LVU2805
	strb	r7, [r0], #1
.LVL868:
	.loc 1 2475 277 is_stmt 1 discriminator 4 view .LVU2806
	.loc 1 2475 277 is_stmt 0 discriminator 4 view .LVU2807
.LBE137:
	.loc 1 2475 306 is_stmt 1 discriminator 4 view .LVU2808
	.loc 1 2475 307 discriminator 4 view .LVU2809
.LBB138:
	.loc 1 2476 9 discriminator 4 view .LVU2810
	.loc 1 2476 41 discriminator 4 view .LVU2811
	.loc 1 2476 68 discriminator 4 view .LVU2812
	.loc 1 2476 96 discriminator 4 view .LVU2813
	.loc 1 2476 108 is_stmt 0 discriminator 4 view .LVU2814
	ldr	r3, [r4, #8]
.LVL869:
	.loc 1 2476 134 is_stmt 1 discriminator 4 view .LVU2815
.L482:
	.loc 1 2476 139 discriminator 1 view .LVU2816
	cmp	r3, #127
	bls	.L488
	.loc 1 2476 162 discriminator 3 view .LVU2817
.LVL870:
	.loc 1 2476 183 is_stmt 0 discriminator 3 view .LVU2818
	orn	r2, r3, #127
	.loc 1 2476 181 discriminator 3 view .LVU2819
	strb	r2, [r0], #1
.LVL871:
	.loc 1 2476 220 is_stmt 1 discriminator 3 view .LVU2820
	.loc 1 2476 232 is_stmt 0 discriminator 3 view .LVU2821
	lsrs	r3, r3, #7
.LVL872:
	.loc 1 2476 232 discriminator 3 view .LVU2822
	b	.L482
.L488:
	.loc 1 2476 240 is_stmt 1 discriminator 4 view .LVU2823
	.loc 1 2476 242 discriminator 4 view .LVU2824
.LVL873:
	.loc 1 2476 261 is_stmt 0 discriminator 4 view .LVU2825
	strb	r3, [r0], #1
.LVL874:
	.loc 1 2476 291 is_stmt 1 discriminator 4 view .LVU2826
	.loc 1 2476 291 is_stmt 0 discriminator 4 view .LVU2827
.LBE138:
	.loc 1 2476 320 is_stmt 1 discriminator 4 view .LVU2828
	.loc 1 2476 321 discriminator 4 view .LVU2829
	.loc 1 2477 7 discriminator 4 view .LVU2830
	.loc 1 2477 18 is_stmt 0 discriminator 4 view .LVU2831
	movs	r2, #128
	ldr	r1, [r4]
	bl	_EncodeStr
.LVL875:
	.loc 1 2477 18 discriminator 4 view .LVU2832
	mov	r1, r0
.LVL876:
	.loc 1 2478 7 is_stmt 1 discriminator 4 view .LVU2833
	movs	r2, #22
	mov	r0, r5
.LVL877:
	.loc 1 2478 7 is_stmt 0 discriminator 4 view .LVU2834
	bl	_SendPacket
.LVL878:
	.loc 1 2479 7 is_stmt 1 discriminator 4 view .LVU2835
	.syntax unified
@ 2479 "C:\nRF5_SDK_15.0.0_a53641a\examples\ble_peripheral\slam_application-master\systemView\SEGGER_SYSVIEW.c" 1
	msr   basepri, r6  
	
@ 0 "" 2
	.thumb
	.syntax unified
.LBE136:
	.loc 1 2479 75 discriminator 4 view .LVU2836
.LVL879:
.L475:
	.loc 1 2479 75 is_stmt 0 discriminator 4 view .LVU2837
.LBE135:
	.loc 1 2482 1 view .LVU2838
	pop	{r3, r4, r5, r6, r7, pc}
.L490:
	.align	2
.L489:
	.word	.LANCHOR2
	.word	.LANCHOR3
.LFE57:
	.size	SEGGER_SYSVIEW_SendModule, .-SEGGER_SYSVIEW_SendModule
	.section	.text.SEGGER_SYSVIEW_RegisterModule,"ax",%progbits
	.align	1
	.global	SEGGER_SYSVIEW_RegisterModule
	.syntax unified
	.thumb
	.thumb_func
	.fpu fpv4-sp-d16
	.type	SEGGER_SYSVIEW_RegisterModule, %function
SEGGER_SYSVIEW_RegisterModule:
.LVL880:
.LFB55:
	.loc 1 2371 68 is_stmt 1 view -0
	@ args = 0, pretend = 0, frame = 0
	@ frame_needed = 0, uses_anonymous_args = 0
	.loc 1 2371 68 is_stmt 0 view .LVU2840
	push	{r3, r4, r5, lr}
.LCFI67:
	mov	r4, r0
.LBB139:
	.loc 1 2372 5 is_stmt 1 view .LVU2841
	.loc 1 2372 29 view .LVU2842
	.syntax unified
@ 2372 "C:\nRF5_SDK_15.0.0_a53641a\examples\ble_peripheral\slam_application-master\systemView\SEGGER_SYSVIEW.c" 1
	mrs   r5, basepri  
	mov   r1, #32       
	msr   basepri, r1  
	
@ 0 "" 2
.LVL881:
	.loc 1 2372 165 view .LVU2843
	.loc 1 2373 3 view .LVU2844
	.loc 1 2373 21 is_stmt 0 view .LVU2845
	.thumb
	.syntax unified
	ldr	r3, .L497
	ldr	r3, [r3]
	.loc 1 2373 6 view .LVU2846
	cbz	r3, .L496
	.loc 1 2389 5 is_stmt 1 view .LVU2847
	.loc 1 2389 41 is_stmt 0 view .LVU2848
	ldr	r2, [r3, #8]
	.loc 1 2389 70 view .LVU2849
	ldr	r1, [r3, #4]
	.loc 1 2389 55 view .LVU2850
	add	r2, r2, r1
	.loc 1 2389 26 view .LVU2851
	str	r2, [r0, #8]
	.loc 1 2390 5 is_stmt 1 view .LVU2852
	.loc 1 2390 20 is_stmt 0 view .LVU2853
	str	r3, [r0, #16]
	.loc 1 2391 5 is_stmt 1 view .LVU2854
	.loc 1 2391 19 is_stmt 0 view .LVU2855
	ldr	r3, .L497
	str	r0, [r3]
	.loc 1 2392 5 is_stmt 1 view .LVU2856
	.loc 1 2392 16 is_stmt 0 view .LVU2857
	ldr	r2, .L497+4
	ldrb	r3, [r2]	@ zero_extendqisi2
	adds	r3, r3, #1
	strb	r3, [r2]
.L493:
	.loc 1 2394 3 is_stmt 1 view .LVU2858
	movs	r0, #0
.LVL882:
	.loc 1 2394 3 is_stmt 0 view .LVU2859
	bl	SEGGER_SYSVIEW_SendModule
.LVL883:
	.loc 1 2395 3 is_stmt 1 view .LVU2860
	.loc 1 2395 14 is_stmt 0 view .LVU2861
	ldr	r3, [r4, #12]
	.loc 1 2395 6 view .LVU2862
	cbz	r3, .L494
	.loc 1 2396 5 is_stmt 1 view .LVU2863
	blx	r3
.LVL884:
.L494:
	.loc 1 2398 3 view .LVU2864
	.syntax unified
@ 2398 "C:\nRF5_SDK_15.0.0_a53641a\examples\ble_peripheral\slam_application-master\systemView\SEGGER_SYSVIEW.c" 1
	msr   basepri, r5  
	
@ 0 "" 2
	.thumb
	.syntax unified
.LBE139:
	.loc 1 2398 71 view .LVU2865
	.loc 1 2399 1 is_stmt 0 view .LVU2866
	pop	{r3, r4, r5, pc}
.LVL885:
.L496:
.LBB140:
	.loc 1 2379 5 is_stmt 1 view .LVU2867
	.loc 1 2379 26 is_stmt 0 view .LVU2868
	mov	r3, #512
	str	r3, [r0, #8]
	.loc 1 2380 5 is_stmt 1 view .LVU2869
	.loc 1 2380 20 is_stmt 0 view .LVU2870
	movs	r3, #0
	str	r3, [r0, #16]
	.loc 1 2381 5 is_stmt 1 view .LVU2871
	.loc 1 2381 19 is_stmt 0 view .LVU2872
	ldr	r3, .L497
	str	r0, [r3]
	.loc 1 2382 5 is_stmt 1 view .LVU2873
	.loc 1 2382 17 is_stmt 0 view .LVU2874
	ldr	r3, .L497+4
	movs	r2, #1
	strb	r2, [r3]
	b	.L493
.L498:
	.align	2
.L497:
	.word	.LANCHOR2
	.word	.LANCHOR4
.LBE140:
.LFE55:
	.size	SEGGER_SYSVIEW_RegisterModule, .-SEGGER_SYSVIEW_RegisterModule
	.section	.text._VPrintHost,"ax",%progbits
	.align	1
	.syntax unified
	.thumb
	.thumb_func
	.fpu fpv4-sp-d16
	.type	_VPrintHost, %function
_VPrintHost:
.LVL886:
.LFB6:
	.loc 1 764 83 is_stmt 1 view -0
	@ args = 0, pretend = 0, frame = 64
	@ frame_needed = 0, uses_anonymous_args = 0
	.loc 1 764 83 is_stmt 0 view .LVU2876
	push	{r4, r5, r6, r7, r8, lr}
.LCFI68:
	sub	sp, sp, #64
.LCFI69:
	mov	r8, r0
	mov	r7, r1
	.loc 1 765 3 is_stmt 1 view .LVU2877
	.loc 1 766 3 view .LVU2878
	.loc 1 767 3 view .LVU2879
	.loc 1 768 3 view .LVU2880
	.loc 1 769 3 view .LVU2881
	.loc 1 770 3 view .LVU2882
	.loc 1 771 3 view .LVU2883
	.loc 1 781 3 view .LVU2884
.LVL887:
	.loc 1 782 3 view .LVU2885
	.loc 1 781 5 is_stmt 0 view .LVU2886
	mov	r3, r0
	.loc 1 782 16 view .LVU2887
	movs	r6, #0
	b	.L500
.LVL888:
.L511:
	.loc 1 791 26 view .LVU2888
	mov	r6, r4
.LVL889:
.L500:
	.loc 1 783 3 is_stmt 1 view .LVU2889
	.loc 1 784 5 view .LVU2890
	.loc 1 784 7 is_stmt 0 view .LVU2891
	ldrb	r1, [r3], #1	@ zero_extendqisi2
.LVL890:
	.loc 1 785 5 is_stmt 1 view .LVU2892
	.loc 1 785 8 is_stmt 0 view .LVU2893
	cbz	r1, .L501
	.loc 1 788 5 is_stmt 1 view .LVU2894
	.loc 1 788 8 is_stmt 0 view .LVU2895
	cmp	r1, #37
	bne	.L500
	.loc 1 789 7 is_stmt 1 view .LVU2896
.LVL891:
	.loc 1 791 7 view .LVU2897
	.loc 1 791 51 is_stmt 0 view .LVU2898
	ldr	r1, [r2]
	adds	r0, r1, #4
	str	r0, [r2]
.LVL892:
	.loc 1 791 26 view .LVU2899
	adds	r4, r6, #1
.LVL893:
	.loc 1 791 51 view .LVU2900
	ldr	r0, [r1]
	.loc 1 791 30 view .LVU2901
	add	r1, sp, #64
	add	r1, r1, r6, lsl #2
	str	r0, [r1, #-64]
	.loc 1 792 7 is_stmt 1 view .LVU2902
	.loc 1 792 10 is_stmt 0 view .LVU2903
	cmp	r6, #15
	bne	.L511
	.loc 1 791 26 view .LVU2904
	mov	r6, r4
.LVL894:
.L501:
.LBB141:
	.loc 1 818 7 is_stmt 1 view .LVU2905
	.loc 1 818 31 view .LVU2906
	.syntax unified
@ 818 "C:\nRF5_SDK_15.0.0_a53641a\examples\ble_peripheral\slam_application-master\systemView\SEGGER_SYSVIEW.c" 1
	mrs   r5, basepri  
	mov   r1, #32       
	msr   basepri, r1  
	
@ 0 "" 2
.LVL895:
	.loc 1 818 167 view .LVU2907
	.loc 1 818 169 view .LVU2908
	.loc 1 818 185 is_stmt 0 view .LVU2909
	.thumb
	.syntax unified
	ldr	r0, .L516
	bl	_PreparePacket
.LVL896:
	.loc 1 818 185 view .LVU2910
	mov	r4, r0
.LVL897:
	.loc 1 818 210 is_stmt 1 view .LVU2911
	.loc 1 819 5 view .LVU2912
	.loc 1 819 16 is_stmt 0 view .LVU2913
	movs	r2, #128
	mov	r1, r8
	bl	_EncodeStr
.LVL898:
	.loc 1 819 16 view .LVU2914
	mov	r1, r0
.LVL899:
.LBB142:
	.loc 1 820 7 is_stmt 1 view .LVU2915
	.loc 1 820 39 view .LVU2916
	.loc 1 820 66 view .LVU2917
	.loc 1 820 94 view .LVU2918
	.loc 1 820 117 view .LVU2919
	.loc 1 820 122 is_stmt 0 view .LVU2920
	b	.L503
.LVL900:
.L504:
	.loc 1 820 145 is_stmt 1 discriminator 3 view .LVU2921
	.loc 1 820 166 is_stmt 0 discriminator 3 view .LVU2922
	orn	r3, r7, #127
	.loc 1 820 164 discriminator 3 view .LVU2923
	strb	r3, [r1], #1
.LVL901:
	.loc 1 820 203 is_stmt 1 discriminator 3 view .LVU2924
	.loc 1 820 215 is_stmt 0 discriminator 3 view .LVU2925
	lsrs	r7, r7, #7
.LVL902:
.L503:
	.loc 1 820 122 is_stmt 1 discriminator 1 view .LVU2926
	cmp	r7, #127
	bhi	.L504
	.loc 1 820 223 discriminator 4 view .LVU2927
	.loc 1 820 225 discriminator 4 view .LVU2928
.LVL903:
	.loc 1 820 244 is_stmt 0 discriminator 4 view .LVU2929
	strb	r7, [r1], #1
.LVL904:
	.loc 1 820 274 is_stmt 1 discriminator 4 view .LVU2930
	.loc 1 820 274 is_stmt 0 discriminator 4 view .LVU2931
.LBE142:
	.loc 1 820 303 is_stmt 1 discriminator 4 view .LVU2932
	.loc 1 820 304 discriminator 4 view .LVU2933
.LBB143:
	.loc 1 821 7 discriminator 4 view .LVU2934
	.loc 1 821 39 discriminator 4 view .LVU2935
	.loc 1 821 66 discriminator 4 view .LVU2936
	.loc 1 821 94 discriminator 4 view .LVU2937
	.loc 1 821 122 discriminator 4 view .LVU2938
	.loc 1 821 106 is_stmt 0 discriminator 4 view .LVU2939
	mov	r3, r6
.LVL905:
.L505:
	.loc 1 821 127 is_stmt 1 discriminator 1 view .LVU2940
	cmp	r3, #127
	bls	.L513
	.loc 1 821 150 discriminator 3 view .LVU2941
.LVL906:
	.loc 1 821 171 is_stmt 0 discriminator 3 view .LVU2942
	orn	r2, r3, #127
	.loc 1 821 169 discriminator 3 view .LVU2943
	strb	r2, [r1], #1
.LVL907:
	.loc 1 821 208 is_stmt 1 discriminator 3 view .LVU2944
	.loc 1 821 220 is_stmt 0 discriminator 3 view .LVU2945
	lsrs	r3, r3, #7
.LVL908:
	.loc 1 821 220 discriminator 3 view .LVU2946
	b	.L505
.L513:
	.loc 1 821 228 is_stmt 1 discriminator 4 view .LVU2947
	.loc 1 821 230 discriminator 4 view .LVU2948
.LVL909:
	.loc 1 821 249 is_stmt 0 discriminator 4 view .LVU2949
	strb	r3, [r1], #1
.LVL910:
	.loc 1 821 279 is_stmt 1 discriminator 4 view .LVU2950
	.loc 1 821 279 is_stmt 0 discriminator 4 view .LVU2951
.LBE143:
	.loc 1 821 308 is_stmt 1 discriminator 4 view .LVU2952
	.loc 1 821 309 discriminator 4 view .LVU2953
	.loc 1 822 5 discriminator 4 view .LVU2954
	.loc 1 823 5 discriminator 4 view .LVU2955
	.loc 1 822 12 is_stmt 0 discriminator 4 view .LVU2956
	mov	r0, sp
	.loc 1 823 11 discriminator 4 view .LVU2957
	b	.L507
.LVL911:
.L515:
.LBB144:
	.loc 1 824 227 is_stmt 1 discriminator 4 view .LVU2958
	.loc 1 824 229 discriminator 4 view .LVU2959
	.loc 1 824 248 is_stmt 0 discriminator 4 view .LVU2960
	strb	r3, [r1], #1
.LVL912:
	.loc 1 824 278 is_stmt 1 discriminator 4 view .LVU2961
	.loc 1 824 278 is_stmt 0 discriminator 4 view .LVU2962
.LBE144:
	.loc 1 824 307 is_stmt 1 discriminator 4 view .LVU2963
	.loc 1 824 308 discriminator 4 view .LVU2964
	.loc 1 825 7 discriminator 4 view .LVU2965
	.loc 1 825 13 is_stmt 0 discriminator 4 view .LVU2966
	adds	r0, r0, #4
.LVL913:
	.loc 1 823 24 discriminator 4 view .LVU2967
	mov	r6, r7
.LVL914:
.L507:
	.loc 1 823 11 is_stmt 1 view .LVU2968
	.loc 1 823 24 is_stmt 0 view .LVU2969
	subs	r7, r6, #1
.LVL915:
	.loc 1 823 11 view .LVU2970
	cbz	r6, .L514
.LBB145:
	.loc 1 824 9 is_stmt 1 view .LVU2971
	.loc 1 824 41 view .LVU2972
	.loc 1 824 68 view .LVU2973
.LVL916:
	.loc 1 824 96 view .LVU2974
	.loc 1 824 108 is_stmt 0 view .LVU2975
	ldr	r3, [r0]
.LVL917:
	.loc 1 824 121 is_stmt 1 view .LVU2976
.L508:
	.loc 1 824 126 discriminator 1 view .LVU2977
	cmp	r3, #127
	bls	.L515
	.loc 1 824 149 discriminator 3 view .LVU2978
.LVL918:
	.loc 1 824 170 is_stmt 0 discriminator 3 view .LVU2979
	orn	r2, r3, #127
	.loc 1 824 168 discriminator 3 view .LVU2980
	strb	r2, [r1], #1
.LVL919:
	.loc 1 824 207 is_stmt 1 discriminator 3 view .LVU2981
	.loc 1 824 219 is_stmt 0 discriminator 3 view .LVU2982
	lsrs	r3, r3, #7
.LVL920:
	.loc 1 824 219 discriminator 3 view .LVU2983
	b	.L508
.LVL921:
.L514:
	.loc 1 824 219 discriminator 3 view .LVU2984
.LBE145:
	.loc 1 827 5 is_stmt 1 view .LVU2985
	movs	r2, #26
	mov	r0, r4
.LVL922:
	.loc 1 827 5 is_stmt 0 view .LVU2986
	bl	_SendPacket
.LVL923:
	.loc 1 828 5 is_stmt 1 view .LVU2987
	.syntax unified
@ 828 "C:\nRF5_SDK_15.0.0_a53641a\examples\ble_peripheral\slam_application-master\systemView\SEGGER_SYSVIEW.c" 1
	msr   basepri, r5  
	
@ 0 "" 2
	.thumb
	.syntax unified
.LBE141:
	.loc 1 828 73 view .LVU2988
	.loc 1 830 3 view .LVU2989
	.loc 1 831 1 is_stmt 0 view .LVU2990
	movs	r0, #0
	add	sp, sp, #64
.LCFI70:
	@ sp needed
	pop	{r4, r5, r6, r7, r8, pc}
.LVL924:
.L517:
	.loc 1 831 1 view .LVU2991
	.align	2
.L516:
	.word	.LANCHOR3
.LFE6:
	.size	_VPrintHost, .-_VPrintHost
	.section	.text._StoreChar,"ax",%progbits
	.align	1
	.syntax unified
	.thumb
	.thumb_func
	.fpu fpv4-sp-d16
	.type	_StoreChar, %function
_StoreChar:
.LVL925:
.LFB7:
	.loc 1 845 64 is_stmt 1 view -0
	@ args = 0, pretend = 0, frame = 0
	@ frame_needed = 0, uses_anonymous_args = 0
	.loc 1 845 64 is_stmt 0 view .LVU2993
	push	{r3, r4, r5, lr}
.LCFI71:
	mov	r4, r0
	.loc 1 846 3 is_stmt 1 view .LVU2994
	.loc 1 847 3 view .LVU2995
	.loc 1 848 3 view .LVU2996
	.loc 1 850 3 view .LVU2997
	.loc 1 850 7 is_stmt 0 view .LVU2998
	ldr	r3, [r0, #16]
.LVL926:
	.loc 1 851 3 is_stmt 1 view .LVU2999
	.loc 1 851 12 is_stmt 0 view .LVU3000
	adds	r3, r3, #1
.LVL927:
	.loc 1 851 6 view .LVU3001
	cmp	r3, #128
	bhi	.L519
	.loc 1 852 5 is_stmt 1 view .LVU3002
	.loc 1 852 8 is_stmt 0 view .LVU3003
	ldr	r2, [r0, #4]
	.loc 1 852 18 view .LVU3004
	adds	r0, r2, #1
.LVL928:
	.loc 1 852 18 view .LVU3005
	str	r0, [r4, #4]
	.loc 1 852 22 view .LVU3006
	strb	r1, [r2]
.LVL929:
	.loc 1 853 5 is_stmt 1 view .LVU3007
	.loc 1 853 12 is_stmt 0 view .LVU3008
	str	r3, [r4, #16]
.L519:
	.loc 1 858 3 is_stmt 1 view .LVU3009
	.loc 1 858 8 is_stmt 0 view .LVU3010
	ldr	r3, [r4, #16]
.LVL930:
	.loc 1 858 6 view .LVU3011
	cmp	r3, #128
	beq	.L524
.LVL931:
.L518:
	.loc 1 869 1 view .LVU3012
	pop	{r3, r4, r5, pc}
.LVL932:
.L524:
	.loc 1 859 5 is_stmt 1 view .LVU3013
	.loc 1 859 8 is_stmt 0 view .LVU3014
	ldr	r2, [r4, #8]
	.loc 1 859 25 view .LVU3015
	strb	r3, [r2]
	.loc 1 860 5 is_stmt 1 view .LVU3016
	.loc 1 860 14 is_stmt 0 view .LVU3017
	ldr	r3, [r4, #4]
.LVL933:
	.loc 1 861 5 is_stmt 1 view .LVU3018
	.loc 1 861 13 is_stmt 0 view .LVU3019
	ldr	r2, [r4, #12]
.LVL934:
.LBB146:
	.loc 1 862 7 is_stmt 1 view .LVU3020
	.loc 1 862 39 view .LVU3021
	.loc 1 862 66 view .LVU3022
	.loc 1 862 94 view .LVU3023
	.loc 1 862 117 view .LVU3024
.L521:
	.loc 1 862 122 discriminator 1 view .LVU3025
	cmp	r2, #127
	bls	.L525
	.loc 1 862 145 discriminator 3 view .LVU3026
.LVL935:
	.loc 1 862 166 is_stmt 0 discriminator 3 view .LVU3027
	orn	r1, r2, #127
	.loc 1 862 164 discriminator 3 view .LVU3028
	strb	r1, [r3], #1
.LVL936:
	.loc 1 862 203 is_stmt 1 discriminator 3 view .LVU3029
	.loc 1 862 215 is_stmt 0 discriminator 3 view .LVU3030
	lsrs	r2, r2, #7
.LVL937:
	.loc 1 862 215 discriminator 3 view .LVU3031
	b	.L521
.L525:
	.loc 1 862 223 is_stmt 1 discriminator 4 view .LVU3032
	.loc 1 862 225 discriminator 4 view .LVU3033
.LVL938:
	.loc 1 862 244 is_stmt 0 discriminator 4 view .LVU3034
	mov	r1, r3
	strb	r2, [r1], #2
	.loc 1 862 274 is_stmt 1 discriminator 4 view .LVU3035
.LVL939:
	.loc 1 862 274 is_stmt 0 discriminator 4 view .LVU3036
.LBE146:
	.loc 1 862 303 is_stmt 1 discriminator 4 view .LVU3037
	.loc 1 862 304 discriminator 4 view .LVU3038
.LBB147:
	.loc 1 863 7 discriminator 4 view .LVU3039
	.loc 1 863 39 discriminator 4 view .LVU3040
	.loc 1 863 66 discriminator 4 view .LVU3041
	.loc 1 863 94 discriminator 4 view .LVU3042
	.loc 1 863 111 discriminator 4 view .LVU3043
	.loc 1 863 116 discriminator 4 view .LVU3044
	.loc 1 863 217 discriminator 4 view .LVU3045
	.loc 1 863 219 discriminator 4 view .LVU3046
	.loc 1 863 238 is_stmt 0 discriminator 4 view .LVU3047
	movs	r5, #0
	strb	r5, [r3, #1]
	.loc 1 863 268 is_stmt 1 discriminator 4 view .LVU3048
.LVL940:
	.loc 1 863 268 is_stmt 0 discriminator 4 view .LVU3049
.LBE147:
	.loc 1 863 297 is_stmt 1 discriminator 4 view .LVU3050
	.loc 1 863 298 discriminator 4 view .LVU3051
	.loc 1 864 5 discriminator 4 view .LVU3052
	movs	r2, #26
.LVL941:
	.loc 1 864 5 is_stmt 0 discriminator 4 view .LVU3053
	ldr	r0, [r4, #8]
	bl	_SendPacket
.LVL942:
	.loc 1 865 5 is_stmt 1 discriminator 4 view .LVU3054
	.loc 1 865 24 is_stmt 0 discriminator 4 view .LVU3055
	ldr	r0, [r4]
	bl	_PreparePacket
.LVL943:
	.loc 1 865 22 discriminator 4 view .LVU3056
	str	r0, [r4, #8]
	.loc 1 866 5 is_stmt 1 discriminator 4 view .LVU3057
	.loc 1 866 36 is_stmt 0 discriminator 4 view .LVU3058
	adds	r0, r0, #1
	.loc 1 866 17 discriminator 4 view .LVU3059
	str	r0, [r4, #4]
	.loc 1 867 5 is_stmt 1 discriminator 4 view .LVU3060
	.loc 1 867 12 is_stmt 0 discriminator 4 view .LVU3061
	str	r5, [r4, #16]
	.loc 1 869 1 discriminator 4 view .LVU3062
	b	.L518
.LFE7:
	.size	_StoreChar, .-_StoreChar
	.section	.text._PrintUnsigned,"ax",%progbits
	.align	1
	.syntax unified
	.thumb
	.thumb_func
	.fpu fpv4-sp-d16
	.type	_PrintUnsigned, %function
_PrintUnsigned:
.LVL944:
.LFB8:
	.loc 1 887 180 is_stmt 1 view -0
	@ args = 8, pretend = 0, frame = 0
	@ frame_needed = 0, uses_anonymous_args = 0
	.loc 1 887 180 is_stmt 0 view .LVU3064
	push	{r3, r4, r5, r6, r7, r8, r9, r10, fp, lr}
.LCFI72:
	mov	r10, r0
	mov	r7, r1
	mov	r5, r2
	mov	r6, r3
	ldr	r9, [sp, #40]
	ldr	r2, [sp, #44]
.LVL945:
	.loc 1 888 3 is_stmt 1 view .LVU3065
	.loc 1 889 3 view .LVU3066
	.loc 1 890 3 view .LVU3067
	.loc 1 891 3 view .LVU3068
	.loc 1 892 3 view .LVU3069
	.loc 1 893 3 view .LVU3070
	.loc 1 895 3 view .LVU3071
	.loc 1 896 3 view .LVU3072
	.loc 1 900 3 view .LVU3073
	.loc 1 901 3 view .LVU3074
	.loc 1 895 10 is_stmt 0 view .LVU3075
	mov	r3, r1
.LVL946:
	.loc 1 900 9 view .LVU3076
	mov	r8, #1
	.loc 1 901 9 view .LVU3077
	b	.L527
.LVL947:
.L528:
	.loc 1 902 5 is_stmt 1 view .LVU3078
	.loc 1 902 12 is_stmt 0 view .LVU3079
	udiv	r3, r3, r5
.LVL948:
	.loc 1 903 5 is_stmt 1 view .LVU3080
	.loc 1 903 10 is_stmt 0 view .LVU3081
	add	r8, r8, #1
.LVL949:
.L527:
	.loc 1 901 9 is_stmt 1 view .LVU3082
	cmp	r3, r5
	bcs	.L528
	.loc 1 905 3 view .LVU3083
	.loc 1 905 6 is_stmt 0 view .LVU3084
	cmp	r8, r6
	bcs	.L529
	.loc 1 906 11 view .LVU3085
	mov	r8, r6
.LVL950:
.L529:
	.loc 1 911 3 is_stmt 1 view .LVU3086
	.loc 1 911 6 is_stmt 0 view .LVU3087
	ands	fp, r2, #1
	bne	.L530
	.loc 1 912 5 is_stmt 1 view .LVU3088
	.loc 1 912 8 is_stmt 0 view .LVU3089
	cmp	r9, #0
	beq	.L530
	.loc 1 913 7 is_stmt 1 view .LVU3090
	.loc 1 913 10 is_stmt 0 view .LVU3091
	tst	r2, #2
	beq	.L542
	.loc 1 913 52 discriminator 1 view .LVU3092
	cbz	r6, .L543
	.loc 1 916 11 view .LVU3093
	movs	r4, #32
	b	.L532
.LVL951:
.L533:
	.loc 1 919 9 is_stmt 1 view .LVU3094
	.loc 1 919 19 is_stmt 0 view .LVU3095
	add	r9, r9, #-1
.LVL952:
	.loc 1 920 9 is_stmt 1 view .LVU3096
	mov	r1, r4
	mov	r0, r10
	bl	_StoreChar
.LVL953:
.L532:
	.loc 1 918 13 view .LVU3097
	cmp	r9, #0
	beq	.L530
	.loc 1 918 33 is_stmt 0 discriminator 1 view .LVU3098
	cmp	r9, r8
	bhi	.L533
.LVL954:
.L530:
	.loc 1 916 11 view .LVU3099
	movs	r4, #1
	b	.L537
.LVL955:
.L542:
	.loc 1 916 11 view .LVU3100
	movs	r4, #32
	b	.L532
.L543:
	.loc 1 914 11 view .LVU3101
	movs	r4, #48
	b	.L532
.LVL956:
.L534:
	.loc 1 933 7 is_stmt 1 view .LVU3102
	.loc 1 933 11 is_stmt 0 view .LVU3103
	udiv	r3, r7, r4
.LVL957:
	.loc 1 934 7 is_stmt 1 view .LVU3104
	.loc 1 934 10 is_stmt 0 view .LVU3105
	cmp	r5, r3
	bhi	.L536
.LVL958:
.L535:
	.loc 1 938 5 is_stmt 1 view .LVU3106
	.loc 1 938 11 is_stmt 0 view .LVU3107
	mul	r4, r5, r4
.LVL959:
	.loc 1 929 9 is_stmt 1 view .LVU3108
.L537:
	.loc 1 929 3 view .LVU3109
	.loc 1 930 5 view .LVU3110
	.loc 1 930 8 is_stmt 0 view .LVU3111
	cmp	r6, #1
	bls	.L534
	.loc 1 931 7 is_stmt 1 view .LVU3112
	.loc 1 931 16 is_stmt 0 view .LVU3113
	subs	r6, r6, #1
.LVL960:
	.loc 1 931 16 view .LVU3114
	b	.L535
.LVL961:
.L536:
	.loc 1 943 3 is_stmt 1 discriminator 1 view .LVU3115
	.loc 1 944 5 discriminator 1 view .LVU3116
	.loc 1 944 9 is_stmt 0 discriminator 1 view .LVU3117
	udiv	r3, r7, r4
.LVL962:
	.loc 1 945 5 is_stmt 1 discriminator 1 view .LVU3118
	mls	r7, r4, r3, r7
.LVL963:
	.loc 1 946 5 discriminator 1 view .LVU3119
	ldr	r2, .L545
	ldrb	r1, [r2, r3]	@ zero_extendqisi2
	mov	r0, r10
	bl	_StoreChar
.LVL964:
	.loc 1 947 5 discriminator 1 view .LVU3120
	mov	r3, r4
	.loc 1 947 11 is_stmt 0 discriminator 1 view .LVU3121
	udiv	r4, r4, r5
.LVL965:
	.loc 1 948 11 is_stmt 1 discriminator 1 view .LVU3122
	.loc 1 948 3 is_stmt 0 discriminator 1 view .LVU3123
	cmp	r3, r5
	bcs	.L536
	.loc 1 952 3 is_stmt 1 view .LVU3124
	.loc 1 952 6 is_stmt 0 view .LVU3125
	cmp	fp, #0
	beq	.L526
	.loc 1 953 5 is_stmt 1 view .LVU3126
	.loc 1 953 8 is_stmt 0 view .LVU3127
	cmp	r9, #0
	bne	.L539
.L526:
	.loc 1 960 1 view .LVU3128
	pop	{r3, r4, r5, r6, r7, r8, r9, r10, fp, pc}
.LVL966:
.L540:
	.loc 1 955 9 is_stmt 1 view .LVU3129
	.loc 1 955 19 is_stmt 0 view .LVU3130
	add	r9, r9, #-1
.LVL967:
	.loc 1 956 9 is_stmt 1 view .LVU3131
	movs	r1, #32
	mov	r0, r10
	bl	_StoreChar
.LVL968:
.L539:
	.loc 1 954 13 view .LVU3132
	cmp	r9, #0
	beq	.L526
	.loc 1 954 33 is_stmt 0 discriminator 1 view .LVU3133
	cmp	r9, r8
	bhi	.L540
	b	.L526
.L546:
	.align	2
.L545:
	.word	.LANCHOR6
.LFE8:
	.size	_PrintUnsigned, .-_PrintUnsigned
	.section	.text._PrintInt,"ax",%progbits
	.align	1
	.syntax unified
	.thumb
	.thumb_func
	.fpu fpv4-sp-d16
	.type	_PrintInt, %function
_PrintInt:
.LVL969:
.LFB9:
	.loc 1 978 166 is_stmt 1 view -0
	@ args = 8, pretend = 0, frame = 0
	@ frame_needed = 0, uses_anonymous_args = 0
	.loc 1 978 166 is_stmt 0 view .LVU3135
	push	{r4, r5, r6, r7, r8, r9, r10, fp, lr}
.LCFI73:
	sub	sp, sp, #12
.LCFI74:
	mov	r9, r0
	mov	r8, r1
	mov	r5, r2
	mov	r10, r3
	ldr	r7, [sp, #48]
	ldr	fp, [sp, #52]
	.loc 1 979 3 is_stmt 1 view .LVU3136
	.loc 1 980 3 view .LVU3137
	.loc 1 982 3 view .LVU3138
	.loc 1 982 10 is_stmt 0 view .LVU3139
	eor	r4, r1, r1, asr #31
	sub	r4, r4, r1, asr #31
.LVL970:
	.loc 1 987 3 is_stmt 1 view .LVU3140
	.loc 1 988 3 view .LVU3141
	.loc 1 987 9 is_stmt 0 view .LVU3142
	movs	r6, #1
.LVL971:
.L548:
	.loc 1 988 9 is_stmt 1 view .LVU3143
	cmp	r5, r4
	bgt	.L564
	.loc 1 989 5 view .LVU3144
	.loc 1 989 12 is_stmt 0 view .LVU3145
	sdiv	r4, r4, r5
.LVL972:
	.loc 1 990 5 is_stmt 1 view .LVU3146
	.loc 1 990 10 is_stmt 0 view .LVU3147
	adds	r6, r6, #1
.LVL973:
	.loc 1 990 10 view .LVU3148
	b	.L548
.L564:
	.loc 1 992 3 is_stmt 1 view .LVU3149
	.loc 1 992 6 is_stmt 0 view .LVU3150
	cmp	r6, r10
	bcs	.L550
	.loc 1 993 11 view .LVU3151
	mov	r6, r10
.LVL974:
.L550:
	.loc 1 995 3 is_stmt 1 view .LVU3152
	.loc 1 995 6 is_stmt 0 view .LVU3153
	cbz	r7, .L551
	.loc 1 995 25 discriminator 1 view .LVU3154
	cmp	r8, #0
	blt	.L552
	.loc 1 995 37 discriminator 2 view .LVU3155
	tst	fp, #4
	beq	.L551
.L552:
	.loc 1 996 5 is_stmt 1 view .LVU3156
	.loc 1 996 15 is_stmt 0 view .LVU3157
	subs	r7, r7, #1
.LVL975:
.L551:
	.loc 1 1002 3 is_stmt 1 view .LVU3158
	.loc 1 1002 6 is_stmt 0 view .LVU3159
	tst	fp, #2
	beq	.L553
	.loc 1 1002 42 discriminator 2 view .LVU3160
	cmp	r10, #0
	beq	.L554
.L553:
	.loc 1 1002 64 discriminator 3 view .LVU3161
	tst	fp, #1
	bne	.L554
	.loc 1 1003 5 is_stmt 1 view .LVU3162
	.loc 1 1003 8 is_stmt 0 view .LVU3163
	cbnz	r7, .L555
.LVL976:
.L554:
	.loc 1 1013 3 is_stmt 1 view .LVU3164
	.loc 1 1013 6 is_stmt 0 view .LVU3165
	cmp	r8, #0
	blt	.L565
	.loc 1 1016 10 is_stmt 1 view .LVU3166
	.loc 1 1016 13 is_stmt 0 view .LVU3167
	tst	fp, #4
	bne	.L566
.L558:
	.loc 1 1020 3 is_stmt 1 view .LVU3168
	.loc 1 1024 3 view .LVU3169
	.loc 1 1024 48 is_stmt 0 view .LVU3170
	and	r3, fp, #3
	.loc 1 1024 6 view .LVU3171
	cmp	r3, #2
	beq	.L567
.L559:
	.loc 1 1035 3 is_stmt 1 view .LVU3172
	str	fp, [sp, #4]
	str	r7, [sp]
	mov	r3, r10
	mov	r2, r5
	mov	r1, r8
	mov	r0, r9
	bl	_PrintUnsigned
.LVL977:
	.loc 1 1036 1 is_stmt 0 view .LVU3173
	add	sp, sp, #12
.LCFI75:
	@ sp needed
	pop	{r4, r5, r6, r7, r8, r9, r10, fp, pc}
.LVL978:
.L556:
.LCFI76:
	.loc 1 1005 9 is_stmt 1 view .LVU3174
	.loc 1 1005 19 is_stmt 0 view .LVU3175
	subs	r7, r7, #1
.LVL979:
	.loc 1 1006 9 is_stmt 1 view .LVU3176
	movs	r1, #32
	mov	r0, r9
	bl	_StoreChar
.LVL980:
.L555:
	.loc 1 1004 13 view .LVU3177
	cmp	r7, #0
	beq	.L554
	.loc 1 1004 33 is_stmt 0 discriminator 1 view .LVU3178
	cmp	r7, r6
	bhi	.L556
	b	.L554
.L565:
	.loc 1 1014 5 is_stmt 1 view .LVU3179
	.loc 1 1014 7 is_stmt 0 view .LVU3180
	rsb	r8, r8, #0
.LVL981:
	.loc 1 1015 5 is_stmt 1 view .LVU3181
	movs	r1, #45
	mov	r0, r9
	bl	_StoreChar
.LVL982:
	b	.L558
.L566:
	.loc 1 1017 5 view .LVU3182
	movs	r1, #43
	mov	r0, r9
	bl	_StoreChar
.LVL983:
	b	.L558
.L567:
	.loc 1 1024 85 is_stmt 0 discriminator 1 view .LVU3183
	cmp	r10, #0
	bne	.L559
	.loc 1 1025 5 is_stmt 1 view .LVU3184
	.loc 1 1025 8 is_stmt 0 view .LVU3185
	cbnz	r7, .L560
	b	.L559
.L561:
	.loc 1 1027 9 is_stmt 1 view .LVU3186
	.loc 1 1027 19 is_stmt 0 view .LVU3187
	subs	r7, r7, #1
.LVL984:
	.loc 1 1028 9 is_stmt 1 view .LVU3188
	movs	r1, #48
	mov	r0, r9
	bl	_StoreChar
.LVL985:
.L560:
	.loc 1 1026 13 view .LVU3189
	cmp	r7, #0
	beq	.L559
	.loc 1 1026 33 is_stmt 0 discriminator 1 view .LVU3190
	cmp	r7, r6
	bhi	.L561
	b	.L559
.LFE9:
	.size	_PrintInt, .-_PrintInt
	.section	.text._VPrintTarget,"ax",%progbits
	.align	1
	.syntax unified
	.thumb
	.thumb_func
	.fpu fpv4-sp-d16
	.type	_VPrintTarget, %function
_VPrintTarget:
.LVL986:
.LFB10:
	.loc 1 1051 92 is_stmt 1 view -0
	@ args = 0, pretend = 0, frame = 24
	@ frame_needed = 0, uses_anonymous_args = 0
	.loc 1 1051 92 is_stmt 0 view .LVU3192
	push	{r4, r5, r6, r7, r8, lr}
.LCFI77:
	sub	sp, sp, #32
.LCFI78:
	mov	r4, r0
	mov	r7, r1
	mov	r5, r2
	.loc 1 1052 3 is_stmt 1 view .LVU3193
	.loc 1 1053 3 view .LVU3194
	.loc 1 1054 3 view .LVU3195
	.loc 1 1055 3 view .LVU3196
	.loc 1 1056 3 view .LVU3197
	.loc 1 1057 3 view .LVU3198
	.loc 1 1058 3 view .LVU3199
.LBB148:
	.loc 1 1063 5 view .LVU3200
	.loc 1 1063 29 view .LVU3201
	.syntax unified
@ 1063 "C:\nRF5_SDK_15.0.0_a53641a\examples\ble_peripheral\slam_application-master\systemView\SEGGER_SYSVIEW.c" 1
	mrs   r6, basepri  
	mov   r1, #32       
	msr   basepri, r1  
	
@ 0 "" 2
.LVL987:
	.loc 1 1063 165 view .LVU3202
	.loc 1 1063 167 view .LVU3203
	.loc 1 1063 183 is_stmt 0 view .LVU3204
	.thumb
	.syntax unified
	ldr	r8, .L604
	mov	r0, r8
.LVL988:
	.loc 1 1063 183 view .LVU3205
	bl	_PreparePacket
.LVL989:
	.loc 1 1063 208 is_stmt 1 view .LVU3206
	.loc 1 1069 3 view .LVU3207
	.loc 1 1069 22 is_stmt 0 view .LVU3208
	str	r8, [sp, #12]
	.loc 1 1071 3 is_stmt 1 view .LVU3209
	.loc 1 1071 18 is_stmt 0 view .LVU3210
	movs	r3, #0
	str	r3, [sp, #28]
	.loc 1 1072 3 is_stmt 1 view .LVU3211
	.loc 1 1072 28 is_stmt 0 view .LVU3212
	str	r0, [sp, #20]
	.loc 1 1073 3 is_stmt 1 view .LVU3213
	.loc 1 1073 50 is_stmt 0 view .LVU3214
	adds	r0, r0, #1
.LVL990:
	.loc 1 1073 23 view .LVU3215
	str	r0, [sp, #16]
	.loc 1 1074 3 is_stmt 1 view .LVU3216
	.loc 1 1074 22 is_stmt 0 view .LVU3217
	str	r7, [sp, #24]
	b	.L594
.LVL991:
.L602:
	.loc 1 1086 19 view .LVU3218
	movs	r0, #0
	.loc 1 1087 9 view .LVU3219
	movs	r2, #1
	b	.L577
.LVL992:
.L574:
	.loc 1 1091 19 is_stmt 1 view .LVU3220
	.loc 1 1091 31 is_stmt 0 view .LVU3221
	orr	r0, r0, #1
.LVL993:
	.loc 1 1091 45 is_stmt 1 view .LVU3222
	.loc 1 1091 52 is_stmt 0 view .LVU3223
	adds	r4, r4, #1
.LVL994:
	.loc 1 1091 56 is_stmt 1 view .LVU3224
	.loc 1 1091 9 is_stmt 0 view .LVU3225
	b	.L571
.L572:
	.loc 1 1092 19 is_stmt 1 view .LVU3226
	.loc 1 1092 31 is_stmt 0 view .LVU3227
	orr	r0, r0, #2
.LVL995:
	.loc 1 1092 45 is_stmt 1 view .LVU3228
	.loc 1 1092 52 is_stmt 0 view .LVU3229
	adds	r4, r4, #1
.LVL996:
	.loc 1 1092 56 is_stmt 1 view .LVU3230
	.loc 1 1092 9 is_stmt 0 view .LVU3231
	b	.L571
.L575:
	.loc 1 1093 19 is_stmt 1 view .LVU3232
	.loc 1 1093 31 is_stmt 0 view .LVU3233
	orr	r0, r0, #4
.LVL997:
	.loc 1 1093 45 is_stmt 1 view .LVU3234
	.loc 1 1093 52 is_stmt 0 view .LVU3235
	adds	r4, r4, #1
.LVL998:
	.loc 1 1093 56 is_stmt 1 view .LVU3236
	.loc 1 1093 9 is_stmt 0 view .LVU3237
	b	.L571
.L576:
	.loc 1 1094 19 is_stmt 1 view .LVU3238
	.loc 1 1094 31 is_stmt 0 view .LVU3239
	orr	r0, r0, #8
.LVL999:
	.loc 1 1094 45 is_stmt 1 view .LVU3240
	.loc 1 1094 52 is_stmt 0 view .LVU3241
	adds	r4, r4, #1
.LVL1000:
	.loc 1 1094 56 is_stmt 1 view .LVU3242
	.loc 1 1094 9 is_stmt 0 view .LVU3243
	b	.L571
.L598:
	.loc 1 1089 11 view .LVU3244
	movs	r2, #0
.LVL1001:
.L571:
	.loc 1 1097 15 is_stmt 1 view .LVU3245
	.loc 1 1097 7 is_stmt 0 view .LVU3246
	cbz	r2, .L579
.LVL1002:
.L577:
	.loc 1 1088 7 is_stmt 1 view .LVU3247
	.loc 1 1089 9 view .LVU3248
	.loc 1 1089 11 is_stmt 0 view .LVU3249
	ldrb	r3, [r4]	@ zero_extendqisi2
.LVL1003:
	.loc 1 1090 9 is_stmt 1 view .LVU3250
	subs	r3, r3, #35
.LVL1004:
	.loc 1 1090 9 is_stmt 0 view .LVU3251
	cmp	r3, #13
	bhi	.L598
	adr	r1, .L573
	ldr	pc, [r1, r3, lsl #2]
	.p2align 2
.L573:
	.word	.L576+1
	.word	.L598+1
	.word	.L598+1
	.word	.L598+1
	.word	.L598+1
	.word	.L598+1
	.word	.L598+1
	.word	.L598+1
	.word	.L575+1
	.word	.L598+1
	.word	.L574+1
	.word	.L598+1
	.word	.L598+1
	.word	.L572+1
.LVL1005:
	.p2align 1
.L579:
	.loc 1 1102 7 is_stmt 1 view .LVU3252
	.loc 1 1103 9 view .LVU3253
	.loc 1 1103 11 is_stmt 0 view .LVU3254
	ldrb	r3, [r4]	@ zero_extendqisi2
.LVL1006:
	.loc 1 1104 9 is_stmt 1 view .LVU3255
	.loc 1 1104 23 is_stmt 0 view .LVU3256
	sub	r1, r3, #48
	uxtb	r1, r1
	.loc 1 1104 12 view .LVU3257
	cmp	r1, #9
	bhi	.L578
	.loc 1 1107 9 is_stmt 1 view .LVU3258
	.loc 1 1107 16 is_stmt 0 view .LVU3259
	adds	r4, r4, #1
.LVL1007:
	.loc 1 1108 9 is_stmt 1 view .LVU3260
	.loc 1 1108 34 is_stmt 0 view .LVU3261
	add	r2, r2, r2, lsl #2
.LVL1008:
	.loc 1 1108 41 view .LVU3262
	add	r3, r3, r2, lsl #1
.LVL1009:
	.loc 1 1108 20 view .LVU3263
	sub	r2, r3, #48
.LVL1010:
	.loc 1 1109 15 is_stmt 1 view .LVU3264
	.loc 1 1103 11 is_stmt 0 view .LVU3265
	b	.L579
.LVL1011:
.L578:
	.loc 1 1114 7 is_stmt 1 view .LVU3266
	.loc 1 1115 7 view .LVU3267
	.loc 1 1116 7 view .LVU3268
	.loc 1 1116 10 is_stmt 0 view .LVU3269
	cmp	r3, #46
	beq	.L601
	.loc 1 1114 17 view .LVU3270
	movs	r3, #0
.LVL1012:
.L580:
	.loc 1 1130 7 is_stmt 1 view .LVU3271
	.loc 1 1130 9 is_stmt 0 view .LVU3272
	ldrb	r1, [r4]	@ zero_extendqisi2
.LVL1013:
	.loc 1 1130 9 view .LVU3273
	b	.L584
.LVL1014:
.L601:
	.loc 1 1117 9 is_stmt 1 view .LVU3274
	.loc 1 1117 16 is_stmt 0 view .LVU3275
	adds	r4, r4, #1
.LVL1015:
	.loc 1 1114 17 view .LVU3276
	movs	r3, #0
.LVL1016:
.L581:
	.loc 1 1118 9 is_stmt 1 view .LVU3277
	.loc 1 1119 11 view .LVU3278
	.loc 1 1119 13 is_stmt 0 view .LVU3279
	ldrb	r1, [r4]	@ zero_extendqisi2
.LVL1017:
	.loc 1 1120 11 is_stmt 1 view .LVU3280
	.loc 1 1120 25 is_stmt 0 view .LVU3281
	sub	r7, r1, #48
	uxtb	r7, r7
	.loc 1 1120 14 view .LVU3282
	cmp	r7, #9
	bhi	.L580
	.loc 1 1123 11 is_stmt 1 view .LVU3283
	.loc 1 1123 18 is_stmt 0 view .LVU3284
	adds	r4, r4, #1
.LVL1018:
	.loc 1 1124 11 is_stmt 1 view .LVU3285
	.loc 1 1124 33 is_stmt 0 view .LVU3286
	add	r3, r3, r3, lsl #2
.LVL1019:
	.loc 1 1124 39 view .LVU3287
	add	r3, r1, r3, lsl #1
	.loc 1 1124 21 view .LVU3288
	subs	r3, r3, #48
.LVL1020:
	.loc 1 1125 17 is_stmt 1 view .LVU3289
	.loc 1 1119 13 is_stmt 0 view .LVU3290
	b	.L581
.L582:
	.loc 1 1133 11 is_stmt 1 view .LVU3291
	.loc 1 1133 13 is_stmt 0 view .LVU3292
	ldrb	r1, [r4], #1	@ zero_extendqisi2
.LVL1021:
	.loc 1 1134 11 is_stmt 1 view .LVU3293
	.loc 1 1138 15 view .LVU3294
.L584:
	.loc 1 1131 7 view .LVU3295
	.loc 1 1132 9 view .LVU3296
	.loc 1 1132 12 is_stmt 0 view .LVU3297
	cmp	r1, #108
	beq	.L582
	.loc 1 1132 24 discriminator 1 view .LVU3298
	cmp	r1, #104
	beq	.L582
	.loc 1 1142 7 is_stmt 1 view .LVU3299
	cmp	r1, #37
	beq	.L585
	bcc	.L586
	cmp	r1, #120
	bhi	.L586
	cmp	r1, #88
	bcc	.L586
	subs	r1, r1, #88
.LVL1022:
	.loc 1 1142 7 is_stmt 0 view .LVU3300
	cmp	r1, #32
	bhi	.L586
	tbb	[pc, r1]
.L588:
	.byte	(.L587-.L588)/2
	.byte	(.L586-.L588)/2
	.byte	(.L586-.L588)/2
	.byte	(.L586-.L588)/2
	.byte	(.L586-.L588)/2
	.byte	(.L586-.L588)/2
	.byte	(.L586-.L588)/2
	.byte	(.L586-.L588)/2
	.byte	(.L586-.L588)/2
	.byte	(.L586-.L588)/2
	.byte	(.L586-.L588)/2
	.byte	(.L592-.L588)/2
	.byte	(.L591-.L588)/2
	.byte	(.L586-.L588)/2
	.byte	(.L586-.L588)/2
	.byte	(.L586-.L588)/2
	.byte	(.L586-.L588)/2
	.byte	(.L586-.L588)/2
	.byte	(.L586-.L588)/2
	.byte	(.L586-.L588)/2
	.byte	(.L586-.L588)/2
	.byte	(.L586-.L588)/2
	.byte	(.L586-.L588)/2
	.byte	(.L586-.L588)/2
	.byte	(.L590-.L588)/2
	.byte	(.L586-.L588)/2
	.byte	(.L586-.L588)/2
	.byte	(.L586-.L588)/2
	.byte	(.L586-.L588)/2
	.byte	(.L589-.L588)/2
	.byte	(.L586-.L588)/2
	.byte	(.L586-.L588)/2
	.byte	(.L587-.L588)/2
	.p2align 1
.L592:
.LBB149:
	.loc 1 1144 9 is_stmt 1 view .LVU3301
	.loc 1 1145 9 view .LVU3302
	.loc 1 1145 11 is_stmt 0 view .LVU3303
	ldr	r3, [r5]
.LVL1023:
	.loc 1 1145 11 view .LVU3304
	adds	r2, r3, #4
.LVL1024:
	.loc 1 1145 11 view .LVU3305
	str	r2, [r5]
	.loc 1 1146 9 is_stmt 1 view .LVU3306
.LVL1025:
	.loc 1 1147 9 view .LVU3307
	ldrb	r1, [r3]	@ zero_extendqisi2
	add	r0, sp, #12
.LVL1026:
	.loc 1 1147 9 is_stmt 0 view .LVU3308
	bl	_StoreChar
.LVL1027:
	.loc 1 1148 9 is_stmt 1 view .LVU3309
.L586:
	.loc 1 1148 9 is_stmt 0 view .LVU3310
.LBE149:
	.loc 1 1173 7 is_stmt 1 view .LVU3311
	.loc 1 1173 14 is_stmt 0 view .LVU3312
	adds	r4, r4, #1
.LVL1028:
.L593:
	.loc 1 1177 11 is_stmt 1 view .LVU3313
	.loc 1 1177 12 is_stmt 0 view .LVU3314
	ldrb	r3, [r4]	@ zero_extendqisi2
	.loc 1 1177 3 view .LVU3315
	cmp	r3, #0
	beq	.L569
.L594:
	.loc 1 1076 3 is_stmt 1 view .LVU3316
	.loc 1 1077 5 view .LVU3317
	.loc 1 1077 7 is_stmt 0 view .LVU3318
	ldrb	r1, [r4], #1	@ zero_extendqisi2
.LVL1029:
	.loc 1 1078 5 is_stmt 1 view .LVU3319
	.loc 1 1079 5 view .LVU3320
	.loc 1 1079 8 is_stmt 0 view .LVU3321
	cmp	r1, #0
	beq	.L569
	.loc 1 1082 5 is_stmt 1 view .LVU3322
	.loc 1 1082 8 is_stmt 0 view .LVU3323
	cmp	r1, #37
	beq	.L602
	.loc 1 1175 7 is_stmt 1 view .LVU3324
	add	r0, sp, #12
	bl	_StoreChar
.LVL1030:
	.loc 1 1175 7 is_stmt 0 view .LVU3325
	b	.L593
.LVL1031:
.L591:
	.loc 1 1151 9 is_stmt 1 view .LVU3326
	.loc 1 1151 11 is_stmt 0 view .LVU3327
	ldr	r1, [r5]
	adds	r7, r1, #4
	str	r7, [r5]
	ldr	r1, [r1]
	.loc 1 1152 9 is_stmt 1 view .LVU3328
	str	r0, [sp, #4]
	str	r2, [sp]
	movs	r2, #10
.LVL1032:
	.loc 1 1152 9 is_stmt 0 view .LVU3329
	add	r0, sp, #12
.LVL1033:
	.loc 1 1152 9 view .LVU3330
	bl	_PrintInt
.LVL1034:
	.loc 1 1153 9 is_stmt 1 view .LVU3331
	b	.L586
.LVL1035:
.L589:
	.loc 1 1155 9 view .LVU3332
	.loc 1 1155 11 is_stmt 0 view .LVU3333
	ldr	r1, [r5]
	adds	r7, r1, #4
	str	r7, [r5]
	ldr	r1, [r1]
	.loc 1 1156 9 is_stmt 1 view .LVU3334
	str	r0, [sp, #4]
	str	r2, [sp]
	movs	r2, #10
.LVL1036:
	.loc 1 1156 9 is_stmt 0 view .LVU3335
	add	r0, sp, #12
.LVL1037:
	.loc 1 1156 9 view .LVU3336
	bl	_PrintUnsigned
.LVL1038:
	.loc 1 1157 9 is_stmt 1 view .LVU3337
	b	.L586
.LVL1039:
.L587:
	.loc 1 1160 9 view .LVU3338
	.loc 1 1160 11 is_stmt 0 view .LVU3339
	ldr	r1, [r5]
	adds	r7, r1, #4
	str	r7, [r5]
	ldr	r1, [r1]
	.loc 1 1161 9 is_stmt 1 view .LVU3340
	str	r0, [sp, #4]
	str	r2, [sp]
	movs	r2, #16
.LVL1040:
	.loc 1 1161 9 is_stmt 0 view .LVU3341
	add	r0, sp, #12
.LVL1041:
	.loc 1 1161 9 view .LVU3342
	bl	_PrintUnsigned
.LVL1042:
	.loc 1 1162 9 is_stmt 1 view .LVU3343
	b	.L586
.LVL1043:
.L590:
	.loc 1 1164 9 view .LVU3344
	.loc 1 1164 11 is_stmt 0 view .LVU3345
	ldr	r3, [r5]
.LVL1044:
	.loc 1 1164 11 view .LVU3346
	adds	r2, r3, #4
.LVL1045:
	.loc 1 1164 11 view .LVU3347
	str	r2, [r5]
	ldr	r1, [r3]
	.loc 1 1165 9 is_stmt 1 view .LVU3348
	movs	r3, #0
	str	r3, [sp, #4]
	movs	r3, #8
	str	r3, [sp]
	movs	r2, #16
	add	r0, sp, #12
.LVL1046:
	.loc 1 1165 9 is_stmt 0 view .LVU3349
	bl	_PrintUnsigned
.LVL1047:
	.loc 1 1166 9 is_stmt 1 view .LVU3350
	b	.L586
.LVL1048:
.L585:
	.loc 1 1168 9 view .LVU3351
	movs	r1, #37
.LVL1049:
	.loc 1 1168 9 is_stmt 0 view .LVU3352
	add	r0, sp, #12
.LVL1050:
	.loc 1 1168 9 view .LVU3353
	bl	_StoreChar
.LVL1051:
	.loc 1 1169 9 is_stmt 1 view .LVU3354
	b	.L586
.L569:
	.loc 1 1182 3 view .LVU3355
	.loc 1 1182 17 is_stmt 0 view .LVU3356
	ldr	r3, [sp, #28]
	.loc 1 1182 6 view .LVU3357
	cbz	r3, .L595
	.loc 1 1183 5 is_stmt 1 view .LVU3358
	.loc 1 1183 17 is_stmt 0 view .LVU3359
	ldr	r2, [sp, #20]
	.loc 1 1183 33 view .LVU3360
	strb	r3, [r2]
.LBB150:
	.loc 1 1184 7 is_stmt 1 view .LVU3361
	.loc 1 1184 39 view .LVU3362
	.loc 1 1184 66 view .LVU3363
	.loc 1 1184 82 is_stmt 0 view .LVU3364
	ldr	r3, [sp, #16]
.LVL1052:
	.loc 1 1184 105 is_stmt 1 view .LVU3365
	.loc 1 1184 117 is_stmt 0 view .LVU3366
	ldr	r2, [sp, #24]
.LVL1053:
	.loc 1 1184 139 is_stmt 1 view .LVU3367
.L596:
	.loc 1 1184 144 discriminator 1 view .LVU3368
	cmp	r2, #127
	bls	.L603
	.loc 1 1184 167 discriminator 3 view .LVU3369
.LVL1054:
	.loc 1 1184 188 is_stmt 0 discriminator 3 view .LVU3370
	orn	r1, r2, #127
	.loc 1 1184 186 discriminator 3 view .LVU3371
	strb	r1, [r3], #1
.LVL1055:
	.loc 1 1184 225 is_stmt 1 discriminator 3 view .LVU3372
	.loc 1 1184 237 is_stmt 0 discriminator 3 view .LVU3373
	lsrs	r2, r2, #7
.LVL1056:
	.loc 1 1184 237 discriminator 3 view .LVU3374
	b	.L596
.L603:
	.loc 1 1184 245 is_stmt 1 discriminator 4 view .LVU3375
	.loc 1 1184 247 discriminator 4 view .LVU3376
	.loc 1 1184 263 is_stmt 0 discriminator 4 view .LVU3377
	mov	r1, r3
.LVL1057:
	.loc 1 1184 266 discriminator 4 view .LVU3378
	strb	r2, [r1], #1
.LVL1058:
	.loc 1 1184 296 is_stmt 1 discriminator 4 view .LVU3379
.LBE150:
	.loc 1 1184 336 discriminator 4 view .LVU3380
	.loc 1 1184 337 discriminator 4 view .LVU3381
.LBB151:
	.loc 1 1185 7 discriminator 4 view .LVU3382
	.loc 1 1185 39 discriminator 4 view .LVU3383
	.loc 1 1185 66 discriminator 4 view .LVU3384
	.loc 1 1185 105 discriminator 4 view .LVU3385
	.loc 1 1185 122 discriminator 4 view .LVU3386
	.loc 1 1185 127 discriminator 4 view .LVU3387
	.loc 1 1185 228 discriminator 4 view .LVU3388
	.loc 1 1185 230 discriminator 4 view .LVU3389
	.loc 1 1185 246 is_stmt 0 discriminator 4 view .LVU3390
	adds	r1, r1, #1
.LVL1059:
	.loc 1 1185 249 discriminator 4 view .LVU3391
	movs	r2, #0
.LVL1060:
	.loc 1 1185 249 discriminator 4 view .LVU3392
	strb	r2, [r3, #1]
	.loc 1 1185 279 is_stmt 1 discriminator 4 view .LVU3393
	.loc 1 1185 299 is_stmt 0 discriminator 4 view .LVU3394
	str	r1, [sp, #16]
.LBE151:
	.loc 1 1185 319 is_stmt 1 discriminator 4 view .LVU3395
	.loc 1 1185 320 discriminator 4 view .LVU3396
	.loc 1 1186 5 discriminator 4 view .LVU3397
	movs	r2, #26
	ldr	r0, [sp, #20]
	bl	_SendPacket
.LVL1061:
.L595:
	.loc 1 1192 3 view .LVU3398
	.syntax unified
@ 1192 "C:\nRF5_SDK_15.0.0_a53641a\examples\ble_peripheral\slam_application-master\systemView\SEGGER_SYSVIEW.c" 1
	msr   basepri, r6  
	
@ 0 "" 2
	.thumb
	.syntax unified
.LBE148:
	.loc 1 1192 71 view .LVU3399
	.loc 1 1194 1 is_stmt 0 view .LVU3400
	add	sp, sp, #32
.LCFI79:
	@ sp needed
	pop	{r4, r5, r6, r7, r8, pc}
.LVL1062:
.L605:
	.loc 1 1194 1 view .LVU3401
	.align	2
.L604:
	.word	.LANCHOR3
.LFE10:
	.size	_VPrintTarget, .-_VPrintTarget
	.section	.text.SEGGER_SYSVIEW_PrintfHostEx,"ax",%progbits
	.align	1
	.global	SEGGER_SYSVIEW_PrintfHostEx
	.syntax unified
	.thumb
	.thumb_func
	.fpu fpv4-sp-d16
	.type	SEGGER_SYSVIEW_PrintfHostEx, %function
SEGGER_SYSVIEW_PrintfHostEx:
.LVL1063:
.LFB60:
	.loc 1 2540 77 is_stmt 1 view -0
	@ args = 4, pretend = 12, frame = 8
	@ frame_needed = 0, uses_anonymous_args = 1
	.loc 1 2540 77 is_stmt 0 view .LVU3403
	push	{r1, r2, r3}
.LCFI80:
	push	{lr}
.LCFI81:
	sub	sp, sp, #8
.LCFI82:
	add	r3, sp, #12
	ldr	r1, [r3], #4
	.loc 1 2541 3 is_stmt 1 view .LVU3404
	.loc 1 2555 2 view .LVU3405
	str	r3, [sp, #4]
	.loc 1 2556 3 view .LVU3406
	add	r2, sp, #4
	bl	_VPrintHost
.LVL1064:
	.loc 1 2557 2 view .LVU3407
	.loc 1 2559 1 is_stmt 0 view .LVU3408
	add	sp, sp, #8
.LCFI83:
	@ sp needed
	ldr	lr, [sp], #4
.LCFI84:
	add	sp, sp, #12
.LCFI85:
	bx	lr
.LFE60:
	.size	SEGGER_SYSVIEW_PrintfHostEx, .-SEGGER_SYSVIEW_PrintfHostEx
	.section	.text.SEGGER_SYSVIEW_PrintfHost,"ax",%progbits
	.align	1
	.global	SEGGER_SYSVIEW_PrintfHost
	.syntax unified
	.thumb
	.thumb_func
	.fpu fpv4-sp-d16
	.type	SEGGER_SYSVIEW_PrintfHost, %function
SEGGER_SYSVIEW_PrintfHost:
.LVL1065:
.LFB61:
	.loc 1 2574 52 is_stmt 1 view -0
	@ args = 4, pretend = 16, frame = 8
	@ frame_needed = 0, uses_anonymous_args = 1
	.loc 1 2574 52 is_stmt 0 view .LVU3410
	push	{r0, r1, r2, r3}
.LCFI86:
	push	{lr}
.LCFI87:
	sub	sp, sp, #12
.LCFI88:
	add	r3, sp, #16
	ldr	r0, [r3], #4
	.loc 1 2575 3 is_stmt 1 view .LVU3411
	.loc 1 2589 2 view .LVU3412
	str	r3, [sp, #4]
	.loc 1 2590 3 view .LVU3413
	add	r2, sp, #4
	movs	r1, #0
	bl	_VPrintHost
.LVL1066:
	.loc 1 2591 2 view .LVU3414
	.loc 1 2593 1 is_stmt 0 view .LVU3415
	add	sp, sp, #12
.LCFI89:
	@ sp needed
	ldr	lr, [sp], #4
.LCFI90:
	add	sp, sp, #16
.LCFI91:
	bx	lr
.LFE61:
	.size	SEGGER_SYSVIEW_PrintfHost, .-SEGGER_SYSVIEW_PrintfHost
	.section	.text.SEGGER_SYSVIEW_WarnfHost,"ax",%progbits
	.align	1
	.global	SEGGER_SYSVIEW_WarnfHost
	.syntax unified
	.thumb
	.thumb_func
	.fpu fpv4-sp-d16
	.type	SEGGER_SYSVIEW_WarnfHost, %function
SEGGER_SYSVIEW_WarnfHost:
.LVL1067:
.LFB62:
	.loc 1 2609 51 is_stmt 1 view -0
	@ args = 4, pretend = 16, frame = 8
	@ frame_needed = 0, uses_anonymous_args = 1
	.loc 1 2609 51 is_stmt 0 view .LVU3417
	push	{r0, r1, r2, r3}
.LCFI92:
	push	{lr}
.LCFI93:
	sub	sp, sp, #12
.LCFI94:
	add	r3, sp, #16
	ldr	r0, [r3], #4
	.loc 1 2610 3 is_stmt 1 view .LVU3418
	.loc 1 2624 2 view .LVU3419
	str	r3, [sp, #4]
	.loc 1 2625 3 view .LVU3420
	add	r2, sp, #4
	movs	r1, #1
	bl	_VPrintHost
.LVL1068:
	.loc 1 2626 2 view .LVU3421
	.loc 1 2628 1 is_stmt 0 view .LVU3422
	add	sp, sp, #12
.LCFI95:
	@ sp needed
	ldr	lr, [sp], #4
.LCFI96:
	add	sp, sp, #16
.LCFI97:
	bx	lr
.LFE62:
	.size	SEGGER_SYSVIEW_WarnfHost, .-SEGGER_SYSVIEW_WarnfHost
	.section	.text.SEGGER_SYSVIEW_ErrorfHost,"ax",%progbits
	.align	1
	.global	SEGGER_SYSVIEW_ErrorfHost
	.syntax unified
	.thumb
	.thumb_func
	.fpu fpv4-sp-d16
	.type	SEGGER_SYSVIEW_ErrorfHost, %function
SEGGER_SYSVIEW_ErrorfHost:
.LVL1069:
.LFB63:
	.loc 1 2644 52 is_stmt 1 view -0
	@ args = 4, pretend = 16, frame = 8
	@ frame_needed = 0, uses_anonymous_args = 1
	.loc 1 2644 52 is_stmt 0 view .LVU3424
	push	{r0, r1, r2, r3}
.LCFI98:
	push	{lr}
.LCFI99:
	sub	sp, sp, #12
.LCFI100:
	add	r3, sp, #16
	ldr	r0, [r3], #4
	.loc 1 2645 3 is_stmt 1 view .LVU3425
	.loc 1 2659 2 view .LVU3426
	str	r3, [sp, #4]
	.loc 1 2660 3 view .LVU3427
	add	r2, sp, #4
	movs	r1, #2
	bl	_VPrintHost
.LVL1070:
	.loc 1 2661 2 view .LVU3428
	.loc 1 2663 1 is_stmt 0 view .LVU3429
	add	sp, sp, #12
.LCFI101:
	@ sp needed
	ldr	lr, [sp], #4
.LCFI102:
	add	sp, sp, #16
.LCFI103:
	bx	lr
.LFE63:
	.size	SEGGER_SYSVIEW_ErrorfHost, .-SEGGER_SYSVIEW_ErrorfHost
	.section	.text.SEGGER_SYSVIEW_PrintfTargetEx,"ax",%progbits
	.align	1
	.global	SEGGER_SYSVIEW_PrintfTargetEx
	.syntax unified
	.thumb
	.thumb_func
	.fpu fpv4-sp-d16
	.type	SEGGER_SYSVIEW_PrintfTargetEx, %function
SEGGER_SYSVIEW_PrintfTargetEx:
.LVL1071:
.LFB64:
	.loc 1 2677 79 is_stmt 1 view -0
	@ args = 4, pretend = 12, frame = 8
	@ frame_needed = 0, uses_anonymous_args = 1
	.loc 1 2677 79 is_stmt 0 view .LVU3431
	push	{r1, r2, r3}
.LCFI104:
	push	{lr}
.LCFI105:
	sub	sp, sp, #8
.LCFI106:
	add	r3, sp, #12
	ldr	r1, [r3], #4
	.loc 1 2678 3 is_stmt 1 view .LVU3432
	.loc 1 2680 2 view .LVU3433
	str	r3, [sp, #4]
	.loc 1 2681 3 view .LVU3434
	add	r2, sp, #4
	bl	_VPrintTarget
.LVL1072:
	.loc 1 2682 2 view .LVU3435
	.loc 1 2683 1 is_stmt 0 view .LVU3436
	add	sp, sp, #8
.LCFI107:
	@ sp needed
	ldr	lr, [sp], #4
.LCFI108:
	add	sp, sp, #12
.LCFI109:
	bx	lr
.LFE64:
	.size	SEGGER_SYSVIEW_PrintfTargetEx, .-SEGGER_SYSVIEW_PrintfTargetEx
	.section	.text.SEGGER_SYSVIEW_PrintfTarget,"ax",%progbits
	.align	1
	.global	SEGGER_SYSVIEW_PrintfTarget
	.syntax unified
	.thumb
	.thumb_func
	.fpu fpv4-sp-d16
	.type	SEGGER_SYSVIEW_PrintfTarget, %function
SEGGER_SYSVIEW_PrintfTarget:
.LVL1073:
.LFB65:
	.loc 1 2696 54 is_stmt 1 view -0
	@ args = 4, pretend = 16, frame = 8
	@ frame_needed = 0, uses_anonymous_args = 1
	.loc 1 2696 54 is_stmt 0 view .LVU3438
	push	{r0, r1, r2, r3}
.LCFI110:
	push	{lr}
.LCFI111:
	sub	sp, sp, #12
.LCFI112:
	add	r3, sp, #16
	ldr	r0, [r3], #4
	.loc 1 2697 3 is_stmt 1 view .LVU3439
	.loc 1 2699 2 view .LVU3440
	str	r3, [sp, #4]
	.loc 1 2700 3 view .LVU3441
	add	r2, sp, #4
	movs	r1, #0
	bl	_VPrintTarget
.LVL1074:
	.loc 1 2701 2 view .LVU3442
	.loc 1 2702 1 is_stmt 0 view .LVU3443
	add	sp, sp, #12
.LCFI113:
	@ sp needed
	ldr	lr, [sp], #4
.LCFI114:
	add	sp, sp, #16
.LCFI115:
	bx	lr
.LFE65:
	.size	SEGGER_SYSVIEW_PrintfTarget, .-SEGGER_SYSVIEW_PrintfTarget
	.section	.text.SEGGER_SYSVIEW_WarnfTarget,"ax",%progbits
	.align	1
	.global	SEGGER_SYSVIEW_WarnfTarget
	.syntax unified
	.thumb
	.thumb_func
	.fpu fpv4-sp-d16
	.type	SEGGER_SYSVIEW_WarnfTarget, %function
SEGGER_SYSVIEW_WarnfTarget:
.LVL1075:
.LFB66:
	.loc 1 2715 53 is_stmt 1 view -0
	@ args = 4, pretend = 16, frame = 8
	@ frame_needed = 0, uses_anonymous_args = 1
	.loc 1 2715 53 is_stmt 0 view .LVU3445
	push	{r0, r1, r2, r3}
.LCFI116:
	push	{lr}
.LCFI117:
	sub	sp, sp, #12
.LCFI118:
	add	r3, sp, #16
	ldr	r0, [r3], #4
	.loc 1 2716 3 is_stmt 1 view .LVU3446
	.loc 1 2718 2 view .LVU3447
	str	r3, [sp, #4]
	.loc 1 2719 3 view .LVU3448
	add	r2, sp, #4
	movs	r1, #1
	bl	_VPrintTarget
.LVL1076:
	.loc 1 2720 2 view .LVU3449
	.loc 1 2721 1 is_stmt 0 view .LVU3450
	add	sp, sp, #12
.LCFI119:
	@ sp needed
	ldr	lr, [sp], #4
.LCFI120:
	add	sp, sp, #16
.LCFI121:
	bx	lr
.LFE66:
	.size	SEGGER_SYSVIEW_WarnfTarget, .-SEGGER_SYSVIEW_WarnfTarget
	.section	.text.SEGGER_SYSVIEW_ErrorfTarget,"ax",%progbits
	.align	1
	.global	SEGGER_SYSVIEW_ErrorfTarget
	.syntax unified
	.thumb
	.thumb_func
	.fpu fpv4-sp-d16
	.type	SEGGER_SYSVIEW_ErrorfTarget, %function
SEGGER_SYSVIEW_ErrorfTarget:
.LVL1077:
.LFB67:
	.loc 1 2734 54 is_stmt 1 view -0
	@ args = 4, pretend = 16, frame = 8
	@ frame_needed = 0, uses_anonymous_args = 1
	.loc 1 2734 54 is_stmt 0 view .LVU3452
	push	{r0, r1, r2, r3}
.LCFI122:
	push	{lr}
.LCFI123:
	sub	sp, sp, #12
.LCFI124:
	add	r3, sp, #16
	ldr	r0, [r3], #4
	.loc 1 2735 3 is_stmt 1 view .LVU3453
	.loc 1 2737 2 view .LVU3454
	str	r3, [sp, #4]
	.loc 1 2738 3 view .LVU3455
	add	r2, sp, #4
	movs	r1, #2
	bl	_VPrintTarget
.LVL1078:
	.loc 1 2739 2 view .LVU3456
	.loc 1 2740 1 is_stmt 0 view .LVU3457
	add	sp, sp, #12
.LCFI125:
	@ sp needed
	ldr	lr, [sp], #4
.LCFI126:
	add	sp, sp, #16
.LCFI127:
	bx	lr
.LFE67:
	.size	SEGGER_SYSVIEW_ErrorfTarget, .-SEGGER_SYSVIEW_ErrorfTarget
	.section	.text.SEGGER_SYSVIEW_Print,"ax",%progbits
	.align	1
	.global	SEGGER_SYSVIEW_Print
	.syntax unified
	.thumb
	.thumb_func
	.fpu fpv4-sp-d16
	.type	SEGGER_SYSVIEW_Print, %function
SEGGER_SYSVIEW_Print:
.LVL1079:
.LFB68:
	.loc 1 2753 42 is_stmt 1 view -0
	@ args = 0, pretend = 0, frame = 0
	@ frame_needed = 0, uses_anonymous_args = 0
	.loc 1 2753 42 is_stmt 0 view .LVU3459
	push	{r4, r5, r6, lr}
.LCFI128:
	mov	r5, r0
	.loc 1 2754 3 is_stmt 1 view .LVU3460
	.loc 1 2755 3 view .LVU3461
.LBB152:
	.loc 1 2756 5 view .LVU3462
	.loc 1 2756 29 view .LVU3463
	.syntax unified
@ 2756 "C:\nRF5_SDK_15.0.0_a53641a\examples\ble_peripheral\slam_application-master\systemView\SEGGER_SYSVIEW.c" 1
	mrs   r6, basepri  
	mov   r1, #32       
	msr   basepri, r1  
	
@ 0 "" 2
.LVL1080:
	.loc 1 2756 165 view .LVU3464
	.loc 1 2756 167 view .LVU3465
	.loc 1 2756 183 is_stmt 0 view .LVU3466
	.thumb
	.syntax unified
	ldr	r0, .L624
.LVL1081:
	.loc 1 2756 183 view .LVU3467
	bl	_PreparePacket
.LVL1082:
	mov	r4, r0
.LVL1083:
	.loc 1 2756 208 is_stmt 1 view .LVU3468
	.loc 1 2758 3 view .LVU3469
	.loc 1 2758 14 is_stmt 0 view .LVU3470
	movs	r2, #128
	mov	r1, r5
	bl	_EncodeStr
.LVL1084:
.LBB153:
	.loc 1 2759 5 is_stmt 1 view .LVU3471
	.loc 1 2759 37 view .LVU3472
	.loc 1 2759 64 view .LVU3473
	.loc 1 2759 92 view .LVU3474
	.loc 1 2759 112 view .LVU3475
	.loc 1 2759 117 view .LVU3476
	.loc 1 2759 218 view .LVU3477
	.loc 1 2759 220 view .LVU3478
	.loc 1 2759 239 is_stmt 0 view .LVU3479
	movs	r3, #0
	mov	r1, r0
	strb	r3, [r1], #2
	.loc 1 2759 269 is_stmt 1 view .LVU3480
.LVL1085:
	.loc 1 2759 269 is_stmt 0 view .LVU3481
.LBE153:
	.loc 1 2759 298 is_stmt 1 view .LVU3482
	.loc 1 2759 299 view .LVU3483
.LBB154:
	.loc 1 2760 5 view .LVU3484
	.loc 1 2760 37 view .LVU3485
	.loc 1 2760 64 view .LVU3486
	.loc 1 2760 92 view .LVU3487
	.loc 1 2760 109 view .LVU3488
	.loc 1 2760 114 view .LVU3489
	.loc 1 2760 215 view .LVU3490
	.loc 1 2760 217 view .LVU3491
	.loc 1 2760 236 is_stmt 0 view .LVU3492
	strb	r3, [r0, #1]
	.loc 1 2760 266 is_stmt 1 view .LVU3493
.LVL1086:
	.loc 1 2760 266 is_stmt 0 view .LVU3494
.LBE154:
	.loc 1 2760 295 is_stmt 1 view .LVU3495
	.loc 1 2760 296 view .LVU3496
	.loc 1 2761 3 view .LVU3497
	movs	r2, #26
	mov	r0, r4
.LVL1087:
	.loc 1 2761 3 is_stmt 0 view .LVU3498
	bl	_SendPacket
.LVL1088:
	.loc 1 2762 3 is_stmt 1 view .LVU3499
	.syntax unified
@ 2762 "C:\nRF5_SDK_15.0.0_a53641a\examples\ble_peripheral\slam_application-master\systemView\SEGGER_SYSVIEW.c" 1
	msr   basepri, r6  
	
@ 0 "" 2
	.thumb
	.syntax unified
.LBE152:
	.loc 1 2762 71 view .LVU3500
	.loc 1 2763 1 is_stmt 0 view .LVU3501
	pop	{r4, r5, r6, pc}
.LVL1089:
.L625:
	.loc 1 2763 1 view .LVU3502
	.align	2
.L624:
	.word	.LANCHOR3
.LFE68:
	.size	SEGGER_SYSVIEW_Print, .-SEGGER_SYSVIEW_Print
	.section	.text.SEGGER_SYSVIEW_Warn,"ax",%progbits
	.align	1
	.global	SEGGER_SYSVIEW_Warn
	.syntax unified
	.thumb
	.thumb_func
	.fpu fpv4-sp-d16
	.type	SEGGER_SYSVIEW_Warn, %function
SEGGER_SYSVIEW_Warn:
.LVL1090:
.LFB69:
	.loc 1 2775 41 is_stmt 1 view -0
	@ args = 0, pretend = 0, frame = 0
	@ frame_needed = 0, uses_anonymous_args = 0
	.loc 1 2775 41 is_stmt 0 view .LVU3504
	push	{r4, r5, r6, lr}
.LCFI129:
	mov	r5, r0
	.loc 1 2776 3 is_stmt 1 view .LVU3505
	.loc 1 2777 3 view .LVU3506
.LBB155:
	.loc 1 2778 5 view .LVU3507
	.loc 1 2778 29 view .LVU3508
	.syntax unified
