	.cpu cortex-m4
	.eabi_attribute 27, 1
	.eabi_attribute 28, 1
	.eabi_attribute 20, 1
	.eabi_attribute 21, 1
	.eabi_attribute 23, 3
	.eabi_attribute 24, 1
	.eabi_attribute 25, 1
	.eabi_attribute 26, 1
	.eabi_attribute 30, 1
	.eabi_attribute 34, 1
	.eabi_attribute 18, 4
	.file	"sensorsim.c"
	.text
.Ltext0:
	.section	.text.sensorsim_init,"ax",%progbits
	.align	1
	.global	sensorsim_init
	.syntax unified
	.thumb
	.thumb_func
	.fpu fpv4-sp-d16
	.type	sensorsim_init, %function
sensorsim_init:
.LVL0:
.LFB0:
	.file 1 "C:\\nRF5_SDK_15.0.0_a53641a\\components\\libraries\\sensorsim\\sensorsim.c"
	.loc 1 45 1 view -0
	@ args = 0, pretend = 0, frame = 0
	@ frame_needed = 0, uses_anonymous_args = 0
	@ link register save eliminated.
	.loc 1 46 5 view .LVU1
	.loc 1 46 14 is_stmt 0 view .LVU2
	ldrb	r3, [r1, #12]	@ zero_extendqisi2
	.loc 1 46 8 view .LVU3
	cbz	r3, .L2
	.loc 1 48 9 is_stmt 1 view .LVU4
	.loc 1 48 37 is_stmt 0 view .LVU5
	ldr	r3, [r1, #4]
	.loc 1 48 30 view .LVU6
	str	r3, [r0]
	.loc 1 49 9 is_stmt 1 view .LVU7
	.loc 1 49 32 is_stmt 0 view .LVU8
	movs	r3, #0
	strb	r3, [r0, #4]
	bx	lr
.L2:
	.loc 1 53 9 is_stmt 1 view .LVU9
	.loc 1 53 37 is_stmt 0 view .LVU10
	ldr	r3, [r1]
	.loc 1 53 30 view .LVU11
	str	r3, [r0]
	.loc 1 54 9 is_stmt 1 view .LVU12
	.loc 1 54 32 is_stmt 0 view .LVU13
	movs	r3, #1
	strb	r3, [r0, #4]
	.loc 1 56 1 view .LVU14
	bx	lr
.LFE0:
	.size	sensorsim_init, .-sensorsim_init
	.section	.text.sensorsim_increment,"ax",%progbits
	.align	1
	.global	sensorsim_increment
	.syntax unified
	.thumb
	.thumb_func
	.fpu fpv4-sp-d16
	.type	sensorsim_increment, %function
sensorsim_increment:
.LVL1:
.LFB2:
	.loc 1 75 1 is_stmt 1 view -0
	@ args = 0, pretend = 0, frame = 0
	@ frame_needed = 0, uses_anonymous_args = 0
	@ link register save eliminated.
	.loc 1 75 1 is_stmt 0 view .LVU16
	push	{r4}
.LCFI0:
	.loc 1 76 5 is_stmt 1 view .LVU17
	.loc 1 76 14 is_stmt 0 view .LVU18
	ldr	r2, [r1, #4]
	.loc 1 76 29 view .LVU19
	ldr	r3, [r0]
	.loc 1 76 20 view .LVU20
	subs	r4, r2, r3
	.loc 1 76 50 view .LVU21
	ldr	r1, [r1, #8]
.LVL2:
	.loc 1 76 8 view .LVU22
	cmp	r4, r1
	bls	.L5
	.loc 1 78 9 is_stmt 1 view .LVU23
	.loc 1 78 30 is_stmt 0 view .LVU24
	add	r3, r3, r1
	str	r3, [r0]
.L4:
	.loc 1 85 1 view .LVU25
	ldr	r4, [sp], #4
.LCFI1:
	bx	lr
.L5:
.LCFI2:
	.loc 1 82 9 is_stmt 1 view .LVU26
	.loc 1 82 30 is_stmt 0 view .LVU27
	str	r2, [r0]
	.loc 1 83 9 is_stmt 1 view .LVU28
	.loc 1 83 32 is_stmt 0 view .LVU29
	movs	r3, #0
	strb	r3, [r0, #4]
	.loc 1 85 1 view .LVU30
	b	.L4
.LFE2:
	.size	sensorsim_increment, .-sensorsim_increment
	.section	.text.sensorsim_decrement,"ax",%progbits
	.align	1
	.global	sensorsim_decrement
	.syntax unified
	.thumb
	.thumb_func
	.fpu fpv4-sp-d16
	.type	sensorsim_decrement, %function
sensorsim_decrement:
.LVL3:
.LFB3:
	.loc 1 90 1 is_stmt 1 view -0
	@ args = 0, pretend = 0, frame = 0
	@ frame_needed = 0, uses_anonymous_args = 0
	@ link register save eliminated.
	.loc 1 90 1 is_stmt 0 view .LVU32
	push	{r4}
.LCFI3:
	.loc 1 91 5 is_stmt 1 view .LVU33
	.loc 1 91 16 is_stmt 0 view .LVU34
	ldr	r3, [r0]
	.loc 1 91 37 view .LVU35
	ldr	r2, [r1]
	.loc 1 91 30 view .LVU36
	subs	r4, r3, r2
	.loc 1 91 50 view .LVU37
	ldr	r1, [r1, #8]
.LVL4:
	.loc 1 91 8 view .LVU38
	cmp	r4, r1
	bls	.L9
	.loc 1 93 9 is_stmt 1 view .LVU39
	.loc 1 93 30 is_stmt 0 view .LVU40
	subs	r3, r3, r1
	str	r3, [r0]
.L8:
	.loc 1 100 1 view .LVU41
	ldr	r4, [sp], #4
.LCFI4:
	bx	lr
.L9:
.LCFI5:
	.loc 1 97 9 is_stmt 1 view .LVU42
	.loc 1 97 30 is_stmt 0 view .LVU43
	str	r2, [r0]
	.loc 1 98 9 is_stmt 1 view .LVU44
	.loc 1 98 32 is_stmt 0 view .LVU45
	movs	r3, #1
	strb	r3, [r0, #4]
	.loc 1 100 1 view .LVU46
	b	.L8
.LFE3:
	.size	sensorsim_decrement, .-sensorsim_decrement
	.section	.text.sensorsim_measure,"ax",%progbits
	.align	1
	.global	sensorsim_measure
	.syntax unified
	.thumb
	.thumb_func
	.fpu fpv4-sp-d16
	.type	sensorsim_measure, %function
sensorsim_measure:
.LVL5:
.LFB1:
	.loc 1 61 1 is_stmt 1 view -0
	@ args = 0, pretend = 0, frame = 0
	@ frame_needed = 0, uses_anonymous_args = 0
	.loc 1 61 1 is_stmt 0 view .LVU48
	push	{r4, lr}
.LCFI6:
	mov	r4, r0
	.loc 1 62 5 is_stmt 1 view .LVU49
	.loc 1 62 16 is_stmt 0 view .LVU50
	ldrb	r3, [r0, #4]	@ zero_extendqisi2
	.loc 1 62 8 view .LVU51
	cbz	r3, .L13
	.loc 1 64 9 is_stmt 1 view .LVU52
	bl	sensorsim_increment
.LVL6:
.L14:
	.loc 1 70 5 view .LVU53
	.loc 1 71 1 is_stmt 0 view .LVU54
	ldr	r0, [r4]
	pop	{r4, pc}
.LVL7:
.L13:
	.loc 1 68 9 is_stmt 1 view .LVU55
	bl	sensorsim_decrement
.LVL8:
	.loc 1 68 9 is_stmt 0 view .LVU56
	b	.L14
.LFE1:
	.size	sensorsim_measure, .-sensorsim_measure
	.section	.debug_frame,"",%progbits
.Lframe0:
	.4byte	.LECIE0-.LSCIE0
.LSCIE0:
	.4byte	0xffffffff
	.byte	0x3
	.ascii	"\000"
	.uleb128 0x1
	.sleb128 -4
	.uleb128 0xe
	.byte	0xc
	.uleb128 0xd
	.uleb128 0
	.align	2
.LECIE0:
.LSFDE0:
	.4byte	.LEFDE0-.LASFDE0
.LASFDE0:
	.4byte	.Lframe0
	.4byte	.LFB0
	.4byte	.LFE0-.LFB0
	.align	2
.LEFDE0:
.LSFDE2:
	.4byte	.LEFDE2-.LASFDE2
.LASFDE2:
	.4byte	.Lframe0
	.4byte	.LFB2
	.4byte	.LFE2-.LFB2
	.byte	0x4
	.4byte	.LCFI0-.LFB2
	.byte	0xe
	.uleb128 0x4
	.byte	0x84
	.uleb128 0x1
	.byte	0x4
	.4byte	.LCFI1-.LCFI0
	.byte	0xa
	.byte	0xc4
	.byte	0xe
	.uleb128 0
	.byte	0x4
	.4byte	.LCFI2-.LCFI1
	.byte	0xb
	.align	2
.LEFDE2:
.LSFDE4:
	.4byte	.LEFDE4-.LASFDE4
.LASFDE4:
	.4byte	.Lframe0
	.4byte	.LFB3
	.4byte	.LFE3-.LFB3
	.byte	0x4
	.4byte	.LCFI3-.LFB3
	.byte	0xe
	.uleb128 0x4
	.byte	0x84
	.uleb128 0x1
	.byte	0x4
	.4byte	.LCFI4-.LCFI3
	.byte	0xa
	.byte	0xc4
	.byte	0xe
	.uleb128 0
	.byte	0x4
	.4byte	.LCFI5-.LCFI4
	.byte	0xb
	.align	2
.LEFDE4:
.LSFDE6:
	.4byte	.LEFDE6-.LASFDE6
.LASFDE6:
	.4byte	.Lframe0
	.4byte	.LFB1
	.4byte	.LFE1-.LFB1
	.byte	0x4
	.4byte	.LCFI6-.LFB1
	.byte	0xe
	.uleb128 0x8
	.byte	0x84
	.uleb128 0x2
	.byte	0x8e
	.uleb128 0x1
	.align	2
.LEFDE6:
	.text
.Letext0:
	.file 2 "C:\\nRF5_SDK_15.0.0_a53641a\\components\\libraries\\sensorsim\\sensorsim.h"
	.file 3 "C:/Program Files (x86)/SEGGER/SEGGER Embedded Studio for ARM 4.50/include/stdint.h"