	.cpu cortex-m4
	.eabi_attribute 27, 1
	.eabi_attribute 28, 1
	.eabi_attribute 20, 1
	.eabi_attribute 21, 1
	.eabi_attribute 23, 3
	.eabi_attribute 24, 1
	.eabi_attribute 25, 1
	.eabi_attribute 26, 1
	.eabi_attribute 30, 1
	.eabi_attribute 34, 1
	.eabi_attribute 18, 4
	.file	"system_nrf52.c"
	.text
.Ltext0:
	.section	.text.NVIC_SystemReset,"ax",%progbits
	.align	1
	.syntax unified
	.thumb
	.thumb_func
	.fpu fpv4-sp-d16
	.type	NVIC_SystemReset, %function
NVIC_SystemReset:
.LFB118:
	.file 1 "../../../../../../components/toolchain/cmsis/include/core_cm4.h"
	.loc 1 1791 1 view -0
	@ Volatile: function does not return.
	@ args = 0, pretend = 0, frame = 0
	@ frame_needed = 0, uses_anonymous_args = 0
	@ link register save eliminated.
	.loc 1 1792 3 view .LVU1
.LBB12:
.LBI12:
	.file 2 "../../../../../../components/toolchain/cmsis/include/cmsis_gcc.h"
	.loc 2 427 51 view .LVU2
.LBB13:
	.loc 2 429 3 view .LVU3
	.syntax unified
@ 429 "../../../../../../components/toolchain/cmsis/include/cmsis_gcc.h" 1
	dsb 0xF
@ 0 "" 2
	.thumb
	.syntax unified
.LBE13:
.LBE12:
	.loc 1 1794 3 view .LVU4
	.loc 1 1795 72 is_stmt 0 view .LVU5
	ldr	r1, .L3
	ldr	r2, [r1, #12]
	.loc 1 1795 80 view .LVU6
	and	r2, r2, #1792
	.loc 1 1795 95 view .LVU7
	ldr	r3, .L3+4
	orrs	r3, r3, r2
	.loc 1 1794 54 view .LVU8
	str	r3, [r1, #12]
	.loc 1 1797 3 is_stmt 1 view .LVU9
.LBB14:
.LBI14:
	.loc 2 427 51 view .LVU10
.LBB15:
	.loc 2 429 3 view .LVU11
	.syntax unified
@ 429 "../../../../../../components/toolchain/cmsis/include/cmsis_gcc.h" 1
	dsb 0xF
@ 0 "" 2
	.thumb
	.syntax unified
.L2:
.LBE15:
.LBE14:
	.loc 1 1799 3 discriminator 1 view .LVU12
	.loc 1 1801 5 discriminator 1 view .LVU13
.LBB16:
.LBI16:
	.loc 2 373 51 discriminator 1 view .LVU14
.LBB17:
	.loc 2 375 3 discriminator 1 view .LVU15
	.syntax unified
@ 375 "../../../../../../components/toolchain/cmsis/include/cmsis_gcc.h" 1
	nop
@ 0 "" 2
	.thumb
	.syntax unified
	b	.L2
.L4:
	.align	2
.L3:
	.word	-536810240
	.word	100270084
.LBE17:
.LBE16:
.LFE118:
	.size	NVIC_SystemReset, .-NVIC_SystemReset
	.section	.text.errata_12,"ax",%progbits
	.align	1
	.syntax unified
	.thumb
	.thumb_func
	.fpu fpv4-sp-d16
	.type	errata_12, %function
errata_12:
.LFB126:
	.file 3 "C:\\nRF5_SDK_15.0.0_a53641a\\modules\\nrfx\\mdk\\system_nrf52.c"
	.loc 3 219 1 view -0
	@ args = 0, pretend = 0, frame = 0
	@ frame_needed = 0, uses_anonymous_args = 0
	@ link register save eliminated.
	.loc 3 220 5 view .LVU17
	.loc 3 220 37 is_stmt 0 view .LVU18
	ldr	r3, .L13
	ldrb	r3, [r3]	@ zero_extendqisi2
	.loc 3 220 8 view .LVU19
	cmp	r3, #6
	beq	.L12
	.loc 3 232 11 view .LVU20
	movs	r0, #0
	bx	lr
.L12:
	.loc 3 220 65 discriminator 1 view .LVU21
	ldr	r3, .L13+4
	ldr	r3, [r3]
	.loc 3 220 59 discriminator 1 view .LVU22
	tst	r3, #15
	bne	.L8
	.loc 3 221 9 is_stmt 1 view .LVU23
	.loc 3 221 15 is_stmt 0 view .LVU24
	ldr	r3, .L13+8
	ldr	r3, [r3]
	.loc 3 221 40 view .LVU25
	and	r3, r3, #240
	.loc 3 221 12 view .LVU26
	cmp	r3, #48
	beq	.L9
	.loc 3 224 9 is_stmt 1 view .LVU27
	.loc 3 224 12 is_stmt 0 view .LVU28
	cmp	r3, #64
	beq	.L10
	.loc 3 227 9 is_stmt 1 view .LVU29
	.loc 3 227 12 is_stmt 0 view .LVU30
	cmp	r3, #80
	beq	.L11
	.loc 3 232 11 view .LVU31
	movs	r0, #0
	bx	lr
.L8:
	movs	r0, #0
	bx	lr
.L9:
	.loc 3 222 19 view .LVU32
	movs	r0, #1
	bx	lr
.L10:
	.loc 3 225 19 view .LVU33
	movs	r0, #1
	bx	lr
.L11:
	.loc 3 228 19 view .LVU34
	movs	r0, #1
	.loc 3 233 1 view .LVU35
	bx	lr
.L14:
	.align	2
.L13:
	.word	-268431392
	.word	-268431388
	.word	-268431384
.LFE126:
	.size	errata_12, .-errata_12
	.section	.text.errata_16,"ax",%progbits
	.align	1
	.syntax unified
	.thumb
	.thumb_func
	.fpu fpv4-sp-d16
	.type	errata_16, %function
errata_16:
.LFB127:
	.loc 3 236 1 is_stmt 1 view -0
	@ args = 0, pretend = 0, frame = 0
	@ frame_needed = 0, uses_anonymous_args = 0
	@ link register save eliminated.
	.loc 3 237 5 view .LVU37
	.loc 3 237 37 is_stmt 0 view .LVU38
	ldr	r3, .L21
	ldrb	r3, [r3]	@ zero_extendqisi2
	.loc 3 237 8 view .LVU39
	cmp	r3, #6
	beq	.L20
	.loc 3 243 11 view .LVU40
	movs	r0, #0
	bx	lr
.L20:
	.loc 3 237 65 discriminator 1 view .LVU41
	ldr	r3, .L21+4
	ldr	r3, [r3]
	.loc 3 237 59 discriminator 1 view .LVU42
	tst	r3, #15
	bne	.L18
	.loc 3 238 9 is_stmt 1 view .LVU43
	.loc 3 238 15 is_stmt 0 view .LVU44
	ldr	r3, .L21+8
	ldr	r3, [r3]
	.loc 3 238 40 view .LVU45
	and	r3, r3, #240
	.loc 3 238 12 view .LVU46
	cmp	r3, #48
	beq	.L19
	.loc 3 243 11 view .LVU47
	movs	r0, #0
	bx	lr
.L18:
	movs	r0, #0
	bx	lr
.L19:
	.loc 3 239 19 view .LVU48
	movs	r0, #1
	.loc 3 244 1 view .LVU49
	bx	lr
.L22:
	.align	2
.L21:
	.word	-268431392
	.word	-268431388
	.word	-268431384
.LFE127:
	.size	errata_16, .-errata_16
	.section	.text.errata_31,"ax",%progbits
	.align	1
	.syntax unified
	.thumb
	.thumb_func
	.fpu fpv4-sp-d16
	.type	errata_31, %function
errata_31:
.LFB128:
	.loc 3 247 1 is_stmt 1 view -0
	@ args = 0, pretend = 0, frame = 0
	@ frame_needed = 0, uses_anonymous_args = 0
	@ link register save eliminated.
	.loc 3 248 5 view .LVU51
	.loc 3 248 37 is_stmt 0 view .LVU52
	ldr	r3, .L31
	ldrb	r3, [r3]	@ zero_extendqisi2
	.loc 3 248 8 view .LVU53
	cmp	r3, #6
	beq	.L30
	.loc 3 260 11 view .LVU54
	movs	r0, #0
	bx	lr
.L30:
	.loc 3 248 65 discriminator 1 view .LVU55
	ldr	r3, .L31+4
	ldr	r3, [r3]
	.loc 3 248 59 discriminator 1 view .LVU56
	tst	r3, #15
	bne	.L26
	.loc 3 249 9 is_stmt 1 view .LVU57
	.loc 3 249 15 is_stmt 0 view .LVU58
	ldr	r3, .L31+8
	ldr	r3, [r3]
	.loc 3 249 40 view .LVU59
	and	r3, r3, #240
	.loc 3 249 12 view .LVU60
	cmp	r3, #48
	beq	.L27
	.loc 3 252 9 is_stmt 1 view .LVU61
	.loc 3 252 12 is_stmt 0 view .LVU62
	cmp	r3, #64
	beq	.L28
	.loc 3 255 9 is_stmt 1 view .LVU63
	.loc 3 255 12 is_stmt 0 view .LVU64
	cmp	r3, #80
	beq	.L29
	.loc 3 260 11 view .LVU65
	movs	r0, #0
	bx	lr
.L26:
	movs	r0, #0
	bx	lr
.L27:
	.loc 3 250 19 view .LVU66
	movs	r0, #1
	bx	lr
.L28:
	.loc 3 253 19 view .LVU67
	movs	r0, #1
	bx	lr
.L29:
	.loc 3 256 19 view .LVU68
	movs	r0, #1
	.loc 3 261 1 view .LVU69
	bx	lr
.L32:
	.align	2
.L31:
	.word	-268431392
	.word	-268431388
	.word	-268431384
.LFE128:
	.size	errata_31, .-errata_31
	.section	.text.errata_32,"ax",%progbits
	.align	1
	.syntax unified
	.thumb
	.thumb_func
	.fpu fpv4-sp-d16
	.type	errata_32, %function
errata_32:
.LFB129:
	.loc 3 264 1 is_stmt 1 view -0
	@ args = 0, pretend = 0, frame = 0
	@ frame_needed = 0, uses_anonymous_args = 0
	@ link register save eliminated.
	.loc 3 265 5 view .LVU71
	.loc 3 265 37 is_stmt 0 view .LVU72
	ldr	r3, .L39
	ldrb	r3, [r3]	@ zero_extendqisi2
	.loc 3 265 8 view .LVU73
	cmp	r3, #6
	beq	.L38
	.loc 3 271 11 view .LVU74
	movs	r0, #0
	bx	lr
.L38:
	.loc 3 265 65 discriminator 1 view .LVU75
	ldr	r3, .L39+4
	ldr	r3, [r3]
	.loc 3 265 59 discriminator 1 view .LVU76
	tst	r3, #15
	bne	.L36
	.loc 3 266 9 is_stmt 1 view .LVU77
	.loc 3 266 15 is_stmt 0 view .LVU78
	ldr	r3, .L39+8
	ldr	r3, [r3]
	.loc 3 266 40 view .LVU79
	and	r3, r3, #240
	.loc 3 266 12 view .LVU80
	cmp	r3, #48
	beq	.L37
	.loc 3 271 11 view .LVU81
	movs	r0, #0
	bx	lr
.L36:
	movs	r0, #0
	bx	lr
.L37:
	.loc 3 267 19 view .LVU82
	movs	r0, #1
	.loc 3 272 1 view .LVU83
	bx	lr
.L40:
	.align	2
.L39:
	.word	-268431392
	.word	-268431388
	.word	-268431384
.LFE129:
	.size	errata_32, .-errata_32
	.section	.text.errata_36,"ax",%progbits
	.align	1
	.syntax unified
	.thumb
	.thumb_func
	.fpu fpv4-sp-d16
	.type	errata_36, %function
errata_36:
.LFB130:
	.loc 3 275 1 is_stmt 1 view -0
	@ args = 0, pretend = 0, frame = 0
	@ frame_needed = 0, uses_anonymous_args = 0
	@ link register save eliminated.
	.loc 3 276 5 view .LVU85
	.loc 3 276 37 is_stmt 0 view .LVU86
	ldr	r3, .L49
	ldrb	r3, [r3]	@ zero_extendqisi2
	.loc 3 276 8 view .LVU87
	cmp	r3, #6
	beq	.L48
	.loc 3 288 11 view .LVU88
	movs	r0, #0
	bx	lr
.L48:
	.loc 3 276 65 discriminator 1 view .LVU89
	ldr	r3, .L49+4
	ldr	r3, [r3]
	.loc 3 276 59 discriminator 1 view .LVU90
	tst	r3, #15
	bne	.L44
	.loc 3 277 9 is_stmt 1 view .LVU91
	.loc 3 277 15 is_stmt 0 view .LVU92
	ldr	r3, .L49+8
	ldr	r3, [r3]
	.loc 3 277 40 view .LVU93
	and	r3, r3, #240
	.loc 3 277 12 view .LVU94
	cmp	r3, #48
	beq	.L45
	.loc 3 280 9 is_stmt 1 view .LVU95
	.loc 3 280 12 is_stmt 0 view .LVU96
	cmp	r3, #64
	beq	.L46
	.loc 3 283 9 is_stmt 1 view .LVU97
	.loc 3 283 12 is_stmt 0 view .LVU98
	cmp	r3, #80
	beq	.L47
	.loc 3 288 11 view .LVU99
	movs	r0, #0
	bx	lr
.L44:
	movs	r0, #0
	bx	lr
.L45:
	.loc 3 278 19 view .LVU100
	movs	r0, #1
	bx	lr
.L46:
	.loc 3 281 19 view .LVU101
	movs	r0, #1
	bx	lr
.L47:
	.loc 3 284 19 view .LVU102
	movs	r0, #1
	.loc 3 289 1 view .LVU103
	bx	lr
.L50:
	.align	2
.L49:
	.word	-268431392
	.word	-268431388
	.word	-268431384
.LFE130:
	.size	errata_36, .-errata_36
	.section	.text.errata_37,"ax",%progbits
	.align	1
	.syntax unified
	.thumb
	.thumb_func
	.fpu fpv4-sp-d16
	.type	errata_37, %function
errata_37:
.LFB131:
	.loc 3 292 1 is_stmt 1 view -0
	@ args = 0, pretend = 0, frame = 0
	@ frame_needed = 0, uses_anonymous_args = 0
	@ link register save eliminated.
	.loc 3 293 5 view .LVU105
	.loc 3 293 37 is_stmt 0 view .LVU106
	ldr	r3, .L57
	ldrb	r3, [r3]	@ zero_extendqisi2
	.loc 3 293 8 view .LVU107
	cmp	r3, #6
	beq	.L56
	.loc 3 299 11 view .LVU108
	movs	r0, #0
	bx	lr
.L56:
	.loc 3 293 65 discriminator 1 view .LVU109
	ldr	r3, .L57+4
	ldr	r3, [r3]
	.loc 3 293 59 discriminator 1 view .LVU110
	tst	r3, #15
	bne	.L54
	.loc 3 294 9 is_stmt 1 view .LVU111
	.loc 3 294 15 is_stmt 0 view .LVU112
	ldr	r3, .L57+8
	ldr	r3, [r3]
	.loc 3 294 40 view .LVU113
	and	r3, r3, #240
	.loc 3 294 12 view .LVU114
	cmp	r3, #48
	beq	.L55
	.loc 3 299 11 view .LVU115
	movs	r0, #0
	bx	lr
.L54:
	movs	r0, #0
	bx	lr
.L55:
	.loc 3 295 19 view .LVU116
	movs	r0, #1
	.loc 3 300 1 view .LVU117
	bx	lr
.L58:
	.align	2
.L57:
	.word	-268431392
	.word	-268431388
	.word	-268431384
.LFE131:
	.size	errata_37, .-errata_37
	.section	.text.errata_57,"ax",%progbits
	.align	1
	.syntax unified
	.thumb
	.thumb_func
	.fpu fpv4-sp-d16
	.type	errata_57, %function
errata_57:
.LFB132:
	.loc 3 303 1 is_stmt 1 view -0
	@ args = 0, pretend = 0, frame = 0
	@ frame_needed = 0, uses_anonymous_args = 0
	@ link register save eliminated.
	.loc 3 304 5 view .LVU119
	.loc 3 304 37 is_stmt 0 view .LVU120
	ldr	r3, .L65
	ldrb	r3, [r3]	@ zero_extendqisi2
	.loc 3 304 8 view .LVU121
	cmp	r3, #6
	beq	.L64
	.loc 3 310 11 view .LVU122
	movs	r0, #0
	bx	lr
.L64:
	.loc 3 304 65 discriminator 1 view .LVU123
	ldr	r3, .L65+4
	ldr	r3, [r3]
	.loc 3 304 59 discriminator 1 view .LVU124
	tst	r3, #15
	bne	.L62
	.loc 3 305 9 is_stmt 1 view .LVU125
	.loc 3 305 15 is_stmt 0 view .LVU126
	ldr	r3, .L65+8
	ldr	r3, [r3]
	.loc 3 305 40 view .LVU127
	and	r3, r3, #240
	.loc 3 305 12 view .LVU128
	cmp	r3, #48
	beq	.L63
	.loc 3 310 11 view .LVU129
	movs	r0, #0
	bx	lr
.L62:
	movs	r0, #0
	bx	lr
.L63:
	.loc 3 306 19 view .LVU130
	movs	r0, #1
	.loc 3 311 1 view .LVU131
	bx	lr
.L66:
	.align	2
.L65:
	.word	-268431392
	.word	-268431388
	.word	-268431384
.LFE132:
	.size	errata_57, .-errata_57
	.section	.text.errata_66,"ax",%progbits
	.align	1
	.syntax unified
	.thumb
	.thumb_func
	.fpu fpv4-sp-d16
	.type	errata_66, %function
errata_66:
.LFB133:
	.loc 3 314 1 is_stmt 1 view -0
	@ args = 0, pretend = 0, frame = 0
	@ frame_needed = 0, uses_anonymous_args = 0
	@ link register save eliminated.
	.loc 3 315 5 view .LVU133
	.loc 3 315 37 is_stmt 0 view .LVU134
	ldr	r3, .L73
	ldrb	r3, [r3]	@ zero_extendqisi2
	.loc 3 315 8 view .LVU135
	cmp	r3, #6
	beq	.L72
	.loc 3 321 11 view .LVU136
	movs	r0, #0
	bx	lr
.L72:
	.loc 3 315 65 discriminator 1 view .LVU137
	ldr	r3, .L73+4
	ldr	r3, [r3]
	.loc 3 315 59 discriminator 1 view .LVU138
	tst	r3, #15
	bne	.L70
	.loc 3 316 9 is_stmt 1 view .LVU139
	.loc 3 316 15 is_stmt 0 view .LVU140
	ldr	r3, .L73+8
	ldr	r3, [r3]
	.loc 3 316 40 view .LVU141
	and	r3, r3, #240
	.loc 3 316 12 view .LVU142
	cmp	r3, #80
	beq	.L71
	.loc 3 321 11 view .LVU143
	movs	r0, #0
	bx	lr
.L70:
	movs	r0, #0
	bx	lr
.L71:
	.loc 3 317 19 view .LVU144
	movs	r0, #1
	.loc 3 322 1 view .LVU145
	bx	lr
.L74:
	.align	2
.L73:
	.word	-268431392
	.word	-268431388
	.word	-268431384
.LFE133:
	.size	errata_66, .-errata_66
	.section	.text.errata_108,"ax",%progbits
	.align	1
	.syntax unified
	.thumb
	.thumb_func
	.fpu fpv4-sp-d16
	.type	errata_108, %function
errata_108:
.LFB134:
	.loc 3 326 1 is_stmt 1 view -0
	@ args = 0, pretend = 0, frame = 0
	@ frame_needed = 0, uses_anonymous_args = 0
	@ link register save eliminated.
	.loc 3 327 5 view .LVU147
	.loc 3 327 37 is_stmt 0 view .LVU148
	ldr	r3, .L83
	ldrb	r3, [r3]	@ zero_extendqisi2
	.loc 3 327 8 view .LVU149
	cmp	r3, #6
	beq	.L82
	.loc 3 339 11 view .LVU150
	movs	r0, #0
	bx	lr
.L82:
	.loc 3 327 65 discriminator 1 view .LVU151
	ldr	r3, .L83+4
	ldr	r3, [r3]
	.loc 3 327 59 discriminator 1 view .LVU152
	tst	r3, #15
	bne	.L78
	.loc 3 328 9 is_stmt 1 view .LVU153
	.loc 3 328 15 is_stmt 0 view .LVU154
	ldr	r3, .L83+8
	ldr	r3, [r3]
	.loc 3 328 40 view .LVU155
	and	r3, r3, #240
	.loc 3 328 12 view .LVU156
	cmp	r3, #48
	beq	.L79
	.loc 3 331 9 is_stmt 1 view .LVU157
	.loc 3 331 12 is_stmt 0 view .LVU158
	cmp	r3, #64
	beq	.L80
	.loc 3 334 9 is_stmt 1 view .LVU159
	.loc 3 334 12 is_stmt 0 view .LVU160
	cmp	r3, #80
	beq	.L81
	.loc 3 339 11 view .LVU161
	movs	r0, #0
	bx	lr
.L78:
	movs	r0, #0
	bx	lr
.L79:
	.loc 3 329 19 view .LVU162
	movs	r0, #1
	bx	lr
.L80:
	.loc 3 332 19 view .LVU163
	movs	r0, #1
	bx	lr
.L81:
	.loc 3 335 19 view .LVU164
	movs	r0, #1
	.loc 3 340 1 view .LVU165
	bx	lr
.L84:
	.align	2
.L83:
	.word	-268431392
	.word	-268431388
	.word	-268431384
.LFE134:
	.size	errata_108, .-errata_108
	.section	.text.errata_136,"ax",%progbits
	.align	1
	.syntax unified
	.thumb
	.thumb_func
	.fpu fpv4-sp-d16
	.type	errata_136, %function
errata_136:
.LFB135:
	.loc 3 344 1 is_stmt 1 view -0
	@ args = 0, pretend = 0, frame = 0
	@ frame_needed = 0, uses_anonymous_args = 0
	@ link register save eliminated.
	.loc 3 345 5 view .LVU167
	.loc 3 345 37 is_stmt 0 view .LVU168
	ldr	r3, .L93
	ldrb	r3, [r3]	@ zero_extendqisi2
	.loc 3 345 8 view .LVU169
	cmp	r3, #6
	beq	.L92
	.loc 3 357 11 view .LVU170
	movs	r0, #0
	bx	lr
.L92:
	.loc 3 345 65 discriminator 1 view .LVU171
	ldr	r3, .L93+4
	ldr	r3, [r3]
	.loc 3 345 59 discriminator 1 view .LVU172
	tst	r3, #15
	bne	.L88
	.loc 3 346 9 is_stmt 1 view .LVU173
	.loc 3 346 15 is_stmt 0 view .LVU174
	ldr	r3, .L93+8
	ldr	r3, [r3]
	.loc 3 346 40 view .LVU175
	and	r3, r3, #240
	.loc 3 346 12 view .LVU176
	cmp	r3, #48
	beq	.L89
	.loc 3 349 9 is_stmt 1 view .LVU177
	.loc 3 349 12 is_stmt 0 view .LVU178
	cmp	r3, #64
	beq	.L90
	.loc 3 352 9 is_stmt 1 view .LVU179
	.loc 3 352 12 is_stmt 0 view .LVU180
	cmp	r3, #80
	beq	.L91
	.loc 3 357 11 view .LVU181
	movs	r0, #0
	bx	lr
.L88:
	movs	r0, #0
	bx	lr
.L89:
	.loc 3 347 19 view .LVU182
	movs	r0, #1
	bx	lr
.L90:
	.loc 3 350 19 view .LVU183
	movs	r0, #1
	bx	lr
.L91:
	.loc 3 353 19 view .LVU184
	movs	r0, #1
	.loc 3 358 1 view .LVU185
	bx	lr
.L94:
	.align	2
.L93:
	.word	-268431392
	.word	-268431388
	.word	-268431384
.LFE135:
	.size	errata_136, .-errata_136
	.section	.text.errata_182,"ax",%progbits
	.align	1
	.syntax unified
	.thumb
	.thumb_func
	.fpu fpv4-sp-d16
	.type	errata_182, %function
errata_182:
.LFB136:
	.loc 3 362 1 is_stmt 1 view -0
	@ args = 0, pretend = 0, frame = 0
	@ frame_needed = 0, uses_anonymous_args = 0
	@ link register save eliminated.
	.loc 3 363 5 view .LVU187
	.loc 3 363 9 is_stmt 0 view .LVU188
	ldr	r3, .L100
	ldr	r3, [r3]
	.loc 3 363 8 view .LVU189
	cmp	r3, #6
	beq	.L99
	.loc 3 369 11 view .LVU190
	movs	r0, #0
	bx	lr
.L99:
	.loc 3 364 9 is_stmt 1 view .LVU191
	.loc 3 364 13 is_stmt 0 view .LVU192
	ldr	r3, .L100+4
	ldr	r3, [r3]
	.loc 3 364 12 view .LVU193
	cmp	r3, #6
	beq	.L98
	.loc 3 369 11 view .LVU194
	movs	r0, #0
	bx	lr
.L98:
	.loc 3 365 19 view .LVU195
	movs	r0, #1
	.loc 3 370 1 view .LVU196
	bx	lr
.L101:
	.align	2
.L100:
	.word	268435760
	.word	268435764
.LFE136:
	.size	errata_182, .-errata_182
	.section	.text.SystemCoreClockUpdate,"ax",%progbits
	.align	1
	.global	SystemCoreClockUpdate
	.syntax unified
	.thumb
	.thumb_func
	.fpu fpv4-sp-d16
	.type	SystemCoreClockUpdate, %function
SystemCoreClockUpdate:
.LFB124:
	.loc 3 57 1 is_stmt 1 view -0
	@ args = 0, pretend = 0, frame = 0
	@ frame_needed = 0, uses_anonymous_args = 0
	@ link register save eliminated.
	.loc 3 58 5 view .LVU198
	.loc 3 58 21 is_stmt 0 view .LVU199
	ldr	r3, .L103
	ldr	r2, .L103+4
	str	r2, [r3]
	.loc 3 59 1 view .LVU200
	bx	lr
.L104:
	.align	2
.L103:
	.word	.LANCHOR0
	.word	64000000
.LFE124:
	.size	SystemCoreClockUpdate, .-SystemCoreClockUpdate
	.section	.text.SystemInit,"ax",%progbits
	.align	1
	.global	SystemInit
	.syntax unified
	.thumb
	.thumb_func
	.fpu fpv4-sp-d16
	.type	SystemInit, %function
SystemInit:
.LFB125:
	.loc 3 62 1 is_stmt 1 view -0
	@ args = 0, pretend = 0, frame = 0
	@ frame_needed = 0, uses_anonymous_args = 0
	push	{r3, lr}
.LCFI0:
	.loc 3 85 5 view .LVU202
	.loc 3 85 9 is_stmt 0 view .LVU203
	bl	errata_12
.LVL0:
	.loc 3 85 8 view .LVU204
	cbz	r0, .L106
	.loc 3 86 9 is_stmt 1 view .LVU205
	.loc 3 86 45 is_stmt 0 view .LVU206
	ldr	r3, .L129
	ldr	r3, [r3]
	.loc 3 86 83 view .LVU207
	ubfx	r3, r3, #8, #5
	.loc 3 86 42 view .LVU208
	ldr	r2, .L129+4
	str	r3, [r2]
.L106:
	.loc 3 91 5 is_stmt 1 view .LVU209
	.loc 3 91 9 is_stmt 0 view .LVU210
	bl	errata_16
.LVL1:
	.loc 3 91 8 view .LVU211
	cbz	r0, .L107
	.loc 3 92 9 is_stmt 1 view .LVU212
	.loc 3 92 42 is_stmt 0 view .LVU213
	ldr	r3, .L129+8
	ldr	r2, .L129+12
	str	r2, [r3]
.L107:
	.loc 3 97 5 is_stmt 1 view .LVU214
	.loc 3 97 9 is_stmt 0 view .LVU215
	bl	errata_31
.LVL2:
	.loc 3 97 8 view .LVU216
	cbz	r0, .L108
	.loc 3 98 9 is_stmt 1 view .LVU217
	.loc 3 98 46 is_stmt 0 view .LVU218
	ldr	r3, .L129+16
	ldr	r3, [r3]
	.loc 3 98 94 view .LVU219
	ubfx	r3, r3, #13, #3
	.loc 3 98 42 view .LVU220
	ldr	r2, .L129+20
	str	r3, [r2]
.L108:
	.loc 3 103 5 is_stmt 1 view .LVU221
	.loc 3 103 9 is_stmt 0 view .LVU222
	bl	errata_32
.LVL3:
	.loc 3 103 8 view .LVU223
	cbz	r0, .L109
	.loc 3 104 9 is_stmt 1 view .LVU224
	.loc 3 104 52 is_stmt 0 view .LVU225
	ldr	r2, .L129+24
	ldr	r3, [r2, #12]
	bic	r3, r3, #16777216
	str	r3, [r2, #12]
.L109:
	.loc 3 109 5 is_stmt 1 view .LVU226
	.loc 3 109 9 is_stmt 0 view .LVU227
	bl	errata_36
.LVL4:
	.loc 3 109 8 view .LVU228
	cbz	r0, .L110
	.loc 3 110 9 is_stmt 1 view .LVU229
	.loc 3 110 56 is_stmt 0 view .LVU230
	mov	r3, #1073741824
	movs	r2, #0
	str	r2, [r3, #268]
	.loc 3 111 9 is_stmt 1 view .LVU231
	.loc 3 111 56 is_stmt 0 view .LVU232
	str	r2, [r3, #272]
	.loc 3 112 9 is_stmt 1 view .LVU233
	.loc 3 112 49 is_stmt 0 view .LVU234
	str	r2, [r3, #1336]
.L110:
	.loc 3 117 5 is_stmt 1 view .LVU235
	.loc 3 117 9 is_stmt 0 view .LVU236
	bl	errata_37
.LVL5:
	.loc 3 117 8 view .LVU237
	cbz	r0, .L111
	.loc 3 118 9 is_stmt 1 view .LVU238
	.loc 3 118 42 is_stmt 0 view .LVU239
	ldr	r3, .L129+28
	movs	r2, #3
	str	r2, [r3]
.L111:
	.loc 3 123 5 is_stmt 1 view .LVU240
	.loc 3 123 9 is_stmt 0 view .LVU241
	bl	errata_57
.LVL6:
	.loc 3 123 8 view .LVU242
	cbz	r0, .L112
	.loc 3 124 9 is_stmt 1 view .LVU243
	.loc 3 124 42 is_stmt 0 view .LVU244
	ldr	r3, .L129+32
	movs	r2, #5
	str	r2, [r3]
	.loc 3 125 9 is_stmt 1 view .LVU245
	.loc 3 125 42 is_stmt 0 view .LVU246
	adds	r3, r3, #120
	movs	r2, #1
	str	r2, [r3]
	.loc 3 126 9 is_stmt 1 view .LVU247
	.loc 3 126 42 is_stmt 0 view .LVU248
	subs	r3, r3, #112
	movs	r2, #0
	str	r2, [r3]
	.loc 3 127 9 is_stmt 1 view .LVU249
	.loc 3 127 42 is_stmt 0 view .LVU250
	subs	r3, r3, #4
	movs	r2, #63
	str	r2, [r3]
.L112:
	.loc 3 132 5 is_stmt 1 view .LVU251
	.loc 3 132 9 is_stmt 0 view .LVU252
	bl	errata_66
.LVL7:
	.loc 3 132 8 view .LVU253
	cmp	r0, #0
	beq	.L113
	.loc 3 133 9 is_stmt 1 view .LVU254
	.loc 3 133 86 is_stmt 0 view .LVU255
	mov	r2, #268435456
	ldr	r1, [r2, #1028]
	.loc 3 133 46 view .LVU256
	ldr	r3, .L129+36
	str	r1, [r3, #1312]
	.loc 3 134 9 is_stmt 1 view .LVU257
	.loc 3 134 86 is_stmt 0 view .LVU258
	ldr	r1, [r2, #1032]
	.loc 3 134 46 view .LVU259
	str	r1, [r3, #1316]
	.loc 3 135 9 is_stmt 1 view .LVU260
	.loc 3 135 86 is_stmt 0 view .LVU261
	ldr	r1, [r2, #1036]
	.loc 3 135 46 view .LVU262
	str	r1, [r3, #1320]
	.loc 3 136 9 is_stmt 1 view .LVU263
	.loc 3 136 86 is_stmt 0 view .LVU264
	ldr	r1, [r2, #1040]
	.loc 3 136 46 view .LVU265
	str	r1, [r3, #1324]
	.loc 3 137 9 is_stmt 1 view .LVU266
	.loc 3 137 86 is_stmt 0 view .LVU267
	ldr	r1, [r2, #1044]
	.loc 3 137 46 view .LVU268
	str	r1, [r3, #1328]
	.loc 3 138 9 is_stmt 1 view .LVU269
	.loc 3 138 86 is_stmt 0 view .LVU270
	ldr	r1, [r2, #1048]
	.loc 3 138 46 view .LVU271
	str	r1, [r3, #1332]
	.loc 3 139 9 is_stmt 1 view .LVU272
	.loc 3 139 86 is_stmt 0 view .LVU273
	ldr	r1, [r2, #1052]
	.loc 3 139 46 view .LVU274
	str	r1, [r3, #1344]
	.loc 3 140 9 is_stmt 1 view .LVU275
	.loc 3 140 86 is_stmt 0 view .LVU276
	ldr	r1, [r2, #1056]
	.loc 3 140 46 view .LVU277
	str	r1, [r3, #1348]
	.loc 3 141 9 is_stmt 1 view .LVU278
	.loc 3 141 86 is_stmt 0 view .LVU279
	ldr	r1, [r2, #1060]
	.loc 3 141 46 view .LVU280
	str	r1, [r3, #1352]
	.loc 3 142 9 is_stmt 1 view .LVU281
	.loc 3 142 86 is_stmt 0 view .LVU282
	ldr	r1, [r2, #1064]
	.loc 3 142 46 view .LVU283
	str	r1, [r3, #1356]
	.loc 3 143 9 is_stmt 1 view .LVU284
	.loc 3 143 86 is_stmt 0 view .LVU285
	ldr	r1, [r2, #1068]
	.loc 3 143 46 view .LVU286
	str	r1, [r3, #1360]
	.loc 3 144 9 is_stmt 1 view .LVU287
	.loc 3 144 86 is_stmt 0 view .LVU288
	ldr	r1, [r2, #1072]
	.loc 3 144 46 view .LVU289
	str	r1, [r3, #1364]
	.loc 3 145 9 is_stmt 1 view .LVU290
	.loc 3 145 86 is_stmt 0 view .LVU291
	ldr	r1, [r2, #1076]
	.loc 3 145 46 view .LVU292
	str	r1, [r3, #1376]
	.loc 3 146 9 is_stmt 1 view .LVU293
	.loc 3 146 86 is_stmt 0 view .LVU294
	ldr	r1, [r2, #1080]
	.loc 3 146 46 view .LVU295
	str	r1, [r3, #1380]
	.loc 3 147 9 is_stmt 1 view .LVU296
	.loc 3 147 86 is_stmt 0 view .LVU297
	ldr	r1, [r2, #1084]
	.loc 3 147 46 view .LVU298
	str	r1, [r3, #1384]
	.loc 3 148 9 is_stmt 1 view .LVU299
	.loc 3 148 86 is_stmt 0 view .LVU300
	ldr	r1, [r2, #1088]
	.loc 3 148 46 view .LVU301
	str	r1, [r3, #1388]
	.loc 3 149 9 is_stmt 1 view .LVU302
	.loc 3 149 86 is_stmt 0 view .LVU303
	ldr	r2, [r2, #1092]
	.loc 3 149 46 view .LVU304
	str	r2, [r3, #1392]
.L113:
	.loc 3 154 5 is_stmt 1 view .LVU305
	.loc 3 154 9 is_stmt 0 view .LVU306
	bl	errata_108
.LVL8:
	.loc 3 154 8 view .LVU307
	cbz	r0, .L114
	.loc 3 155 9 is_stmt 1 view .LVU308
	.loc 3 155 44 is_stmt 0 view .LVU309
	ldr	r3, .L129+40
	ldr	r3, [r3]
	.loc 3 155 77 view .LVU310
	and	r3, r3, #79
	.loc 3 155 42 view .LVU311
	ldr	r2, .L129+44
	str	r3, [r2]
.L114:
	.loc 3 160 5 is_stmt 1 view .LVU312
	.loc 3 160 9 is_stmt 0 view .LVU313
	bl	errata_136
.LVL9:
	.loc 3 160 8 view .LVU314
	cbz	r0, .L115
	.loc 3 161 9 is_stmt 1 view .LVU315
	.loc 3 161 46 is_stmt 0 view .LVU316
	mov	r3, #1073741824
	ldr	r3, [r3, #1024]
	.loc 3 161 12 view .LVU317
	tst	r3, #1
	beq	.L115
	.loc 3 162 13 is_stmt 1 view .LVU318
	.loc 3 162 58 is_stmt 0 view .LVU319
	mov	r3, #1073741824
	mvn	r2, #1
	str	r2, [r3, #1024]
.L115:
	.loc 3 168 5 is_stmt 1 view .LVU320
	.loc 3 168 9 is_stmt 0 view .LVU321
	bl	errata_182
.LVL10:
	.loc 3 168 8 view .LVU322
	cbz	r0, .L116
	.loc 3 169 9 is_stmt 1 view .LVU323
	.loc 3 169 43 is_stmt 0 view .LVU324
	ldr	r2, .L129+48
	ldr	r3, [r2]
	orr	r3, r3, #1024
	str	r3, [r2]
.L116:
	.loc 3 176 9 is_stmt 1 view .LVU325
	.loc 3 176 60 is_stmt 0 view .LVU326
	ldr	r2, .L129+52
	ldr	r3, [r2, #136]
	orr	r3, r3, #15728640
	str	r3, [r2, #136]
	.loc 3 177 9 is_stmt 1 view .LVU327
.LBB18:
.LBI18:
	.loc 2 427 51 view .LVU328
.LBB19:
	.loc 2 429 3 view .LVU329
	.syntax unified
@ 429 "../../../../../../components/toolchain/cmsis/include/cmsis_gcc.h" 1
	dsb 0xF
@ 0 "" 2
	.thumb
	.syntax unified
.LBE19:
.LBE18:
	.loc 3 178 9 view .LVU330
.LBB20:
.LBI20:
	.loc 2 416 51 view .LVU331
.LBB21:
	.loc 2 418 3 view .LVU332
	.syntax unified
@ 418 "../../../../../../components/toolchain/cmsis/include/cmsis_gcc.h" 1
	isb 0xF
@ 0 "" 2
	.thumb
	.syntax unified
.LBE21:
.LBE20:
	.loc 3 185 9 view .LVU333
	.loc 3 185 46 is_stmt 0 view .LVU334
	mov	r3, #268439552
	ldr	r3, [r3, #524]
	.loc 3 185 12 view .LVU335
	tst	r3, #1
	bne	.L128
	.loc 3 200 9 is_stmt 1 view .LVU336
	.loc 3 200 58 is_stmt 0 view .LVU337
	mov	r3, #268439552
	ldr	r3, [r3, #512]
	.loc 3 200 12 view .LVU338
	cmp	r3, #0
	blt	.L121
	.loc 3 201 58 discriminator 1 view .LVU339
	mov	r3, #268439552
	ldr	r3, [r3, #516]
	.loc 3 200 105 discriminator 1 view .LVU340
	cmp	r3, #0
	blt	.L121
	.loc 3 214 5 is_stmt 1 view .LVU341
	bl	SystemCoreClockUpdate
.LVL11:
	.loc 3 215 1 is_stmt 0 view .LVU342
	pop	{r3, pc}
.L128:
	.loc 3 186 13 is_stmt 1 view .LVU343
	.loc 3 186 54 is_stmt 0 view .LVU344
	ldr	r3, .L129+56
	movs	r2, #1
	str	r2, [r3, #1284]
	.loc 3 187 13 is_stmt 1 view .LVU345
.L118:
	.loc 3 187 70 discriminator 1 view .LVU346
	.loc 3 187 19 discriminator 1 view .LVU347
	.loc 3 187 52 is_stmt 0 discriminator 1 view .LVU348
	ldr	r3, .L129+56
	ldr	r3, [r3, #1024]
	.loc 3 187 19 discriminator 1 view .LVU349
	cmp	r3, #0
	beq	.L118
	.loc 3 188 13 is_stmt 1 view .LVU350
	.loc 3 188 55 is_stmt 0 view .LVU351
	mov	r2, #268439552
	ldr	r3, [r2, #524]
	bic	r3, r3, #1
	str	r3, [r2, #524]
	.loc 3 189 13 is_stmt 1 view .LVU352
.L119:
	.loc 3 189 70 discriminator 1 view .LVU353
	.loc 3 189 19 discriminator 1 view .LVU354
	.loc 3 189 52 is_stmt 0 discriminator 1 view .LVU355
	ldr	r3, .L129+56
	ldr	r3, [r3, #1024]
	.loc 3 189 19 discriminator 1 view .LVU356
	cmp	r3, #0
	beq	.L119
	.loc 3 190 13 is_stmt 1 view .LVU357
	.loc 3 190 54 is_stmt 0 view .LVU358
	ldr	r3, .L129+56
	movs	r2, #0
	str	r2, [r3, #1284]
	.loc 3 191 13 is_stmt 1 view .LVU359
.L120:
	.loc 3 191 70 discriminator 1 view .LVU360
	.loc 3 191 19 discriminator 1 view .LVU361
	.loc 3 191 52 is_stmt 0 discriminator 1 view .LVU362
	ldr	r3, .L129+56
	ldr	r3, [r3, #1024]
	.loc 3 191 19 discriminator 1 view .LVU363
	cmp	r3, #0
	beq	.L120
	.loc 3 192 13 is_stmt 1 view .LVU364
	bl	NVIC_SystemReset
.LVL12:
.L121:
	.loc 3 202 13 view .LVU365
	.loc 3 202 54 is_stmt 0 view .LVU366
	ldr	r3, .L129+56
	movs	r2, #1
	str	r2, [r3, #1284]
	.loc 3 203 13 is_stmt 1 view .LVU367
.L123:
	.loc 3 203 70 discriminator 1 view .LVU368
	.loc 3 203 19 discriminator 1 view .LVU369
	.loc 3 203 52 is_stmt 0 discriminator 1 view .LVU370
	ldr	r3, .L129+56
	ldr	r3, [r3, #1024]
	.loc 3 203 19 discriminator 1 view .LVU371
	cmp	r3, #0
	beq	.L123
	.loc 3 204 13 is_stmt 1 view .LVU372
	.loc 3 204 60 is_stmt 0 view .LVU373
	mov	r3, #268439552
	movs	r2, #21
	str	r2, [r3, #512]
	.loc 3 205 13 is_stmt 1 view .LVU374
.L124:
	.loc 3 205 70 discriminator 1 view .LVU375
	.loc 3 205 19 discriminator 1 view .LVU376
	.loc 3 205 52 is_stmt 0 discriminator 1 view .LVU377
	ldr	r3, .L129+56
	ldr	r3, [r3, #1024]
	.loc 3 205 19 discriminator 1 view .LVU378
	cmp	r3, #0
	beq	.L124
	.loc 3 206 13 is_stmt 1 view .LVU379
	.loc 3 206 60 is_stmt 0 view .LVU380
	mov	r3, #268439552
	movs	r2, #21
	str	r2, [r3, #516]
	.loc 3 207 13 is_stmt 1 view .LVU381
.L125:
	.loc 3 207 70 discriminator 1 view .LVU382
	.loc 3 207 19 discriminator 1 view .LVU383
	.loc 3 207 52 is_stmt 0 discriminator 1 view .LVU384
	ldr	r3, .L129+56
	ldr	r3, [r3, #1024]
	.loc 3 207 19 discriminator 1 view .LVU385
	cmp	r3, #0
	beq	.L125
	.loc 3 208 13 is_stmt 1 view .LVU386
	.loc 3 208 54 is_stmt 0 view .LVU387
	ldr	r3, .L129+56
	movs	r2, #0
	str	r2, [r3, #1284]
	.loc 3 209 13 is_stmt 1 view .LVU388
.L126:
	.loc 3 209 70 discriminator 1 view .LVU389
	.loc 3 209 19 discriminator 1 view .LVU390
	.loc 3 209 52 is_stmt 0 discriminator 1 view .LVU391
	ldr	r3, .L129+56
	ldr	r3, [r3, #1024]
	.loc 3 209 19 discriminator 1 view .LVU392
	cmp	r3, #0
	beq	.L126
	.loc 3 210 13 is_stmt 1 view .LVU393
	bl	NVIC_SystemReset
.LVL13:
.L130:
	.align	2
.L129:
	.word	268436260
	.word	1073820992
	.word	1074249844
	.word	-1163005939
	.word	268436036
	.word	1073743164
	.word	-536810000
	.word	1073743264
	.word	1073763856
	.word	1073790976
	.word	268436056
	.word	1073745636
	.word	1073747772
	.word	-536810240
	.word	1073864704
.LFE125:
	.size	SystemInit, .-SystemInit
	.global	SystemCoreClock
	.section	.data.SystemCoreClock,"aw"
	.align	2
	.set	.LANCHOR0,. + 0
	.type	SystemCoreClock, %object
	.size	SystemCoreClock, 4
SystemCoreClock:
	.word	64000000
	.section	.debug_frame,"",%progbits
.Lframe0:
	.4byte	.LECIE0-.LSCIE0
.LSCIE0:
	.4byte	0xffffffff
	.byte	0x3
	.ascii	"\000"
	.uleb128 0x1
	.sleb128 -4
	.uleb128 0xe
	.byte	0xc
	.uleb128 0xd
	.uleb128 0
	.align	2
.LECIE0:
.LSFDE0:
	.4byte	.LEFDE0-.LASFDE0
.LASFDE0:
	.4byte	.Lframe0
	.4byte	.LFB118
	.4byte	.LFE118-.LFB118
	.align	2
.LEFDE0:
.LSFDE2:
	.4byte	.LEFDE2-.LASFDE2
.LASFDE2:
	.4byte	.Lframe0
	.4byte	.LFB126
	.4byte	.LFE126-.LFB126
	.align	2
.LEFDE2:
.LSFDE4:
	.4byte	.LEFDE4-.LASFDE4
.LASFDE4:
	.4byte	.Lframe0
	.4byte	.LFB127
	.4byte	.LFE127-.LFB127
	.align	2
.LEFDE4:
.LSFDE6:
	.4byte	.LEFDE6-.LASFDE6
.LASFDE6:
	.4byte	.Lframe0
	.4byte	.LFB128
	.4byte	.LFE128-.LFB128
	.align	2
.LEFDE6:
.LSFDE8:
	.4byte	.LEFDE8-.LASFDE8
.LASFDE8:
	.4byte	.Lframe0
	.4byte	.LFB129
	.4byte	.LFE129-.LFB129
	.align	2
.LEFDE8:
.LSFDE10:
	.4byte	.LEFDE10-.LASFDE10
.LASFDE10:
	.4byte	.Lframe0
	.4byte	.LFB130
	.4byte	.LFE130-.LFB130
	.align	2
.LEFDE10:
.LSFDE12:
	.4byte	.LEFDE12-.LASFDE12
.LASFDE12:
	.4byte	.Lframe0
	.4byte	.LFB131
	.4byte	.LFE131-.LFB131
	.align	2
.LEFDE12:
.LSFDE14:
	.4byte	.LEFDE14-.LASFDE14
.LASFDE14:
	.4byte	.Lframe0
	.4byte	.LFB132
	.4byte	.LFE132-.LFB132
	.align	2
.LEFDE14:
.LSFDE16:
	.4byte	.LEFDE16-.LASFDE16
.LASFDE16:
	.4byte	.Lframe0
	.4byte	.LFB133
	.4byte	.LFE133-.LFB133
	.align	2
.LEFDE16:
.LSFDE18:
	.4byte	.LEFDE18-.LASFDE18
.LASFDE18:
	.4byte	.Lframe0
	.4byte	.LFB134
	.4byte	.LFE134-.LFB134
	.align	2
.LEFDE18:
.LSFDE20:
	.4byte	.LEFDE20-.LASFDE20
.LASFDE20:
	.4byte	.Lframe0
	.4byte	.LFB135
	.4byte	.LFE135-.LFB135
	.align	2
.LEFDE20:
.LSFDE22:
	.4byte	.LEFDE22-.LASFDE22
.LASFDE22:
	.4byte	.Lframe0
	.4byte	.LFB136
	.4byte	.LFE136-.LFB136
	.align	2
.LEFDE22:
.LSFDE24:
	.4byte	.LEFDE24-.LASFDE24
.LASFDE24:
	.4byte	.Lframe0
	.4byte	.LFB124
	.4byte	.LFE124-.LFB124
	.align	2
.LEFDE24:
.LSFDE26:
	.4byte	.LEFDE26-.LASFDE26
.LASFDE26:
	.4byte	.Lframe0
	.4byte	.LFB125
	.4byte	.LFE125-.LFB125
	.byte	0x4
	.4byte	.LCFI0-.LFB125
	.byte	0xe
	.uleb128 0x8
	.byte	0x83
	.uleb128 0x2
	.byte	0x8e
	.uleb128 0x1
	.align	2
.LEFDE26:
	.text
.Letext0:
	.file 4 "C:\\nRF5_SDK_15.0.0_a53641a\\modules\\nrfx\\mdk\\nrf52.h"
	.file 5 "C:/Program Files (x86)/SEGGER/SEGGER Embedded Studio for ARM 4.50/include/stdint.h"