	.cpu cortex-m4
	.eabi_attribute 27, 1
	.eabi_attribute 28, 1
	.eabi_attribute 20, 1
	.eabi_attribute 21, 1
	.eabi_attribute 23, 3
	.eabi_attribute 24, 1
	.eabi_attribute 25, 1
	.eabi_attribute 26, 1
	.eabi_attribute 30, 1
	.eabi_attribute 34, 1
	.eabi_attribute 18, 4
	.file	"tasks.c"
	.text
.Ltext0:
	.section	.text.prvTaskCheckFreeStackSpace,"ax",%progbits
	.align	1
	.syntax unified
	.thumb
	.thumb_func
	.fpu fpv4-sp-d16
	.type	prvTaskCheckFreeStackSpace, %function
prvTaskCheckFreeStackSpace:
.LVL0:
.LFB242:
	.file 1 "C:\\nRF5_SDK_15.0.0_a53641a\\external\\freertos\\source\\tasks.c"
	.loc 1 3629 2 view -0
	@ args = 0, pretend = 0, frame = 0
	@ frame_needed = 0, uses_anonymous_args = 0
	@ link register save eliminated.
	.loc 1 3630 2 view .LVU1
	.loc 1 3632 3 view .LVU2
	.loc 1 3630 11 is_stmt 0 view .LVU3
	movs	r3, #0
.LVL1:
.L2:
	.loc 1 3632 8 is_stmt 1 view .LVU4
	.loc 1 3632 10 is_stmt 0 view .LVU5
	ldrb	r2, [r0]	@ zero_extendqisi2
	.loc 1 3632 8 view .LVU6
	cmp	r2, #165
	bne	.L4
	.loc 1 3634 4 is_stmt 1 view .LVU7
	.loc 1 3634 17 is_stmt 0 view .LVU8
	adds	r0, r0, #1
.LVL2:
	.loc 1 3635 4 is_stmt 1 view .LVU9
	.loc 1 3635 11 is_stmt 0 view .LVU10
	adds	r3, r3, #1
.LVL3:
	.loc 1 3635 11 view .LVU11
	b	.L2
.L4:
	.loc 1 3638 3 is_stmt 1 view .LVU12
.LVL4:
	.loc 1 3640 3 view .LVU13
	.loc 1 3641 2 is_stmt 0 view .LVU14
	ubfx	r0, r3, #2, #16
.LVL5:
	.loc 1 3641 2 view .LVU15
	bx	lr
.LFE242:
	.size	prvTaskCheckFreeStackSpace, .-prvTaskCheckFreeStackSpace
	.section	.text.prvResetNextTaskUnblockTime,"ax",%progbits
	.align	1
	.syntax unified
	.thumb
	.thumb_func
	.fpu fpv4-sp-d16
	.type	prvResetNextTaskUnblockTime, %function
prvResetNextTaskUnblockTime:
.LFB245:
	.loc 1 3731 1 is_stmt 1 view -0
	@ args = 0, pretend = 0, frame = 0
	@ frame_needed = 0, uses_anonymous_args = 0
	@ link register save eliminated.
	.loc 1 3732 1 view .LVU17
	.loc 1 3734 2 view .LVU18
	.loc 1 3734 46 is_stmt 0 view .LVU19
	ldr	r3, .L8
	ldr	r3, [r3]
	ldr	r3, [r3]
	.loc 1 3734 89 view .LVU20
	cbnz	r3, .L6
	.loc 1 3740 3 is_stmt 1 view .LVU21
	.loc 1 3740 24 is_stmt 0 view .LVU22
	ldr	r3, .L8+4
	mov	r2, #-1
	str	r2, [r3]
	bx	lr
.L6:
	.loc 1 3748 3 is_stmt 1 view .LVU23
	.loc 1 3748 54 is_stmt 0 view .LVU24
	ldr	r3, .L8
	ldr	r3, [r3]
	.loc 1 3748 67 view .LVU25
	ldr	r3, [r3, #12]
	.loc 1 3748 13 view .LVU26
	ldr	r3, [r3, #12]
.LVL6:
	.loc 1 3749 3 is_stmt 1 view .LVU27
	.loc 1 3749 62 is_stmt 0 view .LVU28
	ldr	r2, [r3, #4]
	.loc 1 3749 24 view .LVU29
	ldr	r3, .L8+4
.LVL7:
	.loc 1 3749 24 view .LVU30
	str	r2, [r3]
	.loc 1 3751 1 view .LVU31
	bx	lr
.L9:
	.align	2
.L8:
	.word	.LANCHOR0
	.word	.LANCHOR1
.LFE245:
	.size	prvResetNextTaskUnblockTime, .-prvResetNextTaskUnblockTime
	.section	.text.prvDeleteTCB,"ax",%progbits
	.align	1
	.syntax unified
	.thumb
	.thumb_func
	.fpu fpv4-sp-d16
	.type	prvDeleteTCB, %function
prvDeleteTCB:
.LVL8:
.LFB244:
	.loc 1 3677 2 is_stmt 1 view -0
	@ args = 0, pretend = 0, frame = 0
	@ frame_needed = 0, uses_anonymous_args = 0
	.loc 1 3677 2 is_stmt 0 view .LVU33
	push	{r4, lr}
.LCFI0:
	mov	r4, r0
	.loc 1 3681 3 is_stmt 1 view .LVU34
	.loc 1 3695 4 view .LVU35
	ldr	r0, [r0, #48]
.LVL9:
	.loc 1 3695 4 is_stmt 0 view .LVU36
	bl	vPortFree
.LVL10:
	.loc 1 3696 4 is_stmt 1 view .LVU37
	mov	r0, r4
	bl	vPortFree
.LVL11:
	.loc 1 3725 2 is_stmt 0 view .LVU38
	pop	{r4, pc}
	.loc 1 3725 2 view .LVU39
.LFE244:
	.size	prvDeleteTCB, .-prvDeleteTCB
	.section	.rodata.prvTaskIsTaskSuspended.str1.4,"aMS",%progbits,1
	.align	2
.LC0:
	.ascii	"C:\\nRF5_SDK_15.0.0_a53641a\\external\\freertos\\so"
	.ascii	"urce\\tasks.c\000"
	.section	.text.prvTaskIsTaskSuspended,"ax",%progbits
	.align	1
	.syntax unified
	.thumb
	.thumb_func
	.fpu fpv4-sp-d16
	.type	prvTaskIsTaskSuspended, %function
prvTaskIsTaskSuspended:
.LVL12:
.LFB211:
	.loc 1 1732 2 is_stmt 1 view -0
	@ args = 0, pretend = 0, frame = 0
	@ frame_needed = 0, uses_anonymous_args = 0
	.loc 1 1732 2 is_stmt 0 view .LVU41
	push	{r4, lr}
.LCFI1:
	.loc 1 1733 2 is_stmt 1 view .LVU42
.LVL13:
	.loc 1 1734 2 view .LVU43
	.loc 1 1740 3 view .LVU44
	.loc 1 1740 12 view .LVU45
	.loc 1 1740 15 is_stmt 0 view .LVU46
	mov	r4, r0
	cbz	r0, .L19
.LVL14:
.L13:
	.loc 1 1740 153 is_stmt 1 discriminator 5 view .LVU47
	.loc 1 1743 3 discriminator 5 view .LVU48
	.loc 1 1743 56 is_stmt 0 discriminator 5 view .LVU49
	ldr	r2, [r4, #20]
	.loc 1 1743 112 discriminator 5 view .LVU50
	ldr	r3, .L21
	cmp	r2, r3
	beq	.L20
	.loc 1 1733 13 view .LVU51
	movs	r0, #0
.LVL15:
.L12:
	.loc 1 1770 2 view .LVU52
	pop	{r4, pc}
.LVL16:
.L19:
	.loc 1 1740 34 is_stmt 1 discriminator 4 view .LVU53
	ldr	r1, .L21+4
	movw	r0, #1740
.LVL17:
	.loc 1 1740 34 is_stmt 0 discriminator 4 view .LVU54
	bl	assert_nrf_callback
.LVL18:
	b	.L13
.L20:
	.loc 1 1746 4 is_stmt 1 view .LVU55
	.loc 1 1746 57 is_stmt 0 view .LVU56
	ldr	r3, [r4, #40]
	.loc 1 1746 6 view .LVU57
	ldr	r2, .L21+8
	cmp	r3, r2
	beq	.L16
	.loc 1 1750 5 is_stmt 1 view .LVU58
	.loc 1 1750 14 is_stmt 0 view .LVU59
	cbz	r3, .L17
	.loc 1 1733 13 view .LVU60
	movs	r0, #0
	b	.L12
.L16:
	movs	r0, #0
	b	.L12
.L17:
	.loc 1 1752 14 view .LVU61
	movs	r0, #1
.LVL19:
	.loc 1 1766 4 is_stmt 1 view .LVU62
	.loc 1 1769 3 view .LVU63
	.loc 1 1769 10 is_stmt 0 view .LVU64
	b	.L12
.L22:
	.align	2
.L21:
	.word	.LANCHOR2
	.word	.LC0
	.word	.LANCHOR3
.LFE211:
	.size	prvTaskIsTaskSuspended, .-prvTaskIsTaskSuspended
	.section	.text.prvInitialiseNewTask,"ax",%progbits
	.align	1
	.syntax unified
	.thumb
	.thumb_func
	.fpu fpv4-sp-d16
	.type	prvInitialiseNewTask, %function
prvInitialiseNewTask:
.LVL20:
.LFB201:
	.loc 1 831 1 is_stmt 1 view -0
	@ args = 16, pretend = 0, frame = 0
	@ frame_needed = 0, uses_anonymous_args = 0
	.loc 1 831 1 is_stmt 0 view .LVU66
	push	{r4, r5, r6, r7, r8, r9, r10, lr}
.LCFI2:
	mov	r8, r0
	mov	r5, r1
	mov	r7, r2
	mov	r9, r3
	ldr	r6, [sp, #32]
	ldr	r10, [sp, #36]
	ldr	r4, [sp, #40]
	.loc 1 832 1 is_stmt 1 view .LVU67
	.loc 1 833 1 view .LVU68
	.loc 1 853 3 view .LVU69
	.loc 1 853 12 is_stmt 0 view .LVU70
	lsls	r2, r2, #2
.LVL21:
	.loc 1 853 12 view .LVU71
	movs	r1, #165
.LVL22:
	.loc 1 853 12 view .LVU72
	ldr	r0, [r4, #48]
.LVL23:
	.loc 1 853 12 view .LVU73
	bl	memset
.LVL24:
	.loc 1 863 3 is_stmt 1 view .LVU74
	.loc 1 863 26 is_stmt 0 view .LVU75
	ldr	r3, [r4, #48]
	.loc 1 863 36 view .LVU76
	add	r2, r7, #1073741824
	subs	r2, r2, #1
	.loc 1 863 16 view .LVU77
	add	r7, r3, r2, lsl #2
.LVL25:
	.loc 1 864 3 is_stmt 1 view .LVU78
	.loc 1 864 68 is_stmt 0 view .LVU79
	bic	r7, r7, #7
.LVL26:
	.loc 1 867 3 is_stmt 1 view .LVU80
	.loc 1 867 12 view .LVU81
	.loc 1 867 213 view .LVU82
	.loc 1 891 2 view .LVU83
	.loc 1 891 9 is_stmt 0 view .LVU84
	movs	r2, #0
.LVL27:
.L24:
	.loc 1 891 30 is_stmt 1 discriminator 1 view .LVU85
	.loc 1 891 2 is_stmt 0 discriminator 1 view .LVU86
	cmp	r2, #5
	bhi	.L25
	.loc 1 893 3 is_stmt 1 view .LVU87
	.loc 1 893 37 is_stmt 0 view .LVU88
	ldrb	r1, [r5, r2]	@ zero_extendqisi2
	.loc 1 893 29 view .LVU89
	adds	r3, r4, r2
	strb	r1, [r3, #52]
	.loc 1 898 3 is_stmt 1 view .LVU90
	.loc 1 898 13 is_stmt 0 view .LVU91
	ldrb	r3, [r5, r2]	@ zero_extendqisi2
	.loc 1 898 5 view .LVU92
	cbz	r3, .L25
	.loc 1 904 4 is_stmt 1 discriminator 2 view .LVU93
	.loc 1 891 57 discriminator 2 view .LVU94
	.loc 1 891 58 is_stmt 0 discriminator 2 view .LVU95
	adds	r2, r2, #1
.LVL28:
	.loc 1 891 58 discriminator 2 view .LVU96
	b	.L24
.L25:
	.loc 1 910 2 is_stmt 1 view .LVU97
	.loc 1 910 36 is_stmt 0 view .LVU98
	movs	r3, #0
	strb	r3, [r4, #57]
	.loc 1 914 2 is_stmt 1 view .LVU99
	.loc 1 914 4 is_stmt 0 view .LVU100
	cmp	r6, #6
	bls	.L27
	.loc 1 916 14 view .LVU101
	movs	r6, #6
.L27:
.LVL29:
	.loc 1 920 3 is_stmt 1 view .LVU102
	.loc 1 923 2 view .LVU103
	.loc 1 923 23 is_stmt 0 view .LVU104
	str	r6, [r4, #44]
	.loc 1 926 3 is_stmt 1 view .LVU105
	.loc 1 926 28 is_stmt 0 view .LVU106
	str	r6, [r4, #68]
	.loc 1 927 3 is_stmt 1 view .LVU107
	.loc 1 927 27 is_stmt 0 view .LVU108
	movs	r5, #0
.LVL30:
	.loc 1 927 27 view .LVU109
	str	r5, [r4, #72]
	.loc 1 931 2 is_stmt 1 view .LVU110
	adds	r0, r4, #4
	bl	vListInitialiseItem
.LVL31:
	.loc 1 932 2 view .LVU111
	add	r0, r4, #24
	bl	vListInitialiseItem
.LVL32:
	.loc 1 936 2 view .LVU112
	.loc 1 936 47 is_stmt 0 view .LVU113
	str	r4, [r4, #16]
	.loc 1 939 2 is_stmt 1 view .LVU114
	.loc 1 939 75 is_stmt 0 view .LVU115
	rsb	r6, r6, #7
.LVL33:
	.loc 1 939 50 view .LVU116
	str	r6, [r4, #24]
	.loc 1 940 2 is_stmt 1 view .LVU117
	.loc 1 940 47 is_stmt 0 view .LVU118
	str	r4, [r4, #36]
	.loc 1 967 3 is_stmt 1 view .LVU119
	.loc 1 982 3 view .LVU120
	.loc 1 982 29 is_stmt 0 view .LVU121
	str	r5, [r4, #76]
	.loc 1 983 3 is_stmt 1 view .LVU122
	.loc 1 983 27 is_stmt 0 view .LVU123
	strb	r5, [r4, #80]
	.loc 1 1010 3 is_stmt 1 view .LVU124
	.loc 1 1010 28 is_stmt 0 view .LVU125
	mov	r2, r9
	mov	r1, r8
	mov	r0, r7
	bl	pxPortInitialiseStack
.LVL34:
	.loc 1 1010 26 view .LVU126
	str	r0, [r4]
	.loc 1 1014 2 is_stmt 1 view .LVU127
	.loc 1 1014 4 is_stmt 0 view .LVU128
	cmp	r10, #0
	beq	.L23
	.loc 1 1018 3 is_stmt 1 view .LVU129
	.loc 1 1018 18 is_stmt 0 view .LVU130
	str	r4, [r10]
	.loc 1 1022 3 is_stmt 1 view .LVU131
.L23:
	.loc 1 1024 1 is_stmt 0 view .LVU132
	pop	{r4, r5, r6, r7, r8, r9, r10, pc}
	.loc 1 1024 1 view .LVU133
.LFE201:
	.size	prvInitialiseNewTask, .-prvInitialiseNewTask
	.section	.text.prvInitialiseTaskLists,"ax",%progbits
	.align	1
	.syntax unified
	.thumb
	.thumb_func
	.fpu fpv4-sp-d16
	.type	prvInitialiseTaskLists, %function
prvInitialiseTaskLists:
.LFB238:
	.loc 1 3437 1 is_stmt 1 view -0
	@ args = 0, pretend = 0, frame = 0
	@ frame_needed = 0, uses_anonymous_args = 0
	push	{r3, r4, r5, lr}
.LCFI3:
	.loc 1 3438 1 view .LVU135
	.loc 1 3440 2 view .LVU136
.LVL35:
	.loc 1 3440 18 is_stmt 0 view .LVU137
	movs	r4, #0
	.loc 1 3440 2 view .LVU138
	b	.L32
.LVL36:
.L33:
	.loc 1 3442 3 is_stmt 1 discriminator 3 view .LVU139
	add	r2, r4, r4, lsl #2
	lsls	r3, r2, #2
	ldr	r0, .L35
	add	r0, r0, r3
	bl	vListInitialise
.LVL37:
	.loc 1 3440 76 discriminator 3 view .LVU140
	.loc 1 3440 86 is_stmt 0 discriminator 3 view .LVU141
	adds	r4, r4, #1
.LVL38:
.L32:
	.loc 1 3440 40 is_stmt 1 discriminator 1 view .LVU142
	.loc 1 3440 2 is_stmt 0 discriminator 1 view .LVU143
	cmp	r4, #6
	bls	.L33
	.loc 1 3445 2 is_stmt 1 view .LVU144
	ldr	r5, .L35+4
	mov	r0, r5
	bl	vListInitialise
.LVL39:
	.loc 1 3446 2 view .LVU145
	ldr	r4, .L35+8
.LVL40:
	.loc 1 3446 2 is_stmt 0 view .LVU146
	mov	r0, r4
	bl	vListInitialise
.LVL41:
	.loc 1 3447 2 is_stmt 1 view .LVU147
	ldr	r0, .L35+12
	bl	vListInitialise
.LVL42:
	.loc 1 3451 3 view .LVU148
	ldr	r0, .L35+16
	bl	vListInitialise
.LVL43:
	.loc 1 3457 3 view .LVU149
	ldr	r0, .L35+20
	bl	vListInitialise
.LVL44:
	.loc 1 3463 2 view .LVU150
	.loc 1 3463 20 is_stmt 0 view .LVU151
	ldr	r3, .L35+24
	str	r5, [r3]
	.loc 1 3464 2 is_stmt 1 view .LVU152
	.loc 1 3464 28 is_stmt 0 view .LVU153
	ldr	r3, .L35+28
	str	r4, [r3]
	.loc 1 3465 1 view .LVU154
	pop	{r3, r4, r5, pc}
.L36:
	.align	2
.L35:
	.word	.LANCHOR4
	.word	.LANCHOR5
	.word	.LANCHOR6
	.word	.LANCHOR3
	.word	.LANCHOR7
	.word	.LANCHOR2
	.word	.LANCHOR0
	.word	.LANCHOR8
.LFE238:
	.size	prvInitialiseTaskLists, .-prvInitialiseTaskLists
	.section	.text.prvAddNewTaskToReadyList,"ax",%progbits
	.align	1
	.syntax unified
	.thumb
	.thumb_func
	.fpu fpv4-sp-d16
	.type	prvAddNewTaskToReadyList, %function
prvAddNewTaskToReadyList:
.LVL45:
.LFB202:
	.loc 1 1028 1 is_stmt 1 view -0
	@ args = 0, pretend = 0, frame = 0
	@ frame_needed = 0, uses_anonymous_args = 0
	.loc 1 1028 1 is_stmt 0 view .LVU156
	push	{r4, lr}
.LCFI4:
	sub	sp, sp, #8
.LCFI5:
	mov	r4, r0
	.loc 1 1031 2 is_stmt 1 view .LVU157
	bl	vPortEnterCritical
.LVL46:
	.loc 1 1033 3 view .LVU158
	.loc 1 1033 25 is_stmt 0 view .LVU159
	ldr	r2, .L45
	ldr	r3, [r2]
	adds	r3, r3, #1
	str	r3, [r2]
	.loc 1 1034 3 is_stmt 1 view .LVU160
	.loc 1 1034 20 is_stmt 0 view .LVU161
	ldr	r3, .L45+4
	ldr	r3, [r3]
	.loc 1 1034 5 view .LVU162
	cbz	r3, .L43
	.loc 1 1057 4 is_stmt 1 view .LVU163
	.loc 1 1057 26 is_stmt 0 view .LVU164
	ldr	r3, .L45+8
	ldr	r3, [r3]
	.loc 1 1057 6 view .LVU165
	cbnz	r3, .L39
	.loc 1 1059 5 is_stmt 1 view .LVU166
	.loc 1 1059 21 is_stmt 0 view .LVU167
	ldr	r3, .L45+4
	ldr	r3, [r3]
	ldr	r2, [r3, #44]
	.loc 1 1059 45 view .LVU168
	ldr	r3, [r4, #44]
	.loc 1 1059 7 view .LVU169
	cmp	r2, r3
	bhi	.L39
	.loc 1 1061 6 is_stmt 1 view .LVU170
	.loc 1 1061 19 is_stmt 0 view .LVU171
	ldr	r3, .L45+4
	str	r4, [r3]
	b	.L39
.L43:
	.loc 1 1038 4 is_stmt 1 view .LVU172
	.loc 1 1038 17 is_stmt 0 view .LVU173
	ldr	r3, .L45+4
	str	r4, [r3]
	.loc 1 1040 4 is_stmt 1 view .LVU174
	.loc 1 1040 31 is_stmt 0 view .LVU175
	ldr	r3, [r2]
	.loc 1 1040 6 view .LVU176
	cmp	r3, #1
	beq	.L44
.L39:
	.loc 1 1070 5 is_stmt 1 view .LVU177
	.loc 1 1074 3 view .LVU178
	.loc 1 1074 15 is_stmt 0 view .LVU179
	ldr	r2, .L45+12
	ldr	r3, [r2]
	adds	r3, r3, #1
	str	r3, [r2]
	.loc 1 1079 4 is_stmt 1 view .LVU180
	.loc 1 1079 26 is_stmt 0 view .LVU181
	str	r3, [r4, #60]
	.loc 1 1082 3 is_stmt 1 view .LVU182
	.loc 1 1082 6 is_stmt 0 view .LVU183
	cbz	r4, .L40
	.loc 1 1082 6 is_stmt 1 discriminator 1 view .LVU184
	mov	r0, r4
	bl	SEGGER_SYSVIEW_OnTaskCreate
.LVL47:
	.loc 1 1082 60 discriminator 1 view .LVU185
	.loc 1 1082 174 is_stmt 0 discriminator 1 view .LVU186
	ldr	r3, [r4, #48]
	.loc 1 1082 209 discriminator 1 view .LVU187
	ldr	r2, [r4]
	.loc 1 1082 224 discriminator 1 view .LVU188
	subs	r2, r2, r3
	.loc 1 1082 60 discriminator 1 view .LVU189
	str	r2, [sp]
	ldr	r2, [r4, #44]
	add	r1, r4, #52
	mov	r0, r4
	bl	SYSVIEW_AddTask
.LVL48:
.L40:
	.loc 1 1082 264 is_stmt 1 discriminator 3 view .LVU190
	.loc 1 1084 3 discriminator 3 view .LVU191
	mov	r0, r4
	bl	SEGGER_SYSVIEW_OnTaskStartReady
.LVL49:
	.loc 1 1084 61 discriminator 3 view .LVU192
	.loc 1 1084 110 is_stmt 0 discriminator 3 view .LVU193
	ldr	r0, [r4, #44]
	.loc 1 1084 93 discriminator 3 view .LVU194
	movs	r3, #1
	lsls	r3, r3, r0
	.loc 1 1084 84 discriminator 3 view .LVU195
	ldr	r2, .L45+16
	ldr	r1, [r2]
	orrs	r3, r3, r1
	str	r3, [r2]
	.loc 1 1084 128 is_stmt 1 discriminator 3 view .LVU196
	add	r0, r0, r0, lsl #2
	adds	r1, r4, #4
	ldr	r3, .L45+20
	add	r0, r3, r0, lsl #2
	bl	vListInsertEnd
.LVL50:
	.loc 1 1084 233 discriminator 3 view .LVU197
	.loc 1 1086 3 discriminator 3 view .LVU198
	.loc 1 1088 2 discriminator 3 view .LVU199
	bl	vPortExitCritical
.LVL51:
	.loc 1 1090 2 discriminator 3 view .LVU200
	.loc 1 1090 24 is_stmt 0 discriminator 3 view .LVU201
	ldr	r3, .L45+8
	ldr	r3, [r3]
	.loc 1 1090 4 discriminator 3 view .LVU202
	cbz	r3, .L37
	.loc 1 1094 3 is_stmt 1 view .LVU203
	.loc 1 1094 19 is_stmt 0 view .LVU204
	ldr	r3, .L45+4
	ldr	r3, [r3]
	ldr	r2, [r3, #44]
	.loc 1 1094 42 view .LVU205
	ldr	r3, [r4, #44]
	.loc 1 1094 5 view .LVU206
	cmp	r2, r3
	bcs	.L37
	.loc 1 1096 4 is_stmt 1 view .LVU207
	.loc 1 1096 9 view .LVU208
	.loc 1 1096 59 is_stmt 0 view .LVU209
	ldr	r3, .L45+24
	mov	r2, #268435456
	str	r2, [r3, #4]
	.loc 1 1096 75 is_stmt 1 view .LVU210
.LBB124:
.LBI124:
	.file 2 "../../../../../../components/toolchain/cmsis/include/cmsis_gcc.h"
	.loc 2 404 51 view .LVU211
.LBB125:
	.loc 2 406 3 view .LVU212
	.syntax unified
@ 406 "../../../../../../components/toolchain/cmsis/include/cmsis_gcc.h" 1
	sev
@ 0 "" 2
	.thumb
	.syntax unified
.LBE125:
.LBE124:
	.loc 1 1096 84 view .LVU213
.LBB126:
.LBI126:
	.loc 2 427 51 view .LVU214
.LBB127:
	.loc 2 429 3 view .LVU215
	.syntax unified
@ 429 "../../../../../../components/toolchain/cmsis/include/cmsis_gcc.h" 1
	dsb 0xF
@ 0 "" 2
	.thumb
	.syntax unified
.LBE127:
.LBE126:
	.loc 1 1096 93 view .LVU216
.LBB128:
.LBI128:
	.loc 2 416 51 view .LVU217
.LBB129:
	.loc 2 418 3 view .LVU218
	.syntax unified
@ 418 "../../../../../../components/toolchain/cmsis/include/cmsis_gcc.h" 1
	isb 0xF
@ 0 "" 2
	.thumb
	.syntax unified
.LBE129:
.LBE128:
	.loc 1 1105 3 view .LVU219
.L37:
	.loc 1 1107 1 is_stmt 0 view .LVU220
	add	sp, sp, #8
.LCFI6:
	@ sp needed
	pop	{r4, pc}
.LVL52:
.L44:
.LCFI7:
	.loc 1 1045 5 is_stmt 1 view .LVU221
	bl	prvInitialiseTaskLists
.LVL53:
	b	.L39
.L46:
	.align	2
.L45:
	.word	.LANCHOR9
	.word	.LANCHOR10
	.word	.LANCHOR11
	.word	.LANCHOR12
	.word	.LANCHOR13
	.word	.LANCHOR4
	.word	-536810240
.LFE202:
	.size	prvAddNewTaskToReadyList, .-prvAddNewTaskToReadyList
	.section	.text.prvCheckTasksWaitingTermination,"ax",%progbits
	.align	1
	.syntax unified
	.thumb
	.thumb_func
	.fpu fpv4-sp-d16
	.type	prvCheckTasksWaitingTermination, %function
prvCheckTasksWaitingTermination:
.LFB239:
	.loc 1 3469 1 view -0
	@ args = 0, pretend = 0, frame = 0
	@ frame_needed = 0, uses_anonymous_args = 0
.LBB130:
	.loc 1 3475 3 view .LVU223
	.loc 1 3479 3 view .LVU224
	.loc 1 3479 8 view .LVU225
	.loc 1 3479 39 is_stmt 0 view .LVU226
	ldr	r3, .L54
	ldr	r3, [r3]
	.loc 1 3479 8 view .LVU227
	cbz	r3, .L53
.LBE130:
	.loc 1 3469 1 view .LVU228
	push	{r4, lr}
.LCFI8:
.L49:
.LBB131:
	.loc 1 3481 4 is_stmt 1 view .LVU229
	bl	vPortEnterCritical
.LVL54:
	.loc 1 3483 5 view .LVU230
	.loc 1 3483 77 is_stmt 0 view .LVU231
	ldr	r3, .L54+4
	ldr	r3, [r3, #12]
	.loc 1 3483 11 view .LVU232
	ldr	r4, [r3, #12]
.LVL55:
	.loc 1 3484 5 is_stmt 1 view .LVU233
	.loc 1 3484 14 is_stmt 0 view .LVU234
	adds	r0, r4, #4
	bl	uxListRemove
.LVL56:
	.loc 1 3485 5 is_stmt 1 view .LVU235
	ldr	r2, .L54+8
	ldr	r3, [r2]
	subs	r3, r3, #1
	str	r3, [r2]
	.loc 1 3486 5 view .LVU236
	ldr	r2, .L54
	ldr	r3, [r2]
	subs	r3, r3, #1
	str	r3, [r2]
	.loc 1 3488 4 view .LVU237
	bl	vPortExitCritical
.LVL57:
	.loc 1 3490 4 view .LVU238
	mov	r0, r4
	bl	prvDeleteTCB
.LVL58:
	.loc 1 3479 8 view .LVU239
	.loc 1 3479 39 is_stmt 0 view .LVU240
	ldr	r3, .L54
	ldr	r3, [r3]
	.loc 1 3479 8 view .LVU241
	cmp	r3, #0
	bne	.L49
.LBE131:
	.loc 1 3494 1 view .LVU242
	pop	{r4, pc}
.LVL59:
.L53:
.LCFI9:
	.loc 1 3494 1 view .LVU243
	bx	lr
.L55:
	.align	2
.L54:
	.word	.LANCHOR14
	.word	.LANCHOR7
	.word	.LANCHOR9
.LFE239:
	.size	prvCheckTasksWaitingTermination, .-prvCheckTasksWaitingTermination
	.section	.text.prvIdleTask,"ax",%progbits
	.align	1
	.syntax unified
	.thumb
	.thumb_func
	.fpu fpv4-sp-d16
	.type	prvIdleTask, %function
prvIdleTask:
.LFB237:
	.loc 1 3225 1 is_stmt 1 view -0
	@ Volatile: function does not return.
	@ args = 0, pretend = 0, frame = 0
	@ frame_needed = 0, uses_anonymous_args = 0
.LVL60:
	.loc 1 3225 1 is_stmt 0 view .LVU245
	push	{r3, lr}
.LCFI10:
.LVL61:
.L57:
	.loc 1 3227 2 is_stmt 1 view .LVU246
	.loc 1 3235 2 view .LVU247
	.loc 1 3237 2 view .LVU248
	.loc 1 3241 3 view .LVU249
	bl	prvCheckTasksWaitingTermination
.LVL62:
	.loc 1 3264 4 view .LVU250
	.loc 1 3264 62 is_stmt 0 view .LVU251
	ldr	r3, .L60
	ldr	r3, [r3]
	.loc 1 3264 6 view .LVU252
	cmp	r3, #1
	bls	.L57
	.loc 1 3266 5 is_stmt 1 view .LVU253
	.loc 1 3266 10 view .LVU254
	.loc 1 3266 60 is_stmt 0 view .LVU255
	ldr	r3, .L60+4
	mov	r2, #268435456
	str	r2, [r3, #4]
	.loc 1 3266 76 is_stmt 1 view .LVU256
.LBB132:
.LBI132:
	.loc 2 404 51 view .LVU257
.LBB133:
	.loc 2 406 3 view .LVU258
	.syntax unified
@ 406 "../../../../../../components/toolchain/cmsis/include/cmsis_gcc.h" 1
	sev
@ 0 "" 2
	.thumb
	.syntax unified
.LBE133:
.LBE132:
	.loc 1 3266 85 view .LVU259
.LBB134:
.LBI134:
	.loc 2 427 51 view .LVU260
.LBB135:
	.loc 2 429 3 view .LVU261
	.syntax unified
@ 429 "../../../../../../components/toolchain/cmsis/include/cmsis_gcc.h" 1
	dsb 0xF
@ 0 "" 2
	.thumb
	.syntax unified
.LBE135:
.LBE134:
	.loc 1 3266 94 view .LVU262
.LBB136:
.LBI136:
	.loc 2 416 51 view .LVU263
.LBB137:
	.loc 2 418 3 view .LVU264
	.syntax unified
@ 418 "../../../../../../components/toolchain/cmsis/include/cmsis_gcc.h" 1
	isb 0xF
@ 0 "" 2
	.loc 2 419 1 is_stmt 0 view .LVU265
	.thumb
	.syntax unified
	b	.L57
.L61:
	.align	2
.L60:
	.word	.LANCHOR4
	.word	-536810240
.LBE137:
.LBE136:
.LFE237:
	.size	prvIdleTask, .-prvIdleTask
	.section	.text.prvAddCurrentTaskToDelayedList,"ax",%progbits
	.align	1
	.syntax unified
	.thumb
	.thumb_func
	.fpu fpv4-sp-d16
	.type	prvAddCurrentTaskToDelayedList, %function
prvAddCurrentTaskToDelayedList:
.LVL63:
.LFB259:
	.loc 1 4910 1 is_stmt 1 view -0
	@ args = 0, pretend = 0, frame = 0
	@ frame_needed = 0, uses_anonymous_args = 0
	.loc 1 4910 1 is_stmt 0 view .LVU267
	push	{r4, r5, r6, lr}
.LCFI11:
	mov	r4, r0
	mov	r5, r1
	.loc 1 4911 1 is_stmt 1 view .LVU268
	.loc 1 4912 1 view .LVU269
	.loc 1 4912 18 is_stmt 0 view .LVU270
	ldr	r3, .L69
	ldr	r6, [r3]
.LVL64:
	.loc 1 4925 2 is_stmt 1 view .LVU271
	.loc 1 4925 35 is_stmt 0 view .LVU272
	ldr	r3, .L69+4
	ldr	r0, [r3]
.LVL65:
	.loc 1 4925 6 view .LVU273
	adds	r0, r0, #4
	bl	uxListRemove
.LVL66:
	.loc 1 4925 4 view .LVU274
	cbnz	r0, .L63
	.loc 1 4929 3 is_stmt 1 view .LVU275
	.loc 1 4929 53 is_stmt 0 view .LVU276
	ldr	r3, .L69+4
	ldr	r3, [r3]
	ldr	r2, [r3, #44]
	.loc 1 4929 36 view .LVU277
	movs	r3, #1
	lsl	r2, r3, r2
	.loc 1 4929 26 view .LVU278
	ldr	r1, .L69+8
	ldr	r3, [r1]
	bic	r3, r3, r2
	str	r3, [r1]
.L63:
	.loc 1 4933 3 is_stmt 1 view .LVU279
	.loc 1 4938 3 view .LVU280
	.loc 1 4938 5 is_stmt 0 view .LVU281
	cmp	r4, #-1
	beq	.L68
.L64:
	.loc 1 4950 4 is_stmt 1 view .LVU282
	.loc 1 4950 16 is_stmt 0 view .LVU283
	add	r4, r4, r6
.LVL67:
	.loc 1 4953 4 is_stmt 1 view .LVU284
	.loc 1 4953 23 is_stmt 0 view .LVU285
	ldr	r3, .L69+4
	ldr	r3, [r3]
	.loc 1 4953 56 view .LVU286
	str	r4, [r3, #4]
	.loc 1 4955 4 is_stmt 1 view .LVU287
	.loc 1 4955 6 is_stmt 0 view .LVU288
	cmp	r6, r4
	bls	.L66
	.loc 1 4959 5 is_stmt 1 view .LVU289
	ldr	r3, .L69+12
	ldr	r0, [r3]
	.loc 1 4959 60 is_stmt 0 view .LVU290
	ldr	r3, .L69+4
	ldr	r1, [r3]
	.loc 1 4959 5 view .LVU291
	adds	r1, r1, #4
	bl	vListInsert
.LVL68:
.L62:
	.loc 1 5018 1 view .LVU292
	pop	{r4, r5, r6, pc}
.LVL69:
.L68:
	.loc 1 4938 55 discriminator 1 view .LVU293
	cmp	r5, #0
	beq	.L64
	.loc 1 4943 4 is_stmt 1 view .LVU294
	.loc 1 4943 56 is_stmt 0 view .LVU295
	ldr	r3, .L69+4
	ldr	r1, [r3]
	.loc 1 4943 4 view .LVU296
	adds	r1, r1, #4
	ldr	r0, .L69+16
	bl	vListInsertEnd
.LVL70:
	b	.L62
.LVL71:
.L66:
	.loc 1 4965 5 is_stmt 1 view .LVU297
	ldr	r3, .L69+20
	ldr	r0, [r3]
	.loc 1 4965 52 is_stmt 0 view .LVU298
	ldr	r3, .L69+4
	ldr	r1, [r3]
	.loc 1 4965 5 view .LVU299
	adds	r1, r1, #4
	bl	vListInsert
.LVL72:
	.loc 1 4970 5 is_stmt 1 view .LVU300
	.loc 1 4970 21 is_stmt 0 view .LVU301
	ldr	r3, .L69+24
	ldr	r3, [r3]
	.loc 1 4970 7 view .LVU302
	cmp	r3, r4
	bls	.L62
	.loc 1 4972 6 is_stmt 1 view .LVU303
	.loc 1 4972 27 is_stmt 0 view .LVU304
	ldr	r3, .L69+24
	str	r4, [r3]
	.loc 1 4976 6 is_stmt 1 view .LVU305
	.loc 1 5018 1 is_stmt 0 view .LVU306
	b	.L62
.L70:
	.align	2
.L69:
	.word	.LANCHOR15
	.word	.LANCHOR10
	.word	.LANCHOR13
	.word	.LANCHOR8
	.word	.LANCHOR2
	.word	.LANCHOR0
	.word	.LANCHOR1
.LFE259:
	.size	prvAddCurrentTaskToDelayedList, .-prvAddCurrentTaskToDelayedList
	.section	.text.xTaskCreate,"ax",%progbits
	.align	1
	.global	xTaskCreate
	.syntax unified
	.thumb
	.thumb_func
	.fpu fpv4-sp-d16
	.type	xTaskCreate, %function
xTaskCreate:
.LVL73:
.LFB200:
	.loc 1 738 2 is_stmt 1 view -0
	@ args = 8, pretend = 0, frame = 0
	@ frame_needed = 0, uses_anonymous_args = 0
	.loc 1 738 2 is_stmt 0 view .LVU308
	push	{r4, r5, r6, r7, r8, r9, lr}
.LCFI12:
	sub	sp, sp, #20
.LCFI13:
	mov	r7, r0
	mov	r8, r1
	mov	r4, r2
	mov	r6, r3
	.loc 1 739 2 is_stmt 1 view .LVU309
	.loc 1 740 2 view .LVU310
.LBB138:
	.loc 1 769 3 view .LVU311
	.loc 1 772 4 view .LVU312
	.loc 1 772 32 is_stmt 0 view .LVU313
	lsls	r0, r2, #2
.LVL74:
	.loc 1 772 32 view .LVU314
	bl	pvPortMalloc
.LVL75:
	.loc 1 774 4 is_stmt 1 view .LVU315
	.loc 1 774 6 is_stmt 0 view .LVU316
	cbz	r0, .L75
	mov	r9, r0
	.loc 1 777 5 is_stmt 1 view .LVU317
	.loc 1 777 28 is_stmt 0 view .LVU318
	movs	r0, #84
.LVL76:
	.loc 1 777 28 view .LVU319
	bl	pvPortMalloc
.LVL77:
	.loc 1 779 5 is_stmt 1 view .LVU320
	.loc 1 779 7 is_stmt 0 view .LVU321
	mov	r5, r0
	cbz	r0, .L73
	.loc 1 782 6 is_stmt 1 view .LVU322
	.loc 1 782 24 is_stmt 0 view .LVU323
	str	r9, [r0, #48]
.LVL78:
.L74:
	.loc 1 782 24 view .LVU324
.LBE138:
	.loc 1 798 3 is_stmt 1 view .LVU325
	.loc 1 798 5 is_stmt 0 view .LVU326
	cbz	r5, .L76
	.loc 1 808 4 is_stmt 1 view .LVU327
	movs	r3, #0
	str	r3, [sp, #12]
	str	r5, [sp, #8]
	ldr	r3, [sp, #52]
	str	r3, [sp, #4]
	ldr	r3, [sp, #48]
	str	r3, [sp]
	mov	r3, r6
	mov	r2, r4
	mov	r1, r8
	mov	r0, r7
	bl	prvInitialiseNewTask
.LVL79:
	.loc 1 809 4 view .LVU328
	mov	r0, r5
	bl	prvAddNewTaskToReadyList
.LVL80:
	.loc 1 810 4 view .LVU329
	.loc 1 810 12 is_stmt 0 view .LVU330
	movs	r0, #1
	b	.L71
.LVL81:
.L73:
.LBB139:
	.loc 1 788 6 is_stmt 1 view .LVU331
	mov	r0, r9
.LVL82:
	.loc 1 788 6 is_stmt 0 view .LVU332
	bl	vPortFree
.LVL83:
	b	.L74
.LVL84:
.L75:
	.loc 1 788 6 view .LVU333
.LBE139:
	.loc 1 814 12 view .LVU334
	mov	r0, #-1
.LVL85:
.L71:
	.loc 1 818 2 view .LVU335
	add	sp, sp, #20
.LCFI14:
	@ sp needed
	pop	{r4, r5, r6, r7, r8, r9, pc}
.LVL86:
.L76:
.LCFI15:
	.loc 1 814 12 view .LVU336
	mov	r0, #-1
.LVL87:
	.loc 1 817 3 is_stmt 1 view .LVU337
	.loc 1 817 10 is_stmt 0 view .LVU338
	b	.L71
.LFE200:
	.size	xTaskCreate, .-xTaskCreate
	.section	.text.vTaskDelete,"ax",%progbits
	.align	1
	.global	vTaskDelete
	.syntax unified
	.thumb
	.thumb_func
	.fpu fpv4-sp-d16
	.type	vTaskDelete, %function
vTaskDelete:
.LVL88:
.LFB203:
	.loc 1 1113 2 is_stmt 1 view -0
	@ args = 0, pretend = 0, frame = 0
	@ frame_needed = 0, uses_anonymous_args = 0
	.loc 1 1113 2 is_stmt 0 view .LVU340
	push	{r3, r4, r5, lr}
.LCFI16:
	mov	r4, r0
	.loc 1 1114 2 is_stmt 1 view .LVU341
	.loc 1 1116 3 view .LVU342
	bl	vPortEnterCritical
.LVL89:
	.loc 1 1120 4 view .LVU343
	.loc 1 1120 40 is_stmt 0 view .LVU344
	cmp	r4, #0
	beq	.L87
.LVL90:
.L79:
	.loc 1 1123 4 is_stmt 1 discriminator 4 view .LVU345
	.loc 1 1123 8 is_stmt 0 discriminator 4 view .LVU346
	adds	r5, r4, #4
	mov	r0, r5
	bl	uxListRemove
.LVL91:
	.loc 1 1123 6 discriminator 4 view .LVU347
	cbnz	r0, .L80
	.loc 1 1125 7 is_stmt 1 view .LVU348
	.loc 1 1125 44 is_stmt 0 view .LVU349
	ldr	r2, [r4, #44]
	.loc 1 1125 64 view .LVU350
	add	r3, r2, r2, lsl #2
	lsls	r3, r3, #2
	ldr	r1, .L91
	ldr	r3, [r1, r3]
	.loc 1 1125 9 view .LVU351
	cbnz	r3, .L80
	.loc 1 1125 109 is_stmt 1 discriminator 1 view .LVU352
	.loc 1 1125 146 is_stmt 0 discriminator 1 view .LVU353
	movs	r3, #1
	lsls	r3, r3, r2
	.loc 1 1125 136 discriminator 1 view .LVU354
	ldr	r1, .L91+4
	ldr	r2, [r1]
	bic	r2, r2, r3
	str	r2, [r1]
.L80:
	.loc 1 1129 5 is_stmt 1 view .LVU355
	.loc 1 1133 4 view .LVU356
	.loc 1 1133 40 is_stmt 0 view .LVU357
	ldr	r3, [r4, #40]
	.loc 1 1133 6 view .LVU358
	cbz	r3, .L81
	.loc 1 1135 5 is_stmt 1 view .LVU359
	.loc 1 1135 14 is_stmt 0 view .LVU360
	add	r0, r4, #24
	bl	uxListRemove
.LVL92:
.L81:
	.loc 1 1139 5 is_stmt 1 view .LVU361
	.loc 1 1146 4 view .LVU362
	.loc 1 1146 16 is_stmt 0 view .LVU363
	ldr	r2, .L91+8
	ldr	r3, [r2]
	adds	r3, r3, #1
	str	r3, [r2]
	.loc 1 1148 4 is_stmt 1 view .LVU364
	.loc 1 1148 14 is_stmt 0 view .LVU365
	ldr	r3, .L91+12
	ldr	r3, [r3]
	.loc 1 1148 6 view .LVU366
	cmp	r3, r4
	beq	.L88
	.loc 1 1171 5 is_stmt 1 view .LVU367
	ldr	r2, .L91+16
	ldr	r3, [r2]
	subs	r3, r3, #1
	str	r3, [r2]
	.loc 1 1172 5 view .LVU368
	mov	r0, r4
	bl	prvDeleteTCB
.LVL93:
	.loc 1 1176 5 view .LVU369
	bl	prvResetNextTaskUnblockTime
.LVL94:
.L83:
	.loc 1 1179 6 view .LVU370
	mov	r0, r4
	bl	SEGGER_SYSVIEW_ShrinkId
.LVL95:
	mov	r1, r0
	movs	r0, #34
	bl	SEGGER_SYSVIEW_RecordU32
.LVL96:
	.loc 1 1179 93 view .LVU371
	mov	r0, r4
	bl	SYSVIEW_DeleteTask
.LVL97:
	.loc 1 1179 136 view .LVU372
	.loc 1 1181 3 view .LVU373
	bl	vPortExitCritical
.LVL98:
	.loc 1 1185 3 view .LVU374
	.loc 1 1185 25 is_stmt 0 view .LVU375
	ldr	r3, .L91+20
	ldr	r3, [r3]
	.loc 1 1185 5 view .LVU376
	cbz	r3, .L78
	.loc 1 1187 4 is_stmt 1 view .LVU377
	.loc 1 1187 14 is_stmt 0 view .LVU378
	ldr	r3, .L91+12
	ldr	r3, [r3]
	.loc 1 1187 6 view .LVU379
	cmp	r3, r4
	beq	.L89
.L78:
	.loc 1 1197 2 view .LVU380
	pop	{r3, r4, r5, pc}
.LVL99:
.L87:
	.loc 1 1120 40 discriminator 1 view .LVU381
	ldr	r3, .L91+12
	ldr	r4, [r3]
.LVL100:
	.loc 1 1120 40 discriminator 1 view .LVU382
	b	.L79
.LVL101:
.L88:
	.loc 1 1155 5 is_stmt 1 view .LVU383
	mov	r1, r5
	ldr	r0, .L91+24
	bl	vListInsertEnd
.LVL102:
	.loc 1 1160 5 view .LVU384
	ldr	r2, .L91+28
	ldr	r3, [r2]
	adds	r3, r3, #1
	str	r3, [r2]
	.loc 1 1167 5 view .LVU385
	b	.L83
.L89:
	.loc 1 1189 5 discriminator 1 view .LVU386
	.loc 1 1189 14 discriminator 1 view .LVU387
	.loc 1 1189 39 is_stmt 0 discriminator 1 view .LVU388
	ldr	r3, .L91+32
	ldr	r3, [r3]
	.loc 1 1189 17 discriminator 1 view .LVU389
	cbnz	r3, .L90
.L85:
	.loc 1 1189 175 is_stmt 1 discriminator 5 view .LVU390
	.loc 1 1190 5 discriminator 5 view .LVU391
	.loc 1 1190 10 discriminator 5 view .LVU392
	.loc 1 1190 60 is_stmt 0 discriminator 5 view .LVU393
	ldr	r3, .L91+36
	mov	r2, #268435456
	str	r2, [r3, #4]
	.loc 1 1190 76 is_stmt 1 discriminator 5 view .LVU394
.LBB140:
.LBI140:
	.loc 2 404 51 discriminator 5 view .LVU395
.LBB141:
	.loc 2 406 3 discriminator 5 view .LVU396
	.syntax unified
@ 406 "../../../../../../components/toolchain/cmsis/include/cmsis_gcc.h" 1
	sev
@ 0 "" 2
	.thumb
	.syntax unified
.LBE141:
.LBE140:
	.loc 1 1190 85 discriminator 5 view .LVU397
.LBB142:
.LBI142:
	.loc 2 427 51 discriminator 5 view .LVU398
.LBB143:
	.loc 2 429 3 discriminator 5 view .LVU399
	.syntax unified
@ 429 "../../../../../../components/toolchain/cmsis/include/cmsis_gcc.h" 1
	dsb 0xF
@ 0 "" 2
	.thumb
	.syntax unified
.LBE143:
.LBE142:
	.loc 1 1190 94 discriminator 5 view .LVU400
.LBB144:
.LBI144:
	.loc 2 416 51 discriminator 5 view .LVU401
.LBB145:
	.loc 2 418 3 discriminator 5 view .LVU402
	.syntax unified
@ 418 "../../../../../../components/toolchain/cmsis/include/cmsis_gcc.h" 1
	isb 0xF
@ 0 "" 2
	.thumb
	.syntax unified
.LBE145:
.LBE144:
	.loc 1 1194 5 discriminator 5 view .LVU403
	.loc 1 1197 2 is_stmt 0 discriminator 5 view .LVU404
	b	.L78
.L90:
	.loc 1 1189 56 is_stmt 1 discriminator 4 view .LVU405
	ldr	r1, .L91+40
	movw	r0, #1189
	bl	assert_nrf_callback
.LVL103:
	b	.L85
.L92:
	.align	2
.L91:
	.word	.LANCHOR4
	.word	.LANCHOR13
	.word	.LANCHOR12
	.word	.LANCHOR10
	.word	.LANCHOR9
	.word	.LANCHOR11
	.word	.LANCHOR7
	.word	.LANCHOR14
	.word	.LANCHOR16
	.word	-536810240
	.word	.LC0
.LFE203:
	.size	vTaskDelete, .-vTaskDelete
	.section	.text.eTaskGetState,"ax",%progbits
	.align	1
	.global	eTaskGetState
	.syntax unified
	.thumb
	.thumb_func
	.fpu fpv4-sp-d16
	.type	eTaskGetState, %function
eTaskGetState:
.LVL104:
.LFB206:
	.loc 1 1334 2 view -0
	@ args = 0, pretend = 0, frame = 0
	@ frame_needed = 0, uses_anonymous_args = 0
	.loc 1 1334 2 is_stmt 0 view .LVU407
	push	{r3, r4, r5, lr}
.LCFI17:
	.loc 1 1335 2 is_stmt 1 view .LVU408
	.loc 1 1336 2 view .LVU409
	.loc 1 1337 2 view .LVU410
.LVL105:
	.loc 1 1339 3 view .LVU411
	.loc 1 1339 12 view .LVU412
	.loc 1 1339 15 is_stmt 0 view .LVU413
	mov	r4, r0
	cbz	r0, .L104
.LVL106:
.L94:
	.loc 1 1339 153 is_stmt 1 discriminator 5 view .LVU414
	.loc 1 1341 3 discriminator 5 view .LVU415
	.loc 1 1341 13 is_stmt 0 discriminator 5 view .LVU416
	ldr	r3, .L108
	ldr	r3, [r3]
	.loc 1 1341 5 discriminator 5 view .LVU417
	cmp	r3, r4
	beq	.L97
	.loc 1 1348 4 is_stmt 1 view .LVU418
	bl	vPortEnterCritical
.LVL107:
	.loc 1 1350 5 view .LVU419
	.loc 1 1350 17 is_stmt 0 view .LVU420
	ldr	r5, [r4, #20]
.LVL108:
	.loc 1 1352 4 is_stmt 1 view .LVU421
	bl	vPortExitCritical
.LVL109:
	.loc 1 1354 4 view .LVU422
	.loc 1 1354 22 is_stmt 0 view .LVU423
	ldr	r3, .L108+4
	ldr	r3, [r3]
	.loc 1 1354 6 view .LVU424
	cmp	r3, r5
	beq	.L98
	.loc 1 1354 62 discriminator 1 view .LVU425
	ldr	r3, .L108+8
	ldr	r3, [r3]
	.loc 1 1354 45 discriminator 1 view .LVU426
	cmp	r3, r5
	beq	.L99
	.loc 1 1362 10 is_stmt 1 view .LVU427
	.loc 1 1362 12 is_stmt 0 view .LVU428
	ldr	r3, .L108+12
	cmp	r5, r3
	beq	.L105
	.loc 1 1379 10 is_stmt 1 view .LVU429
	.loc 1 1379 12 is_stmt 0 view .LVU430
	ldr	r3, .L108+16
	cmp	r5, r3
	beq	.L101
	.loc 1 1379 59 discriminator 1 view .LVU431
	cbz	r5, .L106
	.loc 1 1392 13 view .LVU432
	movs	r0, #1
	b	.L95
.LVL110:
.L104:
	.loc 1 1339 34 is_stmt 1 discriminator 4 view .LVU433
	ldr	r1, .L108+20
	movw	r0, #1339
.LVL111:
	.loc 1 1339 34 is_stmt 0 discriminator 4 view .LVU434
	bl	assert_nrf_callback
.LVL112:
	b	.L94
.LVL113:
.L105:
	.loc 1 1367 6 is_stmt 1 view .LVU435
	.loc 1 1367 42 is_stmt 0 view .LVU436
	ldr	r3, [r4, #40]
	.loc 1 1367 8 view .LVU437
	cbz	r3, .L107
	.loc 1 1373 15 view .LVU438
	movs	r0, #2
	b	.L95
.L107:
	.loc 1 1369 15 view .LVU439
	movs	r0, #3
	b	.L95
.L106:
	.loc 1 1384 14 view .LVU440
	movs	r0, #4
	b	.L95
.LVL114:
.L97:
	.loc 1 1344 12 view .LVU441
	movs	r0, #0
.L95:
.LVL115:
	.loc 1 1396 3 is_stmt 1 view .LVU442
	.loc 1 1397 2 is_stmt 0 view .LVU443
	pop	{r3, r4, r5, pc}
.LVL116:
.L98:
	.loc 1 1358 13 view .LVU444
	movs	r0, #2
	b	.L95
.L99:
	movs	r0, #2
	b	.L95
.L101:
	.loc 1 1384 14 view .LVU445
	movs	r0, #4
	b	.L95
.L109:
	.align	2
.L108:
	.word	.LANCHOR10
	.word	.LANCHOR0
	.word	.LANCHOR8
	.word	.LANCHOR2
	.word	.LANCHOR7
	.word	.LC0
.LFE206:
	.size	eTaskGetState, .-eTaskGetState
	.section	.text.uxTaskPriorityGet,"ax",%progbits
	.align	1
	.global	uxTaskPriorityGet
	.syntax unified
	.thumb
	.thumb_func
	.fpu fpv4-sp-d16
	.type	uxTaskPriorityGet, %function
uxTaskPriorityGet:
.LVL117:
.LFB207:
	.loc 1 1405 2 is_stmt 1 view -0
	@ args = 0, pretend = 0, frame = 0
	@ frame_needed = 0, uses_anonymous_args = 0
	.loc 1 1405 2 is_stmt 0 view .LVU447
	push	{r4, lr}
.LCFI18:
	mov	r4, r0
	.loc 1 1406 2 is_stmt 1 view .LVU448
	.loc 1 1407 2 view .LVU449
	.loc 1 1409 3 view .LVU450
	bl	vPortEnterCritical
.LVL118:
	.loc 1 1413 4 view .LVU451
	.loc 1 1413 40 is_stmt 0 view .LVU452
	cbz	r4, .L113
.LVL119:
.L111:
	.loc 1 1414 4 is_stmt 1 discriminator 4 view .LVU453
	.loc 1 1414 13 is_stmt 0 discriminator 4 view .LVU454
	ldr	r4, [r4, #44]
.LVL120:
	.loc 1 1416 3 is_stmt 1 discriminator 4 view .LVU455
	bl	vPortExitCritical
.LVL121:
	.loc 1 1418 3 discriminator 4 view .LVU456
	.loc 1 1419 2 is_stmt 0 discriminator 4 view .LVU457
	mov	r0, r4
	pop	{r4, pc}
.LVL122:
.L113:
	.loc 1 1413 40 discriminator 1 view .LVU458
	ldr	r3, .L114
	ldr	r4, [r3]
.LVL123:
	.loc 1 1413 40 discriminator 1 view .LVU459
	b	.L111
.L115:
	.align	2
.L114:
	.word	.LANCHOR10
.LFE207:
	.size	uxTaskPriorityGet, .-uxTaskPriorityGet
	.section	.text.uxTaskPriorityGetFromISR,"ax",%progbits
	.align	1
	.global	uxTaskPriorityGetFromISR
	.syntax unified
	.thumb
	.thumb_func
	.fpu fpv4-sp-d16
	.type	uxTaskPriorityGetFromISR, %function
uxTaskPriorityGetFromISR:
.LVL124:
.LFB208:
	.loc 1 1427 2 is_stmt 1 view -0
	@ args = 0, pretend = 0, frame = 0
	@ frame_needed = 0, uses_anonymous_args = 0
	.loc 1 1427 2 is_stmt 0 view .LVU461
	push	{r4, lr}
.LCFI19:
	mov	r4, r0
	.loc 1 1428 2 is_stmt 1 view .LVU462
	.loc 1 1429 2 view .LVU463
	.loc 1 1447 3 view .LVU464
	bl	vPortValidateInterruptPriority
.LVL125:
	.loc 1 1449 3 view .LVU465
.LBB146:
.LBI146:
	.file 3 "../../../../../../external/freertos/portable/CMSIS/nrf52/portmacro_cmsis.h"
	.loc 3 172 24 view .LVU466
.LBB147:
	.loc 3 174 5 view .LVU467
.LBB148:
.LBI148:
	.loc 2 248 59 view .LVU468
.LBB149:
	.loc 2 250 3 view .LVU469
	.loc 2 252 3 view .LVU470
	.syntax unified
@ 252 "../../../../../../components/toolchain/cmsis/include/cmsis_gcc.h" 1
	MRS r3, basepri
@ 0 "" 2
.LVL126:
	.loc 2 253 3 view .LVU471
	.loc 2 253 3 is_stmt 0 view .LVU472
	.thumb
	.syntax unified
.LBE149:
.LBE148:
	.loc 3 175 5 is_stmt 1 view .LVU473
.LBB150:
.LBI150:
	.loc 2 262 55 view .LVU474
.LBB151:
	.loc 2 264 3 view .LVU475
	movs	r2, #64
	.syntax unified
@ 264 "../../../../../../components/toolchain/cmsis/include/cmsis_gcc.h" 1
	MSR basepri, r2
@ 0 "" 2
.LVL127:
	.loc 2 264 3 is_stmt 0 view .LVU476
	.thumb
	.syntax unified
.LBE151:
.LBE150:
	.loc 3 176 5 is_stmt 1 view .LVU477
	.loc 3 176 5 is_stmt 0 view .LVU478
.LBE147:
.LBE146:
	.loc 1 1453 4 is_stmt 1 view .LVU479
	.loc 1 1453 40 is_stmt 0 view .LVU480
	cbz	r4, .L119
.LVL128:
.L117:
	.loc 1 1454 4 is_stmt 1 discriminator 4 view .LVU481
	.loc 1 1454 13 is_stmt 0 discriminator 4 view .LVU482
	ldr	r0, [r4, #44]
.LVL129:
	.loc 1 1456 3 is_stmt 1 discriminator 4 view .LVU483
.LBB152:
.LBI152:
	.loc 2 262 55 discriminator 4 view .LVU484
.LBB153:
	.loc 2 264 3 discriminator 4 view .LVU485
	.syntax unified
@ 264 "../../../../../../components/toolchain/cmsis/include/cmsis_gcc.h" 1
	MSR basepri, r3
@ 0 "" 2
.LVL130:
	.loc 2 264 3 is_stmt 0 discriminator 4 view .LVU486
	.thumb
	.syntax unified
.LBE153:
.LBE152:
	.loc 1 1458 3 is_stmt 1 discriminator 4 view .LVU487
	.loc 1 1459 2 is_stmt 0 discriminator 4 view .LVU488
	pop	{r4, pc}
.LVL131:
.L119:
	.loc 1 1453 40 discriminator 1 view .LVU489
	ldr	r2, .L120
	ldr	r4, [r2]
.LVL132:
	.loc 1 1453 40 discriminator 1 view .LVU490
	b	.L117
.L121:
	.align	2
.L120:
	.word	.LANCHOR10
.LFE208:
	.size	uxTaskPriorityGetFromISR, .-uxTaskPriorityGetFromISR
	.section	.text.vTaskPrioritySet,"ax",%progbits
	.align	1
	.global	vTaskPrioritySet
	.syntax unified
	.thumb
	.thumb_func
	.fpu fpv4-sp-d16
	.type	vTaskPrioritySet, %function
vTaskPrioritySet:
.LVL133:
.LFB209:
	.loc 1 1467 2 is_stmt 1 view -0
	@ args = 0, pretend = 0, frame = 0
	@ frame_needed = 0, uses_anonymous_args = 0
	.loc 1 1467 2 is_stmt 0 view .LVU492
	push	{r4, r5, r6, r7, r8, lr}
.LCFI20:
	sub	sp, sp, #8
.LCFI21:
	mov	r4, r0
	mov	r5, r1
	.loc 1 1468 2 is_stmt 1 view .LVU493
	.loc 1 1469 2 view .LVU494
	.loc 1 1470 2 view .LVU495
.LVL134:
	.loc 1 1472 3 view .LVU496
	.loc 1 1472 12 view .LVU497
	.loc 1 1472 15 is_stmt 0 view .LVU498
	cmp	r1, #6
	bhi	.L138
.LVL135:
.L123:
	.loc 1 1472 173 is_stmt 1 discriminator 5 view .LVU499
	.loc 1 1475 3 discriminator 5 view .LVU500
	.loc 1 1475 5 is_stmt 0 discriminator 5 view .LVU501
	cmp	r5, #6
	bls	.L124
	.loc 1 1477 18 view .LVU502
	movs	r5, #6
.LVL136:
.L124:
	.loc 1 1481 4 is_stmt 1 view .LVU503
	.loc 1 1484 3 view .LVU504
	bl	vPortEnterCritical
.LVL137:
	.loc 1 1488 4 view .LVU505
	.loc 1 1488 40 is_stmt 0 view .LVU506
	cbz	r4, .L139
.LVL138:
.L125:
	.loc 1 1490 6 is_stmt 1 discriminator 4 view .LVU507
	mov	r8, r4
	mov	r0, r4
	bl	SEGGER_SYSVIEW_ShrinkId
.LVL139:
	mov	r1, r0
	mov	r2, r5
	movs	r0, #40
	bl	SEGGER_SYSVIEW_RecordU32x2
.LVL140:
	.loc 1 1490 109 discriminator 4 view .LVU508
	.loc 1 1490 210 is_stmt 0 discriminator 4 view .LVU509
	ldr	r3, [r4, #48]
	.loc 1 1490 109 discriminator 4 view .LVU510
	movs	r2, #0
	str	r2, [sp]
	mov	r2, r5
	add	r1, r4, #52
	mov	r0, r4
	bl	SYSVIEW_UpdateTask
.LVL141:
	.loc 1 1490 227 is_stmt 1 discriminator 4 view .LVU511
	.loc 1 1494 5 discriminator 4 view .LVU512
	.loc 1 1494 27 is_stmt 0 discriminator 4 view .LVU513
	ldr	r3, [r4, #68]
.LVL142:
	.loc 1 1502 4 is_stmt 1 discriminator 4 view .LVU514
	.loc 1 1502 6 is_stmt 0 discriminator 4 view .LVU515
	cmp	r5, r3
	beq	.L126
	.loc 1 1506 5 is_stmt 1 view .LVU516
	.loc 1 1506 7 is_stmt 0 view .LVU517
	bls	.L127
	.loc 1 1508 6 is_stmt 1 view .LVU518
	.loc 1 1508 16 is_stmt 0 view .LVU519
	ldr	r2, .L142
	ldr	r2, [r2]
	.loc 1 1508 8 view .LVU520
	cmp	r2, r4
	beq	.L134
	.loc 1 1513 7 is_stmt 1 view .LVU521
	.loc 1 1513 40 is_stmt 0 view .LVU522
	ldr	r2, .L142
	ldr	r2, [r2]
	ldr	r2, [r2, #44]
	.loc 1 1513 9 view .LVU523
	cmp	r2, r5
	bls	.L135
	.loc 1 1470 13 view .LVU524
	movs	r7, #0
	b	.L128
.LVL143:
.L138:
	.loc 1 1472 54 is_stmt 1 discriminator 4 view .LVU525
	ldr	r1, .L142+4
.LVL144:
	.loc 1 1472 54 is_stmt 0 discriminator 4 view .LVU526
	mov	r0, #1472
.LVL145:
	.loc 1 1472 54 discriminator 4 view .LVU527
	bl	assert_nrf_callback
.LVL146:
	b	.L123
.L139:
	.loc 1 1488 40 discriminator 1 view .LVU528
	ldr	r3, .L142
	ldr	r4, [r3]
.LVL147:
	.loc 1 1488 40 discriminator 1 view .LVU529
	b	.L125
.LVL148:
.L127:
	.loc 1 1529 10 is_stmt 1 view .LVU530
	.loc 1 1529 20 is_stmt 0 view .LVU531
	ldr	r2, .L142
	ldr	r2, [r2]
	.loc 1 1529 12 view .LVU532
	cmp	r2, r4
	beq	.L136
	.loc 1 1470 13 view .LVU533
	movs	r7, #0
.L128:
.LVL149:
	.loc 1 1541 5 is_stmt 1 view .LVU534
	.loc 1 1546 5 view .LVU535
	.loc 1 1546 27 is_stmt 0 view .LVU536
	ldr	r6, [r4, #44]
.LVL150:
	.loc 1 1552 6 is_stmt 1 view .LVU537
	.loc 1 1552 8 is_stmt 0 view .LVU538
	cmp	r3, r6
	beq	.L140
.L129:
	.loc 1 1558 7 is_stmt 1 view .LVU539
	.loc 1 1562 6 view .LVU540
	.loc 1 1562 28 is_stmt 0 view .LVU541
	str	r5, [r4, #68]
	.loc 1 1572 5 is_stmt 1 view .LVU542
	.loc 1 1572 43 is_stmt 0 view .LVU543
	ldr	r3, [r4, #24]
.LVL151:
	.loc 1 1572 7 view .LVU544
	cmp	r3, #0
	blt	.L130
	.loc 1 1574 6 is_stmt 1 view .LVU545
	.loc 1 1574 78 is_stmt 0 view .LVU546
	rsb	r5, r5, #7
.LVL152:
	.loc 1 1574 51 view .LVU547
	str	r5, [r4, #24]
.L130:
	.loc 1 1578 6 is_stmt 1 view .LVU548
	.loc 1 1585 5 view .LVU549
	.loc 1 1585 58 is_stmt 0 view .LVU550
	ldr	r1, [r4, #20]
	.loc 1 1585 88 view .LVU551
	add	r3, r6, r6, lsl #2
	ldr	r2, .L142+8
	add	r3, r2, r3, lsl #2
	.loc 1 1585 142 view .LVU552
	cmp	r1, r3
	beq	.L141
.LVL153:
.L131:
	.loc 1 1605 6 is_stmt 1 view .LVU553
	.loc 1 1608 5 view .LVU554
	.loc 1 1608 7 is_stmt 0 view .LVU555
	cbz	r7, .L126
	.loc 1 1610 6 is_stmt 1 view .LVU556
	.loc 1 1610 11 view .LVU557
	.loc 1 1610 61 is_stmt 0 view .LVU558
	ldr	r3, .L142+12
	mov	r2, #268435456
	str	r2, [r3, #4]
	.loc 1 1610 77 is_stmt 1 view .LVU559
.LBB154:
.LBI154:
	.loc 2 404 51 view .LVU560
.LBB155:
	.loc 2 406 3 view .LVU561
	.syntax unified
@ 406 "../../../../../../components/toolchain/cmsis/include/cmsis_gcc.h" 1
	sev
@ 0 "" 2
	.thumb
	.syntax unified
.LBE155:
.LBE154:
	.loc 1 1610 86 view .LVU562
.LBB156:
.LBI156:
	.loc 2 427 51 view .LVU563
.LBB157:
	.loc 2 429 3 view .LVU564
	.syntax unified
@ 429 "../../../../../../components/toolchain/cmsis/include/cmsis_gcc.h" 1
	dsb 0xF
@ 0 "" 2
	.thumb
	.syntax unified
.LBE157:
.LBE156:
	.loc 1 1610 95 view .LVU565
.LBB158:
.LBI158:
	.loc 2 416 51 view .LVU566
.LBB159:
	.loc 2 418 3 view .LVU567
	.syntax unified
@ 418 "../../../../../../components/toolchain/cmsis/include/cmsis_gcc.h" 1
	isb 0xF
@ 0 "" 2
.LVL154:
	.thumb
	.syntax unified
.L126:
	.loc 2 418 3 is_stmt 0 view .LVU568
.LBE159:
.LBE158:
	.loc 1 1614 6 is_stmt 1 view .LVU569
	.loc 1 1619 5 view .LVU570
	.loc 1 1622 3 view .LVU571
	bl	vPortExitCritical
.LVL155:
	.loc 1 1623 2 is_stmt 0 view .LVU572
	add	sp, sp, #8
.LCFI22:
	@ sp needed
	pop	{r4, r5, r6, r7, r8, pc}
.LVL156:
.L134:
.LCFI23:
	.loc 1 1470 13 view .LVU573
	movs	r7, #0
	b	.L128
.L135:
	.loc 1 1515 23 view .LVU574
	movs	r7, #1
	b	.L128
.L136:
	.loc 1 1534 21 view .LVU575
	movs	r7, #1
	b	.L128
.LVL157:
.L140:
	.loc 1 1554 7 is_stmt 1 view .LVU576
	.loc 1 1554 25 is_stmt 0 view .LVU577
	str	r5, [r4, #44]
	b	.L129
.LVL158:
.L141:
	.loc 1 1590 6 is_stmt 1 view .LVU578
	.loc 1 1590 10 is_stmt 0 view .LVU579
	adds	r5, r4, #4
	mov	r0, r5
	bl	uxListRemove
.LVL159:
	.loc 1 1590 8 view .LVU580
	cbnz	r0, .L132
	.loc 1 1595 7 is_stmt 1 view .LVU581
	.loc 1 1595 40 is_stmt 0 view .LVU582
	movs	r3, #1
	lsls	r3, r3, r6
	.loc 1 1595 30 view .LVU583
	ldr	r2, .L142+16
	ldr	r6, [r2]
.LVL160:
	.loc 1 1595 30 view .LVU584
	bic	r6, r6, r3
	str	r6, [r2]
.L132:
	.loc 1 1599 7 is_stmt 1 view .LVU585
	.loc 1 1601 6 view .LVU586
	mov	r0, r8
	bl	SEGGER_SYSVIEW_OnTaskStartReady
.LVL161:
	.loc 1 1601 61 view .LVU587
	.loc 1 1601 107 is_stmt 0 view .LVU588
	ldr	r0, [r4, #44]
	.loc 1 1601 93 view .LVU589
	movs	r3, #1
	lsls	r3, r3, r0
	.loc 1 1601 84 view .LVU590
	ldr	r2, .L142+16
	ldr	r1, [r2]
	orrs	r3, r3, r1
	str	r3, [r2]
	.loc 1 1601 125 is_stmt 1 view .LVU591
	add	r0, r0, r0, lsl #2
	mov	r1, r5
	ldr	r3, .L142+8
	add	r0, r3, r0, lsl #2
	bl	vListInsertEnd
.LVL162:
	.loc 1 1601 224 view .LVU592
	b	.L131
.L143:
	.align	2
.L142:
	.word	.LANCHOR10
	.word	.LC0
	.word	.LANCHOR4
	.word	-536810240
	.word	.LANCHOR13
.LFE209:
	.size	vTaskPrioritySet, .-vTaskPrioritySet
	.section	.text.vTaskResume,"ax",%progbits
	.align	1
	.global	vTaskResume
	.syntax unified
	.thumb
	.thumb_func
	.fpu fpv4-sp-d16
	.type	vTaskResume, %function
vTaskResume:
.LVL163:
.LFB212:
	.loc 1 1778 2 view -0
	@ args = 0, pretend = 0, frame = 0
	@ frame_needed = 0, uses_anonymous_args = 0
	.loc 1 1778 2 is_stmt 0 view .LVU594
	push	{r3, r4, r5, lr}
.LCFI24:
	.loc 1 1779 2 is_stmt 1 view .LVU595
.LVL164:
	.loc 1 1782 3 view .LVU596
	.loc 1 1782 12 view .LVU597
	.loc 1 1782 15 is_stmt 0 view .LVU598
	mov	r4, r0
	cbz	r0, .L149
.LVL165:
.L145:
	.loc 1 1782 161 is_stmt 1 discriminator 5 view .LVU599
	.loc 1 1786 3 discriminator 5 view .LVU600
	.loc 1 1786 5 is_stmt 0 discriminator 5 view .LVU601
	cbz	r4, .L144
	.loc 1 1786 35 discriminator 1 view .LVU602
	ldr	r3, .L151
	ldr	r3, [r3]
	.loc 1 1786 24 discriminator 1 view .LVU603
	cmp	r3, r4
	beq	.L144
	.loc 1 1788 4 is_stmt 1 view .LVU604
	bl	vPortEnterCritical
.LVL166:
	.loc 1 1790 5 view .LVU605
	.loc 1 1790 9 is_stmt 0 view .LVU606
	mov	r0, r4
	bl	prvTaskIsTaskSuspended
.LVL167:
	.loc 1 1790 7 view .LVU607
	cbnz	r0, .L150
.L147:
	.loc 1 1814 6 is_stmt 1 view .LVU608
	.loc 1 1817 4 view .LVU609
	bl	vPortExitCritical
.LVL168:
	.loc 1 1821 4 view .LVU610
.L144:
	.loc 1 1823 2 is_stmt 0 view .LVU611
	pop	{r3, r4, r5, pc}
.LVL169:
.L149:
	.loc 1 1782 42 is_stmt 1 discriminator 4 view .LVU612
	ldr	r1, .L151+4
	movw	r0, #1782
.LVL170:
	.loc 1 1782 42 is_stmt 0 discriminator 4 view .LVU613
	bl	assert_nrf_callback
.LVL171:
	b	.L145
.L150:
	.loc 1 1792 6 is_stmt 1 view .LVU614
	mov	r0, r4
	bl	SEGGER_SYSVIEW_ShrinkId
.LVL172:
	mov	r1, r0
	movs	r0, #42
	bl	SEGGER_SYSVIEW_RecordU32
.LVL173:
	.loc 1 1796 6 view .LVU615
	.loc 1 1796 15 is_stmt 0 view .LVU616
	adds	r5, r4, #4
	mov	r0, r5
	bl	uxListRemove
.LVL174:
	.loc 1 1797 6 is_stmt 1 view .LVU617
	mov	r0, r4
	bl	SEGGER_SYSVIEW_OnTaskStartReady
.LVL175:
	.loc 1 1797 61 view .LVU618
	.loc 1 1797 107 is_stmt 0 view .LVU619
	ldr	r0, [r4, #44]
	.loc 1 1797 93 view .LVU620
	movs	r3, #1
	lsls	r3, r3, r0
	.loc 1 1797 84 view .LVU621
	ldr	r2, .L151+8
	ldr	r1, [r2]
	orrs	r3, r3, r1
	str	r3, [r2]
	.loc 1 1797 125 is_stmt 1 view .LVU622
	add	r0, r0, r0, lsl #2
	mov	r1, r5
	ldr	r3, .L151+12
	add	r0, r3, r0, lsl #2
	bl	vListInsertEnd
.LVL176:
	.loc 1 1797 224 view .LVU623
	.loc 1 1800 6 view .LVU624
	.loc 1 1800 15 is_stmt 0 view .LVU625
	ldr	r2, [r4, #44]
	.loc 1 1800 43 view .LVU626
	ldr	r3, .L151
	ldr	r3, [r3]
	ldr	r3, [r3, #44]
	.loc 1 1800 8 view .LVU627
	cmp	r2, r3
	bcc	.L147
	.loc 1 1805 7 is_stmt 1 view .LVU628
	.loc 1 1805 12 view .LVU629
	.loc 1 1805 62 is_stmt 0 view .LVU630
	ldr	r3, .L151+16
	mov	r2, #268435456
	str	r2, [r3, #4]
	.loc 1 1805 78 is_stmt 1 view .LVU631
.LBB160:
.LBI160:
	.loc 2 404 51 view .LVU632
.LBB161:
	.loc 2 406 3 view .LVU633
	.syntax unified
@ 406 "../../../../../../components/toolchain/cmsis/include/cmsis_gcc.h" 1
	sev
@ 0 "" 2
	.thumb
	.syntax unified
.LBE161:
.LBE160:
	.loc 1 1805 87 view .LVU634
.LBB162:
.LBI162:
	.loc 2 427 51 view .LVU635
.LBB163:
	.loc 2 429 3 view .LVU636
	.syntax unified
@ 429 "../../../../../../components/toolchain/cmsis/include/cmsis_gcc.h" 1
	dsb 0xF
@ 0 "" 2
	.thumb
	.syntax unified
.LBE163:
.LBE162:
	.loc 1 1805 96 view .LVU637
.LBB164:
.LBI164:
	.loc 2 416 51 view .LVU638
.LBB165:
	.loc 2 418 3 view .LVU639
	.syntax unified
@ 418 "../../../../../../components/toolchain/cmsis/include/cmsis_gcc.h" 1
	isb 0xF
@ 0 "" 2
	.loc 2 419 1 is_stmt 0 view .LVU640
	.thumb
	.syntax unified
	b	.L147
.L152:
	.align	2
.L151:
	.word	.LANCHOR10
	.word	.LC0
	.word	.LANCHOR13
	.word	.LANCHOR4
	.word	-536810240
.LBE165:
.LBE164:
.LFE212:
	.size	vTaskResume, .-vTaskResume
	.section	.text.xTaskResumeFromISR,"ax",%progbits
	.align	1
	.global	xTaskResumeFromISR
	.syntax unified
	.thumb
	.thumb_func
	.fpu fpv4-sp-d16
	.type	xTaskResumeFromISR, %function
xTaskResumeFromISR:
.LVL177:
.LFB213:
	.loc 1 1832 2 is_stmt 1 view -0
	@ args = 0, pretend = 0, frame = 0
	@ frame_needed = 0, uses_anonymous_args = 0
	.loc 1 1832 2 is_stmt 0 view .LVU642
	push	{r3, r4, r5, r6, r7, lr}
.LCFI25:
	.loc 1 1833 2 is_stmt 1 view .LVU643
.LVL178:
	.loc 1 1834 2 view .LVU644
	.loc 1 1835 2 view .LVU645
	.loc 1 1837 3 view .LVU646
	.loc 1 1837 12 view .LVU647
	.loc 1 1837 15 is_stmt 0 view .LVU648
	mov	r4, r0
	cbz	r0, .L160
.LVL179:
.L154:
	.loc 1 1837 161 is_stmt 1 discriminator 5 view .LVU649
	.loc 1 1855 3 discriminator 5 view .LVU650
	bl	vPortValidateInterruptPriority
.LVL180:
	.loc 1 1857 3 discriminator 5 view .LVU651
.LBB166:
.LBI166:
	.loc 3 172 24 discriminator 5 view .LVU652
.LBB167:
	.loc 3 174 5 discriminator 5 view .LVU653
.LBB168:
.LBI168:
	.loc 2 248 59 discriminator 5 view .LVU654
.LBB169:
	.loc 2 250 3 discriminator 5 view .LVU655
	.loc 2 252 3 discriminator 5 view .LVU656
	.syntax unified
@ 252 "../../../../../../components/toolchain/cmsis/include/cmsis_gcc.h" 1
	MRS r6, basepri
@ 0 "" 2
.LVL181:
	.loc 2 253 3 discriminator 5 view .LVU657
	.loc 2 253 3 is_stmt 0 discriminator 5 view .LVU658
	.thumb
	.syntax unified
.LBE169:
.LBE168:
	.loc 3 175 5 is_stmt 1 discriminator 5 view .LVU659
.LBB170:
.LBI170:
	.loc 2 262 55 discriminator 5 view .LVU660
.LBB171:
	.loc 2 264 3 discriminator 5 view .LVU661
	movs	r3, #64
	.syntax unified
@ 264 "../../../../../../components/toolchain/cmsis/include/cmsis_gcc.h" 1
	MSR basepri, r3
@ 0 "" 2
.LVL182:
	.loc 2 264 3 is_stmt 0 discriminator 5 view .LVU662
	.thumb
	.syntax unified
.LBE171:
.LBE170:
	.loc 3 176 5 is_stmt 1 discriminator 5 view .LVU663
	.loc 3 176 5 is_stmt 0 discriminator 5 view .LVU664
.LBE167:
.LBE166:
	.loc 1 1859 4 is_stmt 1 discriminator 5 view .LVU665
	.loc 1 1859 8 is_stmt 0 discriminator 5 view .LVU666
	mov	r0, r4
	bl	prvTaskIsTaskSuspended
.LVL183:
	.loc 1 1859 6 discriminator 5 view .LVU667
	mov	r5, r0
	cbnz	r0, .L161
.LVL184:
.L155:
	.loc 1 1890 5 is_stmt 1 view .LVU668
	.loc 1 1893 3 view .LVU669
.LBB172:
.LBI172:
	.loc 2 262 55 view .LVU670
.LBB173:
	.loc 2 264 3 view .LVU671
	.syntax unified
@ 264 "../../../../../../components/toolchain/cmsis/include/cmsis_gcc.h" 1
	MSR basepri, r6
@ 0 "" 2
.LVL185:
	.loc 2 264 3 is_stmt 0 view .LVU672
	.thumb
	.syntax unified
.LBE173:
.LBE172:
	.loc 1 1895 3 is_stmt 1 view .LVU673
	.loc 1 1896 2 is_stmt 0 view .LVU674
	mov	r0, r5
	pop	{r3, r4, r5, r6, r7, pc}
.LVL186:
.L160:
	.loc 1 1837 42 is_stmt 1 discriminator 4 view .LVU675
	ldr	r1, .L162
	movw	r0, #1837
.LVL187:
	.loc 1 1837 42 is_stmt 0 discriminator 4 view .LVU676
	bl	assert_nrf_callback
.LVL188:
	b	.L154
.LVL189:
.L161:
	.loc 1 1861 5 is_stmt 1 view .LVU677
	mov	r0, r4
	bl	SEGGER_SYSVIEW_ShrinkId
.LVL190:
	mov	r1, r0
	movs	r0, #43
	bl	SEGGER_SYSVIEW_RecordU32
.LVL191:
	.loc 1 1864 5 view .LVU678
	.loc 1 1864 30 is_stmt 0 view .LVU679
	ldr	r3, .L162+4
	ldr	r3, [r3]
	.loc 1 1864 7 view .LVU680
	cbnz	r3, .L156
	.loc 1 1868 6 is_stmt 1 view .LVU681
	.loc 1 1868 15 is_stmt 0 view .LVU682
	ldr	r2, [r4, #44]
	.loc 1 1868 43 view .LVU683
	ldr	r3, .L162+8
	ldr	r3, [r3]
	ldr	r3, [r3, #44]
	.loc 1 1868 8 view .LVU684
	cmp	r2, r3
	bcs	.L158
	.loc 1 1833 13 view .LVU685
	movs	r5, #0
.L157:
.LVL192:
	.loc 1 1874 7 is_stmt 1 view .LVU686
	.loc 1 1877 6 view .LVU687
	.loc 1 1877 15 is_stmt 0 view .LVU688
	adds	r7, r4, #4
	mov	r0, r7
	bl	uxListRemove
.LVL193:
	.loc 1 1878 6 is_stmt 1 view .LVU689
	mov	r0, r4
	bl	SEGGER_SYSVIEW_OnTaskStartReady
.LVL194:
	.loc 1 1878 61 view .LVU690
	.loc 1 1878 107 is_stmt 0 view .LVU691
	ldr	r0, [r4, #44]
	.loc 1 1878 93 view .LVU692
	movs	r3, #1
	lsls	r3, r3, r0
	.loc 1 1878 84 view .LVU693
	ldr	r2, .L162+12
	ldr	r1, [r2]
	orrs	r3, r3, r1
	str	r3, [r2]
	.loc 1 1878 125 is_stmt 1 view .LVU694
	add	r0, r0, r0, lsl #2
	mov	r1, r7
	ldr	r3, .L162+16
	add	r0, r3, r0, lsl #2
	bl	vListInsertEnd
.LVL195:
	.loc 1 1878 224 view .LVU695
	b	.L155
.LVL196:
.L158:
	.loc 1 1870 22 is_stmt 0 view .LVU696
	movs	r5, #1
	b	.L157
.L156:
	.loc 1 1885 6 is_stmt 1 view .LVU697
	add	r1, r4, #24
	ldr	r0, .L162+20
	bl	vListInsertEnd
.LVL197:
	.loc 1 1833 13 is_stmt 0 view .LVU698
	movs	r5, #0
	b	.L155
.L163:
	.align	2
.L162:
	.word	.LC0
	.word	.LANCHOR16
	.word	.LANCHOR10
	.word	.LANCHOR13
	.word	.LANCHOR4
	.word	.LANCHOR3
.LFE213:
	.size	xTaskResumeFromISR, .-xTaskResumeFromISR
	.section	.rodata.vTaskStartScheduler.str1.4,"aMS",%progbits,1
	.align	2
.LC1:
	.ascii	"IDLE\000"
	.section	.text.vTaskStartScheduler,"ax",%progbits
	.align	1
	.global	vTaskStartScheduler
	.syntax unified
	.thumb
	.thumb_func
	.fpu fpv4-sp-d16
	.type	vTaskStartScheduler, %function
vTaskStartScheduler:
.LFB214:
	.loc 1 1902 1 is_stmt 1 view -0
	@ args = 0, pretend = 0, frame = 0
	@ frame_needed = 0, uses_anonymous_args = 0
	push	{lr}
.LCFI26:
	sub	sp, sp, #12
.LCFI27:
	.loc 1 1903 1 view .LVU700
	.loc 1 1935 3 view .LVU701
	.loc 1 1935 13 is_stmt 0 view .LVU702
	ldr	r3, .L172
	str	r3, [sp, #4]
	movs	r3, #0
	str	r3, [sp]
	mov	r2, #256
	ldr	r1, .L172+4
	ldr	r0, .L172+8
	bl	xTaskCreate
.LVL198:
	.loc 1 1946 3 is_stmt 1 view .LVU703
	.loc 1 1946 5 is_stmt 0 view .LVU704
	cmp	r0, #1
	beq	.L169
.L165:
	.loc 1 1952 4 is_stmt 1 view .LVU705
	.loc 1 1957 2 view .LVU706
	.loc 1 1957 4 is_stmt 0 view .LVU707
	cmp	r0, #1
	beq	.L170
	.loc 1 2012 3 is_stmt 1 discriminator 1 view .LVU708
	.loc 1 2012 12 discriminator 1 view .LVU709
	.loc 1 2012 15 is_stmt 0 discriminator 1 view .LVU710
	cmp	r0, #-1
	beq	.L171
.LVL199:
.L164:
	.loc 1 2018 1 view .LVU711
	add	sp, sp, #12
.LCFI28:
	@ sp needed
	ldr	pc, [sp], #4
.LVL200:
.L169:
.LCFI29:
	.loc 1 1948 4 is_stmt 1 view .LVU712
	.loc 1 1948 14 is_stmt 0 view .LVU713
	bl	xTimerCreateTimerTask
.LVL201:
	.loc 1 1948 14 view .LVU714
	b	.L165
.L170:
	.loc 1 1973 3 is_stmt 1 view .LVU715
.LVL202:
.LBB174:
.LBI174:
	.loc 2 262 55 view .LVU716
.LBB175:
	.loc 2 264 3 view .LVU717
	movs	r3, #64
	.syntax unified
@ 264 "../../../../../../components/toolchain/cmsis/include/cmsis_gcc.h" 1
	MSR basepri, r3
@ 0 "" 2
.LVL203:
	.loc 2 264 3 is_stmt 0 view .LVU718
	.thumb
	.syntax unified
.LBE175:
.LBE174:
	.loc 1 1983 3 is_stmt 1 view .LVU719
	.loc 1 1983 24 is_stmt 0 view .LVU720
	ldr	r3, .L172+12
	mov	r2, #-1
	str	r2, [r3]
	.loc 1 1984 3 is_stmt 1 view .LVU721
	.loc 1 1984 21 is_stmt 0 view .LVU722
	ldr	r3, .L172+16
	movs	r2, #1
	str	r2, [r3]
	.loc 1 1985 3 is_stmt 1 view .LVU723
	.loc 1 1985 14 is_stmt 0 view .LVU724
	ldr	r3, .L172+20
	movs	r2, #0
	str	r2, [r3]
	.loc 1 1993 3 is_stmt 1 view .LVU725
	.loc 1 1997 3 view .LVU726
	.loc 1 1997 7 is_stmt 0 view .LVU727
	bl	xPortStartScheduler
.LVL204:
	.loc 1 1997 7 view .LVU728
	b	.L164
.LVL205:
.L171:
	.loc 1 2012 46 is_stmt 1 discriminator 4 view .LVU729
	ldr	r1, .L172+24
	movw	r0, #2012
.LVL206:
	.loc 1 2012 46 is_stmt 0 discriminator 4 view .LVU730
	bl	assert_nrf_callback
.LVL207:
	.loc 1 2012 165 is_stmt 1 discriminator 4 view .LVU731
	.loc 1 2017 2 discriminator 4 view .LVU732
	.loc 1 2018 1 is_stmt 0 discriminator 4 view .LVU733
	b	.L164
.L173:
	.align	2
.L172:
	.word	.LANCHOR17
	.word	.LC1
	.word	prvIdleTask
	.word	.LANCHOR1
	.word	.LANCHOR11
	.word	.LANCHOR15
	.word	.LC0
.LFE214:
	.size	vTaskStartScheduler, .-vTaskStartScheduler
	.section	.text.vTaskEndScheduler,"ax",%progbits
	.align	1
	.global	vTaskEndScheduler
	.syntax unified
	.thumb
	.thumb_func
	.fpu fpv4-sp-d16
	.type	vTaskEndScheduler, %function
vTaskEndScheduler:
.LFB215:
	.loc 1 2022 1 is_stmt 1 view -0
	@ args = 0, pretend = 0, frame = 0
	@ frame_needed = 0, uses_anonymous_args = 0
	push	{r3, lr}
.LCFI30:
	.loc 1 2026 2 view .LVU735
.LVL208:
.LBB176:
.LBI176:
	.loc 2 262 55 view .LVU736
.LBB177:
	.loc 2 264 3 view .LVU737
	movs	r3, #64
	.syntax unified
@ 264 "../../../../../../components/toolchain/cmsis/include/cmsis_gcc.h" 1
	MSR basepri, r3
@ 0 "" 2
.LVL209:
	.loc 2 264 3 is_stmt 0 view .LVU738
	.thumb
	.syntax unified
.LBE177:
.LBE176:
	.loc 1 2027 2 is_stmt 1 view .LVU739
	.loc 1 2027 20 is_stmt 0 view .LVU740
	ldr	r3, .L176
	movs	r2, #0
	str	r2, [r3]
	.loc 1 2028 2 is_stmt 1 view .LVU741
	bl	vPortEndScheduler
.LVL210:
	.loc 1 2029 1 is_stmt 0 view .LVU742
	pop	{r3, pc}
.L177:
	.align	2
.L176:
	.word	.LANCHOR11
.LFE215:
	.size	vTaskEndScheduler, .-vTaskEndScheduler
	.section	.text.vTaskSuspendAll,"ax",%progbits
	.align	1
	.global	vTaskSuspendAll
	.syntax unified
	.thumb
	.thumb_func
	.fpu fpv4-sp-d16
	.type	vTaskSuspendAll, %function
vTaskSuspendAll:
.LFB216:
	.loc 1 2033 1 is_stmt 1 view -0
	@ args = 0, pretend = 0, frame = 0
	@ frame_needed = 0, uses_anonymous_args = 0
	@ link register save eliminated.
	.loc 1 2038 2 view .LVU744
	ldr	r2, .L179
	ldr	r3, [r2]
	adds	r3, r3, #1
	str	r3, [r2]
	.loc 1 2039 1 is_stmt 0 view .LVU745
	bx	lr
.L180:
	.align	2
.L179:
	.word	.LANCHOR16
.LFE216:
	.size	vTaskSuspendAll, .-vTaskSuspendAll
	.section	.text.xTaskGetTickCount,"ax",%progbits
	.align	1
	.global	xTaskGetTickCount
	.syntax unified
	.thumb
	.thumb_func
	.fpu fpv4-sp-d16
	.type	xTaskGetTickCount, %function
xTaskGetTickCount:
.LFB218:
	.loc 1 2216 1 is_stmt 1 view -0
	@ args = 0, pretend = 0, frame = 0
	@ frame_needed = 0, uses_anonymous_args = 0
	@ link register save eliminated.
	.loc 1 2217 1 view .LVU747
	.loc 1 2220 2 view .LVU748
	.loc 1 2222 3 view .LVU749
	.loc 1 2222 10 is_stmt 0 view .LVU750
	ldr	r3, .L182
	ldr	r0, [r3]
.LVL211:
	.loc 1 2224 2 is_stmt 1 view .LVU751
	.loc 1 2226 2 view .LVU752
	.loc 1 2227 1 is_stmt 0 view .LVU753
	bx	lr
.L183:
	.align	2
.L182:
	.word	.LANCHOR15
.LFE218:
	.size	xTaskGetTickCount, .-xTaskGetTickCount
	.section	.text.xTaskGetTickCountFromISR,"ax",%progbits
	.align	1
	.global	xTaskGetTickCountFromISR
	.syntax unified
	.thumb
	.thumb_func
	.fpu fpv4-sp-d16
	.type	xTaskGetTickCountFromISR, %function
xTaskGetTickCountFromISR:
.LFB219:
	.loc 1 2231 1 is_stmt 1 view -0
	@ args = 0, pretend = 0, frame = 0
	@ frame_needed = 0, uses_anonymous_args = 0
	push	{r3, lr}
.LCFI31:
	.loc 1 2232 1 view .LVU755
	.loc 1 2233 1 view .LVU756
	.loc 1 2249 2 view .LVU757
	bl	vPortValidateInterruptPriority
.LVL212:
	.loc 1 2251 2 view .LVU758
	.loc 1 2253 3 view .LVU759
	.loc 1 2253 11 is_stmt 0 view .LVU760
	ldr	r3, .L186
	ldr	r0, [r3]
.LVL213:
	.loc 1 2255 2 is_stmt 1 view .LVU761
	.loc 1 2257 2 view .LVU762
	.loc 1 2258 1 is_stmt 0 view .LVU763
	pop	{r3, pc}
.L187:
	.align	2
.L186:
	.word	.LANCHOR15
.LFE219:
	.size	xTaskGetTickCountFromISR, .-xTaskGetTickCountFromISR
	.section	.text.uxTaskGetNumberOfTasks,"ax",%progbits
	.align	1
	.global	uxTaskGetNumberOfTasks
	.syntax unified
	.thumb
	.thumb_func
	.fpu fpv4-sp-d16
	.type	uxTaskGetNumberOfTasks, %function
uxTaskGetNumberOfTasks:
.LFB220:
	.loc 1 2262 1 is_stmt 1 view -0
	@ args = 0, pretend = 0, frame = 0
	@ frame_needed = 0, uses_anonymous_args = 0
	@ link register save eliminated.
	.loc 1 2265 2 view .LVU765
	.loc 1 2265 9 is_stmt 0 view .LVU766
	ldr	r3, .L189
	ldr	r0, [r3]
	.loc 1 2266 1 view .LVU767
	bx	lr
.L190:
	.align	2
.L189:
	.word	.LANCHOR9
.LFE220:
	.size	uxTaskGetNumberOfTasks, .-uxTaskGetNumberOfTasks
	.section	.text.pcTaskGetName,"ax",%progbits
	.align	1
	.global	pcTaskGetName
	.syntax unified
	.thumb
	.thumb_func
	.fpu fpv4-sp-d16
	.type	pcTaskGetName, %function
pcTaskGetName:
.LVL214:
.LFB221:
	.loc 1 2270 1 is_stmt 1 view -0
	@ args = 0, pretend = 0, frame = 0
	@ frame_needed = 0, uses_anonymous_args = 0
	.loc 1 2270 1 is_stmt 0 view .LVU769
	push	{r4, lr}
.LCFI32:
	.loc 1 2271 1 is_stmt 1 view .LVU770
	.loc 1 2275 2 view .LVU771
	.loc 1 2275 38 is_stmt 0 view .LVU772
	mov	r4, r0
	cbz	r0, .L195
.LVL215:
.L192:
	.loc 1 2276 2 is_stmt 1 discriminator 4 view .LVU773
	.loc 1 2276 11 discriminator 4 view .LVU774
	.loc 1 2276 14 is_stmt 0 discriminator 4 view .LVU775
	cbz	r4, .L196
.L193:
	.loc 1 2276 152 is_stmt 1 discriminator 5 view .LVU776
	.loc 1 2277 2 discriminator 5 view .LVU777
	.loc 1 2278 1 is_stmt 0 discriminator 5 view .LVU778
	add	r0, r4, #52
	pop	{r4, pc}
.LVL216:
.L195:
	.loc 1 2275 38 discriminator 1 view .LVU779
	ldr	r3, .L197
	ldr	r4, [r3]
.LVL217:
	.loc 1 2275 38 discriminator 1 view .LVU780
	b	.L192
.LVL218:
.L196:
	.loc 1 2276 33 is_stmt 1 discriminator 4 view .LVU781
	ldr	r1, .L197+4
	movw	r0, #2276
	bl	assert_nrf_callback
.LVL219:
	b	.L193
.L198:
	.align	2
.L197:
	.word	.LANCHOR10
	.word	.LC0
.LFE221:
	.size	pcTaskGetName, .-pcTaskGetName
	.section	.text.xTaskGetIdleTaskHandle,"ax",%progbits
	.align	1
	.global	xTaskGetIdleTaskHandle
	.syntax unified
	.thumb
	.thumb_func
	.fpu fpv4-sp-d16
	.type	xTaskGetIdleTaskHandle, %function
xTaskGetIdleTaskHandle:
.LFB223:
	.loc 1 2484 2 view -0
	@ args = 0, pretend = 0, frame = 0
	@ frame_needed = 0, uses_anonymous_args = 0
	push	{r3, lr}
.LCFI33:
	.loc 1 2487 3 view .LVU783
	.loc 1 2487 12 view .LVU784
	.loc 1 2487 34 is_stmt 0 view .LVU785
	ldr	r3, .L203
	ldr	r3, [r3]
	.loc 1 2487 15 view .LVU786
	cbz	r3, .L202
.L200:
	.loc 1 2487 135 is_stmt 1 discriminator 5 view .LVU787
	.loc 1 2488 3 discriminator 5 view .LVU788
	.loc 1 2489 2 is_stmt 0 discriminator 5 view .LVU789
	ldr	r3, .L203
	ldr	r0, [r3]
	pop	{r3, pc}
.L202:
	.loc 1 2487 16 is_stmt 1 discriminator 4 view .LVU790
	ldr	r1, .L203+4
	movw	r0, #2487
	bl	assert_nrf_callback
.LVL220:
	b	.L200
.L204:
	.align	2
.L203:
	.word	.LANCHOR17
	.word	.LC0
.LFE223:
	.size	xTaskGetIdleTaskHandle, .-xTaskGetIdleTaskHandle
	.section	.text.xTaskIncrementTick,"ax",%progbits
	.align	1
	.global	xTaskIncrementTick
	.syntax unified
	.thumb
	.thumb_func
	.fpu fpv4-sp-d16
	.type	xTaskIncrementTick, %function
xTaskIncrementTick:
.LFB224:
	.loc 1 2590 1 view -0
	@ args = 0, pretend = 0, frame = 0
	@ frame_needed = 0, uses_anonymous_args = 0
	push	{r3, r4, r5, r6, r7, lr}
.LCFI34:
	.loc 1 2591 1 view .LVU792
	.loc 1 2592 1 view .LVU793
	.loc 1 2593 1 view .LVU794
.LVL221:
	.loc 1 2598 2 view .LVU795
	.loc 1 2599 2 view .LVU796
	.loc 1 2599 27 is_stmt 0 view .LVU797
	ldr	r3, .L224
	ldr	r3, [r3]
	.loc 1 2599 4 view .LVU798
	cmp	r3, #0
	bne	.L206
.LBB178:
	.loc 1 2603 3 is_stmt 1 view .LVU799
	.loc 1 2603 49 is_stmt 0 view .LVU800
	ldr	r3, .L224+4
	ldr	r6, [r3]
	.loc 1 2603 20 view .LVU801
	adds	r6, r6, #1
.LVL222:
	.loc 1 2607 3 is_stmt 1 view .LVU802
	.loc 1 2607 14 is_stmt 0 view .LVU803
	str	r6, [r3]
	.loc 1 2609 3 is_stmt 1 view .LVU804
	.loc 1 2609 5 is_stmt 0 view .LVU805
	cbnz	r6, .L207
.LBB179:
	.loc 1 2611 6 is_stmt 1 discriminator 1 view .LVU806
	.loc 1 2611 22 discriminator 1 view .LVU807
	.loc 1 2611 31 discriminator 1 view .LVU808
	.loc 1 2611 77 is_stmt 0 discriminator 1 view .LVU809
	ldr	r3, .L224+8
	ldr	r3, [r3]
	ldr	r3, [r3]
	.loc 1 2611 34 discriminator 1 view .LVU810
	cbnz	r3, .L221
.L208:
	.loc 1 2611 253 is_stmt 1 discriminator 5 view .LVU811
	.loc 1 2611 255 discriminator 5 view .LVU812
	.loc 1 2611 262 is_stmt 0 discriminator 5 view .LVU813
	ldr	r2, .L224+8
	ldr	r1, [r2]
.LVL223:
	.loc 1 2611 283 is_stmt 1 discriminator 5 view .LVU814
	.loc 1 2611 301 is_stmt 0 discriminator 5 view .LVU815
	ldr	r3, .L224+12
	ldr	r0, [r3]
	str	r0, [r2]
	.loc 1 2611 330 is_stmt 1 discriminator 5 view .LVU816
	.loc 1 2611 356 is_stmt 0 discriminator 5 view .LVU817
	str	r1, [r3]
	.loc 1 2611 366 is_stmt 1 discriminator 5 view .LVU818
	.loc 1 2611 381 is_stmt 0 discriminator 5 view .LVU819
	ldr	r2, .L224+16
	ldr	r3, [r2]
	adds	r3, r3, #1
	str	r3, [r2]
	.loc 1 2611 385 is_stmt 1 discriminator 5 view .LVU820
	bl	prvResetNextTaskUnblockTime
.LVL224:
	.loc 1 2611 385 is_stmt 0 discriminator 5 view .LVU821
.LBE179:
	.loc 1 2611 417 is_stmt 1 discriminator 5 view .LVU822
.L207:
	.loc 1 2615 4 view .LVU823
	.loc 1 2622 3 view .LVU824
	.loc 1 2622 23 is_stmt 0 view .LVU825
	ldr	r3, .L224+20
	ldr	r3, [r3]
	.loc 1 2622 5 view .LVU826
	cmp	r3, r6
	bls	.L217
.LBE178:
	.loc 1 2593 12 view .LVU827
	movs	r7, #0
	b	.L210
.L221:
.LBB181:
.LBB180:
	.loc 1 2611 134 is_stmt 1 discriminator 4 view .LVU828
	ldr	r1, .L224+24
	movw	r0, #2611
	bl	assert_nrf_callback
.LVL225:
	b	.L208
.LVL226:
.L218:
	.loc 1 2611 134 is_stmt 0 discriminator 4 view .LVU829
.LBE180:
	.loc 1 2688 24 view .LVU830
	movs	r7, #1
.LVL227:
.L209:
	.loc 1 2624 4 is_stmt 1 view .LVU831
	.loc 1 2626 5 view .LVU832
	.loc 1 2626 49 is_stmt 0 view .LVU833
	ldr	r3, .L224+8
	ldr	r3, [r3]
	ldr	r3, [r3]
	.loc 1 2626 92 view .LVU834
	cbz	r3, .L222
	.loc 1 2642 6 is_stmt 1 view .LVU835
	.loc 1 2642 53 is_stmt 0 view .LVU836
	ldr	r3, .L224+8
	ldr	r3, [r3]
	.loc 1 2642 66 view .LVU837
	ldr	r3, [r3, #12]
	.loc 1 2642 12 view .LVU838
	ldr	r4, [r3, #12]
.LVL228:
	.loc 1 2643 6 is_stmt 1 view .LVU839
	.loc 1 2643 17 is_stmt 0 view .LVU840
	ldr	r3, [r4, #4]
.LVL229:
	.loc 1 2645 6 is_stmt 1 view .LVU841
	.loc 1 2645 8 is_stmt 0 view .LVU842
	cmp	r6, r3
	bcc	.L223
	.loc 1 2657 7 is_stmt 1 view .LVU843
	.loc 1 2661 6 view .LVU844
	.loc 1 2661 15 is_stmt 0 view .LVU845
	adds	r5, r4, #4
	mov	r0, r5
	bl	uxListRemove
.LVL230:
	.loc 1 2665 6 is_stmt 1 view .LVU846
	.loc 1 2665 42 is_stmt 0 view .LVU847
	ldr	r3, [r4, #40]
	.loc 1 2665 8 view .LVU848
	cbz	r3, .L213
	.loc 1 2667 7 is_stmt 1 view .LVU849
	.loc 1 2667 16 is_stmt 0 view .LVU850
	add	r0, r4, #24
	bl	uxListRemove
.LVL231:
.L213:
	.loc 1 2671 7 is_stmt 1 view .LVU851
	.loc 1 2676 6 view .LVU852
	mov	r0, r4
	bl	SEGGER_SYSVIEW_OnTaskStartReady
.LVL232:
	.loc 1 2676 61 view .LVU853
	.loc 1 2676 107 is_stmt 0 view .LVU854
	ldr	r3, [r4, #44]
	.loc 1 2676 93 view .LVU855
	movs	r2, #1
	lsls	r2, r2, r3
	.loc 1 2676 84 view .LVU856
	ldr	r1, .L224+28
	ldr	r0, [r1]
	orrs	r2, r2, r0
	str	r2, [r1]
	.loc 1 2676 125 is_stmt 1 view .LVU857
	add	r3, r3, r3, lsl #2
	lsls	r2, r3, #2
	mov	r1, r5
	ldr	r0, .L224+32
	add	r0, r0, r2
	bl	vListInsertEnd
.LVL233:
	.loc 1 2676 224 view .LVU858
	.loc 1 2686 7 view .LVU859
	.loc 1 2686 16 is_stmt 0 view .LVU860
	ldr	r2, [r4, #44]
	.loc 1 2686 44 view .LVU861
	ldr	r3, .L224+36
	ldr	r3, [r3]
	ldr	r3, [r3, #44]
	.loc 1 2686 9 view .LVU862
	cmp	r2, r3
	bcs	.L218
	b	.L209
.LVL234:
.L217:
	.loc 1 2686 9 view .LVU863
.LBE181:
	.loc 1 2593 12 view .LVU864
	movs	r7, #0
	b	.L209
.LVL235:
.L222:
.LBB182:
	.loc 1 2633 6 is_stmt 1 view .LVU865
	.loc 1 2633 27 is_stmt 0 view .LVU866
	ldr	r3, .L224+20
	mov	r2, #-1
	str	r2, [r3]
	.loc 1 2634 6 is_stmt 1 view .LVU867
	b	.L210
.LVL236:
.L223:
	.loc 1 2652 7 view .LVU868
	.loc 1 2652 28 is_stmt 0 view .LVU869
	ldr	r2, .L224+20
	str	r3, [r2]
	.loc 1 2653 7 is_stmt 1 view .LVU870
	b	.L210
.LVL237:
.L206:
	.loc 1 2653 7 is_stmt 0 view .LVU871
.LBE182:
	.loc 1 2733 3 is_stmt 1 view .LVU872
	ldr	r2, .L224+40
	ldr	r3, [r2]
	adds	r3, r3, #1
	str	r3, [r2]
	.loc 1 2593 12 is_stmt 0 view .LVU873
	movs	r7, #0
.LVL238:
.L210:
	.loc 1 2746 3 is_stmt 1 view .LVU874
	.loc 1 2746 21 is_stmt 0 view .LVU875
	ldr	r3, .L224+44
	ldr	r3, [r3]
	.loc 1 2746 5 view .LVU876
	cbz	r3, .L205
	.loc 1 2748 20 view .LVU877
	movs	r7, #1
.LVL239:
	.loc 1 2752 4 is_stmt 1 view .LVU878
	.loc 1 2757 2 view .LVU879
.L205:
	.loc 1 2758 1 is_stmt 0 view .LVU880
	mov	r0, r7
	pop	{r3, r4, r5, r6, r7, pc}
.L225:
	.align	2
.L224:
	.word	.LANCHOR16
	.word	.LANCHOR15
	.word	.LANCHOR0
	.word	.LANCHOR8
	.word	.LANCHOR18
	.word	.LANCHOR1
	.word	.LC0
	.word	.LANCHOR13
	.word	.LANCHOR4
	.word	.LANCHOR10
	.word	.LANCHOR19
	.word	.LANCHOR20
.LFE224:
	.size	xTaskIncrementTick, .-xTaskIncrementTick
	.section	.text.xTaskResumeAll,"ax",%progbits
	.align	1
	.global	xTaskResumeAll
	.syntax unified
	.thumb
	.thumb_func
	.fpu fpv4-sp-d16
	.type	xTaskResumeAll, %function
xTaskResumeAll:
.LFB217:
	.loc 1 2106 1 is_stmt 1 view -0
	@ args = 0, pretend = 0, frame = 0
	@ frame_needed = 0, uses_anonymous_args = 0
	push	{r3, r4, r5, lr}
.LCFI35:
	.loc 1 2107 1 view .LVU882
.LVL240:
	.loc 1 2108 1 view .LVU883
	.loc 1 2112 2 view .LVU884
	.loc 1 2112 11 view .LVU885
	.loc 1 2112 15 is_stmt 0 view .LVU886
	ldr	r3, .L242
	ldr	r3, [r3]
	.loc 1 2112 14 view .LVU887
	cbz	r3, .L239
.L227:
	.loc 1 2112 167 is_stmt 1 discriminator 5 view .LVU888
	.loc 1 2119 2 discriminator 5 view .LVU889
	bl	vPortEnterCritical
.LVL241:
	.loc 1 2121 3 discriminator 5 view .LVU890
	ldr	r3, .L242
	ldr	r2, [r3]
	subs	r2, r2, #1
	str	r2, [r3]
	.loc 1 2123 3 discriminator 5 view .LVU891
	.loc 1 2123 28 is_stmt 0 discriminator 5 view .LVU892
	ldr	r3, [r3]
	.loc 1 2123 5 discriminator 5 view .LVU893
	cmp	r3, #0
	bne	.L236
	.loc 1 2125 4 is_stmt 1 view .LVU894
	.loc 1 2125 31 is_stmt 0 view .LVU895
	ldr	r3, .L242+4
	ldr	r3, [r3]
	.loc 1 2125 6 view .LVU896
	cbnz	r3, .L237
	.loc 1 2108 12 view .LVU897
	movs	r4, #0
	b	.L228
.L239:
	.loc 1 2112 48 is_stmt 1 discriminator 4 view .LVU898
	ldr	r1, .L242+8
	mov	r0, #2112
	bl	assert_nrf_callback
.LVL242:
	b	.L227
.L237:
	.loc 1 2107 8 is_stmt 0 view .LVU899
	movs	r4, #0
.LVL243:
.L229:
	.loc 1 2144 7 is_stmt 1 view .LVU900
	.loc 1 2129 10 view .LVU901
	.loc 1 2129 53 is_stmt 0 view .LVU902
	ldr	r3, .L242+12
	ldr	r3, [r3]
	.loc 1 2129 10 view .LVU903
	cbz	r3, .L240
	.loc 1 2131 6 is_stmt 1 view .LVU904
	.loc 1 2131 71 is_stmt 0 view .LVU905
	ldr	r3, .L242+12
	ldr	r3, [r3, #12]
	.loc 1 2131 12 view .LVU906
	ldr	r4, [r3, #12]
.LVL244:
	.loc 1 2132 6 is_stmt 1 view .LVU907
	.loc 1 2132 15 is_stmt 0 view .LVU908
	add	r0, r4, #24
	bl	uxListRemove
.LVL245:
	.loc 1 2133 6 is_stmt 1 view .LVU909
	.loc 1 2133 15 is_stmt 0 view .LVU910
	adds	r5, r4, #4
	mov	r0, r5
	bl	uxListRemove
.LVL246:
	.loc 1 2134 6 is_stmt 1 view .LVU911
	mov	r0, r4
	bl	SEGGER_SYSVIEW_OnTaskStartReady
.LVL247:
	.loc 1 2134 61 view .LVU912
	.loc 1 2134 107 is_stmt 0 view .LVU913
	ldr	r0, [r4, #44]
	.loc 1 2134 93 view .LVU914
	movs	r3, #1
	lsls	r3, r3, r0
	.loc 1 2134 84 view .LVU915
	ldr	r2, .L242+16
	ldr	r1, [r2]
	orrs	r3, r3, r1
	str	r3, [r2]
	.loc 1 2134 125 is_stmt 1 view .LVU916
	add	r0, r0, r0, lsl #2
	mov	r1, r5
	ldr	r3, .L242+20
	add	r0, r3, r0, lsl #2
	bl	vListInsertEnd
.LVL248:
	.loc 1 2134 224 view .LVU917
	.loc 1 2138 6 view .LVU918
	.loc 1 2138 15 is_stmt 0 view .LVU919
	ldr	r2, [r4, #44]
	.loc 1 2138 43 view .LVU920
	ldr	r3, .L242+24
	ldr	r3, [r3]
	ldr	r3, [r3, #44]
	.loc 1 2138 8 view .LVU921
	cmp	r2, r3
	bcc	.L229
	.loc 1 2140 7 is_stmt 1 view .LVU922
	.loc 1 2140 21 is_stmt 0 view .LVU923
	ldr	r3, .L242+28
	movs	r2, #1
	str	r2, [r3]
	b	.L229
.L240:
	.loc 1 2148 5 is_stmt 1 view .LVU924
	.loc 1 2148 7 is_stmt 0 view .LVU925
	cbz	r4, .L232
	.loc 1 2156 6 is_stmt 1 view .LVU926
	bl	prvResetNextTaskUnblockTime
.LVL249:
.L232:
.LBB183:
	.loc 1 2164 6 view .LVU927
	.loc 1 2164 18 is_stmt 0 view .LVU928
	ldr	r3, .L242+32
	ldr	r4, [r3]
.LVL250:
	.loc 1 2166 6 is_stmt 1 view .LVU929
	.loc 1 2166 8 is_stmt 0 view .LVU930
	cbnz	r4, .L235
.L233:
	.loc 1 2185 7 is_stmt 1 view .LVU931
.LBE183:
	.loc 1 2189 5 view .LVU932
	.loc 1 2189 23 is_stmt 0 view .LVU933
	ldr	r3, .L242+28
	ldr	r4, [r3]
.LVL251:
	.loc 1 2189 7 view .LVU934
	cbz	r4, .L228
	.loc 1 2193 7 is_stmt 1 view .LVU935
.LVL252:
	.loc 1 2196 6 view .LVU936
	.loc 1 2196 11 view .LVU937
	.loc 1 2196 61 is_stmt 0 view .LVU938
	ldr	r3, .L242+36
	mov	r2, #268435456
	str	r2, [r3, #4]
	.loc 1 2196 77 is_stmt 1 view .LVU939
.LBB184:
.LBI184:
	.loc 2 404 51 view .LVU940
.LBB185:
	.loc 2 406 3 view .LVU941
	.syntax unified
@ 406 "../../../../../../components/toolchain/cmsis/include/cmsis_gcc.h" 1
	sev
@ 0 "" 2
	.thumb
	.syntax unified
.LBE185:
.LBE184:
	.loc 1 2196 86 view .LVU942
.LBB186:
.LBI186:
	.loc 2 427 51 view .LVU943
.LBB187:
	.loc 2 429 3 view .LVU944
	.syntax unified
@ 429 "../../../../../../components/toolchain/cmsis/include/cmsis_gcc.h" 1
	dsb 0xF
@ 0 "" 2
	.thumb
	.syntax unified
.LBE187:
.LBE186:
	.loc 1 2196 95 view .LVU945
.LBB188:
.LBI188:
	.loc 2 416 51 view .LVU946
.LBB189:
	.loc 2 418 3 view .LVU947
	.syntax unified
@ 418 "../../../../../../components/toolchain/cmsis/include/cmsis_gcc.h" 1
	isb 0xF
@ 0 "" 2
	.thumb
	.syntax unified
.LBE189:
.LBE188:
	.loc 1 2193 23 is_stmt 0 view .LVU948
	movs	r4, #1
.LBB191:
.LBB190:
	.loc 2 419 1 view .LVU949
	b	.L228
.LVL253:
.L234:
	.loc 2 419 1 view .LVU950
.LBE190:
.LBE191:
.LBB192:
	.loc 1 2176 9 is_stmt 1 view .LVU951
	.loc 1 2178 8 view .LVU952
	.loc 1 2179 14 view .LVU953
	.loc 1 2179 7 is_stmt 0 view .LVU954
	subs	r4, r4, #1
.LVL254:
	.loc 1 2179 7 view .LVU955
	beq	.L241
.L235:
	.loc 1 2168 7 is_stmt 1 view .LVU956
	.loc 1 2170 8 view .LVU957
	.loc 1 2170 12 is_stmt 0 view .LVU958
	bl	xTaskIncrementTick
.LVL255:
	.loc 1 2170 10 view .LVU959
	cmp	r0, #0
	beq	.L234
	.loc 1 2172 9 is_stmt 1 view .LVU960
	.loc 1 2172 23 is_stmt 0 view .LVU961
	ldr	r3, .L242+28
	movs	r2, #1
	str	r2, [r3]
	b	.L234
.L241:
	.loc 1 2181 7 is_stmt 1 view .LVU962
	.loc 1 2181 21 is_stmt 0 view .LVU963
	ldr	r3, .L242+32
	movs	r2, #0
	str	r2, [r3]
	b	.L233
.LVL256:
.L236:
	.loc 1 2181 21 view .LVU964
.LBE192:
	.loc 1 2108 12 view .LVU965
	movs	r4, #0
.LVL257:
.L228:
	.loc 1 2206 4 is_stmt 1 view .LVU966
	.loc 1 2209 2 view .LVU967
	bl	vPortExitCritical
.LVL258:
	.loc 1 2211 2 view .LVU968
	.loc 1 2212 1 is_stmt 0 view .LVU969
	mov	r0, r4
	pop	{r3, r4, r5, pc}
.LVL259:
.L243:
	.loc 1 2212 1 view .LVU970
	.align	2
.L242:
	.word	.LANCHOR16
	.word	.LANCHOR9
	.word	.LC0
	.word	.LANCHOR3
	.word	.LANCHOR13
	.word	.LANCHOR4
	.word	.LANCHOR10
	.word	.LANCHOR20
	.word	.LANCHOR19
	.word	-536810240
.LFE217:
	.size	xTaskResumeAll, .-xTaskResumeAll
	.section	.text.vTaskDelayUntil,"ax",%progbits
	.align	1
	.global	vTaskDelayUntil
	.syntax unified
	.thumb
	.thumb_func
	.fpu fpv4-sp-d16
	.type	vTaskDelayUntil, %function
vTaskDelayUntil:
.LVL260:
.LFB204:
	.loc 1 1205 2 is_stmt 1 view -0
	@ args = 0, pretend = 0, frame = 0
	@ frame_needed = 0, uses_anonymous_args = 0
	.loc 1 1205 2 is_stmt 0 view .LVU972
	push	{r4, r5, r6, lr}
.LCFI36:
	mov	r4, r1
	.loc 1 1206 2 is_stmt 1 view .LVU973
	.loc 1 1207 2 view .LVU974
.LVL261:
	.loc 1 1209 3 view .LVU975
	.loc 1 1209 12 view .LVU976
	.loc 1 1209 15 is_stmt 0 view .LVU977
	mov	r6, r0
	cbz	r0, .L257
.LVL262:
.L245:
	.loc 1 1209 166 is_stmt 1 discriminator 1 view .LVU978
	.loc 1 1210 3 discriminator 1 view .LVU979
	.loc 1 1210 12 discriminator 1 view .LVU980
	.loc 1 1210 15 is_stmt 0 discriminator 1 view .LVU981
	cbz	r4, .L258
.L246:
	.loc 1 1210 171 is_stmt 1 discriminator 1 view .LVU982
	.loc 1 1211 3 discriminator 1 view .LVU983
	.loc 1 1211 12 discriminator 1 view .LVU984
	.loc 1 1211 37 is_stmt 0 discriminator 1 view .LVU985
	ldr	r3, .L260
	ldr	r3, [r3]
	.loc 1 1211 15 discriminator 1 view .LVU986
	cbnz	r3, .L259
.L247:
	.loc 1 1211 173 is_stmt 1 discriminator 5 view .LVU987
	.loc 1 1213 3 discriminator 5 view .LVU988
	bl	vTaskSuspendAll
.LVL263:
.LBB193:
	.loc 1 1217 4 discriminator 5 view .LVU989
	.loc 1 1217 21 is_stmt 0 discriminator 5 view .LVU990
	ldr	r3, .L260+4
	ldr	r5, [r3]
.LVL264:
	.loc 1 1220 4 is_stmt 1 discriminator 5 view .LVU991
	.loc 1 1220 18 is_stmt 0 discriminator 5 view .LVU992
	ldr	r3, [r6]
	.loc 1 1220 16 discriminator 5 view .LVU993
	add	r4, r4, r3
.LVL265:
	.loc 1 1222 4 is_stmt 1 discriminator 5 view .LVU994
	.loc 1 1222 6 is_stmt 0 discriminator 5 view .LVU995
	cmp	r3, r5
	bls	.L248
	.loc 1 1229 5 is_stmt 1 view .LVU996
	.loc 1 1229 7 is_stmt 0 view .LVU997
	cmp	r3, r4
	bhi	.L249
	.loc 1 1254 4 is_stmt 1 view .LVU998
	.loc 1 1254 24 is_stmt 0 view .LVU999
	str	r4, [r6]
	.loc 1 1256 4 is_stmt 1 view .LVU1000
	b	.L250
.LVL266:
.L257:
	.loc 1 1256 4 is_stmt 0 view .LVU1001
.LBE193:
	.loc 1 1209 47 is_stmt 1 discriminator 4 view .LVU1002
	ldr	r1, .L260+8
.LVL267:
	.loc 1 1209 47 is_stmt 0 discriminator 4 view .LVU1003
	movw	r0, #1209
.LVL268:
	.loc 1 1209 47 discriminator 4 view .LVU1004
	bl	assert_nrf_callback
.LVL269:
	b	.L245
.L258:
	.loc 1 1210 52 is_stmt 1 discriminator 4 view .LVU1005
	ldr	r1, .L260+8
	movw	r0, #1210
	bl	assert_nrf_callback
.LVL270:
	b	.L246
.L259:
	.loc 1 1211 54 discriminator 4 view .LVU1006
	ldr	r1, .L260+8
	movw	r0, #1211
	bl	assert_nrf_callback
.LVL271:
	b	.L247
.LVL272:
.L249:
.LBB194:
	.loc 1 1229 47 is_stmt 0 discriminator 1 view .LVU1007
	cmp	r5, r4
	bcc	.L251
	.loc 1 1254 4 is_stmt 1 view .LVU1008
	.loc 1 1254 24 is_stmt 0 view .LVU1009
	str	r4, [r6]
	.loc 1 1256 4 is_stmt 1 view .LVU1010
	b	.L250
.L251:
	.loc 1 1231 6 view .LVU1011
.LVL273:
	.loc 1 1254 4 view .LVU1012
	.loc 1 1254 24 is_stmt 0 view .LVU1013
	str	r4, [r6]
	.loc 1 1256 4 is_stmt 1 view .LVU1014
	b	.L252
.LVL274:
.L248:
	.loc 1 1243 5 view .LVU1015
	.loc 1 1243 7 is_stmt 0 view .LVU1016
	cmp	r3, r4
	bhi	.L253
	.loc 1 1243 47 discriminator 1 view .LVU1017
	cmp	r5, r4
	bcs	.L254
.L253:
	.loc 1 1245 6 is_stmt 1 view .LVU1018
.LVL275:
	.loc 1 1254 4 view .LVU1019
	.loc 1 1254 24 is_stmt 0 view .LVU1020
	str	r4, [r6]
	.loc 1 1256 4 is_stmt 1 view .LVU1021
.L252:
	.loc 1 1258 5 view .LVU1022
	movs	r0, #36
	bl	SEGGER_SYSVIEW_RecordVoid
.LVL276:
	.loc 1 1262 5 view .LVU1023
	movs	r1, #0
	subs	r0, r4, r5
	bl	prvAddCurrentTaskToDelayedList
.LVL277:
.L250:
	.loc 1 1266 5 view .LVU1024
.LBE194:
	.loc 1 1269 3 view .LVU1025
	.loc 1 1269 21 is_stmt 0 view .LVU1026
	bl	xTaskResumeAll
.LVL278:
	.loc 1 1273 3 is_stmt 1 view .LVU1027
	.loc 1 1273 5 is_stmt 0 view .LVU1028
	cbnz	r0, .L244
	.loc 1 1275 4 is_stmt 1 view .LVU1029
	.loc 1 1275 9 view .LVU1030
	.loc 1 1275 59 is_stmt 0 view .LVU1031
	ldr	r3, .L260+12
	mov	r2, #268435456
	str	r2, [r3, #4]
	.loc 1 1275 75 is_stmt 1 view .LVU1032
.LBB195:
.LBI195:
	.loc 2 404 51 view .LVU1033
.LBB196:
	.loc 2 406 3 view .LVU1034
	.syntax unified
@ 406 "../../../../../../components/toolchain/cmsis/include/cmsis_gcc.h" 1
	sev
@ 0 "" 2
	.thumb
	.syntax unified
.LBE196:
.LBE195:
	.loc 1 1275 84 view .LVU1035
.LBB197:
.LBI197:
	.loc 2 427 51 view .LVU1036
.LBB198:
	.loc 2 429 3 view .LVU1037
	.syntax unified
@ 429 "../../../../../../components/toolchain/cmsis/include/cmsis_gcc.h" 1
	dsb 0xF
@ 0 "" 2
	.thumb
	.syntax unified
.LBE198:
.LBE197:
	.loc 1 1275 93 view .LVU1038
.LBB199:
.LBI199:
	.loc 2 416 51 view .LVU1039
.LBB200:
	.loc 2 418 3 view .LVU1040
	.syntax unified
@ 418 "../../../../../../components/toolchain/cmsis/include/cmsis_gcc.h" 1
	isb 0xF
@ 0 "" 2
	.thumb
	.syntax unified
.LBE200:
.LBE199:
	.loc 1 1279 4 view .LVU1041
.L244:
	.loc 1 1281 2 is_stmt 0 view .LVU1042
	pop	{r4, r5, r6, pc}
.LVL279:
.L254:
.LBB201:
	.loc 1 1254 4 is_stmt 1 view .LVU1043
	.loc 1 1254 24 is_stmt 0 view .LVU1044
	str	r4, [r6]
	.loc 1 1256 4 is_stmt 1 view .LVU1045
	b	.L250
.L261:
	.align	2
.L260:
	.word	.LANCHOR16
	.word	.LANCHOR15
	.word	.LC0
	.word	-536810240
.LBE201:
.LFE204:
	.size	vTaskDelayUntil, .-vTaskDelayUntil
	.section	.text.vTaskDelay,"ax",%progbits
	.align	1
	.global	vTaskDelay
	.syntax unified
	.thumb
	.thumb_func
	.fpu fpv4-sp-d16
	.type	vTaskDelay, %function
vTaskDelay:
.LVL280:
.LFB205:
	.loc 1 1289 2 view -0
	@ args = 0, pretend = 0, frame = 0
	@ frame_needed = 0, uses_anonymous_args = 0
	.loc 1 1289 2 is_stmt 0 view .LVU1047
	push	{r4, lr}
.LCFI37:
	.loc 1 1290 2 is_stmt 1 view .LVU1048
.LVL281:
	.loc 1 1293 3 view .LVU1049
	.loc 1 1293 5 is_stmt 0 view .LVU1050
	cbz	r0, .L263
	mov	r4, r0
	.loc 1 1295 4 is_stmt 1 discriminator 1 view .LVU1051
	.loc 1 1295 13 discriminator 1 view .LVU1052
	.loc 1 1295 38 is_stmt 0 discriminator 1 view .LVU1053
	ldr	r3, .L268
	ldr	r3, [r3]
	.loc 1 1295 16 discriminator 1 view .LVU1054
	cbnz	r3, .L267
.LVL282:
.L264:
	.loc 1 1295 174 is_stmt 1 discriminator 5 view .LVU1055
	.loc 1 1296 4 discriminator 5 view .LVU1056
	bl	vTaskSuspendAll
.LVL283:
	.loc 1 1298 5 discriminator 5 view .LVU1057
	mov	r1, r4
	movs	r0, #35
	bl	SEGGER_SYSVIEW_RecordU32
.LVL284:
	.loc 1 1307 5 discriminator 5 view .LVU1058
	movs	r1, #0
	mov	r0, r4
	bl	prvAddCurrentTaskToDelayedList
.LVL285:
	.loc 1 1309 4 discriminator 5 view .LVU1059
	.loc 1 1309 22 is_stmt 0 discriminator 5 view .LVU1060
	bl	xTaskResumeAll
.LVL286:
	.loc 1 1313 4 is_stmt 1 discriminator 5 view .LVU1061
	.loc 1 1318 3 discriminator 5 view .LVU1062
	.loc 1 1318 5 is_stmt 0 discriminator 5 view .LVU1063
	cbnz	r0, .L262
.LVL287:
.L263:
	.loc 1 1320 4 is_stmt 1 view .LVU1064
	.loc 1 1320 9 view .LVU1065
	.loc 1 1320 59 is_stmt 0 view .LVU1066
	ldr	r3, .L268+4
	mov	r2, #268435456
	str	r2, [r3, #4]
	.loc 1 1320 75 is_stmt 1 view .LVU1067
.LBB202:
.LBI202:
	.loc 2 404 51 view .LVU1068
.LBB203:
	.loc 2 406 3 view .LVU1069
	.syntax unified
@ 406 "../../../../../../components/toolchain/cmsis/include/cmsis_gcc.h" 1
	sev
@ 0 "" 2
	.thumb
	.syntax unified
.LBE203:
.LBE202:
	.loc 1 1320 84 view .LVU1070
.LBB204:
.LBI204:
	.loc 2 427 51 view .LVU1071
.LBB205:
	.loc 2 429 3 view .LVU1072
	.syntax unified
@ 429 "../../../../../../components/toolchain/cmsis/include/cmsis_gcc.h" 1
	dsb 0xF
@ 0 "" 2
	.thumb
	.syntax unified
.LBE205:
.LBE204:
	.loc 1 1320 93 view .LVU1073
.LBB206:
.LBI206:
	.loc 2 416 51 view .LVU1074
.LBB207:
	.loc 2 418 3 view .LVU1075
	.syntax unified
@ 418 "../../../../../../components/toolchain/cmsis/include/cmsis_gcc.h" 1
	isb 0xF
@ 0 "" 2
	.thumb
	.syntax unified
.LBE207:
.LBE206:
	.loc 1 1324 4 view .LVU1076
.L262:
	.loc 1 1326 2 is_stmt 0 view .LVU1077
	pop	{r4, pc}
.LVL288:
.L267:
	.loc 1 1295 55 is_stmt 1 discriminator 4 view .LVU1078
	ldr	r1, .L268+8
	movw	r0, #1295
.LVL289:
	.loc 1 1295 55 is_stmt 0 discriminator 4 view .LVU1079
	bl	assert_nrf_callback
.LVL290:
	b	.L264
.L269:
	.align	2
.L268:
	.word	.LANCHOR16
	.word	-536810240
	.word	.LC0
.LFE205:
	.size	vTaskDelay, .-vTaskDelay
	.section	.text.vTaskSwitchContext,"ax",%progbits
	.align	1
	.global	vTaskSwitchContext
	.syntax unified
	.thumb
	.thumb_func
	.fpu fpv4-sp-d16
	.type	vTaskSwitchContext, %function
vTaskSwitchContext:
.LFB225:
	.loc 1 2852 1 is_stmt 1 view -0
	@ args = 0, pretend = 0, frame = 0
	@ frame_needed = 0, uses_anonymous_args = 0
	.loc 1 2853 2 view .LVU1081
	.loc 1 2853 27 is_stmt 0 view .LVU1082
	ldr	r3, .L282
	ldr	r3, [r3]
	.loc 1 2853 4 view .LVU1083
	cbz	r3, .L271
	.loc 1 2857 3 is_stmt 1 view .LVU1084
	.loc 1 2857 17 is_stmt 0 view .LVU1085
	ldr	r3, .L282+4
	movs	r2, #1
	str	r2, [r3]
	bx	lr
.L271:
	.loc 1 2852 1 view .LVU1086
	push	{r4, lr}
.LCFI38:
	.loc 1 2861 3 is_stmt 1 view .LVU1087
	.loc 1 2861 17 is_stmt 0 view .LVU1088
	ldr	r3, .L282+4
	movs	r2, #0
	str	r2, [r3]
	.loc 1 2862 3 is_stmt 1 view .LVU1089
	.loc 1 2892 3 view .LVU1090
.LBB208:
	.loc 1 2896 5 view .LVU1091
	.loc 1 2896 32 view .LVU1092
	.loc 1 2896 55 is_stmt 0 view .LVU1093
	ldr	r3, .L282+8
	ldr	r4, [r3]
	clz	r4, r4
	.loc 1 2896 53 view .LVU1094
	rsb	r4, r4, #31
.LVL291:
	.loc 1 2896 98 is_stmt 1 view .LVU1095
	.loc 1 2896 107 view .LVU1096
	.loc 1 2896 156 is_stmt 0 view .LVU1097
	add	r2, r4, r4, lsl #2
	lsls	r3, r2, #2
	ldr	r2, .L282+12
	ldr	r3, [r2, r3]
	.loc 1 2896 110 view .LVU1098
	cbz	r3, .L279
.L273:
	.loc 1 2896 311 is_stmt 1 discriminator 5 view .LVU1099
.LBB209:
	.loc 1 2896 315 discriminator 5 view .LVU1100
.LVL292:
	.loc 1 2896 389 discriminator 5 view .LVU1101
	.loc 1 2896 431 is_stmt 0 discriminator 5 view .LVU1102
	ldr	r2, .L282+12
	add	r1, r4, r4, lsl #2
	lsls	r3, r1, #2
	add	r3, r3, r2
	ldr	r1, [r3, #4]
	.loc 1 2896 440 discriminator 5 view .LVU1103
	ldr	r1, [r1, #4]
	.loc 1 2896 414 discriminator 5 view .LVU1104
	str	r1, [r3, #4]
	.loc 1 2896 450 is_stmt 1 discriminator 5 view .LVU1105
	.loc 1 2896 504 is_stmt 0 discriminator 5 view .LVU1106
	add	r0, r4, r4, lsl #2
	lsls	r3, r0, #2
	mov	r0, r3
	adds	r3, r3, #8
	add	r2, r2, r3
	.loc 1 2896 452 discriminator 5 view .LVU1107
	cmp	r1, r2
	beq	.L280
.L274:
	.loc 1 2896 602 is_stmt 1 discriminator 8 view .LVU1108
	.loc 1 2896 636 is_stmt 0 discriminator 8 view .LVU1109
	add	r4, r4, r4, lsl #2
.LVL293:
	.loc 1 2896 636 discriminator 8 view .LVU1110
	lsls	r2, r4, #2
	ldr	r3, .L282+12
	add	r3, r3, r2
	ldr	r3, [r3, #4]
	.loc 1 2896 645 discriminator 8 view .LVU1111
	ldr	r2, [r3, #12]
	.loc 1 2896 619 discriminator 8 view .LVU1112
	ldr	r3, .L282+16
	str	r2, [r3]
.LBE209:
	.loc 1 2896 657 is_stmt 1 discriminator 8 view .LVU1113
.LBE208:
	.loc 1 2896 660 discriminator 8 view .LVU1114
	.loc 1 2897 3 discriminator 8 view .LVU1115
	.loc 1 2897 31 is_stmt 0 discriminator 8 view .LVU1116
	ldr	r2, [r3]
	.loc 1 2897 6 discriminator 8 view .LVU1117
	ldr	r3, .L282+20
	ldr	r3, [r3]
	.loc 1 2897 5 discriminator 8 view .LVU1118
	cmp	r2, r3
	beq	.L281
	.loc 1 2897 62 is_stmt 1 discriminator 2 view .LVU1119
	ldr	r3, .L282+16
	ldr	r0, [r3]
	bl	SEGGER_SYSVIEW_OnTaskStartExec
.LVL294:
	.loc 1 2897 124 discriminator 2 view .LVU1120
.L270:
	.loc 1 2907 1 is_stmt 0 view .LVU1121
	pop	{r4, pc}
.LVL295:
.L279:
.LBB211:
	.loc 1 2896 192 is_stmt 1 discriminator 4 view .LVU1122
	ldr	r1, .L282+24
	mov	r0, #2896
	bl	assert_nrf_callback
.LVL296:
	b	.L273
.LVL297:
.L280:
.LBB210:
	.loc 1 2896 539 discriminator 6 view .LVU1123
	.loc 1 2896 590 is_stmt 0 discriminator 6 view .LVU1124
	ldr	r1, [r1, #4]
	.loc 1 2896 564 discriminator 6 view .LVU1125
	ldr	r3, .L282+12
	add	r3, r3, r0
	str	r1, [r3, #4]
	b	.L274
.LVL298:
.L281:
	.loc 1 2896 564 discriminator 6 view .LVU1126
.LBE210:
.LBE211:
	.loc 1 2897 28 is_stmt 1 discriminator 1 view .LVU1127
	bl	SEGGER_SYSVIEW_OnIdle
.LVL299:
	b	.L270
.L283:
	.align	2
.L282:
	.word	.LANCHOR16
	.word	.LANCHOR20
	.word	.LANCHOR13
	.word	.LANCHOR4
	.word	.LANCHOR10
	.word	.LANCHOR17
	.word	.LC0
.LFE225:
	.size	vTaskSwitchContext, .-vTaskSwitchContext
	.section	.text.vTaskSuspend,"ax",%progbits
	.align	1
	.global	vTaskSuspend
	.syntax unified
	.thumb
	.thumb_func
	.fpu fpv4-sp-d16
	.type	vTaskSuspend, %function
vTaskSuspend:
.LVL300:
.LFB210:
	.loc 1 1631 2 view -0
	@ args = 0, pretend = 0, frame = 0
	@ frame_needed = 0, uses_anonymous_args = 0
	.loc 1 1631 2 is_stmt 0 view .LVU1129
	push	{r3, r4, r5, lr}
.LCFI39:
	mov	r4, r0
	.loc 1 1632 2 is_stmt 1 view .LVU1130
	.loc 1 1634 3 view .LVU1131
	bl	vPortEnterCritical
.LVL301:
	.loc 1 1638 4 view .LVU1132
	.loc 1 1638 40 is_stmt 0 view .LVU1133
	cbz	r4, .L295
.LVL302:
.L285:
	.loc 1 1640 4 is_stmt 1 discriminator 4 view .LVU1134
	mov	r0, r4
	bl	SEGGER_SYSVIEW_ShrinkId
.LVL303:
	mov	r1, r0
	movs	r0, #41
	bl	SEGGER_SYSVIEW_RecordU32
.LVL304:
	.loc 1 1644 4 discriminator 4 view .LVU1135
	.loc 1 1644 8 is_stmt 0 discriminator 4 view .LVU1136
	adds	r5, r4, #4
	mov	r0, r5
	bl	uxListRemove
.LVL305:
	.loc 1 1644 6 discriminator 4 view .LVU1137
	cbnz	r0, .L286
	.loc 1 1646 7 is_stmt 1 view .LVU1138
	.loc 1 1646 44 is_stmt 0 view .LVU1139
	ldr	r2, [r4, #44]
	.loc 1 1646 64 view .LVU1140
	add	r3, r2, r2, lsl #2
	lsls	r3, r3, #2
	ldr	r1, .L300
	ldr	r3, [r1, r3]
	.loc 1 1646 9 view .LVU1141
	cbnz	r3, .L286
	.loc 1 1646 109 is_stmt 1 discriminator 1 view .LVU1142
	.loc 1 1646 146 is_stmt 0 discriminator 1 view .LVU1143
	movs	r3, #1
	lsls	r3, r3, r2
	.loc 1 1646 136 discriminator 1 view .LVU1144
	ldr	r1, .L300+4
	ldr	r2, [r1]
	bic	r2, r2, r3
	str	r2, [r1]
.L286:
	.loc 1 1650 5 is_stmt 1 view .LVU1145
	.loc 1 1654 4 view .LVU1146
	.loc 1 1654 40 is_stmt 0 view .LVU1147
	ldr	r3, [r4, #40]
	.loc 1 1654 6 view .LVU1148
	cbz	r3, .L287
	.loc 1 1656 5 is_stmt 1 view .LVU1149
	.loc 1 1656 14 is_stmt 0 view .LVU1150
	add	r0, r4, #24
	bl	uxListRemove
.LVL306:
.L287:
	.loc 1 1660 5 is_stmt 1 view .LVU1151
	.loc 1 1663 4 view .LVU1152
	mov	r1, r5
	ldr	r0, .L300+8
	bl	vListInsertEnd
.LVL307:
	.loc 1 1667 5 view .LVU1153
	.loc 1 1667 14 is_stmt 0 view .LVU1154
	ldrb	r3, [r4, #80]	@ zero_extendqisi2
	uxtb	r3, r3
	.loc 1 1667 7 view .LVU1155
	cmp	r3, #1
	beq	.L296
.L288:
	.loc 1 1676 3 is_stmt 1 view .LVU1156
	bl	vPortExitCritical
.LVL308:
	.loc 1 1678 3 view .LVU1157
	.loc 1 1678 25 is_stmt 0 view .LVU1158
	ldr	r3, .L300+12
	ldr	r3, [r3]
	.loc 1 1678 5 view .LVU1159
	cbnz	r3, .L297
.L289:
	.loc 1 1690 4 is_stmt 1 view .LVU1160
	.loc 1 1693 3 view .LVU1161
	.loc 1 1693 13 is_stmt 0 view .LVU1162
	ldr	r3, .L300+16
	ldr	r3, [r3]
	.loc 1 1693 5 view .LVU1163
	cmp	r3, r4
	beq	.L298
.L284:
	.loc 1 1724 2 view .LVU1164
	pop	{r3, r4, r5, pc}
.LVL309:
.L295:
	.loc 1 1638 40 discriminator 1 view .LVU1165
	ldr	r3, .L300+16
	ldr	r4, [r3]
.LVL310:
	.loc 1 1638 40 discriminator 1 view .LVU1166
	b	.L285
.LVL311:
.L296:
	.loc 1 1671 6 is_stmt 1 view .LVU1167
	.loc 1 1671 27 is_stmt 0 view .LVU1168
	movs	r3, #0
	strb	r3, [r4, #80]
	b	.L288
.L297:
	.loc 1 1682 4 is_stmt 1 view .LVU1169
	bl	vPortEnterCritical
.LVL312:
	.loc 1 1684 5 view .LVU1170
	bl	prvResetNextTaskUnblockTime
.LVL313:
	.loc 1 1686 4 view .LVU1171
	bl	vPortExitCritical
.LVL314:
	b	.L289
.L298:
	.loc 1 1695 4 view .LVU1172
	.loc 1 1695 26 is_stmt 0 view .LVU1173
	ldr	r3, .L300+12
	ldr	r3, [r3]
	.loc 1 1695 6 view .LVU1174
	cbz	r3, .L291
	.loc 1 1698 5 is_stmt 1 discriminator 1 view .LVU1175
	.loc 1 1698 14 discriminator 1 view .LVU1176
	.loc 1 1698 39 is_stmt 0 discriminator 1 view .LVU1177
	ldr	r3, .L300+20
	ldr	r3, [r3]
	.loc 1 1698 17 discriminator 1 view .LVU1178
	cbnz	r3, .L299
.L292:
	.loc 1 1698 175 is_stmt 1 discriminator 5 view .LVU1179
	.loc 1 1699 5 discriminator 5 view .LVU1180
	.loc 1 1699 10 discriminator 5 view .LVU1181
	.loc 1 1699 60 is_stmt 0 discriminator 5 view .LVU1182
	ldr	r3, .L300+24
	mov	r2, #268435456
	str	r2, [r3, #4]
	.loc 1 1699 76 is_stmt 1 discriminator 5 view .LVU1183
.LBB212:
.LBI212:
	.loc 2 404 51 discriminator 5 view .LVU1184
.LBB213:
	.loc 2 406 3 discriminator 5 view .LVU1185
	.syntax unified
@ 406 "../../../../../../components/toolchain/cmsis/include/cmsis_gcc.h" 1
	sev
@ 0 "" 2
	.thumb
	.syntax unified
.LBE213:
.LBE212:
	.loc 1 1699 85 discriminator 5 view .LVU1186
.LBB214:
.LBI214:
	.loc 2 427 51 discriminator 5 view .LVU1187
.LBB215:
	.loc 2 429 3 discriminator 5 view .LVU1188
	.syntax unified
@ 429 "../../../../../../components/toolchain/cmsis/include/cmsis_gcc.h" 1
	dsb 0xF
@ 0 "" 2
	.thumb
	.syntax unified
.LBE215:
.LBE214:
	.loc 1 1699 94 discriminator 5 view .LVU1189
.LBB216:
.LBI216:
	.loc 2 416 51 discriminator 5 view .LVU1190
.LBB217:
	.loc 2 418 3 discriminator 5 view .LVU1191
	.syntax unified
@ 418 "../../../../../../components/toolchain/cmsis/include/cmsis_gcc.h" 1
	isb 0xF
@ 0 "" 2
	.loc 2 419 1 is_stmt 0 discriminator 5 view .LVU1192
	.thumb
	.syntax unified
	b	.L284
.L299:
.LBE217:
.LBE216:
	.loc 1 1698 56 is_stmt 1 discriminator 4 view .LVU1193
	ldr	r1, .L300+28
	movw	r0, #1698
	bl	assert_nrf_callback
.LVL315:
	b	.L292
.L291:
	.loc 1 1706 5 view .LVU1194
	.loc 1 1706 34 is_stmt 0 view .LVU1195
	ldr	r3, .L300+8
	ldr	r2, [r3]
	.loc 1 1706 54 view .LVU1196
	ldr	r3, .L300+32
	ldr	r3, [r3]
	.loc 1 1706 7 view .LVU1197
	cmp	r2, r3
	bne	.L293
	.loc 1 1712 6 is_stmt 1 view .LVU1198
	.loc 1 1712 19 is_stmt 0 view .LVU1199
	ldr	r3, .L300+16
	movs	r2, #0
	str	r2, [r3]
	b	.L284
.L293:
	.loc 1 1716 6 is_stmt 1 view .LVU1200
	bl	vTaskSwitchContext
.LVL316:
	.loc 1 1722 4 view .LVU1201
	.loc 1 1724 2 is_stmt 0 view .LVU1202
	b	.L284
.L301:
	.align	2
.L300:
	.word	.LANCHOR4
	.word	.LANCHOR13
	.word	.LANCHOR2
	.word	.LANCHOR11
	.word	.LANCHOR10
	.word	.LANCHOR16
	.word	-536810240
	.word	.LC0
	.word	.LANCHOR9
.LFE210:
	.size	vTaskSuspend, .-vTaskSuspend
	.section	.text.vTaskPlaceOnEventList,"ax",%progbits
	.align	1
	.global	vTaskPlaceOnEventList
	.syntax unified
	.thumb
	.thumb_func
	.fpu fpv4-sp-d16
	.type	vTaskPlaceOnEventList, %function
vTaskPlaceOnEventList:
.LVL317:
.LFB226:
	.loc 1 2911 1 is_stmt 1 view -0
	@ args = 0, pretend = 0, frame = 0
	@ frame_needed = 0, uses_anonymous_args = 0
	.loc 1 2911 1 is_stmt 0 view .LVU1204
	push	{r3, r4, r5, lr}
.LCFI40:
	mov	r4, r1
	.loc 1 2912 2 is_stmt 1 view .LVU1205
	.loc 1 2912 11 view .LVU1206
	.loc 1 2912 14 is_stmt 0 view .LVU1207
	mov	r5, r0
	cbz	r0, .L305
.LVL318:
.L303:
	.loc 1 2912 158 is_stmt 1 discriminator 5 view .LVU1208
	.loc 1 2921 2 discriminator 5 view .LVU1209
	.loc 1 2921 43 is_stmt 0 discriminator 5 view .LVU1210
	ldr	r3, .L306
	ldr	r1, [r3]
	.loc 1 2921 2 discriminator 5 view .LVU1211
	adds	r1, r1, #24
	mov	r0, r5
	bl	vListInsert
.LVL319:
	.loc 1 2923 2 is_stmt 1 discriminator 5 view .LVU1212
	movs	r1, #1
	mov	r0, r4
	bl	prvAddCurrentTaskToDelayedList
.LVL320:
	.loc 1 2924 1 is_stmt 0 discriminator 5 view .LVU1213
	pop	{r3, r4, r5, pc}
.LVL321:
.L305:
	.loc 1 2912 39 is_stmt 1 discriminator 4 view .LVU1214
	ldr	r1, .L306+4
.LVL322:
	.loc 1 2912 39 is_stmt 0 discriminator 4 view .LVU1215
	mov	r0, #2912
.LVL323:
	.loc 1 2912 39 discriminator 4 view .LVU1216
	bl	assert_nrf_callback
.LVL324:
	b	.L303
.L307:
	.align	2
.L306:
	.word	.LANCHOR10
	.word	.LC0
.LFE226:
	.size	vTaskPlaceOnEventList, .-vTaskPlaceOnEventList
	.section	.text.vTaskPlaceOnUnorderedEventList,"ax",%progbits
	.align	1
	.global	vTaskPlaceOnUnorderedEventList
	.syntax unified
	.thumb
	.thumb_func
	.fpu fpv4-sp-d16
	.type	vTaskPlaceOnUnorderedEventList, %function
vTaskPlaceOnUnorderedEventList:
.LVL325:
.LFB227:
	.loc 1 2928 1 is_stmt 1 view -0
	@ args = 0, pretend = 0, frame = 0
	@ frame_needed = 0, uses_anonymous_args = 0
	.loc 1 2928 1 is_stmt 0 view .LVU1218
	push	{r4, r5, r6, lr}
.LCFI41:
	mov	r4, r1
	mov	r5, r2
	.loc 1 2929 2 is_stmt 1 view .LVU1219
	.loc 1 2929 11 view .LVU1220
	.loc 1 2929 14 is_stmt 0 view .LVU1221
	mov	r6, r0
	cbz	r0, .L312
.LVL326:
.L309:
	.loc 1 2929 158 is_stmt 1 discriminator 1 view .LVU1222
	.loc 1 2933 2 discriminator 1 view .LVU1223
	.loc 1 2933 11 discriminator 1 view .LVU1224
	.loc 1 2933 36 is_stmt 0 discriminator 1 view .LVU1225
	ldr	r3, .L314
	ldr	r3, [r3]
	.loc 1 2933 14 discriminator 1 view .LVU1226
	cbz	r3, .L313
.L310:
	.loc 1 2933 172 is_stmt 1 discriminator 5 view .LVU1227
	.loc 1 2938 2 discriminator 5 view .LVU1228
	.loc 1 2938 21 is_stmt 0 discriminator 5 view .LVU1229
	ldr	r3, .L314+4
	ldr	r2, [r3]
	.loc 1 2938 69 discriminator 5 view .LVU1230
	orr	r4, r4, #-2147483648
.LVL327:
	.loc 1 2938 54 discriminator 5 view .LVU1231
	str	r4, [r2, #24]
	.loc 1 2945 2 is_stmt 1 discriminator 5 view .LVU1232
	.loc 1 2945 46 is_stmt 0 discriminator 5 view .LVU1233
	ldr	r1, [r3]
	.loc 1 2945 2 discriminator 5 view .LVU1234
	adds	r1, r1, #24
	mov	r0, r6
	bl	vListInsertEnd
.LVL328:
	.loc 1 2947 2 is_stmt 1 discriminator 5 view .LVU1235
	movs	r1, #1
	mov	r0, r5
	bl	prvAddCurrentTaskToDelayedList
.LVL329:
	.loc 1 2948 1 is_stmt 0 discriminator 5 view .LVU1236
	pop	{r4, r5, r6, pc}
.LVL330:
.L312:
	.loc 1 2929 39 is_stmt 1 discriminator 4 view .LVU1237
	ldr	r1, .L314+8
.LVL331:
	.loc 1 2929 39 is_stmt 0 discriminator 4 view .LVU1238
	movw	r0, #2929
.LVL332:
	.loc 1 2929 39 discriminator 4 view .LVU1239
	bl	assert_nrf_callback
.LVL333:
	.loc 1 2929 39 discriminator 4 view .LVU1240
	b	.L309
.L313:
	.loc 1 2933 53 is_stmt 1 discriminator 4 view .LVU1241
	ldr	r1, .L314+8
	movw	r0, #2933
	bl	assert_nrf_callback
.LVL334:
	b	.L310
.L315:
	.align	2
.L314:
	.word	.LANCHOR16
	.word	.LANCHOR10
	.word	.LC0
.LFE227:
	.size	vTaskPlaceOnUnorderedEventList, .-vTaskPlaceOnUnorderedEventList
	.section	.text.vTaskPlaceOnEventListRestricted,"ax",%progbits
	.align	1
	.global	vTaskPlaceOnEventListRestricted
	.syntax unified
	.thumb
	.thumb_func
	.fpu fpv4-sp-d16
	.type	vTaskPlaceOnEventListRestricted, %function
vTaskPlaceOnEventListRestricted:
.LVL335:
.LFB228:
	.loc 1 2954 2 view -0
	@ args = 0, pretend = 0, frame = 0
	@ frame_needed = 0, uses_anonymous_args = 0
	.loc 1 2954 2 is_stmt 0 view .LVU1243
	push	{r4, r5, r6, lr}
.LCFI42:
	mov	r5, r1
	mov	r4, r2
	.loc 1 2955 3 is_stmt 1 view .LVU1244
	.loc 1 2955 12 view .LVU1245
	.loc 1 2955 15 is_stmt 0 view .LVU1246
	mov	r6, r0
	cbz	r0, .L321
.LVL336:
.L317:
	.loc 1 2955 159 is_stmt 1 discriminator 5 view .LVU1247
	.loc 1 2967 3 discriminator 5 view .LVU1248
	.loc 1 2967 47 is_stmt 0 discriminator 5 view .LVU1249
	ldr	r3, .L322
	ldr	r1, [r3]
	.loc 1 2967 3 discriminator 5 view .LVU1250
	adds	r1, r1, #24
	mov	r0, r6
	bl	vListInsertEnd
.LVL337:
	.loc 1 2972 3 is_stmt 1 discriminator 5 view .LVU1251
	.loc 1 2972 5 is_stmt 0 discriminator 5 view .LVU1252
	cbz	r4, .L318
	.loc 1 2974 17 view .LVU1253
	mov	r5, #-1
.LVL338:
.L318:
	.loc 1 2977 3 is_stmt 1 view .LVU1254
	movs	r0, #36
	bl	SEGGER_SYSVIEW_RecordVoid
.LVL339:
	.loc 1 2978 3 view .LVU1255
	mov	r1, r4
	mov	r0, r5
	bl	prvAddCurrentTaskToDelayedList
.LVL340:
	.loc 1 2979 2 is_stmt 0 view .LVU1256
	pop	{r4, r5, r6, pc}
.LVL341:
.L321:
	.loc 1 2955 40 is_stmt 1 discriminator 4 view .LVU1257
	ldr	r1, .L322+4
.LVL342:
	.loc 1 2955 40 is_stmt 0 discriminator 4 view .LVU1258
	movw	r0, #2955
.LVL343:
	.loc 1 2955 40 discriminator 4 view .LVU1259
	bl	assert_nrf_callback
.LVL344:
	.loc 1 2955 40 discriminator 4 view .LVU1260
	b	.L317
.L323:
	.align	2
.L322:
	.word	.LANCHOR10
	.word	.LC0
.LFE228:
	.size	vTaskPlaceOnEventListRestricted, .-vTaskPlaceOnEventListRestricted
	.section	.text.xTaskRemoveFromEventList,"ax",%progbits
	.align	1
	.global	xTaskRemoveFromEventList
	.syntax unified
	.thumb
	.thumb_func
	.fpu fpv4-sp-d16
	.type	xTaskRemoveFromEventList, %function
xTaskRemoveFromEventList:
.LVL345:
.LFB229:
	.loc 1 2985 1 is_stmt 1 view -0
	@ args = 0, pretend = 0, frame = 0
	@ frame_needed = 0, uses_anonymous_args = 0
	.loc 1 2985 1 is_stmt 0 view .LVU1262
	push	{r3, r4, r5, lr}
.LCFI43:
	.loc 1 2986 1 is_stmt 1 view .LVU1263
	.loc 1 2987 1 view .LVU1264
	.loc 1 3002 2 view .LVU1265
	.loc 1 3002 65 is_stmt 0 view .LVU1266
	ldr	r3, [r0, #12]
	.loc 1 3002 17 view .LVU1267
	ldr	r4, [r3, #12]
.LVL346:
	.loc 1 3003 2 is_stmt 1 view .LVU1268
	.loc 1 3003 11 view .LVU1269
	.loc 1 3003 14 is_stmt 0 view .LVU1270
	cbz	r4, .L331
.LVL347:
.L325:
	.loc 1 3003 161 is_stmt 1 discriminator 5 view .LVU1271
	.loc 1 3004 2 discriminator 5 view .LVU1272
	.loc 1 3004 11 is_stmt 0 discriminator 5 view .LVU1273
	add	r5, r4, #24
	mov	r0, r5
	bl	uxListRemove
.LVL348:
	.loc 1 3006 2 is_stmt 1 discriminator 5 view .LVU1274
	.loc 1 3006 27 is_stmt 0 discriminator 5 view .LVU1275
	ldr	r3, .L332
	ldr	r3, [r3]
	.loc 1 3006 4 discriminator 5 view .LVU1276
	cbnz	r3, .L326
	.loc 1 3008 3 is_stmt 1 view .LVU1277
	.loc 1 3008 12 is_stmt 0 view .LVU1278
	adds	r5, r4, #4
	mov	r0, r5
	bl	uxListRemove
.LVL349:
	.loc 1 3009 3 is_stmt 1 view .LVU1279
	mov	r0, r4
	bl	SEGGER_SYSVIEW_OnTaskStartReady
.LVL350:
	.loc 1 3009 67 view .LVU1280
	.loc 1 3009 122 is_stmt 0 view .LVU1281
	ldr	r0, [r4, #44]
	.loc 1 3009 99 view .LVU1282
	movs	r3, #1
	lsls	r3, r3, r0
	.loc 1 3009 90 view .LVU1283
	ldr	r2, .L332+4
	ldr	r1, [r2]
	orrs	r3, r3, r1
	str	r3, [r2]
	.loc 1 3009 140 is_stmt 1 view .LVU1284
	add	r0, r0, r0, lsl #2
	mov	r1, r5
	ldr	r3, .L332+8
	add	r0, r3, r0, lsl #2
	bl	vListInsertEnd
.LVL351:
	.loc 1 3009 257 view .LVU1285
.L327:
	.loc 1 3018 2 view .LVU1286
	.loc 1 3018 20 is_stmt 0 view .LVU1287
	ldr	r2, [r4, #44]
	.loc 1 3018 47 view .LVU1288
	ldr	r3, .L332+12
	ldr	r3, [r3]
	ldr	r3, [r3, #44]
	.loc 1 3018 4 view .LVU1289
	cmp	r2, r3
	bls	.L329
	.loc 1 3023 3 is_stmt 1 view .LVU1290
.LVL352:
	.loc 1 3027 3 view .LVU1291
	.loc 1 3027 17 is_stmt 0 view .LVU1292
	movs	r0, #1
	ldr	r3, .L332+16
	str	r0, [r3]
.LVL353:
.L324:
	.loc 1 3049 1 view .LVU1293
	pop	{r3, r4, r5, pc}
.LVL354:
.L331:
	.loc 1 3003 42 is_stmt 1 discriminator 4 view .LVU1294
	ldr	r1, .L332+20
	movw	r0, #3003
.LVL355:
	.loc 1 3003 42 is_stmt 0 discriminator 4 view .LVU1295
	bl	assert_nrf_callback
.LVL356:
	b	.L325
.L326:
	.loc 1 3015 3 is_stmt 1 view .LVU1296
	mov	r1, r5
	ldr	r0, .L332+24
	bl	vListInsertEnd
.LVL357:
	b	.L327
.L329:
	.loc 1 3031 11 is_stmt 0 view .LVU1297
	movs	r0, #0
.LVL358:
	.loc 1 3048 2 is_stmt 1 view .LVU1298
	.loc 1 3048 9 is_stmt 0 view .LVU1299
	b	.L324
.L333:
	.align	2
.L332:
	.word	.LANCHOR16
	.word	.LANCHOR13
	.word	.LANCHOR4
	.word	.LANCHOR10
	.word	.LANCHOR20
	.word	.LC0
	.word	.LANCHOR3
.LFE229:
	.size	xTaskRemoveFromEventList, .-xTaskRemoveFromEventList
	.section	.text.vTaskRemoveFromUnorderedEventList,"ax",%progbits
	.align	1
	.global	vTaskRemoveFromUnorderedEventList
	.syntax unified
	.thumb
	.thumb_func
	.fpu fpv4-sp-d16
	.type	vTaskRemoveFromUnorderedEventList, %function
vTaskRemoveFromUnorderedEventList:
.LVL359:
.LFB230:
	.loc 1 3053 1 is_stmt 1 view -0
	@ args = 0, pretend = 0, frame = 0
	@ frame_needed = 0, uses_anonymous_args = 0
	.loc 1 3053 1 is_stmt 0 view .LVU1301
	push	{r3, r4, r5, lr}
.LCFI44:
	mov	r5, r0
	mov	r4, r1
	.loc 1 3054 1 is_stmt 1 view .LVU1302
	.loc 1 3058 2 view .LVU1303
	.loc 1 3058 11 view .LVU1304
	.loc 1 3058 36 is_stmt 0 view .LVU1305
	ldr	r3, .L341
	ldr	r3, [r3]
	.loc 1 3058 14 view .LVU1306
	cbz	r3, .L339
.LVL360:
.L335:
	.loc 1 3058 191 is_stmt 1 discriminator 5 view .LVU1307
	.loc 1 3061 2 discriminator 5 view .LVU1308
	.loc 1 3061 51 is_stmt 0 discriminator 5 view .LVU1309
	orr	r4, r4, #-2147483648
.LVL361:
	.loc 1 3061 36 discriminator 5 view .LVU1310
	str	r4, [r5]
	.loc 1 3065 2 is_stmt 1 discriminator 5 view .LVU1311
	.loc 1 3065 17 is_stmt 0 discriminator 5 view .LVU1312
	ldr	r4, [r5, #12]
.LVL362:
	.loc 1 3066 2 is_stmt 1 discriminator 5 view .LVU1313
	.loc 1 3066 11 discriminator 5 view .LVU1314
	.loc 1 3066 14 is_stmt 0 discriminator 5 view .LVU1315
	cbz	r4, .L340
.L336:
	.loc 1 3066 161 is_stmt 1 discriminator 5 view .LVU1316
	.loc 1 3067 2 discriminator 5 view .LVU1317
	.loc 1 3067 11 is_stmt 0 discriminator 5 view .LVU1318
	mov	r0, r5
	bl	uxListRemove
.LVL363:
	.loc 1 3072 2 is_stmt 1 discriminator 5 view .LVU1319
	.loc 1 3072 11 is_stmt 0 discriminator 5 view .LVU1320
	adds	r5, r4, #4
.LVL364:
	.loc 1 3072 11 discriminator 5 view .LVU1321
	mov	r0, r5
	bl	uxListRemove
.LVL365:
	.loc 1 3073 2 is_stmt 1 discriminator 5 view .LVU1322
	mov	r0, r4
	bl	SEGGER_SYSVIEW_OnTaskStartReady
.LVL366:
	.loc 1 3073 66 discriminator 5 view .LVU1323
	.loc 1 3073 121 is_stmt 0 discriminator 5 view .LVU1324
	ldr	r0, [r4, #44]
	.loc 1 3073 98 discriminator 5 view .LVU1325
	movs	r3, #1
	lsls	r3, r3, r0
	.loc 1 3073 89 discriminator 5 view .LVU1326
	ldr	r2, .L341+4
	ldr	r1, [r2]
	orrs	r3, r3, r1
	str	r3, [r2]
	.loc 1 3073 139 is_stmt 1 discriminator 5 view .LVU1327
	add	r0, r0, r0, lsl #2
	mov	r1, r5
	ldr	r3, .L341+8
	add	r0, r3, r0, lsl #2
	bl	vListInsertEnd
.LVL367:
	.loc 1 3073 256 discriminator 5 view .LVU1328
	.loc 1 3075 2 discriminator 5 view .LVU1329
	.loc 1 3075 20 is_stmt 0 discriminator 5 view .LVU1330
	ldr	r2, [r4, #44]
	.loc 1 3075 47 discriminator 5 view .LVU1331
	ldr	r3, .L341+12
	ldr	r3, [r3]
	ldr	r3, [r3, #44]
	.loc 1 3075 4 discriminator 5 view .LVU1332
	cmp	r2, r3
	bls	.L334
	.loc 1 3081 3 is_stmt 1 view .LVU1333
	.loc 1 3081 17 is_stmt 0 view .LVU1334
	ldr	r3, .L341+16
	movs	r2, #1
	str	r2, [r3]
.L334:
	.loc 1 3083 1 view .LVU1335
	pop	{r3, r4, r5, pc}
.LVL368:
.L339:
	.loc 1 3058 72 is_stmt 1 discriminator 4 view .LVU1336
	ldr	r1, .L341+20
.LVL369:
	.loc 1 3058 72 is_stmt 0 discriminator 4 view .LVU1337
	movw	r0, #3058
.LVL370:
	.loc 1 3058 72 discriminator 4 view .LVU1338
	bl	assert_nrf_callback
.LVL371:
	b	.L335
.LVL372:
.L340:
	.loc 1 3066 42 is_stmt 1 discriminator 4 view .LVU1339
	ldr	r1, .L341+20
	movw	r0, #3066
	bl	assert_nrf_callback
.LVL373:
	b	.L336
.L342:
	.align	2
.L341:
	.word	.LANCHOR16
	.word	.LANCHOR13
	.word	.LANCHOR4
	.word	.LANCHOR10
	.word	.LANCHOR20
	.word	.LC0
.LFE230:
	.size	vTaskRemoveFromUnorderedEventList, .-vTaskRemoveFromUnorderedEventList
	.section	.text.vTaskSetTimeOutState,"ax",%progbits
	.align	1
	.global	vTaskSetTimeOutState
	.syntax unified
	.thumb
	.thumb_func
	.fpu fpv4-sp-d16
	.type	vTaskSetTimeOutState, %function
vTaskSetTimeOutState:
.LVL374:
.LFB231:
	.loc 1 3087 1 view -0
	@ args = 0, pretend = 0, frame = 0
	@ frame_needed = 0, uses_anonymous_args = 0
	.loc 1 3087 1 is_stmt 0 view .LVU1341
	push	{r4, lr}
.LCFI45:
	.loc 1 3088 2 is_stmt 1 view .LVU1342
	.loc 1 3088 11 view .LVU1343
	.loc 1 3088 14 is_stmt 0 view .LVU1344
	mov	r4, r0
	cbz	r0, .L346
.LVL375:
.L344:
	.loc 1 3088 156 is_stmt 1 discriminator 5 view .LVU1345
	.loc 1 3089 2 discriminator 5 view .LVU1346
	bl	vPortEnterCritical
.LVL376:
	.loc 1 3091 3 discriminator 5 view .LVU1347
	.loc 1 3091 29 is_stmt 0 discriminator 5 view .LVU1348
	ldr	r3, .L347
	ldr	r3, [r3]
	str	r3, [r4]
	.loc 1 3092 3 is_stmt 1 discriminator 5 view .LVU1349
	.loc 1 3092 30 is_stmt 0 discriminator 5 view .LVU1350
	ldr	r3, .L347+4
	ldr	r3, [r3]
	str	r3, [r4, #4]
	.loc 1 3094 2 is_stmt 1 discriminator 5 view .LVU1351
	bl	vPortExitCritical
.LVL377:
	.loc 1 3095 1 is_stmt 0 discriminator 5 view .LVU1352
	pop	{r4, pc}
.LVL378:
.L346:
	.loc 1 3088 37 is_stmt 1 discriminator 4 view .LVU1353
	ldr	r1, .L347+8
	mov	r0, #3088
.LVL379:
	.loc 1 3088 37 is_stmt 0 discriminator 4 view .LVU1354
	bl	assert_nrf_callback
.LVL380:
	b	.L344
.L348:
	.align	2
.L347:
	.word	.LANCHOR18
	.word	.LANCHOR15
	.word	.LC0
.LFE231:
	.size	vTaskSetTimeOutState, .-vTaskSetTimeOutState
	.section	.text.vTaskInternalSetTimeOutState,"ax",%progbits
	.align	1
	.global	vTaskInternalSetTimeOutState
	.syntax unified
	.thumb
	.thumb_func
	.fpu fpv4-sp-d16
	.type	vTaskInternalSetTimeOutState, %function
vTaskInternalSetTimeOutState:
.LVL381:
.LFB232:
	.loc 1 3099 1 is_stmt 1 view -0
	@ args = 0, pretend = 0, frame = 0
	@ frame_needed = 0, uses_anonymous_args = 0
	@ link register save eliminated.
	.loc 1 3101 2 view .LVU1356
	.loc 1 3101 28 is_stmt 0 view .LVU1357
	ldr	r3, .L350
	ldr	r3, [r3]
	str	r3, [r0]
	.loc 1 3102 2 is_stmt 1 view .LVU1358
	.loc 1 3102 29 is_stmt 0 view .LVU1359
	ldr	r3, .L350+4
	ldr	r3, [r3]
	str	r3, [r0, #4]
	.loc 1 3103 1 view .LVU1360
	bx	lr
.L351:
	.align	2
.L350:
	.word	.LANCHOR18
	.word	.LANCHOR15
.LFE232:
	.size	vTaskInternalSetTimeOutState, .-vTaskInternalSetTimeOutState
	.section	.text.xTaskCheckForTimeOut,"ax",%progbits
	.align	1
	.global	xTaskCheckForTimeOut
	.syntax unified
	.thumb
	.thumb_func
	.fpu fpv4-sp-d16
	.type	xTaskCheckForTimeOut, %function
xTaskCheckForTimeOut:
.LVL382:
.LFB233:
	.loc 1 3107 1 is_stmt 1 view -0
	@ args = 0, pretend = 0, frame = 0
	@ frame_needed = 0, uses_anonymous_args = 0
	.loc 1 3107 1 is_stmt 0 view .LVU1362
	push	{r3, r4, r5, r6, r7, lr}
.LCFI46:
	mov	r4, r1
	.loc 1 3108 1 is_stmt 1 view .LVU1363
	.loc 1 3110 2 view .LVU1364
	.loc 1 3110 11 view .LVU1365
	.loc 1 3110 14 is_stmt 0 view .LVU1366
	mov	r5, r0
	cbz	r0, .L361
.LVL383:
.L353:
	.loc 1 3110 156 is_stmt 1 discriminator 1 view .LVU1367
	.loc 1 3111 2 discriminator 1 view .LVU1368
	.loc 1 3111 11 discriminator 1 view .LVU1369
	.loc 1 3111 14 is_stmt 0 discriminator 1 view .LVU1370
	cbz	r4, .L362
.L354:
	.loc 1 3111 160 is_stmt 1 discriminator 5 view .LVU1371
	.loc 1 3113 2 discriminator 5 view .LVU1372
	bl	vPortEnterCritical
.LVL384:
.LBB218:
	.loc 1 3116 3 discriminator 5 view .LVU1373
	.loc 1 3116 20 is_stmt 0 discriminator 5 view .LVU1374
	ldr	r3, .L364
	ldr	r1, [r3]
.LVL385:
	.loc 1 3117 3 is_stmt 1 discriminator 5 view .LVU1375
	.loc 1 3117 62 is_stmt 0 discriminator 5 view .LVU1376
	ldr	r3, [r5, #4]
	.loc 1 3117 20 discriminator 5 view .LVU1377
	subs	r0, r1, r3
.LVL386:
	.loc 1 3131 4 is_stmt 1 discriminator 5 view .LVU1378
	.loc 1 3131 8 is_stmt 0 discriminator 5 view .LVU1379
	ldr	r2, [r4]
	.loc 1 3131 6 discriminator 5 view .LVU1380
	cmp	r2, #-1
	beq	.L358
	.loc 1 3141 3 is_stmt 1 view .LVU1381
	.loc 1 3141 37 is_stmt 0 view .LVU1382
	ldr	r7, [r5]
	.loc 1 3141 25 view .LVU1383
	ldr	r6, .L364+4
	ldr	r6, [r6]
	.loc 1 3141 5 view .LVU1384
	cmp	r7, r6
	beq	.L356
	.loc 1 3141 56 discriminator 1 view .LVU1385
	cmp	r3, r1
	bls	.L359
.L356:
	.loc 1 3150 8 is_stmt 1 view .LVU1386
	.loc 1 3150 10 is_stmt 0 view .LVU1387
	cmp	r2, r0
	bhi	.L363
	.loc 1 3159 4 is_stmt 1 view .LVU1388
	.loc 1 3159 19 is_stmt 0 view .LVU1389
	movs	r3, #0
	str	r3, [r4]
	.loc 1 3160 4 is_stmt 1 view .LVU1390
.LVL387:
	.loc 1 3160 12 is_stmt 0 view .LVU1391
	movs	r4, #1
.LVL388:
	.loc 1 3160 12 view .LVU1392
	b	.L355
.LVL389:
.L361:
	.loc 1 3160 12 view .LVU1393
.LBE218:
	.loc 1 3110 37 is_stmt 1 discriminator 4 view .LVU1394
	ldr	r1, .L364+8
.LVL390:
	.loc 1 3110 37 is_stmt 0 discriminator 4 view .LVU1395
	movw	r0, #3110
.LVL391:
	.loc 1 3110 37 discriminator 4 view .LVU1396
	bl	assert_nrf_callback
.LVL392:
	b	.L353
.L362:
	.loc 1 3111 41 is_stmt 1 discriminator 4 view .LVU1397
	ldr	r1, .L364+8
	movw	r0, #3111
	bl	assert_nrf_callback
.LVL393:
	b	.L354
.LVL394:
.L363:
.LBB219:
	.loc 1 3153 4 view .LVU1398
	.loc 1 3153 19 is_stmt 0 view .LVU1399
	subs	r3, r3, r1
	add	r3, r3, r2
	str	r3, [r4]
	.loc 1 3154 4 is_stmt 1 view .LVU1400
	mov	r0, r5
.LVL395:
	.loc 1 3154 4 is_stmt 0 view .LVU1401
	bl	vTaskInternalSetTimeOutState
.LVL396:
	.loc 1 3155 4 is_stmt 1 view .LVU1402
	.loc 1 3155 12 is_stmt 0 view .LVU1403
	movs	r4, #0
.LVL397:
	.loc 1 3155 12 view .LVU1404
	b	.L355
.LVL398:
.L358:
	.loc 1 3136 13 view .LVU1405
	movs	r4, #0
.LVL399:
.L355:
	.loc 1 3136 13 view .LVU1406
.LBE219:
	.loc 1 3163 2 is_stmt 1 view .LVU1407
	bl	vPortExitCritical
.LVL400:
	.loc 1 3165 2 view .LVU1408
	.loc 1 3166 1 is_stmt 0 view .LVU1409
	mov	r0, r4
	pop	{r3, r4, r5, r6, r7, pc}
.LVL401:
.L359:
.LBB220:
	.loc 1 3148 12 view .LVU1410
	movs	r4, #1
.LVL402:
	.loc 1 3148 12 view .LVU1411
	b	.L355
.L365:
	.align	2
.L364:
	.word	.LANCHOR15
	.word	.LANCHOR18
	.word	.LC0
.LBE220:
.LFE233:
	.size	xTaskCheckForTimeOut, .-xTaskCheckForTimeOut
	.section	.text.vTaskMissedYield,"ax",%progbits
	.align	1
	.global	vTaskMissedYield
	.syntax unified
	.thumb
	.thumb_func
	.fpu fpv4-sp-d16
	.type	vTaskMissedYield, %function
vTaskMissedYield:
.LFB234:
	.loc 1 3170 1 is_stmt 1 view -0
	@ args = 0, pretend = 0, frame = 0
	@ frame_needed = 0, uses_anonymous_args = 0
	@ link register save eliminated.
	.loc 1 3171 2 view .LVU1413
	.loc 1 3171 16 is_stmt 0 view .LVU1414
	ldr	r3, .L367
	movs	r2, #1
	str	r2, [r3]
	.loc 1 3172 1 view .LVU1415
	bx	lr
.L368:
	.align	2
.L367:
	.word	.LANCHOR20
.LFE234:
	.size	vTaskMissedYield, .-vTaskMissedYield
	.section	.text.uxTaskGetTaskNumber,"ax",%progbits
	.align	1
	.global	uxTaskGetTaskNumber
	.syntax unified
	.thumb
	.thumb_func
	.fpu fpv4-sp-d16
	.type	uxTaskGetTaskNumber, %function
uxTaskGetTaskNumber:
.LVL403:
.LFB235:
	.loc 1 3178 2 is_stmt 1 view -0
	@ args = 0, pretend = 0, frame = 0
	@ frame_needed = 0, uses_anonymous_args = 0
	@ link register save eliminated.
	.loc 1 3179 2 view .LVU1417
	.loc 1 3180 2 view .LVU1418
	.loc 1 3182 3 view .LVU1419
	.loc 1 3182 5 is_stmt 0 view .LVU1420
	cbz	r0, .L371
	.loc 1 3184 4 is_stmt 1 view .LVU1421
.LVL404:
	.loc 1 3185 4 view .LVU1422
	.loc 1 3185 13 is_stmt 0 view .LVU1423
	ldr	r0, [r0, #64]
.LVL405:
	.loc 1 3185 13 view .LVU1424
	bx	lr
.LVL406:
.L371:
	.loc 1 3189 13 view .LVU1425
	movs	r0, #0
.LVL407:
	.loc 1 3192 3 is_stmt 1 view .LVU1426
	.loc 1 3193 2 is_stmt 0 view .LVU1427
	bx	lr
.LFE235:
	.size	uxTaskGetTaskNumber, .-uxTaskGetTaskNumber
	.section	.text.vTaskSetTaskNumber,"ax",%progbits
	.align	1
	.global	vTaskSetTaskNumber
	.syntax unified
	.thumb
	.thumb_func
	.fpu fpv4-sp-d16
	.type	vTaskSetTaskNumber, %function
vTaskSetTaskNumber:
.LVL408:
.LFB236:
	.loc 1 3201 2 is_stmt 1 view -0
	@ args = 0, pretend = 0, frame = 0
	@ frame_needed = 0, uses_anonymous_args = 0
	@ link register save eliminated.
	.loc 1 3202 2 view .LVU1429
	.loc 1 3204 3 view .LVU1430
	.loc 1 3204 5 is_stmt 0 view .LVU1431
	cbz	r0, .L372
	.loc 1 3206 4 is_stmt 1 view .LVU1432
.LVL409:
	.loc 1 3207 4 view .LVU1433
	.loc 1 3207 24 is_stmt 0 view .LVU1434
	str	r1, [r0, #64]
.LVL410:
.L372:
	.loc 1 3209 2 view .LVU1435
	bx	lr
.LFE236:
	.size	vTaskSetTaskNumber, .-vTaskSetTaskNumber
	.section	.text.vTaskGetInfo,"ax",%progbits
	.align	1
	.global	vTaskGetInfo
	.syntax unified
	.thumb
	.thumb_func
	.fpu fpv4-sp-d16
	.type	vTaskGetInfo, %function
vTaskGetInfo:
.LVL411:
.LFB240:
	.loc 1 3500 2 is_stmt 1 view -0
	@ args = 0, pretend = 0, frame = 0
	@ frame_needed = 0, uses_anonymous_args = 0
	.loc 1 3500 2 is_stmt 0 view .LVU1437
	push	{r4, r5, r6, lr}
.LCFI47:
	mov	r4, r1
	mov	r6, r2
	.loc 1 3501 2 is_stmt 1 view .LVU1438
	.loc 1 3504 3 view .LVU1439
	.loc 1 3504 39 is_stmt 0 view .LVU1440
	mov	r5, r0
	cbz	r0, .L383
.LVL412:
.L375:
	.loc 1 3506 3 is_stmt 1 discriminator 4 view .LVU1441
	.loc 1 3506 25 is_stmt 0 discriminator 4 view .LVU1442
	str	r5, [r4]
	.loc 1 3507 3 is_stmt 1 discriminator 4 view .LVU1443
	.loc 1 3507 47 is_stmt 0 discriminator 4 view .LVU1444
	add	r2, r5, #52
	.loc 1 3507 28 discriminator 4 view .LVU1445
	str	r2, [r4, #4]
	.loc 1 3508 3 is_stmt 1 discriminator 4 view .LVU1446
	.loc 1 3508 42 is_stmt 0 discriminator 4 view .LVU1447
	ldr	r2, [r5, #44]
	.loc 1 3508 35 discriminator 4 view .LVU1448
	str	r2, [r4, #16]
	.loc 1 3509 3 is_stmt 1 discriminator 4 view .LVU1449
	.loc 1 3509 36 is_stmt 0 discriminator 4 view .LVU1450
	ldr	r2, [r5, #48]
	.loc 1 3509 29 discriminator 4 view .LVU1451
	str	r2, [r4, #28]
	.loc 1 3510 3 is_stmt 1 discriminator 4 view .LVU1452
	.loc 1 3510 36 is_stmt 0 discriminator 4 view .LVU1453
	ldr	r2, [r5, #60]
	.loc 1 3510 29 discriminator 4 view .LVU1454
	str	r2, [r4, #8]
	.loc 1 3514 4 is_stmt 1 discriminator 4 view .LVU1455
	.loc 1 3514 40 is_stmt 0 discriminator 4 view .LVU1456
	ldr	r2, [r5, #68]
	.loc 1 3514 33 discriminator 4 view .LVU1457
	str	r2, [r4, #20]
	.loc 1 3528 4 is_stmt 1 discriminator 4 view .LVU1458
	.loc 1 3528 35 is_stmt 0 discriminator 4 view .LVU1459
	movs	r2, #0
	str	r2, [r4, #24]
	.loc 1 3535 3 is_stmt 1 discriminator 4 view .LVU1460
	.loc 1 3535 5 is_stmt 0 discriminator 4 view .LVU1461
	cmp	r3, #5
	beq	.L376
	.loc 1 3537 4 is_stmt 1 view .LVU1462
	.loc 1 3537 14 is_stmt 0 view .LVU1463
	ldr	r2, .L387
	ldr	r2, [r2]
	.loc 1 3537 6 view .LVU1464
	cmp	r2, r5
	beq	.L384
	.loc 1 3543 5 is_stmt 1 view .LVU1465
	.loc 1 3543 33 is_stmt 0 view .LVU1466
	strb	r3, [r4, #12]
	.loc 1 3550 6 is_stmt 1 view .LVU1467
	.loc 1 3550 8 is_stmt 0 view .LVU1468
	cmp	r3, #3
	beq	.L385
.LVL413:
.L378:
	.loc 1 3572 3 is_stmt 1 view .LVU1469
	.loc 1 3572 5 is_stmt 0 view .LVU1470
	cbnz	r6, .L386
	.loc 1 3586 4 is_stmt 1 view .LVU1471
	.loc 1 3586 39 is_stmt 0 view .LVU1472
	movs	r3, #0
	strh	r3, [r4, #32]	@ movhi
.L374:
	.loc 1 3588 2 view .LVU1473
	pop	{r4, r5, r6, pc}
.LVL414:
.L383:
	.loc 1 3504 39 discriminator 1 view .LVU1474
	ldr	r2, .L387
.LVL415:
	.loc 1 3504 39 discriminator 1 view .LVU1475
	ldr	r5, [r2]
.LVL416:
	.loc 1 3504 39 discriminator 1 view .LVU1476
	b	.L375
.LVL417:
.L384:
	.loc 1 3539 5 is_stmt 1 view .LVU1477
	.loc 1 3539 33 is_stmt 0 view .LVU1478
	movs	r3, #0
.LVL418:
	.loc 1 3539 33 view .LVU1479
	strb	r3, [r4, #12]
	b	.L378
.LVL419:
.L385:
	.loc 1 3552 7 is_stmt 1 view .LVU1480
	bl	vTaskSuspendAll
.LVL420:
	.loc 1 3554 8 view .LVU1481
	.loc 1 3554 44 is_stmt 0 view .LVU1482
	ldr	r3, [r5, #40]
	.loc 1 3554 10 view .LVU1483
	cbz	r3, .L379
	.loc 1 3556 9 is_stmt 1 view .LVU1484
	.loc 1 3556 37 is_stmt 0 view .LVU1485
	movs	r3, #2
	strb	r3, [r4, #12]
.L379:
	.loc 1 3559 7 is_stmt 1 view .LVU1486
	.loc 1 3559 16 is_stmt 0 view .LVU1487
	bl	xTaskResumeAll
.LVL421:
	b	.L378
.LVL422:
.L376:
	.loc 1 3567 4 is_stmt 1 view .LVU1488
	.loc 1 3567 34 is_stmt 0 view .LVU1489
	mov	r0, r5
	bl	eTaskGetState
.LVL423:
	.loc 1 3567 32 view .LVU1490
	strb	r0, [r4, #12]
	b	.L378
.L386:
	.loc 1 3580 5 is_stmt 1 view .LVU1491
	.loc 1 3580 42 is_stmt 0 view .LVU1492
	ldr	r0, [r5, #48]
	bl	prvTaskCheckFreeStackSpace
.LVL424:
	.loc 1 3580 40 view .LVU1493
	strh	r0, [r4, #32]	@ movhi
	b	.L374
.L388:
	.align	2
.L387:
	.word	.LANCHOR10
.LFE240:
	.size	vTaskGetInfo, .-vTaskGetInfo
	.section	.text.prvListTasksWithinSingleList,"ax",%progbits
	.align	1
	.syntax unified
	.thumb
	.thumb_func
	.fpu fpv4-sp-d16
	.type	prvListTasksWithinSingleList, %function
prvListTasksWithinSingleList:
.LVL425:
.LFB241:
	.loc 1 3596 2 is_stmt 1 view -0
	@ args = 0, pretend = 0, frame = 0
	@ frame_needed = 0, uses_anonymous_args = 0
	.loc 1 3596 2 is_stmt 0 view .LVU1495
	push	{r4, r5, r6, r7, r8, r9, r10, lr}
.LCFI48:
	.loc 1 3597 2 is_stmt 1 view .LVU1496
	.loc 1 3598 2 view .LVU1497
.LVL426:
	.loc 1 3600 3 view .LVU1498
	.loc 1 3600 19 is_stmt 0 view .LVU1499
	ldr	r4, [r1]
	.loc 1 3600 5 view .LVU1500
	cbz	r4, .L389
	mov	r7, r0
	mov	r5, r1
	mov	r8, r2
.LBB221:
	.loc 1 3602 6 is_stmt 1 view .LVU1501
.LVL427:
	.loc 1 3602 47 view .LVU1502
	.loc 1 3602 89 is_stmt 0 view .LVU1503
	ldr	r3, [r1, #4]
	.loc 1 3602 98 view .LVU1504
	ldr	r3, [r3, #4]
	.loc 1 3602 72 view .LVU1505
	str	r3, [r1, #4]
	.loc 1 3602 108 is_stmt 1 view .LVU1506
	.loc 1 3602 162 is_stmt 0 view .LVU1507
	add	r9, r1, #8
	.loc 1 3602 110 view .LVU1508
	cmp	r3, r9
	beq	.L395
.L391:
	.loc 1 3602 260 is_stmt 1 discriminator 3 view .LVU1509
	.loc 1 3602 292 is_stmt 0 discriminator 3 view .LVU1510
	ldr	r3, [r5, #4]
	.loc 1 3602 275 discriminator 3 view .LVU1511
	ldr	r10, [r3, #12]
.LVL428:
	.loc 1 3602 275 discriminator 3 view .LVU1512
.LBE221:
	.loc 1 3598 14 discriminator 3 view .LVU1513
	movs	r4, #0
	b	.L393
.LVL429:
.L395:
.LBB222:
	.loc 1 3602 197 is_stmt 1 discriminator 1 view .LVU1514
	.loc 1 3602 248 is_stmt 0 discriminator 1 view .LVU1515
	ldr	r3, [r3, #4]
	.loc 1 3602 222 discriminator 1 view .LVU1516
	str	r3, [r1, #4]
	b	.L391
.LVL430:
.L396:
	.loc 1 3602 222 discriminator 1 view .LVU1517
.LBE222:
.LBB223:
	.loc 1 3610 198 is_stmt 1 discriminator 1 view .LVU1518
	.loc 1 3610 249 is_stmt 0 discriminator 1 view .LVU1519
	ldr	r3, [r3, #4]
	.loc 1 3610 223 discriminator 1 view .LVU1520
	str	r3, [r5, #4]
.L392:
	.loc 1 3610 261 is_stmt 1 discriminator 3 view .LVU1521
	.loc 1 3610 292 is_stmt 0 discriminator 3 view .LVU1522
	ldr	r3, [r5, #4]
	.loc 1 3610 275 discriminator 3 view .LVU1523
	ldr	r6, [r3, #12]
.LVL431:
	.loc 1 3610 275 discriminator 3 view .LVU1524
.LBE223:
	.loc 1 3610 313 is_stmt 1 discriminator 3 view .LVU1525
	.loc 1 3611 5 discriminator 3 view .LVU1526
	.loc 1 3611 67 is_stmt 0 discriminator 3 view .LVU1527
	add	r1, r4, r4, lsl #3
	.loc 1 3611 5 discriminator 3 view .LVU1528
	mov	r3, r8
	movs	r2, #1
	add	r1, r7, r1, lsl #2
	mov	r0, r6
	bl	vTaskGetInfo
.LVL432:
	.loc 1 3612 5 is_stmt 1 discriminator 3 view .LVU1529
	.loc 1 3612 11 is_stmt 0 discriminator 3 view .LVU1530
	adds	r4, r4, #1
.LVL433:
	.loc 1 3613 11 is_stmt 1 discriminator 3 view .LVU1531
	.loc 1 3613 4 is_stmt 0 discriminator 3 view .LVU1532
	cmp	r10, r6
	beq	.L389
.LVL434:
.L393:
	.loc 1 3602 313 is_stmt 1 discriminator 4 view .LVU1533
	.loc 1 3608 4 discriminator 4 view .LVU1534
.LBB224:
	.loc 1 3610 7 discriminator 4 view .LVU1535
	.loc 1 3610 48 discriminator 4 view .LVU1536
	.loc 1 3610 90 is_stmt 0 discriminator 4 view .LVU1537
	ldr	r3, [r5, #4]
	.loc 1 3610 99 discriminator 4 view .LVU1538
	ldr	r3, [r3, #4]
	.loc 1 3610 73 discriminator 4 view .LVU1539
	str	r3, [r5, #4]
	.loc 1 3610 109 is_stmt 1 discriminator 4 view .LVU1540
	.loc 1 3610 111 is_stmt 0 discriminator 4 view .LVU1541
	cmp	r9, r3
	bne	.L392
	b	.L396
.LVL435:
.L389:
	.loc 1 3610 111 discriminator 4 view .LVU1542
.LBE224:
	.loc 1 3621 2 view .LVU1543
	mov	r0, r4
	pop	{r4, r5, r6, r7, r8, r9, r10, pc}
.LFE241:
	.size	prvListTasksWithinSingleList, .-prvListTasksWithinSingleList
	.section	.text.uxTaskGetSystemState,"ax",%progbits
	.align	1
	.global	uxTaskGetSystemState
	.syntax unified
	.thumb
	.thumb_func
	.fpu fpv4-sp-d16
	.type	uxTaskGetSystemState, %function
uxTaskGetSystemState:
.LVL436:
.LFB222:
	.loc 1 2410 2 is_stmt 1 view -0
	@ args = 0, pretend = 0, frame = 0
	@ frame_needed = 0, uses_anonymous_args = 0
	.loc 1 2410 2 is_stmt 0 view .LVU1545
	push	{r3, r4, r5, r6, r7, lr}
.LCFI49:
	mov	r6, r0
	mov	r4, r1
	mov	r7, r2
	.loc 1 2411 2 is_stmt 1 view .LVU1546
.LVL437:
	.loc 1 2413 3 view .LVU1547
	bl	vTaskSuspendAll
.LVL438:
	.loc 1 2416 4 view .LVU1548
	.loc 1 2416 20 is_stmt 0 view .LVU1549
	ldr	r3, .L402
	ldr	r3, [r3]
	.loc 1 2416 6 view .LVU1550
	cmp	r3, r4
	bhi	.L400
	.loc 1 2411 26 view .LVU1551
	movs	r5, #7
	.loc 1 2411 14 view .LVU1552
	movs	r4, #0
.LVL439:
.L399:
	.loc 1 2420 5 is_stmt 1 discriminator 1 view .LVU1553
	.loc 1 2422 6 discriminator 1 view .LVU1554
	.loc 1 2422 13 is_stmt 0 discriminator 1 view .LVU1555
	subs	r5, r5, #1
.LVL440:
	.loc 1 2423 6 is_stmt 1 discriminator 1 view .LVU1556
	.loc 1 2423 66 is_stmt 0 discriminator 1 view .LVU1557
	add	r0, r4, r4, lsl #3
	.loc 1 2423 16 discriminator 1 view .LVU1558
	add	r1, r5, r5, lsl #2
	movs	r2, #1
	ldr	r3, .L402+4
	add	r1, r3, r1, lsl #2
	add	r0, r6, r0, lsl #2
	bl	prvListTasksWithinSingleList
.LVL441:
	.loc 1 2423 13 discriminator 1 view .LVU1559
	add	r4, r4, r0
.LVL442:
	.loc 1 2425 12 is_stmt 1 discriminator 1 view .LVU1560
	.loc 1 2425 5 is_stmt 0 discriminator 1 view .LVU1561
	cmp	r5, #0
	bne	.L399
	.loc 1 2429 5 is_stmt 1 view .LVU1562
	.loc 1 2429 65 is_stmt 0 view .LVU1563
	add	r0, r4, r4, lsl #3
	.loc 1 2429 15 view .LVU1564
	ldr	r3, .L402+8
	ldr	r1, [r3]
	movs	r2, #2
	add	r0, r6, r0, lsl #2
	bl	prvListTasksWithinSingleList
.LVL443:
	.loc 1 2429 12 view .LVU1565
	add	r4, r4, r0
.LVL444:
	.loc 1 2430 5 is_stmt 1 view .LVU1566
	.loc 1 2430 65 is_stmt 0 view .LVU1567
	add	r0, r4, r4, lsl #3
	.loc 1 2430 15 view .LVU1568
	ldr	r3, .L402+12
	ldr	r1, [r3]
	movs	r2, #2
	add	r0, r6, r0, lsl #2
	bl	prvListTasksWithinSingleList
.LVL445:
	.loc 1 2430 12 view .LVU1569
	add	r4, r4, r0
.LVL446:
	.loc 1 2436 6 is_stmt 1 view .LVU1570
	.loc 1 2436 66 is_stmt 0 view .LVU1571
	add	r0, r4, r4, lsl #3
	.loc 1 2436 16 view .LVU1572
	movs	r2, #4
	ldr	r1, .L402+16
	add	r0, r6, r0, lsl #2
	bl	prvListTasksWithinSingleList
.LVL447:
	.loc 1 2436 13 view .LVU1573
	add	r4, r4, r0
.LVL448:
	.loc 1 2444 6 is_stmt 1 view .LVU1574
	.loc 1 2444 66 is_stmt 0 view .LVU1575
	add	r0, r4, r4, lsl #3
	.loc 1 2444 16 view .LVU1576
	movs	r2, #3
	ldr	r1, .L402+20
	add	r0, r6, r0, lsl #2
	bl	prvListTasksWithinSingleList
.LVL449:
	.loc 1 2444 13 view .LVU1577
	add	r4, r4, r0
.LVL450:
	.loc 1 2461 6 is_stmt 1 view .LVU1578
	.loc 1 2461 8 is_stmt 0 view .LVU1579
	cbz	r7, .L398
	.loc 1 2463 7 is_stmt 1 view .LVU1580
	.loc 1 2463 24 is_stmt 0 view .LVU1581
	movs	r3, #0
	str	r3, [r7]
	b	.L398
.LVL451:
.L400:
	.loc 1 2411 14 view .LVU1582
	movs	r4, #0
.LVL452:
.L398:
	.loc 1 2470 5 is_stmt 1 view .LVU1583
	.loc 1 2473 3 view .LVU1584
	.loc 1 2473 12 is_stmt 0 view .LVU1585
	bl	xTaskResumeAll
.LVL453:
	.loc 1 2475 3 is_stmt 1 view .LVU1586
	.loc 1 2476 2 is_stmt 0 view .LVU1587
	mov	r0, r4
	pop	{r3, r4, r5, r6, r7, pc}
.LVL454:
.L403:
	.loc 1 2476 2 view .LVU1588
	.align	2
.L402:
	.word	.LANCHOR9
	.word	.LANCHOR4
	.word	.LANCHOR0
	.word	.LANCHOR8
	.word	.LANCHOR7
	.word	.LANCHOR2
.LFE222:
	.size	uxTaskGetSystemState, .-uxTaskGetSystemState
	.section	.text.uxTaskGetStackHighWaterMark,"ax",%progbits
	.align	1
	.global	uxTaskGetStackHighWaterMark
	.syntax unified
	.thumb
	.thumb_func
	.fpu fpv4-sp-d16
	.type	uxTaskGetStackHighWaterMark, %function
uxTaskGetStackHighWaterMark:
.LVL455:
.LFB243:
	.loc 1 3649 2 is_stmt 1 view -0
	@ args = 0, pretend = 0, frame = 0
	@ frame_needed = 0, uses_anonymous_args = 0
	.loc 1 3649 2 is_stmt 0 view .LVU1590
	push	{r3, lr}
.LCFI50:
	.loc 1 3650 2 is_stmt 1 view .LVU1591
	.loc 1 3651 2 view .LVU1592
	.loc 1 3652 2 view .LVU1593
	.loc 1 3654 3 view .LVU1594
	.loc 1 3654 39 is_stmt 0 view .LVU1595
	mov	r3, r0
	cbz	r0, .L407
.LVL456:
.L405:
	.loc 1 3658 4 is_stmt 1 discriminator 4 view .LVU1596
	.loc 1 3666 3 discriminator 4 view .LVU1597
	.loc 1 3666 30 is_stmt 0 discriminator 4 view .LVU1598
	ldr	r0, [r3, #48]
	bl	prvTaskCheckFreeStackSpace
.LVL457:
	.loc 1 3668 3 is_stmt 1 discriminator 4 view .LVU1599
	.loc 1 3669 2 is_stmt 0 discriminator 4 view .LVU1600
	pop	{r3, pc}
.LVL458:
.L407:
	.loc 1 3654 39 discriminator 1 view .LVU1601
	ldr	r3, .L408
	ldr	r3, [r3]
.LVL459:
	.loc 1 3654 39 discriminator 1 view .LVU1602
	b	.L405
.L409:
	.align	2
.L408:
	.word	.LANCHOR10
.LFE243:
	.size	uxTaskGetStackHighWaterMark, .-uxTaskGetStackHighWaterMark
	.section	.text.xTaskGetCurrentTaskHandle,"ax",%progbits
	.align	1
	.global	xTaskGetCurrentTaskHandle
	.syntax unified
	.thumb
	.thumb_func
	.fpu fpv4-sp-d16
	.type	xTaskGetCurrentTaskHandle, %function
xTaskGetCurrentTaskHandle:
.LFB246:
	.loc 1 3757 2 is_stmt 1 view -0
	@ args = 0, pretend = 0, frame = 0
	@ frame_needed = 0, uses_anonymous_args = 0
	@ link register save eliminated.
	.loc 1 3758 2 view .LVU1604
	.loc 1 3763 3 view .LVU1605
	.loc 1 3763 11 is_stmt 0 view .LVU1606
	ldr	r3, .L411
	ldr	r0, [r3]
.LVL460:
	.loc 1 3765 3 is_stmt 1 view .LVU1607
	.loc 1 3766 2 is_stmt 0 view .LVU1608
	bx	lr
.L412:
	.align	2
.L411:
	.word	.LANCHOR10
.LFE246:
	.size	xTaskGetCurrentTaskHandle, .-xTaskGetCurrentTaskHandle
	.section	.text.xTaskGetSchedulerState,"ax",%progbits
	.align	1
	.global	xTaskGetSchedulerState
	.syntax unified
	.thumb
	.thumb_func
	.fpu fpv4-sp-d16
	.type	xTaskGetSchedulerState, %function
xTaskGetSchedulerState:
.LFB247:
	.loc 1 3774 2 is_stmt 1 view -0
	@ args = 0, pretend = 0, frame = 0
	@ frame_needed = 0, uses_anonymous_args = 0
	@ link register save eliminated.
	.loc 1 3775 2 view .LVU1610
	.loc 1 3777 3 view .LVU1611
	.loc 1 3777 25 is_stmt 0 view .LVU1612
	ldr	r3, .L418
	ldr	r3, [r3]
	.loc 1 3777 5 view .LVU1613
	cbz	r3, .L415
	.loc 1 3783 4 is_stmt 1 view .LVU1614
	.loc 1 3783 29 is_stmt 0 view .LVU1615
	ldr	r3, .L418+4
	ldr	r3, [r3]
	.loc 1 3783 6 view .LVU1616
	cbz	r3, .L417
	.loc 1 3789 13 view .LVU1617
	movs	r0, #0
.LVL461:
	.loc 1 3793 3 is_stmt 1 view .LVU1618
	.loc 1 3794 2 is_stmt 0 view .LVU1619
	bx	lr
.LVL462:
.L417:
	.loc 1 3785 13 view .LVU1620
	movs	r0, #2
	bx	lr
.L415:
	.loc 1 3779 12 view .LVU1621
	movs	r0, #1
	bx	lr
.L419:
	.align	2
.L418:
	.word	.LANCHOR11
	.word	.LANCHOR16
.LFE247:
	.size	xTaskGetSchedulerState, .-xTaskGetSchedulerState
	.section	.text.xTaskPriorityInherit,"ax",%progbits
	.align	1
	.global	xTaskPriorityInherit
	.syntax unified
	.thumb
	.thumb_func
	.fpu fpv4-sp-d16
	.type	xTaskPriorityInherit, %function
xTaskPriorityInherit:
.LVL463:
.LFB248:
	.loc 1 3802 2 is_stmt 1 view -0
	@ args = 0, pretend = 0, frame = 0
	@ frame_needed = 0, uses_anonymous_args = 0
	.loc 1 3803 2 view .LVU1623
	.loc 1 3804 2 view .LVU1624
	.loc 1 3809 3 view .LVU1625
	.loc 1 3809 5 is_stmt 0 view .LVU1626
	cmp	r0, #0
	beq	.L428
	.loc 1 3802 2 view .LVU1627
	push	{r3, r4, r5, lr}
.LCFI51:
	mov	r4, r0
	.loc 1 3814 4 is_stmt 1 view .LVU1628
	.loc 1 3814 24 is_stmt 0 view .LVU1629
	ldr	r3, [r0, #44]
	.loc 1 3814 51 view .LVU1630
	ldr	r2, .L435
	ldr	r2, [r2]
	ldr	r2, [r2, #44]
	.loc 1 3814 6 view .LVU1631
	cmp	r3, r2
	bcs	.L422
	.loc 1 3819 5 is_stmt 1 view .LVU1632
	.loc 1 3819 54 is_stmt 0 view .LVU1633
	ldr	r2, [r0, #24]
	.loc 1 3819 7 view .LVU1634
	cmp	r2, #0
	blt	.L423
	.loc 1 3821 6 is_stmt 1 view .LVU1635
	.loc 1 3821 116 is_stmt 0 view .LVU1636
	ldr	r2, .L435
	ldr	r2, [r2]
	ldr	r2, [r2, #44]
	.loc 1 3821 87 view .LVU1637
	rsb	r2, r2, #7
	.loc 1 3821 62 view .LVU1638
	str	r2, [r0, #24]
.L423:
	.loc 1 3825 6 is_stmt 1 view .LVU1639
	.loc 1 3830 5 view .LVU1640
	.loc 1 3830 69 is_stmt 0 view .LVU1641
	ldr	r1, [r4, #20]
	.loc 1 3830 99 view .LVU1642
	add	r3, r3, r3, lsl #2
	ldr	r2, .L435+4
	add	r3, r2, r3, lsl #2
	.loc 1 3830 160 view .LVU1643
	cmp	r1, r3
	beq	.L434
	.loc 1 3848 6 is_stmt 1 view .LVU1644
	.loc 1 3848 49 is_stmt 0 view .LVU1645
	ldr	r3, .L435
	ldr	r3, [r3]
	ldr	r3, [r3, #44]
	.loc 1 3848 35 view .LVU1646
	str	r3, [r4, #44]
.LVL464:
.L427:
	.loc 1 3851 5 is_stmt 1 view .LVU1647
	mov	r1, r4
	movs	r0, #73
	bl	SEGGER_SYSVIEW_RecordU32
.LVL465:
	.loc 1 3854 5 view .LVU1648
	.loc 1 3854 13 is_stmt 0 view .LVU1649
	movs	r0, #1
.LVL466:
.L420:
	.loc 1 3881 2 view .LVU1650
	pop	{r3, r4, r5, pc}
.LVL467:
.L434:
	.loc 1 3832 6 is_stmt 1 view .LVU1651
	.loc 1 3832 10 is_stmt 0 view .LVU1652
	adds	r5, r4, #4
	mov	r0, r5
.LVL468:
	.loc 1 3832 10 view .LVU1653
	bl	uxListRemove
.LVL469:
	.loc 1 3832 8 view .LVU1654
	cbz	r0, .L425
.L426:
	.loc 1 3838 7 is_stmt 1 view .LVU1655
	.loc 1 3842 6 view .LVU1656
	.loc 1 3842 49 is_stmt 0 view .LVU1657
	ldr	r3, .L435
	ldr	r3, [r3]
	ldr	r3, [r3, #44]
	.loc 1 3842 35 view .LVU1658
	str	r3, [r4, #44]
	.loc 1 3843 6 is_stmt 1 view .LVU1659
	mov	r0, r4
	bl	SEGGER_SYSVIEW_OnTaskStartReady
.LVL470:
	.loc 1 3843 72 view .LVU1660
	.loc 1 3843 129 is_stmt 0 view .LVU1661
	ldr	r0, [r4, #44]
	.loc 1 3843 104 view .LVU1662
	movs	r3, #1
	lsls	r3, r3, r0
	.loc 1 3843 95 view .LVU1663
	ldr	r2, .L435+8
	ldr	r1, [r2]
	orrs	r3, r3, r1
	str	r3, [r2]
	.loc 1 3843 147 is_stmt 1 view .LVU1664
	add	r0, r0, r0, lsl #2
	mov	r1, r5
	ldr	r3, .L435+4
	add	r0, r3, r0, lsl #2
	bl	vListInsertEnd
.LVL471:
	.loc 1 3843 268 view .LVU1665
	b	.L427
.L425:
	.loc 1 3834 9 view .LVU1666
	.loc 1 3834 57 is_stmt 0 view .LVU1667
	ldr	r2, [r4, #44]
	.loc 1 3834 77 view .LVU1668
	add	r3, r2, r2, lsl #2
	lsls	r3, r3, #2
	ldr	r1, .L435+4
	ldr	r3, [r1, r3]
	.loc 1 3834 11 view .LVU1669
	cmp	r3, #0
	bne	.L426
	.loc 1 3834 122 is_stmt 1 discriminator 1 view .LVU1670
	.loc 1 3834 159 is_stmt 0 discriminator 1 view .LVU1671
	movs	r3, #1
	lsl	r2, r3, r2
	.loc 1 3834 149 discriminator 1 view .LVU1672
	ldr	r1, .L435+8
	ldr	r3, [r1]
	bic	r3, r3, r2
	str	r3, [r1]
	b	.L426
.LVL472:
.L422:
	.loc 1 3858 5 is_stmt 1 view .LVU1673
	.loc 1 3858 25 is_stmt 0 view .LVU1674
	ldr	r2, [r0, #68]
	.loc 1 3858 56 view .LVU1675
	ldr	r3, .L435
	ldr	r3, [r3]
	ldr	r3, [r3, #44]
	.loc 1 3858 7 view .LVU1676
	cmp	r2, r3
	bcc	.L429
	.loc 1 3804 13 view .LVU1677
	movs	r0, #0
.LVL473:
	.loc 1 3804 13 view .LVU1678
	b	.L420
.LVL474:
.L428:
.LCFI52:
	.loc 1 3804 13 view .LVU1679
	movs	r0, #0
.LVL475:
	.loc 1 3881 2 view .LVU1680
	bx	lr
.LVL476:
.L429:
.LCFI53:
	.loc 1 3867 14 view .LVU1681
	movs	r0, #1
.LVL477:
	.loc 1 3877 4 is_stmt 1 view .LVU1682
	.loc 1 3880 3 view .LVU1683
	.loc 1 3880 10 is_stmt 0 view .LVU1684
	b	.L420
.L436:
	.align	2
.L435:
	.word	.LANCHOR10
	.word	.LANCHOR4
	.word	.LANCHOR13
.LFE248:
	.size	xTaskPriorityInherit, .-xTaskPriorityInherit
	.section	.text.xTaskPriorityDisinherit,"ax",%progbits
	.align	1
	.global	xTaskPriorityDisinherit
	.syntax unified
	.thumb
	.thumb_func
	.fpu fpv4-sp-d16
	.type	xTaskPriorityDisinherit, %function
xTaskPriorityDisinherit:
.LVL478:
.LFB249:
	.loc 1 3889 2 is_stmt 1 view -0
	@ args = 0, pretend = 0, frame = 0
	@ frame_needed = 0, uses_anonymous_args = 0
	.loc 1 3890 2 view .LVU1686
	.loc 1 3891 2 view .LVU1687
	.loc 1 3893 3 view .LVU1688
	.loc 1 3893 5 is_stmt 0 view .LVU1689
	cmp	r0, #0
	beq	.L442
	.loc 1 3889 2 discriminator 1 view .LVU1690
	push	{r3, r4, r5, lr}
.LCFI54:
	mov	r4, r0
	.loc 1 3899 4 is_stmt 1 discriminator 1 view .LVU1691
	.loc 1 3899 13 discriminator 1 view .LVU1692
	.loc 1 3899 23 is_stmt 0 discriminator 1 view .LVU1693
	ldr	r3, .L451
	ldr	r3, [r3]
	.loc 1 3899 16 discriminator 1 view .LVU1694
	cmp	r3, r0
	beq	.L439
	.loc 1 3899 51 is_stmt 1 discriminator 4 view .LVU1695
	ldr	r1, .L451+4
	movw	r0, #3899
.LVL479:
	.loc 1 3899 51 is_stmt 0 discriminator 4 view .LVU1696
	bl	assert_nrf_callback
.LVL480:
.L439:
	.loc 1 3899 170 is_stmt 1 discriminator 1 view .LVU1697
	.loc 1 3900 4 discriminator 1 view .LVU1698
	.loc 1 3900 13 discriminator 1 view .LVU1699
	.loc 1 3900 22 is_stmt 0 discriminator 1 view .LVU1700
	ldr	r3, [r4, #72]
	.loc 1 3900 16 discriminator 1 view .LVU1701
	cbz	r3, .L449
.L440:
	.loc 1 3900 169 is_stmt 1 discriminator 5 view .LVU1702
	.loc 1 3901 4 discriminator 5 view .LVU1703
	.loc 1 3901 11 is_stmt 0 discriminator 5 view .LVU1704
	ldr	r3, [r4, #72]
	.loc 1 3901 28 discriminator 5 view .LVU1705
	subs	r3, r3, #1
	str	r3, [r4, #72]
	.loc 1 3905 4 is_stmt 1 discriminator 5 view .LVU1706
	.loc 1 3905 13 is_stmt 0 discriminator 5 view .LVU1707
	ldr	r1, [r4, #44]
	.loc 1 3905 34 discriminator 5 view .LVU1708
	ldr	r2, [r4, #68]
	.loc 1 3905 6 discriminator 5 view .LVU1709
	cmp	r1, r2
	beq	.L443
	.loc 1 3908 5 is_stmt 1 view .LVU1710
	.loc 1 3908 7 is_stmt 0 view .LVU1711
	cbz	r3, .L450
	.loc 1 3891 13 view .LVU1712
	movs	r0, #0
	.loc 1 3957 4 is_stmt 1 view .LVU1713
	.loc 1 3960 3 view .LVU1714
.LVL481:
.L437:
	.loc 1 3961 2 is_stmt 0 view .LVU1715
	pop	{r3, r4, r5, pc}
.LVL482:
.L449:
	.loc 1 3900 50 is_stmt 1 discriminator 4 view .LVU1716
	ldr	r1, .L451+4
	movw	r0, #3900
	bl	assert_nrf_callback
.LVL483:
	b	.L440
.L450:
	.loc 1 3915 6 view .LVU1717
	.loc 1 3915 10 is_stmt 0 view .LVU1718
	adds	r5, r4, #4
	mov	r0, r5
	bl	uxListRemove
.LVL484:
	.loc 1 3915 8 view .LVU1719
	cbnz	r0, .L441
	.loc 1 3917 9 is_stmt 1 view .LVU1720
	.loc 1 3917 46 is_stmt 0 view .LVU1721
	ldr	r2, [r4, #44]
	.loc 1 3917 66 view .LVU1722
	add	r3, r2, r2, lsl #2
	lsls	r3, r3, #2
	ldr	r1, .L451+8
	ldr	r3, [r1, r3]
	.loc 1 3917 11 view .LVU1723
	cbnz	r3, .L441
	.loc 1 3917 111 is_stmt 1 discriminator 1 view .LVU1724
	.loc 1 3917 148 is_stmt 0 discriminator 1 view .LVU1725
	movs	r3, #1
	lsls	r3, r3, r2
	.loc 1 3917 138 discriminator 1 view .LVU1726
	ldr	r1, .L451+12
	ldr	r2, [r1]
	bic	r2, r2, r3
	str	r2, [r1]
.L441:
	.loc 1 3921 7 is_stmt 1 view .LVU1727
	.loc 1 3926 6 view .LVU1728
	mov	r1, r4
	movs	r0, #74
	bl	SEGGER_SYSVIEW_RecordU32
.LVL485:
	.loc 1 3927 6 view .LVU1729
	.loc 1 3927 31 is_stmt 0 view .LVU1730
	ldr	r3, [r4, #68]
	.loc 1 3927 24 view .LVU1731
	str	r3, [r4, #44]
	.loc 1 3932 6 is_stmt 1 view .LVU1732
	.loc 1 3932 76 is_stmt 0 view .LVU1733
	rsb	r3, r3, #7
	.loc 1 3932 51 view .LVU1734
	str	r3, [r4, #24]
	.loc 1 3933 6 is_stmt 1 view .LVU1735
	mov	r0, r4
	bl	SEGGER_SYSVIEW_OnTaskStartReady
.LVL486:
	.loc 1 3933 61 view .LVU1736
	.loc 1 3933 107 is_stmt 0 view .LVU1737
	ldr	r0, [r4, #44]
	.loc 1 3933 93 view .LVU1738
	movs	r4, #1
.LVL487:
	.loc 1 3933 93 view .LVU1739
	lsl	r3, r4, r0
	.loc 1 3933 84 view .LVU1740
	ldr	r2, .L451+12
	ldr	r1, [r2]
	orrs	r3, r3, r1
	str	r3, [r2]
	.loc 1 3933 125 is_stmt 1 view .LVU1741
	add	r0, r0, r0, lsl #2
	mov	r1, r5
	ldr	r3, .L451+8
	add	r0, r3, r0, lsl #2
	bl	vListInsertEnd
.LVL488:
	.loc 1 3933 224 view .LVU1742
	.loc 1 3943 6 view .LVU1743
	.loc 1 3943 14 is_stmt 0 view .LVU1744
	mov	r0, r4
	b	.L437
.LVL489:
.L442:
.LCFI55:
	.loc 1 3891 13 view .LVU1745
	movs	r0, #0
.LVL490:
	.loc 1 3961 2 view .LVU1746
	bx	lr
.LVL491:
.L443:
.LCFI56:
	.loc 1 3891 13 view .LVU1747
	movs	r0, #0
	b	.L437
.L452:
	.align	2
.L451:
	.word	.LANCHOR10
	.word	.LC0
	.word	.LANCHOR4
	.word	.LANCHOR13
.LFE249:
	.size	xTaskPriorityDisinherit, .-xTaskPriorityDisinherit
	.section	.text.vTaskPriorityDisinheritAfterTimeout,"ax",%progbits
	.align	1
	.global	vTaskPriorityDisinheritAfterTimeout
	.syntax unified
	.thumb
	.thumb_func
	.fpu fpv4-sp-d16
	.type	vTaskPriorityDisinheritAfterTimeout, %function
vTaskPriorityDisinheritAfterTimeout:
.LVL492:
.LFB250:
	.loc 1 3969 2 is_stmt 1 view -0
	@ args = 0, pretend = 0, frame = 0
	@ frame_needed = 0, uses_anonymous_args = 0
	.loc 1 3970 2 view .LVU1749
	.loc 1 3971 2 view .LVU1750
	.loc 1 3972 2 view .LVU1751
	.loc 1 3974 3 view .LVU1752
	.loc 1 3974 5 is_stmt 0 view .LVU1753
	cmp	r0, #0
	beq	.L461
	.loc 1 3969 2 discriminator 1 view .LVU1754
	push	{r4, r5, r6, lr}
.LCFI57:
	mov	r5, r1
	mov	r4, r0
	.loc 1 3978 4 is_stmt 1 discriminator 1 view .LVU1755
	.loc 1 3978 13 discriminator 1 view .LVU1756
	.loc 1 3978 22 is_stmt 0 discriminator 1 view .LVU1757
	ldr	r3, [r0, #72]
	.loc 1 3978 16 discriminator 1 view .LVU1758
	cbz	r3, .L464
.LVL493:
.L455:
	.loc 1 3978 169 is_stmt 1 discriminator 5 view .LVU1759
	.loc 1 3984 4 discriminator 5 view .LVU1760
	.loc 1 3984 13 is_stmt 0 discriminator 5 view .LVU1761
	ldr	r6, [r4, #68]
	.loc 1 3984 6 discriminator 5 view .LVU1762
	cmp	r6, r5
	bcs	.L456
	.loc 1 3986 21 view .LVU1763
	mov	r6, r5
.L456:
.LVL494:
	.loc 1 3994 4 is_stmt 1 view .LVU1764
	.loc 1 3994 13 is_stmt 0 view .LVU1765
	ldr	r3, [r4, #44]
	.loc 1 3994 6 view .LVU1766
	cmp	r3, r6
	beq	.L453
	.loc 1 4000 5 is_stmt 1 view .LVU1767
	.loc 1 4000 14 is_stmt 0 view .LVU1768
	ldr	r3, [r4, #72]
	.loc 1 4000 7 view .LVU1769
	cmp	r3, #1
	beq	.L465
.LVL495:
.L453:
	.loc 1 4063 2 view .LVU1770
	pop	{r4, r5, r6, pc}
.LVL496:
.L464:
	.loc 1 3978 50 is_stmt 1 discriminator 4 view .LVU1771
	ldr	r1, .L467
.LVL497:
	.loc 1 3978 50 is_stmt 0 discriminator 4 view .LVU1772
	movw	r0, #3978
.LVL498:
	.loc 1 3978 50 discriminator 4 view .LVU1773
	bl	assert_nrf_callback
.LVL499:
	b	.L455
.LVL500:
.L465:
	.loc 1 4005 6 is_stmt 1 discriminator 1 view .LVU1774
	.loc 1 4005 15 discriminator 1 view .LVU1775
	.loc 1 4005 25 is_stmt 0 discriminator 1 view .LVU1776
	ldr	r3, .L467+4
	ldr	r3, [r3]
	.loc 1 4005 18 discriminator 1 view .LVU1777
	cmp	r3, r4
	beq	.L466
.L457:
	.loc 1 4005 172 is_stmt 1 discriminator 5 view .LVU1778
	.loc 1 4010 6 discriminator 5 view .LVU1779
	mov	r1, r4
	movs	r0, #74
	bl	SEGGER_SYSVIEW_RecordU32
.LVL501:
	.loc 1 4011 6 discriminator 5 view .LVU1780
	.loc 1 4011 28 is_stmt 0 discriminator 5 view .LVU1781
	ldr	r3, [r4, #44]
.LVL502:
	.loc 1 4012 6 is_stmt 1 discriminator 5 view .LVU1782
	.loc 1 4012 24 is_stmt 0 discriminator 5 view .LVU1783
	str	r6, [r4, #44]
	.loc 1 4016 6 is_stmt 1 discriminator 5 view .LVU1784
	.loc 1 4016 44 is_stmt 0 discriminator 5 view .LVU1785
	ldr	r2, [r4, #24]
	.loc 1 4016 8 discriminator 5 view .LVU1786
	cmp	r2, #0
	blt	.L458
	.loc 1 4018 7 is_stmt 1 view .LVU1787
	.loc 1 4018 77 is_stmt 0 view .LVU1788
	rsb	r6, r6, #7
.LVL503:
	.loc 1 4018 52 view .LVU1789
	str	r6, [r4, #24]
.L458:
	.loc 1 4022 7 is_stmt 1 view .LVU1790
	.loc 1 4031 6 view .LVU1791
	.loc 1 4031 59 is_stmt 0 view .LVU1792
	ldr	r1, [r4, #20]
	.loc 1 4031 89 view .LVU1793
	add	r3, r3, r3, lsl #2
.LVL504:
	.loc 1 4031 89 view .LVU1794
	ldr	r2, .L467+8
	add	r3, r2, r3, lsl #2
	.loc 1 4031 143 view .LVU1795
	cmp	r1, r3
	bne	.L453
	.loc 1 4033 7 is_stmt 1 view .LVU1796
	.loc 1 4033 11 is_stmt 0 view .LVU1797
	adds	r5, r4, #4
.LVL505:
	.loc 1 4033 11 view .LVU1798
	mov	r0, r5
	bl	uxListRemove
.LVL506:
	.loc 1 4033 9 view .LVU1799
	cbnz	r0, .L459
	.loc 1 4035 10 is_stmt 1 view .LVU1800
	.loc 1 4035 47 is_stmt 0 view .LVU1801
	ldr	r2, [r4, #44]
	.loc 1 4035 67 view .LVU1802
	add	r3, r2, r2, lsl #2
	lsls	r3, r3, #2
	ldr	r1, .L467+8
	ldr	r3, [r1, r3]
	.loc 1 4035 12 view .LVU1803
	cbnz	r3, .L459
	.loc 1 4035 112 is_stmt 1 discriminator 1 view .LVU1804
	.loc 1 4035 149 is_stmt 0 discriminator 1 view .LVU1805
	movs	r3, #1
	lsl	r2, r3, r2
	.loc 1 4035 139 discriminator 1 view .LVU1806
	ldr	r1, .L467+12
	ldr	r3, [r1]
	bic	r3, r3, r2
	str	r3, [r1]
.L459:
	.loc 1 4039 8 is_stmt 1 view .LVU1807
	.loc 1 4042 7 view .LVU1808
	mov	r0, r4
	bl	SEGGER_SYSVIEW_OnTaskStartReady
.LVL507:
	.loc 1 4042 62 view .LVU1809
	.loc 1 4042 108 is_stmt 0 view .LVU1810
	ldr	r0, [r4, #44]
	.loc 1 4042 94 view .LVU1811
	movs	r3, #1
	lsls	r3, r3, r0
	.loc 1 4042 85 view .LVU1812
	ldr	r2, .L467+12
	ldr	r1, [r2]
	orrs	r3, r3, r1
	str	r3, [r2]
	.loc 1 4042 126 is_stmt 1 view .LVU1813
	add	r0, r0, r0, lsl #2
	mov	r1, r5
	ldr	r3, .L467+8
	add	r0, r3, r0, lsl #2
	bl	vListInsertEnd
.LVL508:
	.loc 1 4042 225 view .LVU1814
	.loc 1 4061 4 view .LVU1815
	.loc 1 4063 2 is_stmt 0 view .LVU1816
	b	.L453
.LVL509:
.L466:
	.loc 1 4005 53 is_stmt 1 discriminator 4 view .LVU1817
	ldr	r1, .L467
	movw	r0, #4005
	bl	assert_nrf_callback
.LVL510:
	b	.L457
.LVL511:
.L461:
.LCFI58:
	.loc 1 4005 53 is_stmt 0 discriminator 4 view .LVU1818
	bx	lr
.L468:
	.align	2
.L467:
	.word	.LC0
	.word	.LANCHOR10
	.word	.LANCHOR4
	.word	.LANCHOR13
.LFE250:
	.size	vTaskPriorityDisinheritAfterTimeout, .-vTaskPriorityDisinheritAfterTimeout
	.section	.text.uxTaskResetEventItemValue,"ax",%progbits
	.align	1
	.global	uxTaskResetEventItemValue
	.syntax unified
	.thumb
	.thumb_func
	.fpu fpv4-sp-d16
	.type	uxTaskResetEventItemValue, %function
uxTaskResetEventItemValue:
.LFB251:
	.loc 1 4380 1 is_stmt 1 view -0
	@ args = 0, pretend = 0, frame = 0
	@ frame_needed = 0, uses_anonymous_args = 0
	@ link register save eliminated.
	.loc 1 4381 1 view .LVU1820
	.loc 1 4383 2 view .LVU1821
	.loc 1 4383 32 is_stmt 0 view .LVU1822
	ldr	r2, .L470
	ldr	r3, [r2]
	.loc 1 4383 11 view .LVU1823
	ldr	r0, [r3, #24]
.LVL512:
	.loc 1 4387 2 is_stmt 1 view .LVU1824
	.loc 1 4387 110 is_stmt 0 view .LVU1825
	ldr	r3, [r2]
	ldr	r3, [r3, #44]
	.loc 1 4387 21 view .LVU1826
	ldr	r2, [r2]
	.loc 1 4387 81 view .LVU1827
	rsb	r3, r3, #7
	.loc 1 4387 54 view .LVU1828
	str	r3, [r2, #24]
	.loc 1 4389 2 is_stmt 1 view .LVU1829
	.loc 1 4390 1 is_stmt 0 view .LVU1830
	bx	lr
.L471:
	.align	2
.L470:
	.word	.LANCHOR10
.LFE251:
	.size	uxTaskResetEventItemValue, .-uxTaskResetEventItemValue
	.section	.text.pvTaskIncrementMutexHeldCount,"ax",%progbits
	.align	1
	.global	pvTaskIncrementMutexHeldCount
	.syntax unified
	.thumb
	.thumb_func
	.fpu fpv4-sp-d16
	.type	pvTaskIncrementMutexHeldCount, %function
pvTaskIncrementMutexHeldCount:
.LFB252:
	.loc 1 4396 2 is_stmt 1 view -0
	@ args = 0, pretend = 0, frame = 0
	@ frame_needed = 0, uses_anonymous_args = 0
	@ link register save eliminated.
	.loc 1 4399 3 view .LVU1832
	.loc 1 4399 20 is_stmt 0 view .LVU1833
	ldr	r3, .L474
	ldr	r3, [r3]
	.loc 1 4399 5 view .LVU1834
	cbz	r3, .L473
	.loc 1 4401 4 is_stmt 1 view .LVU1835
	.loc 1 4401 18 is_stmt 0 view .LVU1836
	ldr	r3, .L474
	ldr	r2, [r3]
	ldr	r3, [r2, #72]
	.loc 1 4401 35 view .LVU1837
	adds	r3, r3, #1
	str	r3, [r2, #72]
.L473:
	.loc 1 4404 3 is_stmt 1 view .LVU1838
	.loc 1 4404 10 is_stmt 0 view .LVU1839
	ldr	r3, .L474
	ldr	r0, [r3]
	.loc 1 4405 2 view .LVU1840
	bx	lr
.L475:
	.align	2
.L474:
	.word	.LANCHOR10
.LFE252:
	.size	pvTaskIncrementMutexHeldCount, .-pvTaskIncrementMutexHeldCount
	.section	.text.ulTaskNotifyTake,"ax",%progbits
	.align	1
	.global	ulTaskNotifyTake
	.syntax unified
	.thumb
	.thumb_func
	.fpu fpv4-sp-d16
	.type	ulTaskNotifyTake, %function
ulTaskNotifyTake:
.LVL513:
.LFB253:
	.loc 1 4413 2 is_stmt 1 view -0
	@ args = 0, pretend = 0, frame = 0
	@ frame_needed = 0, uses_anonymous_args = 0
	.loc 1 4413 2 is_stmt 0 view .LVU1842
	push	{r3, r4, r5, lr}
.LCFI59:
	mov	r5, r0
	mov	r4, r1
	.loc 1 4414 2 is_stmt 1 view .LVU1843
	.loc 1 4416 3 view .LVU1844
	bl	vPortEnterCritical
.LVL514:
	.loc 1 4419 4 view .LVU1845
	.loc 1 4419 20 is_stmt 0 view .LVU1846
	ldr	r3, .L482
	ldr	r3, [r3]
	ldr	r3, [r3, #76]
	.loc 1 4419 6 view .LVU1847
	cbnz	r3, .L477
	.loc 1 4422 5 is_stmt 1 view .LVU1848
	.loc 1 4422 17 is_stmt 0 view .LVU1849
	ldr	r3, .L482
	ldr	r3, [r3]
	.loc 1 4422 33 view .LVU1850
	movs	r2, #1
	strb	r2, [r3, #80]
	.loc 1 4424 5 is_stmt 1 view .LVU1851
	.loc 1 4424 7 is_stmt 0 view .LVU1852
	cbnz	r4, .L481
.L477:
	.loc 1 4442 5 is_stmt 1 view .LVU1853
	.loc 1 4445 3 view .LVU1854
	bl	vPortExitCritical
.LVL515:
	.loc 1 4447 3 view .LVU1855
	bl	vPortEnterCritical
.LVL516:
	.loc 1 4449 4 view .LVU1856
	mov	r2, r4
	mov	r1, r5
	movs	r0, #66
	bl	SEGGER_SYSVIEW_RecordU32x2
.LVL517:
	.loc 1 4450 4 view .LVU1857
	.loc 1 4450 27 is_stmt 0 view .LVU1858
	ldr	r3, .L482
	ldr	r3, [r3]
	.loc 1 4450 13 view .LVU1859
	ldr	r4, [r3, #76]
.LVL518:
	.loc 1 4452 4 is_stmt 1 view .LVU1860
	.loc 1 4452 6 is_stmt 0 view .LVU1861
	cbz	r4, .L478
	.loc 1 4454 5 is_stmt 1 view .LVU1862
	.loc 1 4454 7 is_stmt 0 view .LVU1863
	cbz	r5, .L479
	.loc 1 4456 6 is_stmt 1 view .LVU1864
	.loc 1 4456 18 is_stmt 0 view .LVU1865
	ldr	r3, .L482
	ldr	r3, [r3]
	.loc 1 4456 36 view .LVU1866
	movs	r2, #0
	str	r2, [r3, #76]
.L478:
	.loc 1 4465 5 is_stmt 1 view .LVU1867
	.loc 1 4468 4 view .LVU1868
	.loc 1 4468 16 is_stmt 0 view .LVU1869
	ldr	r3, .L482
	ldr	r3, [r3]
	.loc 1 4468 32 view .LVU1870
	movs	r2, #0
	strb	r2, [r3, #80]
	.loc 1 4470 3 is_stmt 1 view .LVU1871
	bl	vPortExitCritical
.LVL519:
	.loc 1 4472 3 view .LVU1872
	.loc 1 4473 2 is_stmt 0 view .LVU1873
	mov	r0, r4
	pop	{r3, r4, r5, pc}
.LVL520:
.L481:
	.loc 1 4426 6 is_stmt 1 view .LVU1874
	mov	r1, r2
	mov	r0, r4
	bl	prvAddCurrentTaskToDelayedList
.LVL521:
	.loc 1 4427 6 view .LVU1875
	.loc 1 4433 6 view .LVU1876
	.loc 1 4433 11 view .LVU1877
	.loc 1 4433 61 is_stmt 0 view .LVU1878
	ldr	r3, .L482+4
	mov	r2, #268435456
	str	r2, [r3, #4]
	.loc 1 4433 77 is_stmt 1 view .LVU1879
.LBB225:
.LBI225:
	.loc 2 404 51 view .LVU1880
.LBB226:
	.loc 2 406 3 view .LVU1881
	.syntax unified
@ 406 "../../../../../../components/toolchain/cmsis/include/cmsis_gcc.h" 1
	sev
@ 0 "" 2
	.thumb
	.syntax unified
.LBE226:
.LBE225:
	.loc 1 4433 86 view .LVU1882
.LBB227:
.LBI227:
	.loc 2 427 51 view .LVU1883
.LBB228:
	.loc 2 429 3 view .LVU1884
	.syntax unified
@ 429 "../../../../../../components/toolchain/cmsis/include/cmsis_gcc.h" 1
	dsb 0xF
@ 0 "" 2
	.thumb
	.syntax unified
.LBE228:
.LBE227:
	.loc 1 4433 95 view .LVU1885
.LBB229:
.LBI229:
	.loc 2 416 51 view .LVU1886
.LBB230:
	.loc 2 418 3 view .LVU1887
	.syntax unified
@ 418 "../../../../../../components/toolchain/cmsis/include/cmsis_gcc.h" 1
	isb 0xF
@ 0 "" 2
	.loc 2 419 1 is_stmt 0 view .LVU1888
	.thumb
	.syntax unified
	b	.L477
.LVL522:
.L479:
	.loc 2 419 1 view .LVU1889
.LBE230:
.LBE229:
	.loc 1 4460 6 is_stmt 1 view .LVU1890
	.loc 1 4460 18 is_stmt 0 view .LVU1891
	ldr	r3, .L482
	ldr	r3, [r3]
	.loc 1 4460 47 view .LVU1892
	subs	r2, r4, #1
	.loc 1 4460 36 view .LVU1893
	str	r2, [r3, #76]
	b	.L478
.L483:
	.align	2
.L482:
	.word	.LANCHOR10
	.word	-536810240
.LFE253:
	.size	ulTaskNotifyTake, .-ulTaskNotifyTake
	.section	.text.xTaskNotifyWait,"ax",%progbits
	.align	1
	.global	xTaskNotifyWait
	.syntax unified
	.thumb
	.thumb_func
	.fpu fpv4-sp-d16
	.type	xTaskNotifyWait, %function
xTaskNotifyWait:
.LVL523:
.LFB254:
	.loc 1 4481 2 is_stmt 1 view -0
	@ args = 0, pretend = 0, frame = 0
	@ frame_needed = 0, uses_anonymous_args = 0
	.loc 1 4481 2 is_stmt 0 view .LVU1895
	push	{r4, r5, r6, r7, lr}
.LCFI60:
	sub	sp, sp, #12
.LCFI61:
	mov	r6, r0
	mov	r7, r1
	mov	r4, r2
	mov	r5, r3
	.loc 1 4482 2 is_stmt 1 view .LVU1896
	.loc 1 4484 3 view .LVU1897
	bl	vPortEnterCritical
.LVL524:
	.loc 1 4487 4 view .LVU1898
	.loc 1 4487 20 is_stmt 0 view .LVU1899
	ldr	r3, .L492
	ldr	r3, [r3]
	ldrb	r3, [r3, #80]	@ zero_extendqisi2
	uxtb	r3, r3
	.loc 1 4487 6 view .LVU1900
	cmp	r3, #2
	beq	.L485
	.loc 1 4492 5 is_stmt 1 view .LVU1901
	.loc 1 4492 35 is_stmt 0 view .LVU1902
	ldr	r2, .L492
	ldr	r1, [r2]
	ldr	r3, [r1, #76]
	bic	r3, r3, r6
	str	r3, [r1, #76]
	.loc 1 4495 5 is_stmt 1 view .LVU1903
	.loc 1 4495 17 is_stmt 0 view .LVU1904
	ldr	r3, [r2]
	.loc 1 4495 33 view .LVU1905
	movs	r2, #1
	strb	r2, [r3, #80]
	.loc 1 4497 5 is_stmt 1 view .LVU1906
	.loc 1 4497 7 is_stmt 0 view .LVU1907
	cbnz	r5, .L490
.L485:
	.loc 1 4515 5 is_stmt 1 view .LVU1908
	.loc 1 4518 3 view .LVU1909
	bl	vPortExitCritical
.LVL525:
	.loc 1 4520 3 view .LVU1910
	bl	vPortEnterCritical
.LVL526:
	.loc 1 4522 4 view .LVU1911
	str	r5, [sp]
	mov	r3, r4
	mov	r2, r7
	mov	r1, r6
	movs	r0, #64
	bl	SEGGER_SYSVIEW_RecordU32x4
.LVL527:
	.loc 1 4524 4 view .LVU1912
	.loc 1 4524 6 is_stmt 0 view .LVU1913
	cbz	r4, .L486
	.loc 1 4528 5 is_stmt 1 view .LVU1914
	.loc 1 4528 41 is_stmt 0 view .LVU1915
	ldr	r3, .L492
	ldr	r3, [r3]
	ldr	r3, [r3, #76]
	.loc 1 4528 27 view .LVU1916
	str	r3, [r4]
.L486:
	.loc 1 4535 4 is_stmt 1 view .LVU1917
	.loc 1 4535 20 is_stmt 0 view .LVU1918
	ldr	r3, .L492
	ldr	r3, [r3]
	ldrb	r3, [r3, #80]	@ zero_extendqisi2
	uxtb	r3, r3
	.loc 1 4535 6 view .LVU1919
	cmp	r3, #2
	beq	.L491
	.loc 1 4538 13 view .LVU1920
	movs	r4, #0
.LVL528:
.L487:
	.loc 1 4548 4 is_stmt 1 view .LVU1921
	.loc 1 4548 16 is_stmt 0 view .LVU1922
	ldr	r3, .L492
	ldr	r3, [r3]
	.loc 1 4548 32 view .LVU1923
	movs	r2, #0
	strb	r2, [r3, #80]
	.loc 1 4550 3 is_stmt 1 view .LVU1924
	bl	vPortExitCritical
.LVL529:
	.loc 1 4552 3 view .LVU1925
	.loc 1 4553 2 is_stmt 0 view .LVU1926
	mov	r0, r4
	add	sp, sp, #12
.LCFI62:
	@ sp needed
	pop	{r4, r5, r6, r7, pc}
.LVL530:
.L490:
.LCFI63:
	.loc 1 4499 6 is_stmt 1 view .LVU1927
	mov	r1, r2
	mov	r0, r5
	bl	prvAddCurrentTaskToDelayedList
.LVL531:
	.loc 1 4500 6 view .LVU1928
	.loc 1 4506 6 view .LVU1929
	.loc 1 4506 11 view .LVU1930
	.loc 1 4506 61 is_stmt 0 view .LVU1931
	ldr	r3, .L492+4
	mov	r2, #268435456
	str	r2, [r3, #4]
	.loc 1 4506 77 is_stmt 1 view .LVU1932
.LBB231:
.LBI231:
	.loc 2 404 51 view .LVU1933
.LBB232:
	.loc 2 406 3 view .LVU1934
	.syntax unified
@ 406 "../../../../../../components/toolchain/cmsis/include/cmsis_gcc.h" 1
	sev
@ 0 "" 2
	.thumb
	.syntax unified
.LBE232:
.LBE231:
	.loc 1 4506 86 view .LVU1935
.LBB233:
.LBI233:
	.loc 2 427 51 view .LVU1936
.LBB234:
	.loc 2 429 3 view .LVU1937
	.syntax unified
@ 429 "../../../../../../components/toolchain/cmsis/include/cmsis_gcc.h" 1
	dsb 0xF
@ 0 "" 2
	.thumb
	.syntax unified
.LBE234:
.LBE233:
	.loc 1 4506 95 view .LVU1938
.LBB235:
.LBI235:
	.loc 2 416 51 view .LVU1939
.LBB236:
	.loc 2 418 3 view .LVU1940
	.syntax unified
@ 418 "../../../../../../components/toolchain/cmsis/include/cmsis_gcc.h" 1
	isb 0xF
@ 0 "" 2
	.loc 2 419 1 is_stmt 0 view .LVU1941
	.thumb
	.syntax unified
	b	.L485
.L491:
	.loc 2 419 1 view .LVU1942
.LBE236:
.LBE235:
	.loc 1 4544 5 is_stmt 1 view .LVU1943
	.loc 1 4544 35 is_stmt 0 view .LVU1944
	ldr	r3, .L492
	ldr	r3, [r3]
	ldr	r1, [r3, #76]
	bic	r7, r1, r7
.LVL532:
	.loc 1 4544 35 view .LVU1945
	str	r7, [r3, #76]
	.loc 1 4545 5 is_stmt 1 view .LVU1946
.LVL533:
	.loc 1 4545 13 is_stmt 0 view .LVU1947
	movs	r4, #1
.LVL534:
	.loc 1 4545 13 view .LVU1948
	b	.L487
.L493:
	.align	2
.L492:
	.word	.LANCHOR10
	.word	-536810240
.LFE254:
	.size	xTaskNotifyWait, .-xTaskNotifyWait
	.section	.text.xTaskGenericNotify,"ax",%progbits
	.align	1
	.global	xTaskGenericNotify
	.syntax unified
	.thumb
	.thumb_func
	.fpu fpv4-sp-d16
	.type	xTaskGenericNotify, %function
xTaskGenericNotify:
.LVL535:
.LFB255:
	.loc 1 4561 2 is_stmt 1 view -0
	@ args = 0, pretend = 0, frame = 0
	@ frame_needed = 0, uses_anonymous_args = 0
	.loc 1 4561 2 is_stmt 0 view .LVU1950
	push	{r4, r5, r6, r7, r8, r9, lr}
.LCFI64:
	sub	sp, sp, #12
.LCFI65:
	mov	r7, r1
	mov	r6, r2
	mov	r5, r3
	.loc 1 4562 2 is_stmt 1 view .LVU1951
	.loc 1 4563 2 view .LVU1952
.LVL536:
	.loc 1 4564 2 view .LVU1953
	.loc 1 4566 3 view .LVU1954
	.loc 1 4566 12 view .LVU1955
	.loc 1 4566 15 is_stmt 0 view .LVU1956
	mov	r4, r0
	cbz	r0, .L508
.LVL537:
.L495:
	.loc 1 4566 161 is_stmt 1 discriminator 5 view .LVU1957
	.loc 1 4567 3 discriminator 5 view .LVU1958
	.loc 1 4569 3 discriminator 5 view .LVU1959
	bl	vPortEnterCritical
.LVL538:
	.loc 1 4571 4 discriminator 5 view .LVU1960
	.loc 1 4571 6 is_stmt 0 discriminator 5 view .LVU1961
	cbz	r5, .L496
	.loc 1 4573 5 is_stmt 1 view .LVU1962
	.loc 1 4573 42 is_stmt 0 view .LVU1963
	ldr	r3, [r4, #76]
	.loc 1 4573 35 view .LVU1964
	str	r3, [r5]
.L496:
	.loc 1 4576 4 is_stmt 1 view .LVU1965
	.loc 1 4576 26 is_stmt 0 view .LVU1966
	ldrb	r8, [r4, #80]	@ zero_extendqisi2
	uxtb	r8, r8
.LVL539:
	.loc 1 4578 4 is_stmt 1 view .LVU1967
	.loc 1 4578 25 is_stmt 0 view .LVU1968
	movs	r3, #2
	strb	r3, [r4, #80]
	.loc 1 4580 4 is_stmt 1 view .LVU1969
	subs	r3, r6, #1
	cmp	r3, #3
	bhi	.L505
	tbb	[pc, r3]
.L499:
	.byte	(.L502-.L499)/2
	.byte	(.L501-.L499)/2
	.byte	(.L500-.L499)/2
	.byte	(.L498-.L499)/2
.LVL540:
	.p2align 1
.L508:
	.loc 1 4566 42 discriminator 4 view .LVU1970
	ldr	r1, .L510
.LVL541:
	.loc 1 4566 42 is_stmt 0 discriminator 4 view .LVU1971
	movw	r0, #4566
.LVL542:
	.loc 1 4566 42 discriminator 4 view .LVU1972
	bl	assert_nrf_callback
.LVL543:
	.loc 1 4566 42 discriminator 4 view .LVU1973
	b	.L495
.LVL544:
.L502:
	.loc 1 4583 6 is_stmt 1 view .LVU1974
	.loc 1 4583 29 is_stmt 0 view .LVU1975
	ldr	r3, [r4, #76]
	orrs	r3, r3, r7
	str	r3, [r4, #76]
	.loc 1 4584 6 is_stmt 1 view .LVU1976
	.loc 1 4563 13 is_stmt 0 view .LVU1977
	mov	r9, #1
.L497:
.LVL545:
	.loc 1 4612 4 is_stmt 1 view .LVU1978
	mov	r0, r4
	bl	SEGGER_SYSVIEW_ShrinkId
.LVL546:
	mov	r1, r0
	str	r5, [sp]
	mov	r3, r6
	mov	r2, r7
	movs	r0, #62
	bl	SEGGER_SYSVIEW_RecordU32x4
.LVL547:
	.loc 1 4616 4 view .LVU1979
	.loc 1 4616 6 is_stmt 0 view .LVU1980
	cmp	r8, #1
	beq	.L509
.LVL548:
.L503:
	.loc 1 4653 5 is_stmt 1 view .LVU1981
	.loc 1 4656 3 view .LVU1982
	bl	vPortExitCritical
.LVL549:
	.loc 1 4658 3 view .LVU1983
	.loc 1 4659 2 is_stmt 0 view .LVU1984
	mov	r0, r9
	add	sp, sp, #12
.LCFI66:
	@ sp needed
	pop	{r4, r5, r6, r7, r8, r9, pc}
.LVL550:
.L501:
.LCFI67:
	.loc 1 4587 6 is_stmt 1 view .LVU1985
	.loc 1 4587 13 is_stmt 0 view .LVU1986
	ldr	r3, [r4, #76]
	.loc 1 4587 32 view .LVU1987
	adds	r3, r3, #1
	str	r3, [r4, #76]
	.loc 1 4588 6 is_stmt 1 view .LVU1988
	.loc 1 4563 13 is_stmt 0 view .LVU1989
	mov	r9, #1
	.loc 1 4588 6 view .LVU1990
	b	.L497
.L500:
	.loc 1 4591 6 is_stmt 1 view .LVU1991
	.loc 1 4591 29 is_stmt 0 view .LVU1992
	str	r7, [r4, #76]
	.loc 1 4592 6 is_stmt 1 view .LVU1993
	.loc 1 4563 13 is_stmt 0 view .LVU1994
	mov	r9, #1
	.loc 1 4592 6 view .LVU1995
	b	.L497
.L498:
	.loc 1 4595 6 is_stmt 1 view .LVU1996
	.loc 1 4595 8 is_stmt 0 view .LVU1997
	cmp	r8, #2
	beq	.L506
	.loc 1 4597 7 is_stmt 1 view .LVU1998
	.loc 1 4597 30 is_stmt 0 view .LVU1999
	str	r7, [r4, #76]
	.loc 1 4563 13 view .LVU2000
	mov	r9, #1
	b	.L497
.L505:
	.loc 1 4578 25 view .LVU2001
	mov	r9, #1
	b	.L497
.L506:
	.loc 1 4602 15 view .LVU2002
	mov	r9, #0
	b	.L497
.LVL551:
.L509:
	.loc 1 4618 5 is_stmt 1 view .LVU2003
	.loc 1 4618 14 is_stmt 0 view .LVU2004
	adds	r5, r4, #4
.LVL552:
	.loc 1 4618 14 view .LVU2005
	mov	r0, r5
	bl	uxListRemove
.LVL553:
	.loc 1 4619 5 is_stmt 1 view .LVU2006
	mov	r0, r4
	bl	SEGGER_SYSVIEW_OnTaskStartReady
.LVL554:
	.loc 1 4619 60 view .LVU2007
	.loc 1 4619 106 is_stmt 0 view .LVU2008
	ldr	r0, [r4, #44]
	.loc 1 4619 92 view .LVU2009
	movs	r3, #1
	lsls	r3, r3, r0
	.loc 1 4619 83 view .LVU2010
	ldr	r2, .L510+4
	ldr	r1, [r2]
	orrs	r3, r3, r1
	str	r3, [r2]
	.loc 1 4619 124 is_stmt 1 view .LVU2011
	add	r0, r0, r0, lsl #2
	mov	r1, r5
	ldr	r3, .L510+8
	add	r0, r3, r0, lsl #2
	bl	vListInsertEnd
.LVL555:
	.loc 1 4619 223 view .LVU2012
	.loc 1 4622 5 view .LVU2013
	.loc 1 4622 14 view .LVU2014
	.loc 1 4622 50 is_stmt 0 view .LVU2015
	ldr	r3, [r4, #40]
	.loc 1 4622 17 view .LVU2016
	cbz	r3, .L504
	.loc 1 4622 17 is_stmt 1 discriminator 4 view .LVU2017
	ldr	r1, .L510
	movw	r0, #4622
	bl	assert_nrf_callback
.LVL556:
.L504:
	.loc 1 4622 136 discriminator 5 view .LVU2018
	.loc 1 4640 5 discriminator 5 view .LVU2019
	.loc 1 4640 14 is_stmt 0 discriminator 5 view .LVU2020
	ldr	r2, [r4, #44]
	.loc 1 4640 41 discriminator 5 view .LVU2021
	ldr	r3, .L510+12
	ldr	r3, [r3]
	ldr	r3, [r3, #44]
	.loc 1 4640 7 discriminator 5 view .LVU2022
	cmp	r2, r3
	bls	.L503
	.loc 1 4644 6 is_stmt 1 view .LVU2023
	.loc 1 4644 11 view .LVU2024
	.loc 1 4644 61 is_stmt 0 view .LVU2025
	ldr	r3, .L510+16
	mov	r2, #268435456
	str	r2, [r3, #4]
	.loc 1 4644 77 is_stmt 1 view .LVU2026
.LBB237:
.LBI237:
	.loc 2 404 51 view .LVU2027
.LBB238:
	.loc 2 406 3 view .LVU2028
	.syntax unified
@ 406 "../../../../../../components/toolchain/cmsis/include/cmsis_gcc.h" 1
	sev
@ 0 "" 2
	.thumb
	.syntax unified
.LBE238:
.LBE237:
	.loc 1 4644 86 view .LVU2029
.LBB239:
.LBI239:
	.loc 2 427 51 view .LVU2030
.LBB240:
	.loc 2 429 3 view .LVU2031
	.syntax unified
@ 429 "../../../../../../components/toolchain/cmsis/include/cmsis_gcc.h" 1
	dsb 0xF
@ 0 "" 2
	.thumb
	.syntax unified
.LBE240:
.LBE239:
	.loc 1 4644 95 view .LVU2032
.LBB241:
.LBI241:
	.loc 2 416 51 view .LVU2033
.LBB242:
	.loc 2 418 3 view .LVU2034
	.syntax unified
@ 418 "../../../../../../components/toolchain/cmsis/include/cmsis_gcc.h" 1
	isb 0xF
@ 0 "" 2
	.loc 2 419 1 is_stmt 0 view .LVU2035
	.thumb
	.syntax unified
	b	.L503
.L511:
	.align	2
.L510:
	.word	.LC0
	.word	.LANCHOR13
	.word	.LANCHOR4
	.word	.LANCHOR10
	.word	-536810240
.LBE242:
.LBE241:
.LFE255:
	.size	xTaskGenericNotify, .-xTaskGenericNotify
	.section	.text.xTaskGenericNotifyFromISR,"ax",%progbits
	.align	1
	.global	xTaskGenericNotifyFromISR
	.syntax unified
	.thumb
	.thumb_func
	.fpu fpv4-sp-d16
	.type	xTaskGenericNotifyFromISR, %function
xTaskGenericNotifyFromISR:
.LVL557:
.LFB256:
	.loc 1 4667 2 is_stmt 1 view -0
	@ args = 4, pretend = 0, frame = 0
	@ frame_needed = 0, uses_anonymous_args = 0
	.loc 1 4667 2 is_stmt 0 view .LVU2037
	push	{r4, r5, r6, r7, r8, r9, r10, fp, lr}
.LCFI68:
	sub	sp, sp, #12
.LCFI69:
	mov	r8, r1
	mov	r6, r2
	mov	r5, r3
	ldr	r7, [sp, #48]
	.loc 1 4668 2 is_stmt 1 view .LVU2038
	.loc 1 4669 2 view .LVU2039
	.loc 1 4670 2 view .LVU2040
.LVL558:
	.loc 1 4671 2 view .LVU2041
	.loc 1 4673 3 view .LVU2042
	.loc 1 4673 12 view .LVU2043
	.loc 1 4673 15 is_stmt 0 view .LVU2044
	mov	r4, r0
	cbz	r0, .L529
.LVL559:
.L513:
	.loc 1 4673 161 is_stmt 1 discriminator 5 view .LVU2045
	.loc 1 4691 3 discriminator 5 view .LVU2046
	bl	vPortValidateInterruptPriority
.LVL560:
	.loc 1 4693 3 discriminator 5 view .LVU2047
	.loc 1 4695 3 discriminator 5 view .LVU2048
.LBB243:
.LBI243:
	.loc 3 172 24 discriminator 5 view .LVU2049
.LBB244:
	.loc 3 174 5 discriminator 5 view .LVU2050
.LBB245:
.LBI245:
	.loc 2 248 59 discriminator 5 view .LVU2051
.LBB246:
	.loc 2 250 3 discriminator 5 view .LVU2052
	.loc 2 252 3 discriminator 5 view .LVU2053
	.syntax unified
@ 252 "../../../../../../components/toolchain/cmsis/include/cmsis_gcc.h" 1
	MRS r10, basepri
@ 0 "" 2
.LVL561:
	.loc 2 253 3 discriminator 5 view .LVU2054
	.loc 2 253 3 is_stmt 0 discriminator 5 view .LVU2055
	.thumb
	.syntax unified
.LBE246:
.LBE245:
	.loc 3 175 5 is_stmt 1 discriminator 5 view .LVU2056
.LBB247:
.LBI247:
	.loc 2 262 55 discriminator 5 view .LVU2057
.LBB248:
	.loc 2 264 3 discriminator 5 view .LVU2058
	movs	r3, #64
	.syntax unified
@ 264 "../../../../../../components/toolchain/cmsis/include/cmsis_gcc.h" 1
	MSR basepri, r3
@ 0 "" 2
.LVL562:
	.loc 2 264 3 is_stmt 0 discriminator 5 view .LVU2059
	.thumb
	.syntax unified
.LBE248:
.LBE247:
	.loc 3 176 5 is_stmt 1 discriminator 5 view .LVU2060
	.loc 3 176 5 is_stmt 0 discriminator 5 view .LVU2061
.LBE244:
.LBE243:
	.loc 1 4697 4 is_stmt 1 discriminator 5 view .LVU2062
	.loc 1 4697 6 is_stmt 0 discriminator 5 view .LVU2063
	cbz	r5, .L514
	.loc 1 4699 5 is_stmt 1 view .LVU2064
	.loc 1 4699 42 is_stmt 0 view .LVU2065
	ldr	r3, [r4, #76]
	.loc 1 4699 35 view .LVU2066
	str	r3, [r5]
.L514:
	.loc 1 4702 4 is_stmt 1 view .LVU2067
	.loc 1 4702 26 is_stmt 0 view .LVU2068
	ldrb	r9, [r4, #80]	@ zero_extendqisi2
	uxtb	r9, r9
.LVL563:
	.loc 1 4703 4 is_stmt 1 view .LVU2069
	.loc 1 4703 25 is_stmt 0 view .LVU2070
	movs	r3, #2
	strb	r3, [r4, #80]
	.loc 1 4705 4 is_stmt 1 view .LVU2071
	subs	r3, r6, #1
	cmp	r3, #3
	bhi	.L526
	tbb	[pc, r3]
.L517:
	.byte	(.L520-.L517)/2
	.byte	(.L519-.L517)/2
	.byte	(.L518-.L517)/2
	.byte	(.L516-.L517)/2
.LVL564:
	.p2align 1
.L529:
	.loc 1 4673 42 discriminator 4 view .LVU2072
	ldr	r1, .L531
.LVL565:
	.loc 1 4673 42 is_stmt 0 discriminator 4 view .LVU2073
	movw	r0, #4673
.LVL566:
	.loc 1 4673 42 discriminator 4 view .LVU2074
	bl	assert_nrf_callback
.LVL567:
	.loc 1 4673 42 discriminator 4 view .LVU2075
	b	.L513
.LVL568:
.L520:
	.loc 1 4708 6 is_stmt 1 view .LVU2076
	.loc 1 4708 29 is_stmt 0 view .LVU2077
	ldr	r3, [r4, #76]
	orr	r3, r3, r8
	str	r3, [r4, #76]
	.loc 1 4709 6 is_stmt 1 view .LVU2078
	.loc 1 4670 13 is_stmt 0 view .LVU2079
	mov	fp, #1
.L515:
.LVL569:
	.loc 1 4737 4 is_stmt 1 view .LVU2080
	mov	r0, r4
	bl	SEGGER_SYSVIEW_ShrinkId
.LVL570:
	mov	r1, r0
	str	r7, [sp, #4]
	str	r5, [sp]
	mov	r3, r6
	mov	r2, r8
	movs	r0, #63
	bl	SEGGER_SYSVIEW_RecordU32x5
.LVL571:
	.loc 1 4741 4 view .LVU2081
	.loc 1 4741 6 is_stmt 0 view .LVU2082
	cmp	r9, #1
	beq	.L530
.LVL572:
.L521:
	.loc 1 4776 6 is_stmt 1 view .LVU2083
	.loc 1 4780 3 view .LVU2084
.LBB249:
.LBI249:
	.loc 2 262 55 view .LVU2085
.LBB250:
	.loc 2 264 3 view .LVU2086
	.syntax unified
@ 264 "../../../../../../components/toolchain/cmsis/include/cmsis_gcc.h" 1
	MSR basepri, r10
@ 0 "" 2
.LVL573:
	.loc 2 264 3 is_stmt 0 view .LVU2087
	.thumb
	.syntax unified
.LBE250:
.LBE249:
	.loc 1 4782 3 is_stmt 1 view .LVU2088
	.loc 1 4783 2 is_stmt 0 view .LVU2089
	mov	r0, fp
	add	sp, sp, #12
.LCFI70:
	@ sp needed
	pop	{r4, r5, r6, r7, r8, r9, r10, fp, pc}
.LVL574:
.L519:
.LCFI71:
	.loc 1 4712 6 is_stmt 1 view .LVU2090
	.loc 1 4712 13 is_stmt 0 view .LVU2091
	ldr	r3, [r4, #76]
	.loc 1 4712 32 view .LVU2092
	adds	r3, r3, #1
	str	r3, [r4, #76]
	.loc 1 4713 6 is_stmt 1 view .LVU2093
	.loc 1 4670 13 is_stmt 0 view .LVU2094
	mov	fp, #1
	.loc 1 4713 6 view .LVU2095
	b	.L515
.L518:
	.loc 1 4716 6 is_stmt 1 view .LVU2096
	.loc 1 4716 29 is_stmt 0 view .LVU2097
	str	r8, [r4, #76]
	.loc 1 4717 6 is_stmt 1 view .LVU2098
	.loc 1 4670 13 is_stmt 0 view .LVU2099
	mov	fp, #1
	.loc 1 4717 6 view .LVU2100
	b	.L515
.L516:
	.loc 1 4720 6 is_stmt 1 view .LVU2101
	.loc 1 4720 8 is_stmt 0 view .LVU2102
	cmp	r9, #2
	beq	.L527
	.loc 1 4722 7 is_stmt 1 view .LVU2103
	.loc 1 4722 30 is_stmt 0 view .LVU2104
	str	r8, [r4, #76]
	.loc 1 4670 13 view .LVU2105
	mov	fp, #1
	b	.L515
.L526:
	.loc 1 4703 25 view .LVU2106
	mov	fp, #1
	b	.L515
.L527:
	.loc 1 4727 15 view .LVU2107
	mov	fp, #0
	b	.L515
.LVL575:
.L530:
	.loc 1 4744 5 is_stmt 1 discriminator 1 view .LVU2108
	.loc 1 4744 14 discriminator 1 view .LVU2109
	.loc 1 4744 50 is_stmt 0 discriminator 1 view .LVU2110
	ldr	r3, [r4, #40]
	.loc 1 4744 17 discriminator 1 view .LVU2111
	cbz	r3, .L522
	.loc 1 4744 17 is_stmt 1 discriminator 4 view .LVU2112
	ldr	r1, .L531
	movw	r0, #4744
	bl	assert_nrf_callback
.LVL576:
.L522:
	.loc 1 4744 136 discriminator 5 view .LVU2113
	.loc 1 4746 5 discriminator 5 view .LVU2114
	.loc 1 4746 30 is_stmt 0 discriminator 5 view .LVU2115
	ldr	r3, .L531+4
	ldr	r3, [r3]
	.loc 1 4746 7 discriminator 5 view .LVU2116
	cbnz	r3, .L523
	.loc 1 4748 6 is_stmt 1 view .LVU2117
	.loc 1 4748 15 is_stmt 0 view .LVU2118
	adds	r5, r4, #4
.LVL577:
	.loc 1 4748 15 view .LVU2119
	mov	r0, r5
	bl	uxListRemove
.LVL578:
	.loc 1 4749 6 is_stmt 1 view .LVU2120
	mov	r0, r4
	bl	SEGGER_SYSVIEW_OnTaskStartReady
.LVL579:
	.loc 1 4749 61 view .LVU2121
	.loc 1 4749 107 is_stmt 0 view .LVU2122
	ldr	r0, [r4, #44]
	.loc 1 4749 93 view .LVU2123
	movs	r3, #1
	lsls	r3, r3, r0
	.loc 1 4749 84 view .LVU2124
	ldr	r2, .L531+8
	ldr	r1, [r2]
	orrs	r3, r3, r1
	str	r3, [r2]
	.loc 1 4749 125 is_stmt 1 view .LVU2125
	add	r0, r0, r0, lsl #2
	mov	r1, r5
	ldr	r3, .L531+12
	add	r0, r3, r0, lsl #2
	bl	vListInsertEnd
.LVL580:
	.loc 1 4749 224 view .LVU2126
.L524:
	.loc 1 4758 5 view .LVU2127
	.loc 1 4758 14 is_stmt 0 view .LVU2128
	ldr	r2, [r4, #44]
	.loc 1 4758 41 view .LVU2129
	ldr	r3, .L531+16
	ldr	r3, [r3]
	ldr	r3, [r3, #44]
	.loc 1 4758 7 view .LVU2130
	cmp	r2, r3
	bls	.L521
	.loc 1 4762 6 is_stmt 1 view .LVU2131
	.loc 1 4762 8 is_stmt 0 view .LVU2132
	cbz	r7, .L525
	.loc 1 4764 7 is_stmt 1 view .LVU2133
	.loc 1 4764 34 is_stmt 0 view .LVU2134
	movs	r3, #1
	str	r3, [r7]
	b	.L521
.LVL581:
.L523:
	.loc 1 4755 6 is_stmt 1 view .LVU2135
	add	r1, r4, #24
	ldr	r0, .L531+20
	bl	vListInsertEnd
.LVL582:
	b	.L524
.LVL583:
.L525:
	.loc 1 4771 7 view .LVU2136
	.loc 1 4771 21 is_stmt 0 view .LVU2137
	ldr	r3, .L531+24
	movs	r2, #1
	str	r2, [r3]
	b	.L521
.L532:
	.align	2
.L531:
	.word	.LC0
	.word	.LANCHOR16
	.word	.LANCHOR13
	.word	.LANCHOR4
	.word	.LANCHOR10
	.word	.LANCHOR3
	.word	.LANCHOR20
.LFE256:
	.size	xTaskGenericNotifyFromISR, .-xTaskGenericNotifyFromISR
	.section	.text.vTaskNotifyGiveFromISR,"ax",%progbits
	.align	1
	.global	vTaskNotifyGiveFromISR
	.syntax unified
	.thumb
	.thumb_func
	.fpu fpv4-sp-d16
	.type	vTaskNotifyGiveFromISR, %function
vTaskNotifyGiveFromISR:
.LVL584:
.LFB257:
	.loc 1 4791 2 is_stmt 1 view -0
	@ args = 0, pretend = 0, frame = 0
	@ frame_needed = 0, uses_anonymous_args = 0
	.loc 1 4791 2 is_stmt 0 view .LVU2139
	push	{r3, r4, r5, r6, r7, lr}
.LCFI72:
	mov	r5, r1
	.loc 1 4792 2 is_stmt 1 view .LVU2140
	.loc 1 4793 2 view .LVU2141
	.loc 1 4794 2 view .LVU2142
	.loc 1 4796 3 view .LVU2143
	.loc 1 4796 12 view .LVU2144
	.loc 1 4796 15 is_stmt 0 view .LVU2145
	mov	r4, r0
	cbz	r0, .L541
.LVL585:
.L534:
	.loc 1 4796 161 is_stmt 1 discriminator 5 view .LVU2146
	.loc 1 4814 3 discriminator 5 view .LVU2147
	bl	vPortValidateInterruptPriority
.LVL586:
	.loc 1 4816 3 discriminator 5 view .LVU2148
	.loc 1 4818 3 discriminator 5 view .LVU2149
.LBB251:
.LBI251:
	.loc 3 172 24 discriminator 5 view .LVU2150
.LBB252:
	.loc 3 174 5 discriminator 5 view .LVU2151
.LBB253:
.LBI253:
	.loc 2 248 59 discriminator 5 view .LVU2152
.LBB254:
	.loc 2 250 3 discriminator 5 view .LVU2153
	.loc 2 252 3 discriminator 5 view .LVU2154
	.syntax unified
@ 252 "../../../../../../components/toolchain/cmsis/include/cmsis_gcc.h" 1
	MRS r7, basepri
@ 0 "" 2
.LVL587:
	.loc 2 253 3 discriminator 5 view .LVU2155
	.loc 2 253 3 is_stmt 0 discriminator 5 view .LVU2156
	.thumb
	.syntax unified
.LBE254:
.LBE253:
	.loc 3 175 5 is_stmt 1 discriminator 5 view .LVU2157
.LBB255:
.LBI255:
	.loc 2 262 55 discriminator 5 view .LVU2158
.LBB256:
	.loc 2 264 3 discriminator 5 view .LVU2159
	movs	r3, #64
	.syntax unified
@ 264 "../../../../../../components/toolchain/cmsis/include/cmsis_gcc.h" 1
	MSR basepri, r3
@ 0 "" 2
.LVL588:
	.loc 2 264 3 is_stmt 0 discriminator 5 view .LVU2160
	.thumb
	.syntax unified
.LBE256:
.LBE255:
	.loc 3 176 5 is_stmt 1 discriminator 5 view .LVU2161
	.loc 3 176 5 is_stmt 0 discriminator 5 view .LVU2162
.LBE252:
.LBE251:
	.loc 1 4820 4 is_stmt 1 discriminator 5 view .LVU2163
	.loc 1 4820 26 is_stmt 0 discriminator 5 view .LVU2164
	ldrb	r6, [r4, #80]	@ zero_extendqisi2
	uxtb	r6, r6
.LVL589:
	.loc 1 4821 4 is_stmt 1 discriminator 5 view .LVU2165
	.loc 1 4821 25 is_stmt 0 discriminator 5 view .LVU2166
	movs	r3, #2
	strb	r3, [r4, #80]
	.loc 1 4825 4 is_stmt 1 discriminator 5 view .LVU2167
	.loc 1 4825 11 is_stmt 0 discriminator 5 view .LVU2168
	ldr	r3, [r4, #76]
	.loc 1 4825 30 discriminator 5 view .LVU2169
	adds	r3, r3, #1
	str	r3, [r4, #76]
	.loc 1 4827 4 is_stmt 1 discriminator 5 view .LVU2170
	mov	r0, r4
	bl	SEGGER_SYSVIEW_ShrinkId
.LVL590:
	mov	r1, r0
	mov	r2, r5
	movs	r0, #65
	bl	SEGGER_SYSVIEW_RecordU32x2
.LVL591:
	.loc 1 4831 4 discriminator 5 view .LVU2171
	.loc 1 4831 6 is_stmt 0 discriminator 5 view .LVU2172
	cmp	r6, #1
	beq	.L542
.LVL592:
.L535:
	.loc 1 4866 6 is_stmt 1 view .LVU2173
	.loc 1 4870 3 view .LVU2174
.LBB257:
.LBI257:
	.loc 2 262 55 view .LVU2175
.LBB258:
	.loc 2 264 3 view .LVU2176
	.syntax unified
@ 264 "../../../../../../components/toolchain/cmsis/include/cmsis_gcc.h" 1
	MSR basepri, r7
@ 0 "" 2
.LVL593:
	.loc 2 264 3 is_stmt 0 view .LVU2177
	.thumb
	.syntax unified
.LBE258:
.LBE257:
	.loc 1 4871 2 view .LVU2178
	pop	{r3, r4, r5, r6, r7, pc}
.LVL594:
.L541:
	.loc 1 4796 42 is_stmt 1 discriminator 4 view .LVU2179
	ldr	r1, .L543
.LVL595:
	.loc 1 4796 42 is_stmt 0 discriminator 4 view .LVU2180
	movw	r0, #4796
.LVL596:
	.loc 1 4796 42 discriminator 4 view .LVU2181
	bl	assert_nrf_callback
.LVL597:
	b	.L534
.LVL598:
.L542:
	.loc 1 4834 5 is_stmt 1 discriminator 1 view .LVU2182
	.loc 1 4834 14 discriminator 1 view .LVU2183
	.loc 1 4834 50 is_stmt 0 discriminator 1 view .LVU2184
	ldr	r3, [r4, #40]
	.loc 1 4834 17 discriminator 1 view .LVU2185
	cbz	r3, .L536
	.loc 1 4834 17 is_stmt 1 discriminator 4 view .LVU2186
	ldr	r1, .L543
	movw	r0, #4834
	bl	assert_nrf_callback
.LVL599:
.L536:
	.loc 1 4834 136 discriminator 5 view .LVU2187
	.loc 1 4836 5 discriminator 5 view .LVU2188
	.loc 1 4836 30 is_stmt 0 discriminator 5 view .LVU2189
	ldr	r3, .L543+4
	ldr	r3, [r3]
	.loc 1 4836 7 discriminator 5 view .LVU2190
	cbnz	r3, .L537
	.loc 1 4838 6 is_stmt 1 view .LVU2191
	.loc 1 4838 15 is_stmt 0 view .LVU2192
	adds	r6, r4, #4
.LVL600:
	.loc 1 4838 15 view .LVU2193
	mov	r0, r6
	bl	uxListRemove
.LVL601:
	.loc 1 4839 6 is_stmt 1 view .LVU2194
	mov	r0, r4
	bl	SEGGER_SYSVIEW_OnTaskStartReady
.LVL602:
	.loc 1 4839 61 view .LVU2195
	.loc 1 4839 107 is_stmt 0 view .LVU2196
	ldr	r0, [r4, #44]
	.loc 1 4839 93 view .LVU2197
	movs	r3, #1
	lsls	r3, r3, r0
	.loc 1 4839 84 view .LVU2198
	ldr	r2, .L543+8
	ldr	r1, [r2]
	orrs	r3, r3, r1
	str	r3, [r2]
	.loc 1 4839 125 is_stmt 1 view .LVU2199
	add	r0, r0, r0, lsl #2
	mov	r1, r6
	ldr	r3, .L543+12
	add	r0, r3, r0, lsl #2
	bl	vListInsertEnd
.LVL603:
	.loc 1 4839 224 view .LVU2200
.L538:
	.loc 1 4848 5 view .LVU2201
	.loc 1 4848 14 is_stmt 0 view .LVU2202
	ldr	r2, [r4, #44]
	.loc 1 4848 41 view .LVU2203
	ldr	r3, .L543+16
	ldr	r3, [r3]
	ldr	r3, [r3, #44]
	.loc 1 4848 7 view .LVU2204
	cmp	r2, r3
	bls	.L535
	.loc 1 4852 6 is_stmt 1 view .LVU2205
	.loc 1 4852 8 is_stmt 0 view .LVU2206
	cbz	r5, .L539
	.loc 1 4854 7 is_stmt 1 view .LVU2207
	.loc 1 4854 34 is_stmt 0 view .LVU2208
	movs	r3, #1
	str	r3, [r5]
	b	.L535
.LVL604:
.L537:
	.loc 1 4845 6 is_stmt 1 view .LVU2209
	add	r1, r4, #24
	ldr	r0, .L543+20
	bl	vListInsertEnd
.LVL605:
	b	.L538
.LVL606:
.L539:
	.loc 1 4861 7 view .LVU2210
	.loc 1 4861 21 is_stmt 0 view .LVU2211
	ldr	r3, .L543+24
	movs	r2, #1
	str	r2, [r3]
	b	.L535
.L544:
	.align	2
.L543:
	.word	.LC0
	.word	.LANCHOR16
	.word	.LANCHOR13
	.word	.LANCHOR4
	.word	.LANCHOR10
	.word	.LANCHOR3
	.word	.LANCHOR20
.LFE257:
	.size	vTaskNotifyGiveFromISR, .-vTaskNotifyGiveFromISR
	.section	.text.xTaskNotifyStateClear,"ax",%progbits
	.align	1
	.global	xTaskNotifyStateClear
	.syntax unified
	.thumb
	.thumb_func
	.fpu fpv4-sp-d16
	.type	xTaskNotifyStateClear, %function
xTaskNotifyStateClear:
.LVL607:
.LFB258:
	.loc 1 4880 2 is_stmt 1 view -0
	@ args = 0, pretend = 0, frame = 0
	@ frame_needed = 0, uses_anonymous_args = 0
	.loc 1 4880 2 is_stmt 0 view .LVU2213
	push	{r4, lr}
.LCFI73:
	.loc 1 4881 2 is_stmt 1 view .LVU2214
	.loc 1 4882 2 view .LVU2215
	.loc 1 4886 3 view .LVU2216
	.loc 1 4886 39 is_stmt 0 view .LVU2217
	mov	r4, r0
	cbz	r0, .L550
.LVL608:
.L546:
	.loc 1 4888 3 is_stmt 1 discriminator 4 view .LVU2218
	bl	vPortEnterCritical
.LVL609:
	.loc 1 4890 4 discriminator 4 view .LVU2219
	.loc 1 4890 13 is_stmt 0 discriminator 4 view .LVU2220
	ldrb	r3, [r4, #80]	@ zero_extendqisi2
	uxtb	r3, r3
	.loc 1 4890 6 discriminator 4 view .LVU2221
	cmp	r3, #2
	beq	.L551
	.loc 1 4897 13 view .LVU2222
	movs	r4, #0
.LVL610:
.L547:
	.loc 1 4900 3 is_stmt 1 view .LVU2223
	bl	vPortExitCritical
.LVL611:
	.loc 1 4902 3 view .LVU2224
	.loc 1 4903 2 is_stmt 0 view .LVU2225
	mov	r0, r4
	pop	{r4, pc}
.LVL612:
.L550:
	.loc 1 4886 39 discriminator 1 view .LVU2226
	ldr	r3, .L552
	ldr	r4, [r3]
.LVL613:
	.loc 1 4886 39 discriminator 1 view .LVU2227
	b	.L546
.LVL614:
.L551:
	.loc 1 4892 5 is_stmt 1 view .LVU2228
	.loc 1 4892 26 is_stmt 0 view .LVU2229
	movs	r3, #0
	strb	r3, [r4, #80]
	.loc 1 4893 5 is_stmt 1 view .LVU2230
.LVL615:
	.loc 1 4893 13 is_stmt 0 view .LVU2231
	movs	r4, #1
.LVL616:
	.loc 1 4893 13 view .LVU2232
	b	.L547
.L553:
	.align	2
.L552:
	.word	.LANCHOR10
.LFE258:
	.size	xTaskNotifyStateClear, .-xTaskNotifyStateClear
	.global	pxCurrentTCB
	.section	.bss.pxCurrentTCB,"aw",%nobits
	.align	2
	.set	.LANCHOR10,. + 0
	.type	pxCurrentTCB, %object
	.size	pxCurrentTCB, 4
pxCurrentTCB:
	.space	4
	.section	.bss.pxDelayedTaskList,"aw",%nobits
	.align	2
	.set	.LANCHOR0,. + 0
	.type	pxDelayedTaskList, %object
	.size	pxDelayedTaskList, 4
pxDelayedTaskList:
	.space	4
	.section	.bss.pxOverflowDelayedTaskList,"aw",%nobits
	.align	2
	.set	.LANCHOR8,. + 0
	.type	pxOverflowDelayedTaskList, %object
	.size	pxOverflowDelayedTaskList, 4
pxOverflowDelayedTaskList:
	.space	4
	.section	.bss.pxReadyTasksLists,"aw",%nobits
	.align	2
	.set	.LANCHOR4,. + 0
	.type	pxReadyTasksLists, %object
	.size	pxReadyTasksLists, 140
pxReadyTasksLists:
	.space	140
	.section	.bss.uxCurrentNumberOfTasks,"aw",%nobits
	.align	2
	.set	.LANCHOR9,. + 0
	.type	uxCurrentNumberOfTasks, %object
	.size	uxCurrentNumberOfTasks, 4
uxCurrentNumberOfTasks:
	.space	4
	.section	.bss.uxDeletedTasksWaitingCleanUp,"aw",%nobits
	.align	2
	.set	.LANCHOR14,. + 0
	.type	uxDeletedTasksWaitingCleanUp, %object
	.size	uxDeletedTasksWaitingCleanUp, 4
uxDeletedTasksWaitingCleanUp:
	.space	4
	.section	.bss.uxPendedTicks,"aw",%nobits
	.align	2
	.set	.LANCHOR19,. + 0
	.type	uxPendedTicks, %object
	.size	uxPendedTicks, 4
uxPendedTicks:
	.space	4
	.section	.bss.uxSchedulerSuspended,"aw",%nobits
	.align	2
	.set	.LANCHOR16,. + 0
	.type	uxSchedulerSuspended, %object
	.size	uxSchedulerSuspended, 4
uxSchedulerSuspended:
	.space	4
	.section	.bss.uxTaskNumber,"aw",%nobits
	.align	2
	.set	.LANCHOR12,. + 0
	.type	uxTaskNumber, %object
	.size	uxTaskNumber, 4
uxTaskNumber:
	.space	4
	.section	.bss.uxTopReadyPriority,"aw",%nobits
	.align	2
	.set	.LANCHOR13,. + 0
	.type	uxTopReadyPriority, %object
	.size	uxTopReadyPriority, 4
uxTopReadyPriority:
	.space	4
	.section	.bss.xDelayedTaskList1,"aw",%nobits
	.align	2
	.set	.LANCHOR5,. + 0
	.type	xDelayedTaskList1, %object
	.size	xDelayedTaskList1, 20
xDelayedTaskList1:
	.space	20
	.section	.bss.xDelayedTaskList2,"aw",%nobits
	.align	2
	.set	.LANCHOR6,. + 0
	.type	xDelayedTaskList2, %object
	.size	xDelayedTaskList2, 20
xDelayedTaskList2:
	.space	20
	.section	.bss.xIdleTaskHandle,"aw",%nobits
	.align	2
	.set	.LANCHOR17,. + 0
	.type	xIdleTaskHandle, %object
	.size	xIdleTaskHandle, 4
xIdleTaskHandle:
	.space	4
	.section	.bss.xNextTaskUnblockTime,"aw",%nobits
	.align	2
	.set	.LANCHOR1,. + 0
	.type	xNextTaskUnblockTime, %object
	.size	xNextTaskUnblockTime, 4
xNextTaskUnblockTime:
	.space	4
	.section	.bss.xNumOfOverflows,"aw",%nobits
	.align	2
	.set	.LANCHOR18,. + 0
	.type	xNumOfOverflows, %object
	.size	xNumOfOverflows, 4
xNumOfOverflows:
	.space	4
	.section	.bss.xPendingReadyList,"aw",%nobits
	.align	2
	.set	.LANCHOR3,. + 0
	.type	xPendingReadyList, %object
	.size	xPendingReadyList, 20
xPendingReadyList:
	.space	20
	.section	.bss.xSchedulerRunning,"aw",%nobits
	.align	2
	.set	.LANCHOR11,. + 0
	.type	xSchedulerRunning, %object
	.size	xSchedulerRunning, 4
xSchedulerRunning:
	.space	4
	.section	.bss.xSuspendedTaskList,"aw",%nobits
	.align	2
	.set	.LANCHOR2,. + 0
	.type	xSuspendedTaskList, %object
	.size	xSuspendedTaskList, 20
xSuspendedTaskList:
	.space	20
	.section	.bss.xTasksWaitingTermination,"aw",%nobits
	.align	2
	.set	.LANCHOR7,. + 0
	.type	xTasksWaitingTermination, %object
	.size	xTasksWaitingTermination, 20
xTasksWaitingTermination:
	.space	20
	.section	.bss.xTickCount,"aw",%nobits
	.align	2
	.set	.LANCHOR15,. + 0
	.type	xTickCount, %object
	.size	xTickCount, 4
xTickCount:
	.space	4
	.section	.bss.xYieldPending,"aw",%nobits
	.align	2
	.set	.LANCHOR20,. + 0
	.type	xYieldPending, %object
	.size	xYieldPending, 4
xYieldPending:
	.space	4
	.section	.debug_frame,"",%progbits
.Lframe0:
	.4byte	.LECIE0-.LSCIE0
.LSCIE0:
	.4byte	0xffffffff
	.byte	0x3
	.ascii	"\000"
	.uleb128 0x1
	.sleb128 -4
	.uleb128 0xe
	.byte	0xc
	.uleb128 0xd
	.uleb128 0
	.align	2
.LECIE0:
.LSFDE0:
	.4byte	.LEFDE0-.LASFDE0
.LASFDE0:
	.4byte	.Lframe0
	.4byte	.LFB242
	.4byte	.LFE242-.LFB242
	.align	2
.LEFDE0:
.LSFDE2:
	.4byte	.LEFDE2-.LASFDE2
.LASFDE2:
	.4byte	.Lframe0
	.4byte	.LFB245
	.4byte	.LFE245-.LFB245
	.align	2
.LEFDE2:
.LSFDE4:
	.4byte	.LEFDE4-.LASFDE4
.LASFDE4:
	.4byte	.Lframe0
	.4byte	.LFB244
	.4byte	.LFE244-.LFB244
	.byte	0x4
	.4byte	.LCFI0-.LFB244
	.byte	0xe
	.uleb128 0x8
	.byte	0x84
	.uleb128 0x2
	.byte	0x8e
	.uleb128 0x1
	.align	2
.LEFDE4:
.LSFDE6:
	.4byte	.LEFDE6-.LASFDE6
.LASFDE6:
	.4byte	.Lframe0
	.4byte	.LFB211
	.4byte	.LFE211-.LFB211
	.byte	0x4
	.4byte	.LCFI1-.LFB211
	.byte	0xe
	.uleb128 0x8
	.byte	0x84
	.uleb128 0x2
	.byte	0x8e
	.uleb128 0x1
	.align	2
.LEFDE6:
.LSFDE8:
	.4byte	.LEFDE8-.LASFDE8
.LASFDE8:
	.4byte	.Lframe0
	.4byte	.LFB201
	.4byte	.LFE201-.LFB201
	.byte	0x4
	.4byte	.LCFI2-.LFB201
	.byte	0xe
	.uleb128 0x20
	.byte	0x84
	.uleb128 0x8
	.byte	0x85
	.uleb128 0x7
	.byte	0x86
	.uleb128 0x6
	.byte	0x87
	.uleb128 0x5
	.byte	0x88
	.uleb128 0x4
	.byte	0x89
	.uleb128 0x3
	.byte	0x8a
	.uleb128 0x2
	.byte	0x8e
	.uleb128 0x1
	.align	2
.LEFDE8:
.LSFDE10:
	.4byte	.LEFDE10-.LASFDE10
.LASFDE10:
	.4byte	.Lframe0
	.4byte	.LFB238
	.4byte	.LFE238-.LFB238
	.byte	0x4
	.4byte	.LCFI3-.LFB238
	.byte	0xe
	.uleb128 0x10
	.byte	0x83
	.uleb128 0x4
	.byte	0x84
	.uleb128 0x3
	.byte	0x85
	.uleb128 0x2
	.byte	0x8e
	.uleb128 0x1
	.align	2
.LEFDE10:
.LSFDE12:
	.4byte	.LEFDE12-.LASFDE12
.LASFDE12:
	.4byte	.Lframe0
	.4byte	.LFB202
	.4byte	.LFE202-.LFB202
	.byte	0x4
	.4byte	.LCFI4-.LFB202
	.byte	0xe
	.uleb128 0x8
	.byte	0x84
	.uleb128 0x2
	.byte	0x8e
	.uleb128 0x1
	.byte	0x4
	.4byte	.LCFI5-.LCFI4
	.byte	0xe
	.uleb128 0x10
	.byte	0x4
	.4byte	.LCFI6-.LCFI5
	.byte	0xa
	.byte	0xe
	.uleb128 0x8
	.byte	0x4
	.4byte	.LCFI7-.LCFI6
	.byte	0xb
	.align	2
.LEFDE12:
.LSFDE14:
	.4byte	.LEFDE14-.LASFDE14
.LASFDE14:
	.4byte	.Lframe0
	.4byte	.LFB239
	.4byte	.LFE239-.LFB239
	.byte	0x4
	.4byte	.LCFI8-.LFB239
	.byte	0xe
	.uleb128 0x8
	.byte	0x84
	.uleb128 0x2
	.byte	0x8e
	.uleb128 0x1
	.byte	0x4
	.4byte	.LCFI9-.LCFI8
	.byte	0xe
	.uleb128 0
	.byte	0xc4
	.byte	0xce
	.align	2
.LEFDE14:
.LSFDE16:
	.4byte	.LEFDE16-.LASFDE16
.LASFDE16:
	.4byte	.Lframe0
	.4byte	.LFB237
	.4byte	.LFE237-.LFB237
	.byte	0x4
	.4byte	.LCFI10-.LFB237
	.byte	0xe
	.uleb128 0x8
	.byte	0x83
	.uleb128 0x2
	.byte	0x8e
	.uleb128 0x1
	.align	2
.LEFDE16:
.LSFDE18:
	.4byte	.LEFDE18-.LASFDE18
.LASFDE18:
	.4byte	.Lframe0
	.4byte	.LFB259
	.4byte	.LFE259-.LFB259
	.byte	0x4
	.4byte	.LCFI11-.LFB259
	.byte	0xe
	.uleb128 0x10
	.byte	0x84
	.uleb128 0x4
	.byte	0x85
	.uleb128 0x3
	.byte	0x86
	.uleb128 0x2
	.byte	0x8e
	.uleb128 0x1
	.align	2
.LEFDE18:
.LSFDE20:
	.4byte	.LEFDE20-.LASFDE20
.LASFDE20:
	.4byte	.Lframe0
	.4byte	.LFB200
	.4byte	.LFE200-.LFB200
	.byte	0x4
	.4byte	.LCFI12-.LFB200
	.byte	0xe
	.uleb128 0x1c
	.byte	0x84
	.uleb128 0x7
	.byte	0x85
	.uleb128 0x6
	.byte	0x86
	.uleb128 0x5
	.byte	0x87
	.uleb128 0x4
	.byte	0x88
	.uleb128 0x3
	.byte	0x89
	.uleb128 0x2
	.byte	0x8e
	.uleb128 0x1
	.byte	0x4
	.4byte	.LCFI13-.LCFI12
	.byte	0xe
	.uleb128 0x30
	.byte	0x4
	.4byte	.LCFI14-.LCFI13
	.byte	0xa
	.byte	0xe
	.uleb128 0x1c
	.byte	0x4
	.4byte	.LCFI15-.LCFI14
	.byte	0xb
	.align	2
.LEFDE20:
.LSFDE22:
	.4byte	.LEFDE22-.LASFDE22
.LASFDE22:
	.4byte	.Lframe0
	.4byte	.LFB203
	.4byte	.LFE203-.LFB203
	.byte	0x4
	.4byte	.LCFI16-.LFB203
	.byte	0xe
	.uleb128 0x10
	.byte	0x83
	.uleb128 0x4
	.byte	0x84
	.uleb128 0x3
	.byte	0x85
	.uleb128 0x2
	.byte	0x8e
	.uleb128 0x1
	.align	2
.LEFDE22:
.LSFDE24:
	.4byte	.LEFDE24-.LASFDE24
.LASFDE24:
	.4byte	.Lframe0
	.4byte	.LFB206
	.4byte	.LFE206-.LFB206
	.byte	0x4
	.4byte	.LCFI17-.LFB206
	.byte	0xe
	.uleb128 0x10
	.byte	0x83
	.uleb128 0x4
	.byte	0x84
	.uleb128 0x3
	.byte	0x85
	.uleb128 0x2
	.byte	0x8e
	.uleb128 0x1
	.align	2
.LEFDE24:
.LSFDE26:
	.4byte	.LEFDE26-.LASFDE26
.LASFDE26:
	.4byte	.Lframe0
	.4byte	.LFB207
	.4byte	.LFE207-.LFB207
	.byte	0x4
	.4byte	.LCFI18-.LFB207
	.byte	0xe
	.uleb128 0x8
	.byte	0x84
	.uleb128 0x2
	.byte	0x8e
	.uleb128 0x1
	.align	2
.LEFDE26:
.LSFDE28:
	.4byte	.LEFDE28-.LASFDE28
.LASFDE28:
	.4byte	.Lframe0
	.4byte	.LFB208
	.4byte	.LFE208-.LFB208
	.byte	0x4
	.4byte	.LCFI19-.LFB208
	.byte	0xe
	.uleb128 0x8
	.byte	0x84
	.uleb128 0x2
	.byte	0x8e
	.uleb128 0x1
	.align	2
.LEFDE28:
.LSFDE30:
	.4byte	.LEFDE30-.LASFDE30
.LASFDE30:
	.4byte	.Lframe0
	.4byte	.LFB209
	.4byte	.LFE209-.LFB209
	.byte	0x4
	.4byte	.LCFI20-.LFB209
	.byte	0xe
	.uleb128 0x18
	.byte	0x84
	.uleb128 0x6
	.byte	0x85
	.uleb128 0x5
	.byte	0x86
	.uleb128 0x4
	.byte	0x87
	.uleb128 0x3
	.byte	0x88
	.uleb128 0x2
	.byte	0x8e
	.uleb128 0x1
	.byte	0x4
	.4byte	.LCFI21-.LCFI20
	.byte	0xe
	.uleb128 0x20
	.byte	0x4
	.4byte	.LCFI22-.LCFI21
	.byte	0xa
	.byte	0xe
	.uleb128 0x18
	.byte	0x4
	.4byte	.LCFI23-.LCFI22
	.byte	0xb
	.align	2
.LEFDE30:
.LSFDE32:
	.4byte	.LEFDE32-.LASFDE32
.LASFDE32:
	.4byte	.Lframe0
	.4byte	.LFB212
	.4byte	.LFE212-.LFB212
	.byte	0x4
	.4byte	.LCFI24-.LFB212
	.byte	0xe
	.uleb128 0x10
	.byte	0x83
	.uleb128 0x4
	.byte	0x84
	.uleb128 0x3
	.byte	0x85
	.uleb128 0x2
	.byte	0x8e
	.uleb128 0x1
	.align	2
.LEFDE32:
.LSFDE34:
	.4byte	.LEFDE34-.LASFDE34
.LASFDE34:
	.4byte	.Lframe0
	.4byte	.LFB213
	.4byte	.LFE213-.LFB213
	.byte	0x4
	.4byte	.LCFI25-.LFB213
	.byte	0xe
	.uleb128 0x18
	.byte	0x83
	.uleb128 0x6
	.byte	0x84
	.uleb128 0x5
	.byte	0x85
	.uleb128 0x4
	.byte	0x86
	.uleb128 0x3
	.byte	0x87
	.uleb128 0x2
	.byte	0x8e
	.uleb128 0x1
	.align	2
.LEFDE34:
.LSFDE36:
	.4byte	.LEFDE36-.LASFDE36
.LASFDE36:
	.4byte	.Lframe0
	.4byte	.LFB214
	.4byte	.LFE214-.LFB214
	.byte	0x4
	.4byte	.LCFI26-.LFB214
	.byte	0xe
	.uleb128 0x4
	.byte	0x8e
	.uleb128 0x1
	.byte	0x4
	.4byte	.LCFI27-.LCFI26
	.byte	0xe
	.uleb128 0x10
	.byte	0x4
	.4byte	.LCFI28-.LCFI27
	.byte	0xa
	.byte	0xe
	.uleb128 0x4
	.byte	0x4
	.4byte	.LCFI29-.LCFI28
	.byte	0xb
	.align	2
.LEFDE36:
.LSFDE38:
	.4byte	.LEFDE38-.LASFDE38
.LASFDE38:
	.4byte	.Lframe0
	.4byte	.LFB215
	.4byte	.LFE215-.LFB215
	.byte	0x4
	.4byte	.LCFI30-.LFB215
	.byte	0xe
	.uleb128 0x8
	.byte	0x83
	.uleb128 0x2
	.byte	0x8e
	.uleb128 0x1
	.align	2
.LEFDE38:
.LSFDE40:
	.4byte	.LEFDE40-.LASFDE40
.LASFDE40:
	.4byte	.Lframe0
	.4byte	.LFB216
	.4byte	.LFE216-.LFB216
	.align	2
.LEFDE40:
.LSFDE42:
	.4byte	.LEFDE42-.LASFDE42
.LASFDE42:
	.4byte	.Lframe0
	.4byte	.LFB218
	.4byte	.LFE218-.LFB218
	.align	2
.LEFDE42:
.LSFDE44:
	.4byte	.LEFDE44-.LASFDE44
.LASFDE44:
	.4byte	.Lframe0
	.4byte	.LFB219
	.4byte	.LFE219-.LFB219
	.byte	0x4
	.4byte	.LCFI31-.LFB219
	.byte	0xe
	.uleb128 0x8
	.byte	0x83
	.uleb128 0x2
	.byte	0x8e
	.uleb128 0x1
	.align	2
.LEFDE44:
.LSFDE46:
	.4byte	.LEFDE46-.LASFDE46
.LASFDE46:
	.4byte	.Lframe0
	.4byte	.LFB220
	.4byte	.LFE220-.LFB220
	.align	2
.LEFDE46:
.LSFDE48:
	.4byte	.LEFDE48-.LASFDE48
.LASFDE48:
	.4byte	.Lframe0
	.4byte	.LFB221
	.4byte	.LFE221-.LFB221
	.byte	0x4
	.4byte	.LCFI32-.LFB221
	.byte	0xe
	.uleb128 0x8
	.byte	0x84
	.uleb128 0x2
	.byte	0x8e
	.uleb128 0x1
	.align	2
.LEFDE48:
.LSFDE50:
	.4byte	.LEFDE50-.LASFDE50
.LASFDE50:
	.4byte	.Lframe0
	.4byte	.LFB223
	.4byte	.LFE223-.LFB223
	.byte	0x4
	.4byte	.LCFI33-.LFB223
	.byte	0xe
	.uleb128 0x8
	.byte	0x83
	.uleb128 0x2
	.byte	0x8e
	.uleb128 0x1
	.align	2
.LEFDE50:
.LSFDE52:
	.4byte	.LEFDE52-.LASFDE52
.LASFDE52:
	.4byte	.Lframe0
	.4byte	.LFB224
	.4byte	.LFE224-.LFB224
	.byte	0x4
	.4byte	.LCFI34-.LFB224
	.byte	0xe
	.uleb128 0x18
	.byte	0x83
	.uleb128 0x6
	.byte	0x84
	.uleb128 0x5
	.byte	0x85
	.uleb128 0x4
	.byte	0x86
	.uleb128 0x3
	.byte	0x87
	.uleb128 0x2
	.byte	0x8e
	.uleb128 0x1
	.align	2
.LEFDE52:
.LSFDE54:
	.4byte	.LEFDE54-.LASFDE54
.LASFDE54:
	.4byte	.Lframe0
	.4byte	.LFB217
	.4byte	.LFE217-.LFB217
	.byte	0x4
	.4byte	.LCFI35-.LFB217
	.byte	0xe
	.uleb128 0x10
	.byte	0x83
	.uleb128 0x4
	.byte	0x84
	.uleb128 0x3
	.byte	0x85
	.uleb128 0x2
	.byte	0x8e
	.uleb128 0x1
	.align	2
.LEFDE54:
.LSFDE56:
	.4byte	.LEFDE56-.LASFDE56
.LASFDE56:
	.4byte	.Lframe0
	.4byte	.LFB204
	.4byte	.LFE204-.LFB204
	.byte	0x4
	.4byte	.LCFI36-.LFB204
	.byte	0xe
	.uleb128 0x10
	.byte	0x84
	.uleb128 0x4
	.byte	0x85
	.uleb128 0x3
	.byte	0x86
	.uleb128 0x2
	.byte	0x8e
	.uleb128 0x1
	.align	2
.LEFDE56:
.LSFDE58:
	.4byte	.LEFDE58-.LASFDE58
.LASFDE58:
	.4byte	.Lframe0
	.4byte	.LFB205
	.4byte	.LFE205-.LFB205
	.byte	0x4
	.4byte	.LCFI37-.LFB205
	.byte	0xe
	.uleb128 0x8
	.byte	0x84
	.uleb128 0x2
	.byte	0x8e
	.uleb128 0x1
	.align	2
.LEFDE58:
.LSFDE60:
	.4byte	.LEFDE60-.LASFDE60
.LASFDE60:
	.4byte	.Lframe0
	.4byte	.LFB225
	.4byte	.LFE225-.LFB225
	.byte	0x4
	.4byte	.LCFI38-.LFB225
	.byte	0xe
	.uleb128 0x8
	.byte	0x84
	.uleb128 0x2
	.byte	0x8e
	.uleb128 0x1
	.align	2
.LEFDE60:
.LSFDE62:
	.4byte	.LEFDE62-.LASFDE62
.LASFDE62:
	.4byte	.Lframe0
	.4byte	.LFB210
	.4byte	.LFE210-.LFB210
	.byte	0x4
	.4byte	.LCFI39-.LFB210
	.byte	0xe
	.uleb128 0x10
	.byte	0x83
	.uleb128 0x4
	.byte	0x84
	.uleb128 0x3
	.byte	0x85
	.uleb128 0x2
	.byte	0x8e
	.uleb128 0x1
	.align	2
.LEFDE62:
.LSFDE64:
	.4byte	.LEFDE64-.LASFDE64
.LASFDE64:
	.4byte	.Lframe0
	.4byte	.LFB226
	.4byte	.LFE226-.LFB226
	.byte	0x4
	.4byte	.LCFI40-.LFB226
	.byte	0xe
	.uleb128 0x10
	.byte	0x83
	.uleb128 0x4
	.byte	0x84
	.uleb128 0x3
	.byte	0x85
	.uleb128 0x2
	.byte	0x8e
	.uleb128 0x1
	.align	2
.LEFDE64:
.LSFDE66:
	.4byte	.LEFDE66-.LASFDE66
.LASFDE66:
	.4byte	.Lframe0
	.4byte	.LFB227
	.4byte	.LFE227-.LFB227
	.byte	0x4
	.4byte	.LCFI41-.LFB227
	.byte	0xe
	.uleb128 0x10
	.byte	0x84
	.uleb128 0x4
	.byte	0x85
	.uleb128 0x3
	.byte	0x86
	.uleb128 0x2
	.byte	0x8e
	.uleb128 0x1
	.align	2
.LEFDE66:
.LSFDE68:
	.4byte	.LEFDE68-.LASFDE68
.LASFDE68:
	.4byte	.Lframe0
	.4byte	.LFB228
	.4byte	.LFE228-.LFB228
	.byte	0x4
	.4byte	.LCFI42-.LFB228
	.byte	0xe
	.uleb128 0x10
	.byte	0x84
	.uleb128 0x4
	.byte	0x85
	.uleb128 0x3
	.byte	0x86
	.uleb128 0x2
	.byte	0x8e
	.uleb128 0x1
	.align	2
.LEFDE68:
.LSFDE70:
	.4byte	.LEFDE70-.LASFDE70
.LASFDE70:
	.4byte	.Lframe0
	.4byte	.LFB229
	.4byte	.LFE229-.LFB229
	.byte	0x4
	.4byte	.LCFI43-.LFB229
	.byte	0xe
	.uleb128 0x10
	.byte	0x83
	.uleb128 0x4
	.byte	0x84
	.uleb128 0x3
	.byte	0x85
	.uleb128 0x2
	.byte	0x8e
	.uleb128 0x1
	.align	2
.LEFDE70:
.LSFDE72:
	.4byte	.LEFDE72-.LASFDE72
.LASFDE72:
	.4byte	.Lframe0
	.4byte	.LFB230
	.4byte	.LFE230-.LFB230
	.byte	0x4
	.4byte	.LCFI44-.LFB230
	.byte	0xe
	.uleb128 0x10
	.byte	0x83
	.uleb128 0x4
	.byte	0x84
	.uleb128 0x3
	.byte	0x85
	.uleb128 0x2
	.byte	0x8e
	.uleb128 0x1
	.align	2
.LEFDE72:
.LSFDE74:
	.4byte	.LEFDE74-.LASFDE74
.LASFDE74:
	.4byte	.Lframe0
	.4byte	.LFB231
	.4byte	.LFE231-.LFB231
	.byte	0x4
	.4byte	.LCFI45-.LFB231
	.byte	0xe
	.uleb128 0x8
	.byte	0x84
	.uleb128 0x2
	.byte	0x8e
	.uleb128 0x1
	.align	2
.LEFDE74:
.LSFDE76:
	.4byte	.LEFDE76-.LASFDE76
.LASFDE76:
	.4byte	.Lframe0
	.4byte	.LFB232
	.4byte	.LFE232-.LFB232
	.align	2
.LEFDE76:
.LSFDE78:
	.4byte	.LEFDE78-.LASFDE78
.LASFDE78:
	.4byte	.Lframe0
	.4byte	.LFB233
	.4byte	.LFE233-.LFB233
	.byte	0x4
	.4byte	.LCFI46-.LFB233
	.byte	0xe
	.uleb128 0x18
	.byte	0x83
	.uleb128 0x6
	.byte	0x84
	.uleb128 0x5
	.byte	0x85
	.uleb128 0x4
	.byte	0x86
	.uleb128 0x3
	.byte	0x87
	.uleb128 0x2
	.byte	0x8e
	.uleb128 0x1
	.align	2
.LEFDE78:
.LSFDE80:
	.4byte	.LEFDE80-.LASFDE80
.LASFDE80:
	.4byte	.Lframe0
	.4byte	.LFB234
	.4byte	.LFE234-.LFB234
	.align	2
.LEFDE80:
.LSFDE82:
	.4byte	.LEFDE82-.LASFDE82
.LASFDE82:
	.4byte	.Lframe0
	.4byte	.LFB235
	.4byte	.LFE235-.LFB235
	.align	2
.LEFDE82:
.LSFDE84:
	.4byte	.LEFDE84-.LASFDE84
.LASFDE84:
	.4byte	.Lframe0
	.4byte	.LFB236
	.4byte	.LFE236-.LFB236
	.align	2
.LEFDE84:
.LSFDE86:
	.4byte	.LEFDE86-.LASFDE86
.LASFDE86:
	.4byte	.Lframe0
	.4byte	.LFB240
	.4byte	.LFE240-.LFB240
	.byte	0x4
	.4byte	.LCFI47-.LFB240
	.byte	0xe
	.uleb128 0x10
	.byte	0x84
	.uleb128 0x4
	.byte	0x85
	.uleb128 0x3
	.byte	0x86
	.uleb128 0x2
	.byte	0x8e
	.uleb128 0x1
	.align	2
.LEFDE86:
.LSFDE88:
	.4byte	.LEFDE88-.LASFDE88
.LASFDE88:
	.4byte	.Lframe0
	.4byte	.LFB241
	.4byte	.LFE241-.LFB241
	.byte	0x4
	.4byte	.LCFI48-.LFB241
	.byte	0xe
	.uleb128 0x20
	.byte	0x84
	.uleb128 0x8
	.byte	0x85
	.uleb128 0x7
	.byte	0x86
	.uleb128 0x6
	.byte	0x87
	.uleb128 0x5
	.byte	0x88
	.uleb128 0x4
	.byte	0x89
	.uleb128 0x3
	.byte	0x8a
	.uleb128 0x2
	.byte	0x8e
	.uleb128 0x1
	.align	2
.LEFDE88:
.LSFDE90:
	.4byte	.LEFDE90-.LASFDE90
.LASFDE90:
	.4byte	.Lframe0
	.4byte	.LFB222
	.4byte	.LFE222-.LFB222
	.byte	0x4
	.4byte	.LCFI49-.LFB222
	.byte	0xe
	.uleb128 0x18
	.byte	0x83
	.uleb128 0x6
	.byte	0x84
	.uleb128 0x5
	.byte	0x85
	.uleb128 0x4
	.byte	0x86
	.uleb128 0x3
	.byte	0x87
	.uleb128 0x2
	.byte	0x8e
	.uleb128 0x1
	.align	2
.LEFDE90:
.LSFDE92:
	.4byte	.LEFDE92-.LASFDE92
.LASFDE92:
	.4byte	.Lframe0
	.4byte	.LFB243
	.4byte	.LFE243-.LFB243
	.byte	0x4
	.4byte	.LCFI50-.LFB243
	.byte	0xe
	.uleb128 0x8
	.byte	0x83
	.uleb128 0x2
	.byte	0x8e
	.uleb128 0x1
	.align	2
.LEFDE92:
.LSFDE94:
	.4byte	.LEFDE94-.LASFDE94
.LASFDE94:
	.4byte	.Lframe0
	.4byte	.LFB246
	.4byte	.LFE246-.LFB246
	.align	2
.LEFDE94:
.LSFDE96:
	.4byte	.LEFDE96-.LASFDE96
.LASFDE96:
	.4byte	.Lframe0
	.4byte	.LFB247
	.4byte	.LFE247-.LFB247
	.align	2
.LEFDE96:
.LSFDE98:
	.4byte	.LEFDE98-.LASFDE98
.LASFDE98:
	.4byte	.Lframe0
	.4byte	.LFB248
	.4byte	.LFE248-.LFB248
	.byte	0x4
	.4byte	.LCFI51-.LFB248
	.byte	0xe
	.uleb128 0x10
	.byte	0x83
	.uleb128 0x4
	.byte	0x84
	.uleb128 0x3
	.byte	0x85
	.uleb128 0x2
	.byte	0x8e
	.uleb128 0x1
	.byte	0x4
	.4byte	.LCFI52-.LCFI51
	.byte	0xe
	.uleb128 0
	.byte	0xc3
	.byte	0xc4
	.byte	0xc5
	.byte	0xce
	.byte	0x4
	.4byte	.LCFI53-.LCFI52
	.byte	0xe
	.uleb128 0x10
	.byte	0x83
	.uleb128 0x4
	.byte	0x84
	.uleb128 0x3
	.byte	0x85
	.uleb128 0x2
	.byte	0x8e
	.uleb128 0x1
	.align	2
.LEFDE98:
.LSFDE100:
	.4byte	.LEFDE100-.LASFDE100
.LASFDE100:
	.4byte	.Lframe0
	.4byte	.LFB249
	.4byte	.LFE249-.LFB249
	.byte	0x4
	.4byte	.LCFI54-.LFB249
	.byte	0xe
	.uleb128 0x10
	.byte	0x83
	.uleb128 0x4
	.byte	0x84
	.uleb128 0x3
	.byte	0x85
	.uleb128 0x2
	.byte	0x8e
	.uleb128 0x1
	.byte	0x4
	.4byte	.LCFI55-.LCFI54
	.byte	0xe
	.uleb128 0
	.byte	0xc3
	.byte	0xc4
	.byte	0xc5
	.byte	0xce
	.byte	0x4
	.4byte	.LCFI56-.LCFI55
	.byte	0xe
	.uleb128 0x10
	.byte	0x83
	.uleb128 0x4
	.byte	0x84
	.uleb128 0x3
	.byte	0x85
	.uleb128 0x2
	.byte	0x8e
	.uleb128 0x1
	.align	2
.LEFDE100:
.LSFDE102:
	.4byte	.LEFDE102-.LASFDE102
.LASFDE102:
	.4byte	.Lframe0
	.4byte	.LFB250
	.4byte	.LFE250-.LFB250
	.byte	0x4
	.4byte	.LCFI57-.LFB250
	.byte	0xe
	.uleb128 0x10
	.byte	0x84
	.uleb128 0x4
	.byte	0x85
	.uleb128 0x3
	.byte	0x86
	.uleb128 0x2
	.byte	0x8e
	.uleb128 0x1
	.byte	0x4
	.4byte	.LCFI58-.LCFI57
	.byte	0xe
	.uleb128 0
	.byte	0xc4
	.byte	0xc5
	.byte	0xc6
	.byte	0xce
	.align	2
.LEFDE102:
.LSFDE104:
	.4byte	.LEFDE104-.LASFDE104
.LASFDE104:
	.4byte	.Lframe0
	.4byte	.LFB251
	.4byte	.LFE251-.LFB251
	.align	2
.LEFDE104:
.LSFDE106:
	.4byte	.LEFDE106-.LASFDE106
.LASFDE106:
	.4byte	.Lframe0
	.4byte	.LFB252
	.4byte	.LFE252-.LFB252
	.align	2
.LEFDE106:
.LSFDE108:
	.4byte	.LEFDE108-.LASFDE108
.LASFDE108:
	.4byte	.Lframe0
	.4byte	.LFB253
	.4byte	.LFE253-.LFB253
	.byte	0x4
	.4byte	.LCFI59-.LFB253
	.byte	0xe
	.uleb128 0x10
	.byte	0x83
	.uleb128 0x4
	.byte	0x84
	.uleb128 0x3
	.byte	0x85
	.uleb128 0x2
	.byte	0x8e
	.uleb128 0x1
	.align	2
.LEFDE108:
.LSFDE110:
	.4byte	.LEFDE110-.LASFDE110
.LASFDE110:
	.4byte	.Lframe0
	.4byte	.LFB254
	.4byte	.LFE254-.LFB254
	.byte	0x4
	.4byte	.LCFI60-.LFB254
	.byte	0xe
	.uleb128 0x14
	.byte	0x84
	.uleb128 0x5
	.byte	0x85
	.uleb128 0x4
	.byte	0x86
	.uleb128 0x3
	.byte	0x87
	.uleb128 0x2
	.byte	0x8e
	.uleb128 0x1
	.byte	0x4
	.4byte	.LCFI61-.LCFI60
	.byte	0xe
	.uleb128 0x20
	.byte	0x4
	.4byte	.LCFI62-.LCFI61
	.byte	0xa
	.byte	0xe
	.uleb128 0x14
	.byte	0x4
	.4byte	.LCFI63-.LCFI62
	.byte	0xb
	.align	2
.LEFDE110:
.LSFDE112:
	.4byte	.LEFDE112-.LASFDE112
.LASFDE112:
	.4byte	.Lframe0
	.4byte	.LFB255
	.4byte	.LFE255-.LFB255
	.byte	0x4
	.4byte	.LCFI64-.LFB255
	.byte	0xe
	.uleb128 0x1c
	.byte	0x84
	.uleb128 0x7
	.byte	0x85
	.uleb128 0x6
	.byte	0x86
	.uleb128 0x5
	.byte	0x87
	.uleb128 0x4
	.byte	0x88
	.uleb128 0x3
	.byte	0x89
	.uleb128 0x2
	.byte	0x8e
	.uleb128 0x1
	.byte	0x4
	.4byte	.LCFI65-.LCFI64
	.byte	0xe
	.uleb128 0x28
	.byte	0x4
	.4byte	.LCFI66-.LCFI65
	.byte	0xa
	.byte	0xe
	.uleb128 0x1c
	.byte	0x4
	.4byte	.LCFI67-.LCFI66
	.byte	0xb
	.align	2
.LEFDE112:
.LSFDE114:
	.4byte	.LEFDE114-.LASFDE114
.LASFDE114:
	.4byte	.Lframe0
	.4byte	.LFB256
	.4byte	.LFE256-.LFB256
	.byte	0x4
	.4byte	.LCFI68-.LFB256
	.byte	0xe
	.uleb128 0x24
	.byte	0x84
	.uleb128 0x9
	.byte	0x85
	.uleb128 0x8
	.byte	0x86
	.uleb128 0x7
	.byte	0x87
	.uleb128 0x6
	.byte	0x88
	.uleb128 0x5
	.byte	0x89
	.uleb128 0x4
	.byte	0x8a
	.uleb128 0x3
	.byte	0x8b
	.uleb128 0x2
	.byte	0x8e
	.uleb128 0x1
	.byte	0x4
	.4byte	.LCFI69-.LCFI68
	.byte	0xe
	.uleb128 0x30
	.byte	0x4
	.4byte	.LCFI70-.LCFI69
	.byte	0xa
	.byte	0xe
	.uleb128 0x24
	.byte	0x4
	.4byte	.LCFI71-.LCFI70
	.byte	0xb
	.align	2
.LEFDE114:
.LSFDE116:
	.4byte	.LEFDE116-.LASFDE116
.LASFDE116:
	.4byte	.Lframe0
	.4byte	.LFB257
	.4byte	.LFE257-.LFB257
	.byte	0x4
	.4byte	.LCFI72-.LFB257
	.byte	0xe
	.uleb128 0x18
	.byte	0x83
	.uleb128 0x6
	.byte	0x84
	.uleb128 0x5
	.byte	0x85
	.uleb128 0x4
	.byte	0x86
	.uleb128 0x3
	.byte	0x87
	.uleb128 0x2
	.byte	0x8e
	.uleb128 0x1
	.align	2
.LEFDE116:
.LSFDE118:
	.4byte	.LEFDE118-.LASFDE118
.LASFDE118:
	.4byte	.Lframe0
	.4byte	.LFB258
	.4byte	.LFE258-.LFB258
	.byte	0x4
	.4byte	.LCFI73-.LFB258
	.byte	0xe
	.uleb128 0x8
	.byte	0x84
	.uleb128 0x2
	.byte	0x8e
	.uleb128 0x1
	.align	2
.LEFDE118:
	.text
.Letext0:
	.file 4 "../../../../../../external/freertos/source/include/list.h"
	.file 5 "C:/Program Files (x86)/SEGGER/SEGGER Embedded Studio for ARM 4.50/include/stdint.h"