	.cpu cortex-m4
	.eabi_attribute 27, 1
	.eabi_attribute 28, 1
	.eabi_attribute 20, 1
	.eabi_attribute 21, 1
	.eabi_attribute 23, 3
	.eabi_attribute 24, 1
	.eabi_attribute 25, 1
	.eabi_attribute 26, 1
	.eabi_attribute 30, 1
	.eabi_attribute 34, 1
	.eabi_attribute 18, 4
	.file	"timers.c"
	.text
.Ltext0:
	.section	.text.prvGetNextExpireTime,"ax",%progbits
	.align	1
	.syntax unified
	.thumb
	.thumb_func
	.fpu fpv4-sp-d16
	.type	prvGetNextExpireTime, %function
prvGetNextExpireTime:
.LVL0:
.LFB211:
	.file 1 "C:\\nRF5_SDK_15.0.0_a53641a\\external\\freertos\\source\\timers.c"
	.loc 1 600 1 view -0
	@ args = 0, pretend = 0, frame = 0
	@ frame_needed = 0, uses_anonymous_args = 0
	@ link register save eliminated.
	.loc 1 601 1 view .LVU1
	.loc 1 610 2 view .LVU2
	.loc 1 610 61 is_stmt 0 view .LVU3
	ldr	r3, .L4
	ldr	r2, [r3]
	ldr	r3, [r2]
	.loc 1 610 22 view .LVU4
	clz	r3, r3
	lsrs	r3, r3, #5
	.loc 1 610 18 view .LVU5
	str	r3, [r0]
	.loc 1 611 2 is_stmt 1 view .LVU6
	.loc 1 611 4 is_stmt 0 view .LVU7
	cbnz	r3, .L3
	.loc 1 613 3 is_stmt 1 view .LVU8
	.loc 1 613 59 is_stmt 0 view .LVU9
	ldr	r3, [r2, #12]
	.loc 1 613 19 view .LVU10
	ldr	r0, [r3]
.LVL1:
	.loc 1 613 19 view .LVU11
	bx	lr
.LVL2:
.L3:
	.loc 1 618 19 view .LVU12
	movs	r0, #0
.LVL3:
	.loc 1 621 2 is_stmt 1 view .LVU13
	.loc 1 622 1 is_stmt 0 view .LVU14
	bx	lr
.L5:
	.align	2
.L4:
	.word	.LANCHOR0
.LFE211:
	.size	prvGetNextExpireTime, .-prvGetNextExpireTime
	.section	.text.prvInsertTimerInActiveList,"ax",%progbits
	.align	1
	.syntax unified
	.thumb
	.thumb_func
	.fpu fpv4-sp-d16
	.type	prvInsertTimerInActiveList, %function
prvInsertTimerInActiveList:
.LVL4:
.LFB213:
	.loc 1 649 1 is_stmt 1 view -0
	@ args = 0, pretend = 0, frame = 0
	@ frame_needed = 0, uses_anonymous_args = 0
	.loc 1 649 1 is_stmt 0 view .LVU16
	push	{r3, lr}
.LCFI0:
	.loc 1 650 1 is_stmt 1 view .LVU17
.LVL5:
	.loc 1 652 2 view .LVU18
	.loc 1 652 49 is_stmt 0 view .LVU19
	str	r1, [r0, #4]
	.loc 1 653 2 is_stmt 1 view .LVU20
	.loc 1 653 46 is_stmt 0 view .LVU21
	str	r0, [r0, #16]
	.loc 1 655 2 is_stmt 1 view .LVU22
	.loc 1 655 4 is_stmt 0 view .LVU23
	cmp	r1, r2
	bhi	.L7
	.loc 1 659 3 is_stmt 1 view .LVU24
	.loc 1 659 9 is_stmt 0 view .LVU25
	subs	r2, r2, r3
.LVL6:
	.loc 1 659 64 view .LVU26
	ldr	r3, [r0, #24]
.LVL7:
	.loc 1 659 5 view .LVU27
	cmp	r2, r3
	bcc	.L13
	.loc 1 663 21 view .LVU28
	movs	r0, #1
.LVL8:
.L6:
	.loc 1 686 1 view .LVU29
	pop	{r3, pc}
.LVL9:
.L13:
	.loc 1 667 4 is_stmt 1 view .LVU30
	adds	r1, r0, #4
.LVL10:
	.loc 1 667 4 is_stmt 0 view .LVU31
	ldr	r3, .L14
	ldr	r0, [r3]
.LVL11:
	.loc 1 667 4 view .LVU32
	bl	vListInsert
.LVL12:
	.loc 1 650 12 view .LVU33
	movs	r0, #0
	b	.L6
.LVL13:
.L7:
	.loc 1 672 3 is_stmt 1 view .LVU34
	.loc 1 672 5 is_stmt 0 view .LVU35
	cmp	r2, r3
	bcs	.L9
	.loc 1 672 35 discriminator 1 view .LVU36
	cmp	r1, r3
	bcs	.L11
.L9:
	.loc 1 681 4 is_stmt 1 view .LVU37
	adds	r1, r0, #4
.LVL14:
	.loc 1 681 4 is_stmt 0 view .LVU38
	ldr	r3, .L14+4
.LVL15:
	.loc 1 681 4 view .LVU39
	ldr	r0, [r3]
.LVL16:
	.loc 1 681 4 view .LVU40
	bl	vListInsert
.LVL17:
	.loc 1 650 12 view .LVU41
	movs	r0, #0
	b	.L6
.LVL18:
.L11:
	.loc 1 677 21 view .LVU42
	movs	r0, #1
.LVL19:
	.loc 1 685 2 is_stmt 1 view .LVU43
	.loc 1 685 9 is_stmt 0 view .LVU44
	b	.L6
.L15:
	.align	2
.L14:
	.word	.LANCHOR1
	.word	.LANCHOR0
.LFE213:
	.size	prvInsertTimerInActiveList, .-prvInsertTimerInActiveList
	.section	.rodata.prvCheckForValidListAndQueue.str1.4,"aMS",%progbits,1
	.align	2
.LC0:
	.ascii	"TmrQ\000"
	.section	.text.prvCheckForValidListAndQueue,"ax",%progbits
	.align	1
	.syntax unified
	.thumb
	.thumb_func
	.fpu fpv4-sp-d16
	.type	prvCheckForValidListAndQueue, %function
prvCheckForValidListAndQueue:
.LFB216:
	.loc 1 896 1 is_stmt 1 view -0
	@ args = 0, pretend = 0, frame = 0
	@ frame_needed = 0, uses_anonymous_args = 0
	push	{r3, r4, r5, lr}
.LCFI1:
	.loc 1 900 2 view .LVU46
	bl	vPortEnterCritical
.LVL20:
	.loc 1 902 3 view .LVU47
	.loc 1 902 19 is_stmt 0 view .LVU48
	ldr	r3, .L20
	ldr	r3, [r3]
	.loc 1 902 5 view .LVU49
	cbz	r3, .L19
.L17:
	.loc 1 939 4 is_stmt 1 view .LVU50
	.loc 1 942 2 view .LVU51
	bl	vPortExitCritical
.LVL21:
	.loc 1 943 1 is_stmt 0 view .LVU52
	pop	{r3, r4, r5, pc}
.L19:
	.loc 1 904 4 is_stmt 1 view .LVU53
	ldr	r5, .L20+4
	mov	r0, r5
	bl	vListInitialise
.LVL22:
	.loc 1 905 4 view .LVU54
	ldr	r4, .L20+8
	mov	r0, r4
	bl	vListInitialise
.LVL23:
	.loc 1 906 4 view .LVU55
	.loc 1 906 23 is_stmt 0 view .LVU56
	ldr	r3, .L20+12
	str	r5, [r3]
	.loc 1 907 4 is_stmt 1 view .LVU57
	.loc 1 907 24 is_stmt 0 view .LVU58
	ldr	r3, .L20+16
	str	r4, [r3]
	.loc 1 920 5 is_stmt 1 view .LVU59
	.loc 1 920 19 is_stmt 0 view .LVU60
	movs	r2, #0
	movs	r1, #16
	movs	r0, #32
	bl	xQueueGenericCreate
.LVL24:
	.loc 1 920 17 view .LVU61
	ldr	r3, .L20
	str	r0, [r3]
	.loc 1 926 5 is_stmt 1 view .LVU62
	.loc 1 926 7 is_stmt 0 view .LVU63
	cmp	r0, #0
	beq	.L17
	.loc 1 928 6 is_stmt 1 view .LVU64
	ldr	r1, .L20+20
	bl	vQueueAddToRegistry
.LVL25:
	b	.L17
.L21:
	.align	2
.L20:
	.word	.LANCHOR2
	.word	.LANCHOR3
	.word	.LANCHOR4
	.word	.LANCHOR0
	.word	.LANCHOR1
	.word	.LC0
.LFE216:
	.size	prvCheckForValidListAndQueue, .-prvCheckForValidListAndQueue
	.section	.rodata.prvInitialiseNewTimer.str1.4,"aMS",%progbits,1
	.align	2
.LC1:
	.ascii	"C:\\nRF5_SDK_15.0.0_a53641a\\external\\freertos\\so"
	.ascii	"urce\\timers.c\000"
	.section	.text.prvInitialiseNewTimer,"ax",%progbits
	.align	1
	.syntax unified
	.thumb
	.thumb_func
	.fpu fpv4-sp-d16
	.type	prvInitialiseNewTimer, %function
prvInitialiseNewTimer:
.LVL26:
.LFB202:
	.loc 1 359 1 view -0
	@ args = 8, pretend = 0, frame = 0
	@ frame_needed = 0, uses_anonymous_args = 0
	.loc 1 359 1 is_stmt 0 view .LVU66
	push	{r4, r5, r6, r7, r8, lr}
.LCFI2:
	mov	r7, r0
	mov	r6, r2
	mov	r5, r3
	ldr	r4, [sp, #28]
	.loc 1 361 2 is_stmt 1 view .LVU67
	.loc 1 361 11 view .LVU68
	.loc 1 361 14 is_stmt 0 view .LVU69
	mov	r8, r1
	cbz	r1, .L26
.LVL27:
.L23:
	.loc 1 361 174 is_stmt 1 discriminator 5 view .LVU70
	.loc 1 363 2 discriminator 5 view .LVU71
	.loc 1 363 4 is_stmt 0 discriminator 5 view .LVU72
	cbz	r4, .L22
	.loc 1 367 3 is_stmt 1 view .LVU73
	bl	prvCheckForValidListAndQueue
.LVL28:
	.loc 1 371 3 view .LVU74
	.loc 1 371 27 is_stmt 0 view .LVU75
	str	r7, [r4]
	.loc 1 372 3 is_stmt 1 view .LVU76
	.loc 1 372 35 is_stmt 0 view .LVU77
	str	r8, [r4, #24]
	.loc 1 373 3 is_stmt 1 view .LVU78
	.loc 1 373 28 is_stmt 0 view .LVU79
	str	r6, [r4, #28]
	.loc 1 374 3 is_stmt 1 view .LVU80
	.loc 1 374 25 is_stmt 0 view .LVU81
	str	r5, [r4, #32]
	.loc 1 375 3 is_stmt 1 view .LVU82
	.loc 1 375 34 is_stmt 0 view .LVU83
	ldr	r3, [sp, #24]
	str	r3, [r4, #36]
	.loc 1 376 3 is_stmt 1 view .LVU84
	adds	r0, r4, #4
	bl	vListInitialiseItem
.LVL29:
	.loc 1 377 3 view .LVU85
.L22:
	.loc 1 379 1 is_stmt 0 view .LVU86
	pop	{r4, r5, r6, r7, r8, pc}
.LVL30:
.L26:
	.loc 1 361 55 is_stmt 1 discriminator 4 view .LVU87
	ldr	r1, .L27
.LVL31:
	.loc 1 361 55 is_stmt 0 discriminator 4 view .LVU88
	movw	r0, #361
.LVL32:
	.loc 1 361 55 discriminator 4 view .LVU89
	bl	assert_nrf_callback
.LVL33:
	.loc 1 361 55 discriminator 4 view .LVU90
	b	.L23
.L28:
	.align	2
.L27:
	.word	.LC1
.LFE202:
	.size	prvInitialiseNewTimer, .-prvInitialiseNewTimer
	.section	.rodata.xTimerCreateTimerTask.str1.4,"aMS",%progbits,1
	.align	2
.LC2:
	.ascii	"Tmr Svc\000"
	.section	.text.xTimerCreateTimerTask,"ax",%progbits
	.align	1
	.global	xTimerCreateTimerTask
	.syntax unified
	.thumb
	.thumb_func
	.fpu fpv4-sp-d16
	.type	xTimerCreateTimerTask, %function
xTimerCreateTimerTask:
.LFB200:
	.loc 1 225 1 is_stmt 1 view -0
	@ args = 0, pretend = 0, frame = 0
	@ frame_needed = 0, uses_anonymous_args = 0
	push	{r4, lr}
.LCFI3:
	sub	sp, sp, #8
.LCFI4:
	.loc 1 226 1 view .LVU92
.LVL34:
	.loc 1 232 2 view .LVU93
	bl	prvCheckForValidListAndQueue
.LVL35:
	.loc 1 234 2 view .LVU94
	.loc 1 234 18 is_stmt 0 view .LVU95
	ldr	r3, .L34
	ldr	r3, [r3]
	.loc 1 234 4 view .LVU96
	cbz	r3, .L32
	.loc 1 258 4 is_stmt 1 view .LVU97
	.loc 1 258 14 is_stmt 0 view .LVU98
	ldr	r3, .L34+4
	str	r3, [sp, #4]
	movs	r3, #2
	str	r3, [sp]
	movs	r3, #0
	movs	r2, #80
	ldr	r1, .L34+8
	ldr	r0, .L34+12
	bl	xTaskCreate
.LVL36:
	.loc 1 269 3 is_stmt 1 view .LVU99
	.loc 1 272 2 view .LVU100
	.loc 1 272 11 view .LVU101
	.loc 1 272 14 is_stmt 0 view .LVU102
	mov	r4, r0
	cbnz	r0, .L29
.LVL37:
.L30:
	.loc 1 272 35 is_stmt 1 discriminator 4 view .LVU103
	ldr	r1, .L34+16
	mov	r0, #272
	bl	assert_nrf_callback
.LVL38:
	.loc 1 272 154 discriminator 4 view .LVU104
	.loc 1 273 2 discriminator 4 view .LVU105
.L29:
	.loc 1 274 1 is_stmt 0 view .LVU106
	mov	r0, r4
	add	sp, sp, #8
.LCFI5:
	@ sp needed
	pop	{r4, pc}
.LVL39:
.L32:
.LCFI6:
	.loc 1 226 12 view .LVU107
	movs	r4, #0
	b	.L30
.L35:
	.align	2
.L34:
	.word	.LANCHOR2
	.word	.LANCHOR5
	.word	.LC2
	.word	prvTimerTask
	.word	.LC1
.LFE200:
	.size	xTimerCreateTimerTask, .-xTimerCreateTimerTask
	.section	.text.xTimerCreate,"ax",%progbits
	.align	1
	.global	xTimerCreate
	.syntax unified
	.thumb
	.thumb_func
	.fpu fpv4-sp-d16
	.type	xTimerCreate, %function
xTimerCreate:
.LVL40:
.LFB201:
	.loc 1 284 2 is_stmt 1 view -0
	@ args = 4, pretend = 0, frame = 0
	@ frame_needed = 0, uses_anonymous_args = 0
	.loc 1 284 2 is_stmt 0 view .LVU109
	push	{r4, r5, r6, r7, r8, lr}
.LCFI7:
	sub	sp, sp, #8
.LCFI8:
	mov	r4, r0
	mov	r8, r1
	mov	r5, r2
	mov	r6, r3
	.loc 1 285 2 is_stmt 1 view .LVU110
	.loc 1 287 3 view .LVU111
	.loc 1 287 30 is_stmt 0 view .LVU112
	movs	r0, #44
.LVL41:
	.loc 1 287 30 view .LVU113
	bl	pvPortMalloc
.LVL42:
	.loc 1 289 3 is_stmt 1 view .LVU114
	.loc 1 289 5 is_stmt 0 view .LVU115
	mov	r7, r0
	cbz	r0, .L36
	.loc 1 291 4 is_stmt 1 view .LVU116
	str	r0, [sp, #4]
	ldr	r3, [sp, #32]
	str	r3, [sp]
	mov	r3, r6
	mov	r2, r5
	mov	r1, r8
	mov	r0, r4
.LVL43:
	.loc 1 291 4 is_stmt 0 view .LVU117
	bl	prvInitialiseNewTimer
.LVL44:
	.loc 1 303 3 is_stmt 1 view .LVU118
.L36:
	.loc 1 304 2 is_stmt 0 view .LVU119
	mov	r0, r7
	add	sp, sp, #8
.LCFI9:
	@ sp needed
	pop	{r4, r5, r6, r7, r8, pc}
	.loc 1 304 2 view .LVU120
.LFE201:
	.size	xTimerCreate, .-xTimerCreate
	.section	.text.xTimerGenericCommand,"ax",%progbits
	.align	1
	.global	xTimerGenericCommand
	.syntax unified
	.thumb
	.thumb_func
	.fpu fpv4-sp-d16
	.type	xTimerGenericCommand, %function
xTimerGenericCommand:
.LVL45:
.LFB203:
	.loc 1 383 1 is_stmt 1 view -0
	@ args = 4, pretend = 0, frame = 16
	@ frame_needed = 0, uses_anonymous_args = 0
	.loc 1 383 1 is_stmt 0 view .LVU122
	push	{r4, r5, r6, r7, lr}
.LCFI10:
	sub	sp, sp, #20
.LCFI11:
	mov	r4, r1
	mov	r5, r2
	mov	r6, r3
	.loc 1 384 1 is_stmt 1 view .LVU123
.LVL46:
	.loc 1 385 1 view .LVU124
	.loc 1 387 2 view .LVU125
	.loc 1 387 11 view .LVU126
	.loc 1 387 14 is_stmt 0 view .LVU127
	mov	r7, r0
	cbz	r0, .L46
.LVL47:
.L40:
	.loc 1 387 153 is_stmt 1 discriminator 5 view .LVU128
	.loc 1 391 2 discriminator 5 view .LVU129
	.loc 1 391 18 is_stmt 0 discriminator 5 view .LVU130
	ldr	r3, .L48
	ldr	r0, [r3]
	.loc 1 391 4 discriminator 5 view .LVU131
	cbz	r0, .L44
	.loc 1 394 3 is_stmt 1 view .LVU132
	.loc 1 394 23 is_stmt 0 view .LVU133
	str	r4, [sp]
	.loc 1 395 3 is_stmt 1 view .LVU134
	.loc 1 395 45 is_stmt 0 view .LVU135
	str	r5, [sp, #4]
	.loc 1 396 3 is_stmt 1 view .LVU136
	.loc 1 396 39 is_stmt 0 view .LVU137
	str	r7, [sp, #8]
	.loc 1 398 3 is_stmt 1 view .LVU138
	.loc 1 398 5 is_stmt 0 view .LVU139
	cmp	r4, #5
	bgt	.L42
	.loc 1 400 4 is_stmt 1 view .LVU140
	.loc 1 400 8 is_stmt 0 view .LVU141
	bl	xTaskGetSchedulerState
.LVL48:
	.loc 1 400 6 view .LVU142
	cmp	r0, #2
	beq	.L47
	.loc 1 406 5 is_stmt 1 view .LVU143
	.loc 1 406 15 is_stmt 0 view .LVU144
	movs	r3, #0
	mov	r2, r3
	mov	r1, sp
	ldr	r0, .L48
	ldr	r0, [r0]
	bl	xQueueGenericSend
.LVL49:
	.loc 1 406 15 view .LVU145
	b	.L39
.LVL50:
.L46:
	.loc 1 387 34 is_stmt 1 discriminator 4 view .LVU146
	ldr	r1, .L48+4
.LVL51:
	.loc 1 387 34 is_stmt 0 discriminator 4 view .LVU147
	movw	r0, #387
.LVL52:
	.loc 1 387 34 discriminator 4 view .LVU148
	bl	assert_nrf_callback
.LVL53:
	.loc 1 387 34 discriminator 4 view .LVU149
	b	.L40
.L47:
	.loc 1 402 5 is_stmt 1 view .LVU150
	.loc 1 402 15 is_stmt 0 view .LVU151
	movs	r3, #0
	ldr	r2, [sp, #40]
	mov	r1, sp
	ldr	r0, .L48
	ldr	r0, [r0]
	bl	xQueueGenericSend
.LVL54:
	.loc 1 402 15 view .LVU152
	b	.L39
.LVL55:
.L42:
	.loc 1 411 4 is_stmt 1 view .LVU153
	.loc 1 411 14 is_stmt 0 view .LVU154
	movs	r3, #0
	mov	r2, r6
	mov	r1, sp
	bl	xQueueGenericSendFromISR
.LVL56:
.L39:
	.loc 1 422 1 view .LVU155
	add	sp, sp, #20
.LCFI12:
	@ sp needed
	pop	{r4, r5, r6, r7, pc}
.LVL57:
.L44:
.LCFI13:
	.loc 1 384 12 view .LVU156
	movs	r0, #0
	.loc 1 418 3 is_stmt 1 view .LVU157
	.loc 1 421 2 view .LVU158
	.loc 1 421 9 is_stmt 0 view .LVU159
	b	.L39
.L49:
	.align	2
.L48:
	.word	.LANCHOR2
	.word	.LC1
.LFE203:
	.size	xTimerGenericCommand, .-xTimerGenericCommand
	.section	.text.prvSwitchTimerLists,"ax",%progbits
	.align	1
	.syntax unified
	.thumb
	.thumb_func
	.fpu fpv4-sp-d16
	.type	prvSwitchTimerLists, %function
prvSwitchTimerLists:
.LFB215:
	.loc 1 837 1 is_stmt 1 view -0
	@ args = 0, pretend = 0, frame = 0
	@ frame_needed = 0, uses_anonymous_args = 0
	push	{r4, r5, r6, lr}
.LCFI14:
	sub	sp, sp, #8
.LCFI15:
	.loc 1 838 1 view .LVU161
	.loc 1 839 1 view .LVU162
	.loc 1 840 1 view .LVU163
	.loc 1 841 1 view .LVU164
	.loc 1 847 2 view .LVU165
.L52:
	.loc 1 885 4 view .LVU166
	.loc 1 847 7 view .LVU167
	.loc 1 847 50 is_stmt 0 view .LVU168
	ldr	r3, .L58
	ldr	r3, [r3]
	ldr	r2, [r3]
	.loc 1 847 7 view .LVU169
	cbz	r2, .L57
	.loc 1 849 3 is_stmt 1 view .LVU170
	.loc 1 849 59 is_stmt 0 view .LVU171
	ldr	r3, [r3, #12]
	.loc 1 849 19 view .LVU172
	ldr	r6, [r3]
.LVL58:
	.loc 1 852 3 is_stmt 1 view .LVU173
	.loc 1 852 11 is_stmt 0 view .LVU174
	ldr	r4, [r3, #12]
.LVL59:
	.loc 1 853 3 is_stmt 1 view .LVU175
	.loc 1 853 12 is_stmt 0 view .LVU176
	adds	r5, r4, #4
	mov	r0, r5
	bl	uxListRemove
.LVL60:
	.loc 1 854 3 is_stmt 1 view .LVU177
	.loc 1 859 3 view .LVU178
	.loc 1 859 10 is_stmt 0 view .LVU179
	ldr	r3, [r4, #36]
	.loc 1 859 3 view .LVU180
	mov	r0, r4
	blx	r3
.LVL61:
	.loc 1 861 3 is_stmt 1 view .LVU181
	.loc 1 861 14 is_stmt 0 view .LVU182
	ldr	r3, [r4, #28]
	.loc 1 861 5 view .LVU183
	cmp	r3, #1
	bne	.L52
	.loc 1 869 4 is_stmt 1 view .LVU184
	.loc 1 869 45 is_stmt 0 view .LVU185
	ldr	r3, [r4, #24]
	.loc 1 869 16 view .LVU186
	add	r3, r3, r6
.LVL62:
	.loc 1 870 4 is_stmt 1 view .LVU187
	.loc 1 870 6 is_stmt 0 view .LVU188
	cmp	r6, r3
	bcs	.L53
	.loc 1 872 5 is_stmt 1 view .LVU189
	.loc 1 872 52 is_stmt 0 view .LVU190
	str	r3, [r4, #4]
	.loc 1 873 5 is_stmt 1 view .LVU191
	.loc 1 873 49 is_stmt 0 view .LVU192
	str	r4, [r4, #16]
	.loc 1 874 5 is_stmt 1 view .LVU193
	mov	r1, r5
	ldr	r3, .L58
.LVL63:
	.loc 1 874 5 is_stmt 0 view .LVU194
	ldr	r0, [r3]
	bl	vListInsert
.LVL64:
	.loc 1 874 5 view .LVU195
	b	.L52
.LVL65:
.L53:
	.loc 1 878 5 is_stmt 1 view .LVU196
	.loc 1 878 15 is_stmt 0 view .LVU197
	movs	r1, #0
	str	r1, [sp]
	mov	r3, r1
.LVL66:
	.loc 1 878 15 view .LVU198
	mov	r2, r6
	mov	r0, r4
	bl	xTimerGenericCommand
.LVL67:
	.loc 1 879 5 is_stmt 1 view .LVU199
	.loc 1 879 14 view .LVU200
	.loc 1 879 17 is_stmt 0 view .LVU201
	cmp	r0, #0
	bne	.L52
	.loc 1 879 38 is_stmt 1 discriminator 4 view .LVU202
	ldr	r1, .L58+4
	movw	r0, #879
.LVL68:
	.loc 1 879 38 is_stmt 0 discriminator 4 view .LVU203
	bl	assert_nrf_callback
.LVL69:
	b	.L52
.LVL70:
.L57:
	.loc 1 889 2 is_stmt 1 view .LVU204
	.loc 1 890 2 view .LVU205
	.loc 1 890 21 is_stmt 0 view .LVU206
	ldr	r2, .L58+8
	ldr	r0, [r2]
	ldr	r1, .L58
	str	r0, [r1]
	.loc 1 891 2 is_stmt 1 view .LVU207
	.loc 1 891 22 is_stmt 0 view .LVU208
	str	r3, [r2]
	.loc 1 892 1 view .LVU209
	add	sp, sp, #8
.LCFI16:
	@ sp needed
	pop	{r4, r5, r6, pc}
.L59:
	.align	2
.L58:
	.word	.LANCHOR0
	.word	.LC1
	.word	.LANCHOR1
.LFE215:
	.size	prvSwitchTimerLists, .-prvSwitchTimerLists
	.section	.text.prvSampleTimeNow,"ax",%progbits
	.align	1
	.syntax unified
	.thumb
	.thumb_func
	.fpu fpv4-sp-d16
	.type	prvSampleTimeNow, %function
prvSampleTimeNow:
.LVL71:
.LFB212:
	.loc 1 626 1 is_stmt 1 view -0
	@ args = 0, pretend = 0, frame = 0
	@ frame_needed = 0, uses_anonymous_args = 0
	.loc 1 626 1 is_stmt 0 view .LVU211
	push	{r3, r4, r5, lr}
.LCFI17:
	mov	r5, r0
	.loc 1 627 1 is_stmt 1 view .LVU212
	.loc 1 628 2 view .LVU213
	.loc 1 630 2 view .LVU214
	.loc 1 630 13 is_stmt 0 view .LVU215
	bl	xTaskGetTickCount
.LVL72:
	.loc 1 630 13 view .LVU216
	mov	r4, r0
.LVL73:
	.loc 1 632 2 is_stmt 1 view .LVU217
	.loc 1 632 15 is_stmt 0 view .LVU218
	ldr	r3, .L65
	ldr	r3, [r3]
	.loc 1 632 4 view .LVU219
	cmp	r3, r0
	bhi	.L64
	.loc 1 639 3 is_stmt 1 view .LVU220
	.loc 1 639 29 is_stmt 0 view .LVU221
	movs	r3, #0
	str	r3, [r5]
.LVL74:
.L62:
	.loc 1 642 2 is_stmt 1 view .LVU222
	.loc 1 642 12 is_stmt 0 view .LVU223
	ldr	r3, .L65
	str	r4, [r3]
	.loc 1 644 2 is_stmt 1 view .LVU224
	.loc 1 645 1 is_stmt 0 view .LVU225
	mov	r0, r4
	pop	{r3, r4, r5, pc}
.LVL75:
.L64:
	.loc 1 634 3 is_stmt 1 view .LVU226
	bl	prvSwitchTimerLists
.LVL76:
	.loc 1 635 3 view .LVU227
	.loc 1 635 29 is_stmt 0 view .LVU228
	movs	r3, #1
	str	r3, [r5]
	b	.L62
.L66:
	.align	2
.L65:
	.word	.LANCHOR6
.LFE212:
	.size	prvSampleTimeNow, .-prvSampleTimeNow
	.section	.text.prvProcessExpiredTimer,"ax",%progbits
	.align	1
	.syntax unified
	.thumb
	.thumb_func
	.fpu fpv4-sp-d16
	.type	prvProcessExpiredTimer, %function
prvProcessExpiredTimer:
.LVL77:
.LFB208:
	.loc 1 464 1 is_stmt 1 view -0
	@ args = 0, pretend = 0, frame = 0
	@ frame_needed = 0, uses_anonymous_args = 0
	.loc 1 464 1 is_stmt 0 view .LVU230
	push	{r4, r5, r6, lr}
.LCFI18:
	sub	sp, sp, #8
.LCFI19:
	mov	r6, r0
	mov	r5, r1
	.loc 1 465 1 is_stmt 1 view .LVU231
	.loc 1 466 1 view .LVU232
	.loc 1 466 69 is_stmt 0 view .LVU233
	ldr	r3, .L71
	ldr	r3, [r3]
	.loc 1 466 82 view .LVU234
	ldr	r3, [r3, #12]
	.loc 1 466 17 view .LVU235
	ldr	r4, [r3, #12]
.LVL78:
	.loc 1 470 2 is_stmt 1 view .LVU236
	.loc 1 470 11 is_stmt 0 view .LVU237
	adds	r0, r4, #4
.LVL79:
	.loc 1 470 11 view .LVU238
	bl	uxListRemove
.LVL80:
	.loc 1 471 2 is_stmt 1 view .LVU239
	.loc 1 475 2 view .LVU240
	.loc 1 475 13 is_stmt 0 view .LVU241
	ldr	r3, [r4, #28]
	.loc 1 475 4 view .LVU242
	cmp	r3, #1
	beq	.L70
.L68:
	.loc 1 495 3 is_stmt 1 view .LVU243
	.loc 1 499 2 view .LVU244
	.loc 1 499 9 is_stmt 0 view .LVU245
	ldr	r3, [r4, #36]
	.loc 1 499 2 view .LVU246
	mov	r0, r4
	blx	r3
.LVL81:
	.loc 1 500 1 view .LVU247
	add	sp, sp, #8
.LCFI20:
	@ sp needed
	pop	{r4, r5, r6, pc}
.LVL82:
.L70:
.LCFI21:
	.loc 1 480 3 is_stmt 1 view .LVU248
	.loc 1 480 71 is_stmt 0 view .LVU249
	ldr	r1, [r4, #24]
	.loc 1 480 7 view .LVU250
	mov	r3, r6
	mov	r2, r5
	add	r1, r1, r6
	mov	r0, r4
	bl	prvInsertTimerInActiveList
.LVL83:
	.loc 1 480 5 view .LVU251
	cmp	r0, #0
	beq	.L68
	.loc 1 484 4 is_stmt 1 view .LVU252
	.loc 1 484 14 is_stmt 0 view .LVU253
	movs	r1, #0
	str	r1, [sp]
	mov	r3, r1
	mov	r2, r6
	mov	r0, r4
	bl	xTimerGenericCommand
.LVL84:
	.loc 1 485 4 is_stmt 1 view .LVU254
	.loc 1 485 13 view .LVU255
	.loc 1 485 16 is_stmt 0 view .LVU256
	cmp	r0, #0
	bne	.L68
	.loc 1 485 37 is_stmt 1 discriminator 4 view .LVU257
	ldr	r1, .L71+4
	movw	r0, #485
.LVL85:
	.loc 1 485 37 is_stmt 0 discriminator 4 view .LVU258
	bl	assert_nrf_callback
.LVL86:
	b	.L68
.L72:
	.align	2
.L71:
	.word	.LANCHOR0
	.word	.LC1
.LFE208:
	.size	prvProcessExpiredTimer, .-prvProcessExpiredTimer
	.section	.text.prvProcessTimerOrBlockTask,"ax",%progbits
	.align	1
	.syntax unified
	.thumb
	.thumb_func
	.fpu fpv4-sp-d16
	.type	prvProcessTimerOrBlockTask, %function
prvProcessTimerOrBlockTask:
.LVL87:
.LFB210:
	.loc 1 540 1 is_stmt 1 view -0
	@ args = 0, pretend = 0, frame = 8
	@ frame_needed = 0, uses_anonymous_args = 0
	.loc 1 540 1 is_stmt 0 view .LVU260
	push	{r4, r5, r6, lr}
.LCFI22:
	sub	sp, sp, #8
.LCFI23:
	mov	r6, r0
	mov	r4, r1
	.loc 1 541 1 is_stmt 1 view .LVU261
	.loc 1 542 1 view .LVU262
	.loc 1 544 2 view .LVU263
	bl	vTaskSuspendAll
.LVL88:
	.loc 1 551 3 view .LVU264
	.loc 1 551 14 is_stmt 0 view .LVU265
	add	r0, sp, #4
	bl	prvSampleTimeNow
.LVL89:
	.loc 1 552 3 is_stmt 1 view .LVU266
	.loc 1 552 31 is_stmt 0 view .LVU267
	ldr	r3, [sp, #4]
	.loc 1 552 5 view .LVU268
	cbnz	r3, .L74
	mov	r5, r0
	.loc 1 555 4 is_stmt 1 view .LVU269
	.loc 1 555 6 is_stmt 0 view .LVU270
	cbnz	r4, .L75
	.loc 1 555 50 discriminator 1 view .LVU271
	cmp	r0, r6
	bcs	.L79
.L75:
	.loc 1 568 5 is_stmt 1 view .LVU272
	.loc 1 568 7 is_stmt 0 view .LVU273
	cbz	r4, .L77
	.loc 1 572 6 is_stmt 1 view .LVU274
	.loc 1 572 64 is_stmt 0 view .LVU275
	ldr	r3, .L80
	ldr	r3, [r3]
	ldr	r4, [r3]
.LVL90:
	.loc 1 572 24 view .LVU276
	clz	r4, r4
	lsrs	r4, r4, #5
.LVL91:
.L77:
	.loc 1 575 5 is_stmt 1 view .LVU277
	mov	r2, r4
	subs	r1, r6, r5
	ldr	r3, .L80+4
	ldr	r0, [r3]
.LVL92:
	.loc 1 575 5 is_stmt 0 view .LVU278
	bl	vQueueWaitForMessageRestricted
.LVL93:
	.loc 1 577 5 is_stmt 1 view .LVU279
	.loc 1 577 9 is_stmt 0 view .LVU280
	bl	xTaskResumeAll
.LVL94:
	.loc 1 577 7 view .LVU281
	cbnz	r0, .L73
	.loc 1 583 6 is_stmt 1 view .LVU282
	.loc 1 583 11 view .LVU283
	.loc 1 583 61 is_stmt 0 view .LVU284
	ldr	r3, .L80+8
	mov	r2, #268435456
	str	r2, [r3, #4]
	.loc 1 583 77 is_stmt 1 view .LVU285
.LBB8:
.LBI8:
	.file 2 "../../../../../../components/toolchain/cmsis/include/cmsis_gcc.h"
	.loc 2 404 51 view .LVU286
.LBB9:
	.loc 2 406 3 view .LVU287
	.syntax unified
@ 406 "../../../../../../components/toolchain/cmsis/include/cmsis_gcc.h" 1
	sev
@ 0 "" 2
	.thumb
	.syntax unified
.LBE9:
.LBE8:
	.loc 1 583 86 view .LVU288
.LBB10:
.LBI10:
	.loc 2 427 51 view .LVU289
.LBB11:
	.loc 2 429 3 view .LVU290
	.syntax unified
@ 429 "../../../../../../components/toolchain/cmsis/include/cmsis_gcc.h" 1
	dsb 0xF
@ 0 "" 2
	.thumb
	.syntax unified
.LBE11:
.LBE10:
	.loc 1 583 95 view .LVU291
.LBB12:
.LBI12:
	.loc 2 416 51 view .LVU292
.LBB13:
	.loc 2 418 3 view .LVU293
	.syntax unified
@ 418 "../../../../../../components/toolchain/cmsis/include/cmsis_gcc.h" 1
	isb 0xF
@ 0 "" 2
	.loc 2 419 1 is_stmt 0 view .LVU294
	.thumb
	.syntax unified
	b	.L73
.LVL95:
.L79:
	.loc 2 419 1 view .LVU295
.LBE13:
.LBE12:
	.loc 1 557 5 is_stmt 1 view .LVU296
	.loc 1 557 14 is_stmt 0 view .LVU297
	bl	xTaskResumeAll
.LVL96:
	.loc 1 558 5 is_stmt 1 view .LVU298
	mov	r1, r5
	mov	r0, r6
	bl	prvProcessExpiredTimer
.LVL97:
	b	.L73
.LVL98:
.L74:
	.loc 1 593 4 view .LVU299
	.loc 1 593 13 is_stmt 0 view .LVU300
	bl	xTaskResumeAll
.LVL99:
.L73:
	.loc 1 596 1 view .LVU301
	add	sp, sp, #8
.LCFI24:
	@ sp needed
	pop	{r4, r5, r6, pc}
.LVL100:
.L81:
	.loc 1 596 1 view .LVU302
	.align	2
.L80:
	.word	.LANCHOR1
	.word	.LANCHOR2
	.word	-536810240
.LFE210:
	.size	prvProcessTimerOrBlockTask, .-prvProcessTimerOrBlockTask
	.section	.text.prvProcessReceivedCommands,"ax",%progbits
	.align	1
	.syntax unified
	.thumb
	.thumb_func
	.fpu fpv4-sp-d16
	.type	prvProcessReceivedCommands, %function
prvProcessReceivedCommands:
.LFB214:
	.loc 1 690 1 is_stmt 1 view -0
	@ args = 0, pretend = 0, frame = 24
	@ frame_needed = 0, uses_anonymous_args = 0
	push	{r4, r5, lr}
.LCFI25:
	sub	sp, sp, #36
.LCFI26:
	.loc 1 691 1 view .LVU304
	.loc 1 692 1 view .LVU305
	.loc 1 693 1 view .LVU306
	.loc 1 694 1 view .LVU307
	.loc 1 696 2 view .LVU308
	.loc 1 696 7 is_stmt 0 view .LVU309
	b	.L85
.L98:
.LBB14:
	.loc 1 704 5 is_stmt 1 discriminator 5 view .LVU310
.LVL101:
	.loc 1 708 5 discriminator 5 view .LVU311
	.loc 1 708 14 discriminator 5 view .LVU312
	.loc 1 708 160 discriminator 5 view .LVU313
	.loc 1 711 5 discriminator 5 view .LVU314
	ldr	r1, [sp, #28]
	ldr	r0, [sp, #24]
	ldr	r3, [sp, #20]
	blx	r3
.LVL102:
.L84:
	.loc 1 711 5 is_stmt 0 discriminator 5 view .LVU315
.LBE14:
	.loc 1 715 5 is_stmt 1 view .LVU316
	.loc 1 722 3 view .LVU317
	.loc 1 722 15 is_stmt 0 view .LVU318
	ldr	r3, [sp, #16]
	.loc 1 722 5 view .LVU319
	cmp	r3, #0
	bge	.L96
.L85:
	.loc 1 696 7 is_stmt 1 view .LVU320
	.loc 1 696 9 is_stmt 0 view .LVU321
	movs	r2, #0
	add	r1, sp, #16
	ldr	r3, .L100
	ldr	r0, [r3]
	bl	xQueueReceive
.LVL103:
	.loc 1 696 7 view .LVU322
	cmp	r0, #0
	beq	.L97
	.loc 1 702 4 is_stmt 1 view .LVU323
	.loc 1 702 16 is_stmt 0 view .LVU324
	ldr	r3, [sp, #16]
	.loc 1 702 6 view .LVU325
	cmp	r3, #0
	bge	.L84
	b	.L98
.L96:
	.loc 1 726 4 is_stmt 1 view .LVU326
	.loc 1 726 12 is_stmt 0 view .LVU327
	ldr	r4, [sp, #24]
.LVL104:
	.loc 1 728 4 is_stmt 1 view .LVU328
	.loc 1 728 59 is_stmt 0 view .LVU329
	ldr	r3, [r4, #20]
	.loc 1 728 6 view .LVU330
	cbz	r3, .L86
	.loc 1 731 5 is_stmt 1 view .LVU331
	.loc 1 731 14 is_stmt 0 view .LVU332
	adds	r0, r4, #4
	bl	uxListRemove
.LVL105:
.L86:
	.loc 1 735 5 is_stmt 1 view .LVU333
	.loc 1 738 4 view .LVU334
	.loc 1 746 4 view .LVU335
	.loc 1 746 15 is_stmt 0 view .LVU336
	add	r0, sp, #12
	bl	prvSampleTimeNow
.LVL106:
	mov	r5, r0
.LVL107:
	.loc 1 748 4 is_stmt 1 view .LVU337
	.loc 1 748 20 is_stmt 0 view .LVU338
	ldr	r3, [sp, #16]
	cmp	r3, #9
	bhi	.L85
	adr	r2, .L89
	ldr	pc, [r2, r3, lsl #2]
	.p2align 2
.L89:
	.word	.L90+1
	.word	.L90+1
	.word	.L90+1
	.word	.L85+1
	.word	.L88+1
	.word	.L91+1
	.word	.L90+1
	.word	.L90+1
	.word	.L85+1
	.word	.L88+1
	.p2align 1
.L90:
	.loc 1 756 6 is_stmt 1 view .LVU339
	.loc 1 756 74 is_stmt 0 view .LVU340
	ldr	r3, [sp, #20]
	.loc 1 756 98 view .LVU341
	ldr	r1, [r4, #24]
	.loc 1 756 10 view .LVU342
	mov	r2, r0
	add	r1, r1, r3
	mov	r0, r4
.LVL108:
	.loc 1 756 10 view .LVU343
	bl	prvInsertTimerInActiveList
.LVL109:
	.loc 1 756 8 view .LVU344
	cmp	r0, #0
	beq	.L85
	.loc 1 760 7 is_stmt 1 view .LVU345
	.loc 1 760 14 is_stmt 0 view .LVU346
	ldr	r3, [r4, #36]
	.loc 1 760 7 view .LVU347
	mov	r0, r4
	blx	r3
.LVL110:
	.loc 1 761 7 is_stmt 1 view .LVU348
	.loc 1 763 7 view .LVU349
	.loc 1 763 18 is_stmt 0 view .LVU350
	ldr	r3, [r4, #28]
	.loc 1 763 9 view .LVU351
	cmp	r3, #1
	bne	.L85
	.loc 1 765 8 is_stmt 1 view .LVU352
	.loc 1 765 122 is_stmt 0 view .LVU353
	ldr	r2, [r4, #24]
	.loc 1 765 18 view .LVU354
	movs	r1, #0
	str	r1, [sp]
	mov	r3, r1
	ldr	r0, [sp, #20]
	add	r2, r2, r0
	mov	r0, r4
	bl	xTimerGenericCommand
.LVL111:
	.loc 1 766 8 is_stmt 1 view .LVU355
	.loc 1 766 17 view .LVU356
	.loc 1 766 20 is_stmt 0 view .LVU357
	cmp	r0, #0
	bne	.L85
	.loc 1 766 41 is_stmt 1 discriminator 4 view .LVU358
	ldr	r1, .L100+4
	movw	r0, #766
.LVL112:
	.loc 1 766 41 is_stmt 0 discriminator 4 view .LVU359
	bl	assert_nrf_callback
.LVL113:
	b	.L85
.LVL114:
.L88:
	.loc 1 788 6 is_stmt 1 view .LVU360
	.loc 1 788 64 is_stmt 0 view .LVU361
	ldr	r3, [sp, #20]
	.loc 1 788 35 view .LVU362
	str	r3, [r4, #24]
	.loc 1 789 6 is_stmt 1 view .LVU363
	.loc 1 789 15 view .LVU364
	.loc 1 789 18 is_stmt 0 view .LVU365
	cbz	r3, .L99
.LVL115:
.L93:
	.loc 1 789 187 is_stmt 1 discriminator 5 view .LVU366
	.loc 1 797 6 discriminator 5 view .LVU367
	.loc 1 797 72 is_stmt 0 discriminator 5 view .LVU368
	ldr	r1, [r4, #24]
	.loc 1 797 15 discriminator 5 view .LVU369
	mov	r3, r5
	mov	r2, r5
	add	r1, r1, r5
	mov	r0, r4
	bl	prvInsertTimerInActiveList
.LVL116:
	.loc 1 798 6 is_stmt 1 discriminator 5 view .LVU370
	b	.L85
.LVL117:
.L99:
	.loc 1 789 68 discriminator 4 view .LVU371
	ldr	r1, .L100+4
	movw	r0, #789
.LVL118:
	.loc 1 789 68 is_stmt 0 discriminator 4 view .LVU372
	bl	assert_nrf_callback
.LVL119:
	b	.L93
.LVL120:
.L91:
	.loc 1 808 7 is_stmt 1 view .LVU373
	mov	r0, r4
.LVL121:
	.loc 1 808 7 is_stmt 0 view .LVU374
	bl	vPortFree
.LVL122:
	.loc 1 825 6 is_stmt 1 view .LVU375
	b	.L85
.LVL123:
.L97:
	.loc 1 833 1 is_stmt 0 view .LVU376
	add	sp, sp, #36
.LCFI27:
	@ sp needed
	pop	{r4, r5, pc}
.L101:
	.align	2
.L100:
	.word	.LANCHOR2
	.word	.LC1
.LFE214:
	.size	prvProcessReceivedCommands, .-prvProcessReceivedCommands
	.section	.text.prvTimerTask,"ax",%progbits
	.align	1
	.syntax unified
	.thumb
	.thumb_func
	.fpu fpv4-sp-d16
	.type	prvTimerTask, %function
prvTimerTask:
.LFB209:
	.loc 1 504 1 is_stmt 1 view -0
	@ args = 0, pretend = 0, frame = 8
	@ frame_needed = 0, uses_anonymous_args = 0
.LVL124:
	.loc 1 504 1 is_stmt 0 view .LVU378
	push	{lr}
.LCFI28:
	sub	sp, sp, #12
.LCFI29:
.LVL125:
.L103:
	.loc 1 505 1 is_stmt 1 discriminator 1 view .LVU379
	.loc 1 506 1 discriminator 1 view .LVU380
	.loc 1 509 2 discriminator 1 view .LVU381
	.loc 1 523 2 discriminator 1 view .LVU382
	.loc 1 527 3 discriminator 1 view .LVU383
	.loc 1 527 21 is_stmt 0 discriminator 1 view .LVU384
	add	r0, sp, #4
	bl	prvGetNextExpireTime
.LVL126:
	.loc 1 531 3 is_stmt 1 discriminator 1 view .LVU385
	ldr	r1, [sp, #4]
	bl	prvProcessTimerOrBlockTask
.LVL127:
	.loc 1 534 3 discriminator 1 view .LVU386
	bl	prvProcessReceivedCommands
.LVL128:
	.loc 1 523 8 discriminator 1 view .LVU387
	b	.L103
.LFE209:
	.size	prvTimerTask, .-prvTimerTask
	.section	.text.xTimerGetTimerDaemonTaskHandle,"ax",%progbits
	.align	1
	.global	xTimerGetTimerDaemonTaskHandle
	.syntax unified
	.thumb
	.thumb_func
	.fpu fpv4-sp-d16
	.type	xTimerGetTimerDaemonTaskHandle, %function
xTimerGetTimerDaemonTaskHandle:
.LFB204:
	.loc 1 426 1 view -0
	@ args = 0, pretend = 0, frame = 0
	@ frame_needed = 0, uses_anonymous_args = 0
	push	{r3, lr}
.LCFI30:
	.loc 1 429 2 view .LVU389
	.loc 1 429 11 view .LVU390
	.loc 1 429 34 is_stmt 0 view .LVU391
	ldr	r3, .L109
	ldr	r3, [r3]
	.loc 1 429 14 view .LVU392
	cbz	r3, .L108
.L106:
	.loc 1 429 134 is_stmt 1 discriminator 5 view .LVU393
	.loc 1 430 2 discriminator 5 view .LVU394
	.loc 1 431 1 is_stmt 0 discriminator 5 view .LVU395
	ldr	r3, .L109
	ldr	r0, [r3]
	pop	{r3, pc}
.L108:
	.loc 1 429 15 is_stmt 1 discriminator 4 view .LVU396
	ldr	r1, .L109+4
	movw	r0, #429
	bl	assert_nrf_callback
.LVL129:
	b	.L106
.L110:
	.align	2
.L109:
	.word	.LANCHOR5
	.word	.LC1
.LFE204:
	.size	xTimerGetTimerDaemonTaskHandle, .-xTimerGetTimerDaemonTaskHandle
	.section	.text.xTimerGetPeriod,"ax",%progbits
	.align	1
	.global	xTimerGetPeriod
	.syntax unified
	.thumb
	.thumb_func
	.fpu fpv4-sp-d16
	.type	xTimerGetPeriod, %function
xTimerGetPeriod:
.LVL130:
.LFB205:
	.loc 1 435 1 view -0
	@ args = 0, pretend = 0, frame = 0
	@ frame_needed = 0, uses_anonymous_args = 0
	.loc 1 435 1 is_stmt 0 view .LVU398
	push	{r4, lr}
.LCFI31:
	.loc 1 436 1 is_stmt 1 view .LVU399
.LVL131:
	.loc 1 438 2 view .LVU400
	.loc 1 438 11 view .LVU401
	.loc 1 438 14 is_stmt 0 view .LVU402
	mov	r4, r0
	cbz	r0, .L114
.LVL132:
.L112:
	.loc 1 438 153 is_stmt 1 discriminator 5 view .LVU403
	.loc 1 439 2 discriminator 5 view .LVU404
	.loc 1 440 1 is_stmt 0 discriminator 5 view .LVU405
	ldr	r0, [r4, #24]
	pop	{r4, pc}
.LVL133:
.L114:
	.loc 1 438 34 is_stmt 1 discriminator 4 view .LVU406
	ldr	r1, .L115
	mov	r0, #438
.LVL134:
	.loc 1 438 34 is_stmt 0 discriminator 4 view .LVU407
	bl	assert_nrf_callback
.LVL135:
	b	.L112
.L116:
	.align	2
.L115:
	.word	.LC1
.LFE205:
	.size	xTimerGetPeriod, .-xTimerGetPeriod
	.section	.text.xTimerGetExpiryTime,"ax",%progbits
	.align	1
	.global	xTimerGetExpiryTime
	.syntax unified
	.thumb
	.thumb_func
	.fpu fpv4-sp-d16
	.type	xTimerGetExpiryTime, %function
xTimerGetExpiryTime:
.LVL136:
.LFB206:
	.loc 1 444 1 is_stmt 1 view -0
	@ args = 0, pretend = 0, frame = 0
	@ frame_needed = 0, uses_anonymous_args = 0
	.loc 1 444 1 is_stmt 0 view .LVU409
	push	{r4, lr}
.LCFI32:
	.loc 1 445 1 is_stmt 1 view .LVU410
.LVL137:
	.loc 1 446 1 view .LVU411
	.loc 1 448 2 view .LVU412
	.loc 1 448 11 view .LVU413
	.loc 1 448 14 is_stmt 0 view .LVU414
	mov	r4, r0
	cbz	r0, .L120
.LVL138:
.L118:
	.loc 1 448 153 is_stmt 1 discriminator 5 view .LVU415
	.loc 1 449 2 discriminator 5 view .LVU416
	.loc 1 450 2 discriminator 5 view .LVU417
	.loc 1 451 1 is_stmt 0 discriminator 5 view .LVU418
	ldr	r0, [r4, #4]
	pop	{r4, pc}
.LVL139:
.L120:
	.loc 1 448 34 is_stmt 1 discriminator 4 view .LVU419
	ldr	r1, .L121
	mov	r0, #448
.LVL140:
	.loc 1 448 34 is_stmt 0 discriminator 4 view .LVU420
	bl	assert_nrf_callback
.LVL141:
	b	.L118
.L122:
	.align	2
.L121:
	.word	.LC1
.LFE206:
	.size	xTimerGetExpiryTime, .-xTimerGetExpiryTime
	.section	.text.pcTimerGetName,"ax",%progbits
	.align	1
	.global	pcTimerGetName
	.syntax unified
	.thumb
	.thumb_func
	.fpu fpv4-sp-d16
	.type	pcTimerGetName, %function
pcTimerGetName:
.LVL142:
.LFB207:
	.loc 1 455 1 is_stmt 1 view -0
	@ args = 0, pretend = 0, frame = 0
	@ frame_needed = 0, uses_anonymous_args = 0
	.loc 1 455 1 is_stmt 0 view .LVU422
	push	{r4, lr}
.LCFI33:
	.loc 1 456 1 is_stmt 1 view .LVU423
.LVL143:
	.loc 1 458 2 view .LVU424
	.loc 1 458 11 view .LVU425
	.loc 1 458 14 is_stmt 0 view .LVU426
	mov	r4, r0
	cbz	r0, .L126
.LVL144:
.L124:
	.loc 1 458 153 is_stmt 1 discriminator 5 view .LVU427
	.loc 1 459 2 discriminator 5 view .LVU428
	.loc 1 460 1 is_stmt 0 discriminator 5 view .LVU429
	ldr	r0, [r4]
	pop	{r4, pc}
.LVL145:
.L126:
	.loc 1 458 34 is_stmt 1 discriminator 4 view .LVU430
	ldr	r1, .L127
	mov	r0, #458
.LVL146:
	.loc 1 458 34 is_stmt 0 discriminator 4 view .LVU431
	bl	assert_nrf_callback
.LVL147:
	b	.L124
.L128:
	.align	2
.L127:
	.word	.LC1
.LFE207:
	.size	pcTimerGetName, .-pcTimerGetName
	.section	.text.xTimerIsTimerActive,"ax",%progbits
	.align	1
	.global	xTimerIsTimerActive
	.syntax unified
	.thumb
	.thumb_func
	.fpu fpv4-sp-d16
	.type	xTimerIsTimerActive, %function
xTimerIsTimerActive:
.LVL148:
.LFB217:
	.loc 1 947 1 is_stmt 1 view -0
	@ args = 0, pretend = 0, frame = 0
	@ frame_needed = 0, uses_anonymous_args = 0
	.loc 1 947 1 is_stmt 0 view .LVU433
	push	{r4, lr}
.LCFI34:
	.loc 1 948 1 is_stmt 1 view .LVU434
	.loc 1 949 1 view .LVU435
.LVL149:
	.loc 1 951 2 view .LVU436
	.loc 1 951 11 view .LVU437
	.loc 1 951 14 is_stmt 0 view .LVU438
	mov	r4, r0
	cbz	r0, .L132
.LVL150:
.L130:
	.loc 1 951 153 is_stmt 1 discriminator 5 view .LVU439
	.loc 1 954 2 discriminator 5 view .LVU440
	bl	vPortEnterCritical
.LVL151:
	.loc 1 959 3 discriminator 5 view .LVU441
	.loc 1 959 95 is_stmt 0 discriminator 5 view .LVU442
	ldr	r4, [r4, #20]
.LVL152:
	.loc 1 959 26 discriminator 5 view .LVU443
	subs	r4, r4, #0
	it	ne
	movne	r4, #1
.LVL153:
	.loc 1 961 2 is_stmt 1 discriminator 5 view .LVU444
	bl	vPortExitCritical
.LVL154:
	.loc 1 963 2 discriminator 5 view .LVU445
	.loc 1 964 1 is_stmt 0 discriminator 5 view .LVU446
	mov	r0, r4
	pop	{r4, pc}
.LVL155:
.L132:
	.loc 1 951 34 is_stmt 1 discriminator 4 view .LVU447
	ldr	r1, .L133
	movw	r0, #951
.LVL156:
	.loc 1 951 34 is_stmt 0 discriminator 4 view .LVU448
	bl	assert_nrf_callback
.LVL157:
	b	.L130
.L134:
	.align	2
.L133:
	.word	.LC1
.LFE217:
	.size	xTimerIsTimerActive, .-xTimerIsTimerActive
	.section	.text.pvTimerGetTimerID,"ax",%progbits
	.align	1
	.global	pvTimerGetTimerID
	.syntax unified
	.thumb
	.thumb_func
	.fpu fpv4-sp-d16
	.type	pvTimerGetTimerID, %function
pvTimerGetTimerID:
.LVL158:
.LFB218:
	.loc 1 968 1 is_stmt 1 view -0
	@ args = 0, pretend = 0, frame = 0
	@ frame_needed = 0, uses_anonymous_args = 0
	.loc 1 968 1 is_stmt 0 view .LVU450
	push	{r4, lr}
.LCFI35:
	.loc 1 969 1 is_stmt 1 view .LVU451
.LVL159:
	.loc 1 970 1 view .LVU452
	.loc 1 972 2 view .LVU453
	.loc 1 972 11 view .LVU454
	.loc 1 972 14 is_stmt 0 view .LVU455
	mov	r4, r0
	cbz	r0, .L138
.LVL160:
.L136:
	.loc 1 972 153 is_stmt 1 discriminator 5 view .LVU456
	.loc 1 974 2 discriminator 5 view .LVU457
	bl	vPortEnterCritical
.LVL161:
	.loc 1 976 3 discriminator 5 view .LVU458
	.loc 1 976 12 is_stmt 0 discriminator 5 view .LVU459
	ldr	r4, [r4, #32]
.LVL162:
	.loc 1 978 2 is_stmt 1 discriminator 5 view .LVU460
	bl	vPortExitCritical
.LVL163:
	.loc 1 980 2 discriminator 5 view .LVU461
	.loc 1 981 1 is_stmt 0 discriminator 5 view .LVU462
	mov	r0, r4
	pop	{r4, pc}
.LVL164:
.L138:
	.loc 1 972 34 is_stmt 1 discriminator 4 view .LVU463
	ldr	r1, .L139
	mov	r0, #972
.LVL165:
	.loc 1 972 34 is_stmt 0 discriminator 4 view .LVU464
	bl	assert_nrf_callback
.LVL166:
	b	.L136
.L140:
	.align	2
.L139:
	.word	.LC1
.LFE218:
	.size	pvTimerGetTimerID, .-pvTimerGetTimerID
	.section	.text.vTimerSetTimerID,"ax",%progbits
	.align	1
	.global	vTimerSetTimerID
	.syntax unified
	.thumb
	.thumb_func
	.fpu fpv4-sp-d16
	.type	vTimerSetTimerID, %function
vTimerSetTimerID:
.LVL167:
.LFB219:
	.loc 1 985 1 is_stmt 1 view -0
	@ args = 0, pretend = 0, frame = 0
	@ frame_needed = 0, uses_anonymous_args = 0
	.loc 1 985 1 is_stmt 0 view .LVU466
	push	{r3, r4, r5, lr}
.LCFI36:
	mov	r4, r1
	.loc 1 986 1 is_stmt 1 view .LVU467
.LVL168:
	.loc 1 988 2 view .LVU468
	.loc 1 988 11 view .LVU469
	.loc 1 988 14 is_stmt 0 view .LVU470
	mov	r5, r0
	cbz	r0, .L144
.LVL169:
.L142:
	.loc 1 988 153 is_stmt 1 discriminator 5 view .LVU471
	.loc 1 990 2 discriminator 5 view .LVU472
	bl	vPortEnterCritical
.LVL170:
	.loc 1 992 3 discriminator 5 view .LVU473
	.loc 1 992 22 is_stmt 0 discriminator 5 view .LVU474
	str	r4, [r5, #32]
	.loc 1 994 2 is_stmt 1 discriminator 5 view .LVU475
	bl	vPortExitCritical
.LVL171:
	.loc 1 995 1 is_stmt 0 discriminator 5 view .LVU476
	pop	{r3, r4, r5, pc}
.LVL172:
.L144:
	.loc 1 988 34 is_stmt 1 discriminator 4 view .LVU477
	ldr	r1, .L145
.LVL173:
	.loc 1 988 34 is_stmt 0 discriminator 4 view .LVU478
	mov	r0, #988
.LVL174:
	.loc 1 988 34 discriminator 4 view .LVU479
	bl	assert_nrf_callback
.LVL175:
	b	.L142
.L146:
	.align	2
.L145:
	.word	.LC1
.LFE219:
	.size	vTimerSetTimerID, .-vTimerSetTimerID
	.section	.text.xTimerPendFunctionCallFromISR,"ax",%progbits
	.align	1
	.global	xTimerPendFunctionCallFromISR
	.syntax unified
	.thumb
	.thumb_func
	.fpu fpv4-sp-d16
	.type	xTimerPendFunctionCallFromISR, %function
xTimerPendFunctionCallFromISR:
.LVL176:
.LFB220:
	.loc 1 1001 2 is_stmt 1 view -0
	@ args = 0, pretend = 0, frame = 16
	@ frame_needed = 0, uses_anonymous_args = 0
	.loc 1 1001 2 is_stmt 0 view .LVU481
	push	{r4, lr}
.LCFI37:
	sub	sp, sp, #16
.LCFI38:
	mov	r4, r2
	mov	r2, r3
.LVL177:
	.loc 1 1002 2 is_stmt 1 view .LVU482
	.loc 1 1003 2 view .LVU483
	.loc 1 1007 3 view .LVU484
	.loc 1 1007 23 is_stmt 0 view .LVU485
	mvn	r3, #1
.LVL178:
	.loc 1 1007 23 view .LVU486
	str	r3, [sp]
	.loc 1 1008 3 is_stmt 1 view .LVU487
	.loc 1 1008 53 is_stmt 0 view .LVU488
	str	r0, [sp, #4]
	.loc 1 1009 3 is_stmt 1 view .LVU489
	.loc 1 1009 47 is_stmt 0 view .LVU490
	str	r1, [sp, #8]
	.loc 1 1010 3 is_stmt 1 view .LVU491
	.loc 1 1010 47 is_stmt 0 view .LVU492
	str	r4, [sp, #12]
	.loc 1 1012 3 is_stmt 1 view .LVU493
	.loc 1 1012 13 is_stmt 0 view .LVU494
	movs	r3, #0
	mov	r1, sp
.LVL179:
	.loc 1 1012 13 view .LVU495
	ldr	r0, .L149
.LVL180:
	.loc 1 1012 13 view .LVU496
	ldr	r0, [r0]
	bl	xQueueGenericSendFromISR
.LVL181:
	.loc 1 1014 3 is_stmt 1 view .LVU497
	.loc 1 1016 3 view .LVU498
	.loc 1 1017 2 is_stmt 0 view .LVU499
	add	sp, sp, #16
.LCFI39:
	@ sp needed
	pop	{r4, pc}
.LVL182:
.L150:
	.loc 1 1017 2 view .LVU500
	.align	2
.L149:
	.word	.LANCHOR2
.LFE220:
	.size	xTimerPendFunctionCallFromISR, .-xTimerPendFunctionCallFromISR
	.section	.text.xTimerPendFunctionCall,"ax",%progbits
	.align	1
	.global	xTimerPendFunctionCall
	.syntax unified
	.thumb
	.thumb_func
	.fpu fpv4-sp-d16
	.type	xTimerPendFunctionCall, %function
xTimerPendFunctionCall:
.LVL183:
.LFB221:
	.loc 1 1025 2 is_stmt 1 view -0
	@ args = 0, pretend = 0, frame = 16
	@ frame_needed = 0, uses_anonymous_args = 0
	.loc 1 1025 2 is_stmt 0 view .LVU502
	push	{r4, r5, r6, r7, lr}
.LCFI40:
	sub	sp, sp, #20
.LCFI41:
	mov	r7, r0
	mov	r6, r1
	mov	r5, r2
	mov	r4, r3
	.loc 1 1026 2 is_stmt 1 view .LVU503
	.loc 1 1027 2 view .LVU504
	.loc 1 1032 3 view .LVU505
	.loc 1 1032 12 view .LVU506
	.loc 1 1032 16 is_stmt 0 view .LVU507
	ldr	r3, .L155
.LVL184:
	.loc 1 1032 16 view .LVU508
	ldr	r3, [r3]
	.loc 1 1032 15 view .LVU509
	cbz	r3, .L154
.LVL185:
.L152:
	.loc 1 1032 160 is_stmt 1 discriminator 5 view .LVU510
	.loc 1 1036 3 discriminator 5 view .LVU511
	.loc 1 1036 23 is_stmt 0 discriminator 5 view .LVU512
	mov	r3, #-1
	str	r3, [sp]
	.loc 1 1037 3 is_stmt 1 discriminator 5 view .LVU513
	.loc 1 1037 53 is_stmt 0 discriminator 5 view .LVU514
	str	r7, [sp, #4]
	.loc 1 1038 3 is_stmt 1 discriminator 5 view .LVU515
	.loc 1 1038 47 is_stmt 0 discriminator 5 view .LVU516
	str	r6, [sp, #8]
	.loc 1 1039 3 is_stmt 1 discriminator 5 view .LVU517
	.loc 1 1039 47 is_stmt 0 discriminator 5 view .LVU518
	str	r5, [sp, #12]
	.loc 1 1041 3 is_stmt 1 discriminator 5 view .LVU519
	.loc 1 1041 13 is_stmt 0 discriminator 5 view .LVU520
	movs	r3, #0
	mov	r2, r4
	mov	r1, sp
	ldr	r0, .L155
	ldr	r0, [r0]
	bl	xQueueGenericSend
.LVL186:
	.loc 1 1043 3 is_stmt 1 discriminator 5 view .LVU521
	.loc 1 1045 3 discriminator 5 view .LVU522
	.loc 1 1046 2 is_stmt 0 discriminator 5 view .LVU523
	add	sp, sp, #20
.LCFI42:
	@ sp needed
	pop	{r4, r5, r6, r7, pc}
.LVL187:
.L154:
.LCFI43:
	.loc 1 1032 40 is_stmt 1 discriminator 4 view .LVU524
	ldr	r1, .L155+4
.LVL188:
	.loc 1 1032 40 is_stmt 0 discriminator 4 view .LVU525
	mov	r0, #1032
.LVL189:
	.loc 1 1032 40 discriminator 4 view .LVU526
	bl	assert_nrf_callback
.LVL190:
	.loc 1 1032 40 discriminator 4 view .LVU527
	b	.L152
.L156:
	.align	2
.L155:
	.word	.LANCHOR2
	.word	.LC1
.LFE221:
	.size	xTimerPendFunctionCall, .-xTimerPendFunctionCall
	.section	.text.uxTimerGetTimerNumber,"ax",%progbits
	.align	1
	.global	uxTimerGetTimerNumber
	.syntax unified
	.thumb
	.thumb_func
	.fpu fpv4-sp-d16
	.type	uxTimerGetTimerNumber, %function
uxTimerGetTimerNumber:
.LVL191:
.LFB222:
	.loc 1 1054 2 is_stmt 1 view -0
	@ args = 0, pretend = 0, frame = 0
	@ frame_needed = 0, uses_anonymous_args = 0
	@ link register save eliminated.
	.loc 1 1055 3 view .LVU529
	.loc 1 1056 2 is_stmt 0 view .LVU530
	ldr	r0, [r0, #40]
.LVL192:
	.loc 1 1056 2 view .LVU531
	bx	lr
.LFE222:
	.size	uxTimerGetTimerNumber, .-uxTimerGetTimerNumber
	.section	.text.vTimerSetTimerNumber,"ax",%progbits
	.align	1
	.global	vTimerSetTimerNumber
	.syntax unified
	.thumb
	.thumb_func
	.fpu fpv4-sp-d16
	.type	vTimerSetTimerNumber, %function
vTimerSetTimerNumber:
.LVL193:
.LFB223:
	.loc 1 1064 2 is_stmt 1 view -0
	@ args = 0, pretend = 0, frame = 0
	@ frame_needed = 0, uses_anonymous_args = 0
	@ link register save eliminated.
	.loc 1 1065 3 view .LVU533
	.loc 1 1065 43 is_stmt 0 view .LVU534
	str	r1, [r0, #40]
	.loc 1 1066 2 view .LVU535
	bx	lr
.LFE223:
	.size	vTimerSetTimerNumber, .-vTimerSetTimerNumber
	.section	.bss.pxCurrentTimerList,"aw",%nobits
	.align	2
	.set	.LANCHOR0,. + 0
	.type	pxCurrentTimerList, %object
	.size	pxCurrentTimerList, 4
pxCurrentTimerList:
	.space	4
	.section	.bss.pxOverflowTimerList,"aw",%nobits
	.align	2
	.set	.LANCHOR1,. + 0
	.type	pxOverflowTimerList, %object
	.size	pxOverflowTimerList, 4
pxOverflowTimerList:
	.space	4
	.section	.bss.xActiveTimerList1,"aw",%nobits
	.align	2
	.set	.LANCHOR3,. + 0
	.type	xActiveTimerList1, %object
	.size	xActiveTimerList1, 20
xActiveTimerList1:
	.space	20
	.section	.bss.xActiveTimerList2,"aw",%nobits
	.align	2
	.set	.LANCHOR4,. + 0
	.type	xActiveTimerList2, %object
	.size	xActiveTimerList2, 20
xActiveTimerList2:
	.space	20
	.section	.bss.xLastTime.9098,"aw",%nobits
	.align	2
	.set	.LANCHOR6,. + 0
	.type	xLastTime.9098, %object
	.size	xLastTime.9098, 4
xLastTime.9098:
	.space	4
	.section	.bss.xTimerQueue,"aw",%nobits
	.align	2
	.set	.LANCHOR2,. + 0
	.type	xTimerQueue, %object
	.size	xTimerQueue, 4
xTimerQueue:
	.space	4
	.section	.bss.xTimerTaskHandle,"aw",%nobits
	.align	2
	.set	.LANCHOR5,. + 0
	.type	xTimerTaskHandle, %object
	.size	xTimerTaskHandle, 4
xTimerTaskHandle:
	.space	4
	.section	.debug_frame,"",%progbits
.Lframe0:
	.4byte	.LECIE0-.LSCIE0
.LSCIE0:
	.4byte	0xffffffff
	.byte	0x3
	.ascii	"\000"
	.uleb128 0x1
	.sleb128 -4
	.uleb128 0xe
	.byte	0xc
	.uleb128 0xd
	.uleb128 0
	.align	2
.LECIE0:
.LSFDE0:
	.4byte	.LEFDE0-.LASFDE0
.LASFDE0:
	.4byte	.Lframe0
	.4byte	.LFB211
	.4byte	.LFE211-.LFB211
	.align	2
.LEFDE0:
.LSFDE2:
	.4byte	.LEFDE2-.LASFDE2
.LASFDE2:
	.4byte	.Lframe0
	.4byte	.LFB213
	.4byte	.LFE213-.LFB213
	.byte	0x4
	.4byte	.LCFI0-.LFB213
	.byte	0xe
	.uleb128 0x8
	.byte	0x83
	.uleb128 0x2
	.byte	0x8e
	.uleb128 0x1
	.align	2
.LEFDE2:
.LSFDE4:
	.4byte	.LEFDE4-.LASFDE4
.LASFDE4:
	.4byte	.Lframe0
	.4byte	.LFB216
	.4byte	.LFE216-.LFB216
	.byte	0x4
	.4byte	.LCFI1-.LFB216
	.byte	0xe
	.uleb128 0x10
	.byte	0x83
	.uleb128 0x4
	.byte	0x84
	.uleb128 0x3
	.byte	0x85
	.uleb128 0x2
	.byte	0x8e
	.uleb128 0x1
	.align	2
.LEFDE4:
.LSFDE6:
	.4byte	.LEFDE6-.LASFDE6
.LASFDE6:
	.4byte	.Lframe0
	.4byte	.LFB202
	.4byte	.LFE202-.LFB202
	.byte	0x4
	.4byte	.LCFI2-.LFB202
	.byte	0xe
	.uleb128 0x18
	.byte	0x84
	.uleb128 0x6
	.byte	0x85
	.uleb128 0x5
	.byte	0x86
	.uleb128 0x4
	.byte	0x87
	.uleb128 0x3
	.byte	0x88
	.uleb128 0x2
	.byte	0x8e
	.uleb128 0x1
	.align	2
.LEFDE6:
.LSFDE8:
	.4byte	.LEFDE8-.LASFDE8
.LASFDE8:
	.4byte	.Lframe0
	.4byte	.LFB200
	.4byte	.LFE200-.LFB200
	.byte	0x4
	.4byte	.LCFI3-.LFB200
	.byte	0xe
	.uleb128 0x8
	.byte	0x84
	.uleb128 0x2
	.byte	0x8e
	.uleb128 0x1
	.byte	0x4
	.4byte	.LCFI4-.LCFI3
	.byte	0xe
	.uleb128 0x10
	.byte	0x4
	.4byte	.LCFI5-.LCFI4
	.byte	0xa
	.byte	0xe
	.uleb128 0x8
	.byte	0x4
	.4byte	.LCFI6-.LCFI5
	.byte	0xb
	.align	2
.LEFDE8:
.LSFDE10:
	.4byte	.LEFDE10-.LASFDE10
.LASFDE10:
	.4byte	.Lframe0
	.4byte	.LFB201
	.4byte	.LFE201-.LFB201
	.byte	0x4
	.4byte	.LCFI7-.LFB201
	.byte	0xe
	.uleb128 0x18
	.byte	0x84
	.uleb128 0x6
	.byte	0x85
	.uleb128 0x5
	.byte	0x86
	.uleb128 0x4
	.byte	0x87
	.uleb128 0x3
	.byte	0x88
	.uleb128 0x2
	.byte	0x8e
	.uleb128 0x1
	.byte	0x4
	.4byte	.LCFI8-.LCFI7
	.byte	0xe
	.uleb128 0x20
	.byte	0x4
	.4byte	.LCFI9-.LCFI8
	.byte	0xe
	.uleb128 0x18
	.align	2
.LEFDE10:
.LSFDE12:
	.4byte	.LEFDE12-.LASFDE12
.LASFDE12:
	.4byte	.Lframe0
	.4byte	.LFB203
	.4byte	.LFE203-.LFB203
	.byte	0x4
	.4byte	.LCFI10-.LFB203
	.byte	0xe
	.uleb128 0x14
	.byte	0x84
	.uleb128 0x5
	.byte	0x85
	.uleb128 0x4
	.byte	0x86
	.uleb128 0x3
	.byte	0x87
	.uleb128 0x2
	.byte	0x8e
	.uleb128 0x1
	.byte	0x4
	.4byte	.LCFI11-.LCFI10
	.byte	0xe
	.uleb128 0x28
	.byte	0x4
	.4byte	.LCFI12-.LCFI11
	.byte	0xa
	.byte	0xe
	.uleb128 0x14
	.byte	0x4
	.4byte	.LCFI13-.LCFI12
	.byte	0xb
	.align	2
.LEFDE12:
.LSFDE14:
	.4byte	.LEFDE14-.LASFDE14
.LASFDE14:
	.4byte	.Lframe0
	.4byte	.LFB215
	.4byte	.LFE215-.LFB215
	.byte	0x4
	.4byte	.LCFI14-.LFB215
	.byte	0xe
	.uleb128 0x10
	.byte	0x84
	.uleb128 0x4
	.byte	0x85
	.uleb128 0x3
	.byte	0x86
	.uleb128 0x2
	.byte	0x8e
	.uleb128 0x1
	.byte	0x4
	.4byte	.LCFI15-.LCFI14
	.byte	0xe
	.uleb128 0x18
	.byte	0x4
	.4byte	.LCFI16-.LCFI15
	.byte	0xe
	.uleb128 0x10
	.align	2
.LEFDE14:
.LSFDE16:
	.4byte	.LEFDE16-.LASFDE16
.LASFDE16:
	.4byte	.Lframe0
	.4byte	.LFB212
	.4byte	.LFE212-.LFB212
	.byte	0x4
	.4byte	.LCFI17-.LFB212
	.byte	0xe
	.uleb128 0x10
	.byte	0x83
	.uleb128 0x4
	.byte	0x84
	.uleb128 0x3
	.byte	0x85
	.uleb128 0x2
	.byte	0x8e
	.uleb128 0x1
	.align	2
.LEFDE16:
.LSFDE18:
	.4byte	.LEFDE18-.LASFDE18
.LASFDE18:
	.4byte	.Lframe0
	.4byte	.LFB208
	.4byte	.LFE208-.LFB208
	.byte	0x4
	.4byte	.LCFI18-.LFB208
	.byte	0xe
	.uleb128 0x10
	.byte	0x84
	.uleb128 0x4
	.byte	0x85
	.uleb128 0x3
	.byte	0x86
	.uleb128 0x2
	.byte	0x8e
	.uleb128 0x1
	.byte	0x4
	.4byte	.LCFI19-.LCFI18
	.byte	0xe
	.uleb128 0x18
	.byte	0x4
	.4byte	.LCFI20-.LCFI19
	.byte	0xa
	.byte	0xe
	.uleb128 0x10
	.byte	0x4
	.4byte	.LCFI21-.LCFI20
	.byte	0xb
	.align	2
.LEFDE18:
.LSFDE20:
	.4byte	.LEFDE20-.LASFDE20
.LASFDE20:
	.4byte	.Lframe0
	.4byte	.LFB210
	.4byte	.LFE210-.LFB210
	.byte	0x4
	.4byte	.LCFI22-.LFB210
	.byte	0xe
	.uleb128 0x10
	.byte	0x84
	.uleb128 0x4
	.byte	0x85
	.uleb128 0x3
	.byte	0x86
	.uleb128 0x2
	.byte	0x8e
	.uleb128 0x1
	.byte	0x4
	.4byte	.LCFI23-.LCFI22
	.byte	0xe
	.uleb128 0x18
	.byte	0x4
	.4byte	.LCFI24-.LCFI23
	.byte	0xe
	.uleb128 0x10
	.align	2
.LEFDE20:
.LSFDE22:
	.4byte	.LEFDE22-.LASFDE22
.LASFDE22:
	.4byte	.Lframe0
	.4byte	.LFB214
	.4byte	.LFE214-.LFB214
	.byte	0x4
	.4byte	.LCFI25-.LFB214
	.byte	0xe
	.uleb128 0xc
	.byte	0x84
	.uleb128 0x3
	.byte	0x85
	.uleb128 0x2
	.byte	0x8e
	.uleb128 0x1
	.byte	0x4
	.4byte	.LCFI26-.LCFI25
	.byte	0xe
	.uleb128 0x30
	.byte	0x4
	.4byte	.LCFI27-.LCFI26
	.byte	0xe
	.uleb128 0xc
	.align	2
.LEFDE22:
.LSFDE24:
	.4byte	.LEFDE24-.LASFDE24
.LASFDE24:
	.4byte	.Lframe0
	.4byte	.LFB209
	.4byte	.LFE209-.LFB209
	.byte	0x4
	.4byte	.LCFI28-.LFB209
	.byte	0xe
	.uleb128 0x4
	.byte	0x8e
	.uleb128 0x1
	.byte	0x4
	.4byte	.LCFI29-.LCFI28
	.byte	0xe
	.uleb128 0x10
	.align	2
.LEFDE24:
.LSFDE26:
	.4byte	.LEFDE26-.LASFDE26
.LASFDE26:
	.4byte	.Lframe0
	.4byte	.LFB204
	.4byte	.LFE204-.LFB204
	.byte	0x4
	.4byte	.LCFI30-.LFB204
	.byte	0xe
	.uleb128 0x8
	.byte	0x83
	.uleb128 0x2
	.byte	0x8e
	.uleb128 0x1
	.align	2
.LEFDE26:
.LSFDE28:
	.4byte	.LEFDE28-.LASFDE28
.LASFDE28:
	.4byte	.Lframe0
	.4byte	.LFB205
	.4byte	.LFE205-.LFB205
	.byte	0x4
	.4byte	.LCFI31-.LFB205
	.byte	0xe
	.uleb128 0x8
	.byte	0x84
	.uleb128 0x2
	.byte	0x8e
	.uleb128 0x1
	.align	2
.LEFDE28:
.LSFDE30:
	.4byte	.LEFDE30-.LASFDE30
.LASFDE30:
	.4byte	.Lframe0
	.4byte	.LFB206
	.4byte	.LFE206-.LFB206
	.byte	0x4
	.4byte	.LCFI32-.LFB206
	.byte	0xe
	.uleb128 0x8
	.byte	0x84
	.uleb128 0x2
	.byte	0x8e
	.uleb128 0x1
	.align	2
.LEFDE30:
.LSFDE32:
	.4byte	.LEFDE32-.LASFDE32
.LASFDE32:
	.4byte	.Lframe0
	.4byte	.LFB207
	.4byte	.LFE207-.LFB207
	.byte	0x4
	.4byte	.LCFI33-.LFB207
	.byte	0xe
	.uleb128 0x8
	.byte	0x84
	.uleb128 0x2
	.byte	0x8e
	.uleb128 0x1
	.align	2
.LEFDE32:
.LSFDE34:
	.4byte	.LEFDE34-.LASFDE34
.LASFDE34:
	.4byte	.Lframe0
	.4byte	.LFB217
	.4byte	.LFE217-.LFB217
	.byte	0x4
	.4byte	.LCFI34-.LFB217
	.byte	0xe
	.uleb128 0x8
	.byte	0x84
	.uleb128 0x2
	.byte	0x8e
	.uleb128 0x1
	.align	2
.LEFDE34:
.LSFDE36:
	.4byte	.LEFDE36-.LASFDE36
.LASFDE36:
	.4byte	.Lframe0
	.4byte	.LFB218
	.4byte	.LFE218-.LFB218
	.byte	0x4
	.4byte	.LCFI35-.LFB218
	.byte	0xe
	.uleb128 0x8
	.byte	0x84
	.uleb128 0x2
	.byte	0x8e
	.uleb128 0x1
	.align	2
.LEFDE36:
.LSFDE38:
	.4byte	.LEFDE38-.LASFDE38
.LASFDE38:
	.4byte	.Lframe0
	.4byte	.LFB219
	.4byte	.LFE219-.LFB219
	.byte	0x4
	.4byte	.LCFI36-.LFB219
	.byte	0xe
	.uleb128 0x10
	.byte	0x83
	.uleb128 0x4
	.byte	0x84
	.uleb128 0x3
	.byte	0x85
	.uleb128 0x2
	.byte	0x8e
	.uleb128 0x1
	.align	2
.LEFDE38:
.LSFDE40:
	.4byte	.LEFDE40-.LASFDE40
.LASFDE40:
	.4byte	.Lframe0
	.4byte	.LFB220
	.4byte	.LFE220-.LFB220
	.byte	0x4
	.4byte	.LCFI37-.LFB220
	.byte	0xe
	.uleb128 0x8
	.byte	0x84
	.uleb128 0x2
	.byte	0x8e
	.uleb128 0x1
	.byte	0x4
	.4byte	.LCFI38-.LCFI37
	.byte	0xe
	.uleb128 0x18
	.byte	0x4
	.4byte	.LCFI39-.LCFI38
	.byte	0xe
	.uleb128 0x8
	.align	2
.LEFDE40:
.LSFDE42:
	.4byte	.LEFDE42-.LASFDE42
.LASFDE42:
	.4byte	.Lframe0
	.4byte	.LFB221
	.4byte	.LFE221-.LFB221
	.byte	0x4
	.4byte	.LCFI40-.LFB221
	.byte	0xe
	.uleb128 0x14
	.byte	0x84
	.uleb128 0x5
	.byte	0x85
	.uleb128 0x4
	.byte	0x86
	.uleb128 0x3
	.byte	0x87
	.uleb128 0x2
	.byte	0x8e
	.uleb128 0x1
	.byte	0x4
	.4byte	.LCFI41-.LCFI40
	.byte	0xe
	.uleb128 0x28
	.byte	0x4
	.4byte	.LCFI42-.LCFI41
	.byte	0xa
	.byte	0xe
	.uleb128 0x14
	.byte	0x4
	.4byte	.LCFI43-.LCFI42
	.byte	0xb
	.align	2
.LEFDE42:
.LSFDE44:
	.4byte	.LEFDE44-.LASFDE44
.LASFDE44:
	.4byte	.Lframe0
	.4byte	.LFB222
	.4byte	.LFE222-.LFB222
	.align	2
.LEFDE44:
.LSFDE46:
	.4byte	.LEFDE46-.LASFDE46
.LASFDE46:
	.4byte	.Lframe0
	.4byte	.LFB223
	.4byte	.LFE223-.LFB223
	.align	2
.LEFDE46:
	.text
.Letext0:
	.file 3 "../../../../../../external/freertos/portable/CMSIS/nrf52/portmacro_cmsis.h"